	.file	"app_event.c"
	.option nopic
	.attribute arch, "rv32i2p0_m2p0_f2p0_c2p0"
	.attribute unaligned_access, 0
	.attribute stack_align, 16
	.text
.Ltext0:
	.cfi_sections	.debug_frame
	.section	.rodata.Event_GetName.str1.4,"aMS",@progbits,1
	.align	2
.LC0:
	.string	"UNKNOWN"
	.section	.text.Event_GetName,"ax",@progbits
	.align	1
	.globl	Event_GetName
	.type	Event_GetName, @function
Event_GetName:
.LFB3:
	.file 1 "/home/quanghaictu/intern/Ai-Thinker-WB2/datic/components/app/app_event/app_event.c"
	.loc 1 4 45
	.cfi_startproc
.LVL0:
	.loc 1 5 5
	.loc 1 4 45 is_stmt 0
	addi	sp,sp,-16
	.cfi_def_cfa_offset 16
	sw	s0,12(sp)
	.cfi_offset 8, -4
	addi	s0,sp,16
	.cfi_def_cfa 8, 0
	li	a5,10
	bgtu	a0,a5,.L3
	lui	a5,%hi(.LANCHOR0)
	slli	a0,a0,2
.LVL1:
	addi	a5,a5,%lo(.LANCHOR0)
	add	a0,a5,a0
	lw	a0,0(a0)
.L1:
	.loc 1 19 1
	lw	s0,12(sp)
	.cfi_remember_state
	.cfi_restore 8
	.cfi_def_cfa 2, 16
	addi	sp,sp,16
	.cfi_def_cfa_offset 0
	jr	ra
.LVL2:
.L3:
	.cfi_restore_state
	.loc 1 4 45
	lui	a0,%hi(.LC0)
.LVL3:
	addi	a0,a0,%lo(.LC0)
	j	.L1
	.cfi_endproc
.LFE3:
	.size	Event_GetName, .-Event_GetName
	.section	.rodata.str1.4,"aMS",@progbits,1
	.align	2
.LC1:
	.string	"NONE"
	.align	2
.LC2:
	.string	"CRED_FOUND"
	.align	2
.LC3:
	.string	"CRED_NOT_FOUND"
	.align	2
.LC4:
	.string	"BLE_CONFIG_DONE"
	.align	2
.LC5:
	.string	"WIFI_CONNECTED"
	.align	2
.LC6:
	.string	"WIFI_FAILED"
	.align	2
.LC7:
	.string	"WIFI_DISCONNECTED"
	.align	2
.LC8:
	.string	"MQTT_CONNECTED"
	.align	2
.LC9:
	.string	"MQTT_FAILED"
	.align	2
.LC10:
	.string	"MQTT_DISCONNECTED"
	.align	2
.LC11:
	.string	"BUTTON_HOLD"
	.section	.rodata.CSWTCH.1,"a"
	.align	2
	.set	.LANCHOR0,. + 0
	.type	CSWTCH.1, @object
	.size	CSWTCH.1, 44
CSWTCH.1:
	.word	.LC1
	.word	.LC2
	.word	.LC3
	.word	.LC4
	.word	.LC5
	.word	.LC6
	.word	.LC7
	.word	.LC8
	.word	.LC9
	.word	.LC10
	.word	.LC11
	.text
.Letext0:
	.file 2 "/home/quanghaictu/intern/Ai-Thinker-WB2/datic/components/app/app_event/app_event.h"