	.file	"test_utils_bitmap_window.c"
	.option nopic
	.attribute arch, "rv32i2p0_m2p0_f2p0_c2p0"
	.attribute unaligned_access, 0
	.attribute stack_align, 16
	.text
.Ltext0:
	.cfi_sections	.debug_frame
	.section	.rodata.cmd_bitmap_window_test.str1.4,"aMS",@progbits,1
	.align	2
.LC0:
	.string	"Set Seq 1 2 3 4 5 6 7...\r\n"
	.align	2
.LC1:
	.string	"  Got ssn %d(0) Bitmap %llx(0), ret %x\r\n"
	.align	2
.LC2:
	.string	"Set Seq 0 ...\r\n"
	.align	2
.LC3:
	.string	"  Got ssn %d(8) Bitmap %llx(0), ret %x\r\n"
	.align	2
.LC4:
	.string	"Set Seq 9 ...\r\n"
	.align	2
.LC5:
	.string	"  Got ssn %d(8) Bitmap %llx(2), ret %x\r\n"
	.align	2
.LC6:
	.string	"  Got ssn %d(8) Bitmap %llx(2), ret %d\r\n"
	.section	.text.cmd_bitmap_window_test,"ax",@progbits
	.align	1
	.type	cmd_bitmap_window_test, @function
cmd_bitmap_window_test:
.LFB3:
	.file 1 "/home/dinhquangha/intern/Ai-Thinker-WB2/components/utils/src/test/test_utils_bitmap_window.c"
	.loc 1 7 1
	.cfi_startproc
.LVL0:
	.loc 1 8 5
	.loc 1 9 5
	.loc 1 11 5
	.loc 1 7 1 is_stmt 0
	addi	sp,sp,-64
	.cfi_def_cfa_offset 64
	sw	ra,60(sp)
	sw	s0,56(sp)
	sw	s1,52(sp)
	.cfi_offset 1, -4
	.cfi_offset 8, -8
	.cfi_offset 9, -12
	addi	s0,sp,64
	.cfi_def_cfa 8, 0
	sw	s2,48(sp)
	sw	s3,44(sp)
	.loc 1 11 5
	li	a2,4096
.LVL1:
	addi	a2,a2,-1
	.loc 1 7 1
	.cfi_offset 18, -16
	.cfi_offset 19, -20
	.loc 1 11 5
	li	a1,0
.LVL2:
	addi	a0,s0,-48
.LVL3:
	call	utils_bitmap_window_init
.LVL4:
	.loc 1 13 5 is_stmt 1
	lui	a0,%hi(.LC0)
	addi	a0,a0,%lo(.LC0)
	call	printf
.LVL5:
	.loc 1 14 5
	li	a1,1
	addi	a0,s0,-48
	call	utils_bitmap_window_bit_set
.LVL6:
	.loc 1 15 5
	li	a1,2
	addi	a0,s0,-48
	call	utils_bitmap_window_bit_set
.LVL7:
	.loc 1 16 5
	li	a1,3
	addi	a0,s0,-48
	call	utils_bitmap_window_bit_set
.LVL8:
	.loc 1 17 5
	li	a1,4
	addi	a0,s0,-48
	call	utils_bitmap_window_bit_set
.LVL9:
	.loc 1 18 5
	li	a1,5
	addi	a0,s0,-48
	call	utils_bitmap_window_bit_set
.LVL10:
	.loc 1 19 5
	li	a1,6
	addi	a0,s0,-48
	call	utils_bitmap_window_bit_set
.LVL11:
	.loc 1 20 5
	.loc 1 20 11 is_stmt 0
	li	a1,7
	addi	a0,s0,-48
	call	utils_bitmap_window_bit_set
.LVL12:
	sw	a0,-52(s0)
.LVL13:
	.loc 1 21 5 is_stmt 1
	addi	a0,s0,-48
.LVL14:
	call	utils_bitmap_window_ssn_get
.LVL15:
	mv	s1,a0
	addi	a0,s0,-48
	call	utils_bitmap_window_map_get
.LVL16:
	lw	a4,-52(s0)
	mv	a2,a0
	lui	a0,%hi(.LC1)
	mv	a3,a1
	addi	a0,a0,%lo(.LC1)
	mv	a1,s1
	call	printf
.LVL17:
	.loc 1 27 5
	lui	s3,%hi(.LC2)
	addi	a0,s3,%lo(.LC2)
	call	printf
.LVL18:
	.loc 1 28 5
	.loc 1 28 11 is_stmt 0
	li	a1,0
	addi	a0,s0,-48
	call	utils_bitmap_window_bit_set
.LVL19:
	sw	a0,-52(s0)
.LVL20:
	.loc 1 29 5 is_stmt 1
	addi	a0,s0,-48
.LVL21:
	call	utils_bitmap_window_ssn_get
.LVL22:
	mv	s1,a0
	addi	a0,s0,-48
	call	utils_bitmap_window_map_get
.LVL23:
	lw	a4,-52(s0)
	lui	s2,%hi(.LC3)
	mv	a2,a0
	mv	a3,a1
	addi	a0,s2,%lo(.LC3)
	mv	a1,s1
	call	printf
.LVL24:
	.loc 1 35 5
	addi	a0,s3,%lo(.LC2)
	call	printf
.LVL25:
	.loc 1 36 5
	.loc 1 36 11 is_stmt 0
	li	a1,0
	addi	a0,s0,-48
	call	utils_bitmap_window_bit_set
.LVL26:
	sw	a0,-52(s0)
.LVL27:
	.loc 1 37 5 is_stmt 1
	addi	a0,s0,-48
.LVL28:
	call	utils_bitmap_window_ssn_get
.LVL29:
	mv	s1,a0
	addi	a0,s0,-48
	call	utils_bitmap_window_map_get
.LVL30:
	lw	a4,-52(s0)
	mv	a2,a0
	mv	a3,a1
	addi	a0,s2,%lo(.LC3)
	mv	a1,s1
	call	printf
.LVL31:
	.loc 1 43 5
	lui	s2,%hi(.LC4)
	addi	a0,s2,%lo(.LC4)
	call	printf
.LVL32:
	.loc 1 44 5
	.loc 1 44 11 is_stmt 0
	li	a1,9
	addi	a0,s0,-48
	call	utils_bitmap_window_bit_set
.LVL33:
	sw	a0,-52(s0)
.LVL34:
	.loc 1 45 5 is_stmt 1
	addi	a0,s0,-48
.LVL35:
	call	utils_bitmap_window_ssn_get
.LVL36:
	mv	s1,a0
	addi	a0,s0,-48
	call	utils_bitmap_window_map_get
.LVL37:
	lw	a4,-52(s0)
	mv	a2,a0
	lui	a0,%hi(.LC5)
	mv	a3,a1
	addi	a0,a0,%lo(.LC5)
	mv	a1,s1
	call	printf
.LVL38:
	.loc 1 51 5
	addi	a0,s2,%lo(.LC4)
	call	printf
.LVL39:
	.loc 1 52 5
	.loc 1 52 11 is_stmt 0
	li	a1,9
	addi	a0,s0,-48
	call	utils_bitmap_window_bit_set
.LVL40:
	sw	a0,-52(s0)
.LVL41:
	.loc 1 53 5 is_stmt 1
	addi	a0,s0,-48
.LVL42:
	call	utils_bitmap_window_ssn_get
.LVL43:
	mv	s1,a0
	addi	a0,s0,-48
	call	utils_bitmap_window_map_get
.LVL44:
	lw	a4,-52(s0)
	mv	a2,a0
	lui	a0,%hi(.LC6)
	mv	a3,a1
	addi	a0,a0,%lo(.LC6)
	mv	a1,s1
	call	printf
.LVL45:
	.loc 1 59 1 is_stmt 0
	lw	ra,60(sp)
	.cfi_restore 1
	lw	s0,56(sp)
	.cfi_restore 8
	.cfi_def_cfa 2, 64
.LVL46:
	lw	s1,52(sp)
	.cfi_restore 9
	lw	s2,48(sp)
	.cfi_restore 18
	lw	s3,44(sp)
	.cfi_restore 19
	addi	sp,sp,64
	.cfi_def_cfa_offset 0
	jr	ra
	.cfi_endproc
.LFE3:
	.size	cmd_bitmap_window_test, .-cmd_bitmap_window_test
	.section	.text.utils_bitmap_window_cli_init,"ax",@progbits
	.align	1
	.globl	utils_bitmap_window_cli_init
	.type	utils_bitmap_window_cli_init, @function
utils_bitmap_window_cli_init:
.LFB4:
	.loc 1 66 1 is_stmt 1
	.cfi_startproc
	.loc 1 71 5
	.loc 1 66 1 is_stmt 0
	addi	sp,sp,-16
	.cfi_def_cfa_offset 16
	sw	s0,12(sp)
	.cfi_offset 8, -4
	addi	s0,sp,16
	.cfi_def_cfa 8, 0
	.loc 1 72 1
	lw	s0,12(sp)
	.cfi_restore 8
	.cfi_def_cfa 2, 16
	li	a0,0
	addi	sp,sp,16
	.cfi_def_cfa_offset 0
	jr	ra
	.cfi_endproc
.LFE4:
	.size	utils_bitmap_window_cli_init, .-utils_bitmap_window_cli_init
	.section	.rodata.str1.4,"aMS",@progbits,1
	.align	2
.LC7:
	.string	"utils_bitmap_widow_test"
	.align	2
.LC8:
	.string	"bitmap window test"
	.section	.static_cli_cmds,"a"
	.align	2
	.type	cmds_user, @object
	.size	cmds_user, 12
cmds_user:
	.word	.LC7
	.word	.LC8
	.word	cmd_bitmap_window_test
	.text
.Letext0:
	.file 2 "/home/dinhquangha/intern/Ai-Thinker-WB2/toolchain/riscv/Linux/lib/gcc/riscv64-unknown-elf/10.2.0/include/stdint-gcc.h"
	.file 3 "/home/dinhquangha/intern/Ai-Thinker-WB2/components/utils/include/utils_bitmap_window.h"
	.file 4 "/home/dinhquangha/intern/Ai-Thinker-WB2/components/stage/cli/cli/include/cli.h"
	.file 5 "/home/dinhquangha/intern/Ai-Thinker-WB2/toolchain/riscv/Linux/riscv64-unknown-elf/include/stdio.h"