	.file	"bl_platform.c"
	.option nopic
	.attribute arch, "rv32i2p0_m2p0_f2p0_c2p0"
	.attribute unaligned_access, 0
	.attribute stack_align, 16
	.text
.Ltext0:
	.cfi_sections	.debug_frame
	.section	.text.bl_platform_on,"ax",@progbits
	.align	1
	.globl	bl_platform_on
	.type	bl_platform_on, @function
bl_platform_on:
.LFB79:
	.file 1 "/home/quanghaictu/intern/Ai-Thinker-WB2/components/network/wifi_manager/bl60x_wifi_driver/bl_platform.c"
	.loc 1 31 1
	.cfi_startproc
.LVL0:
	.loc 1 32 5
	.loc 1 34 5
	.loc 1 31 1 is_stmt 0
	addi	sp,sp,-16
	.cfi_def_cfa_offset 16
	sw	s0,8(sp)
	sw	ra,12(sp)
	.cfi_offset 8, -8
	.cfi_offset 1, -4
	addi	s0,sp,16
	.cfi_def_cfa 8, 0
	.loc 1 34 15
	lui	a1,%hi(ipc_shared_env)
	addi	a4,a1,%lo(ipc_shared_env)
	.loc 1 31 1
	.loc 1 34 15
	lui	a5,%hi(ipc_shenv)
	.loc 1 35 11
	addi	a1,a1,%lo(ipc_shared_env)
	.loc 1 34 15
	sw	a4,%lo(ipc_shenv)(a5)
	.loc 1 35 5 is_stmt 1
	.loc 1 35 11 is_stmt 0
	call	bl_ipc_init
.LVL1:
	.loc 1 36 5 is_stmt 1
	.loc 1 36 8 is_stmt 0
	bne	a0,zero,.L1
	.loc 1 41 5 is_stmt 1
.LVL2:
.LBB4:
.LBB5:
	.file 2 "/home/quanghaictu/intern/Ai-Thinker-WB2/components/network/wifi_manager/bl60x_wifi_driver/reg_ipc_app.h"
	.loc 2 136 5
	.loc 2 136 70 is_stmt 0
	li	a5,1149239296
	li	a4,-1
	sw	a4,8(a5)
.LVL3:
.LBE5:
.LBE4:
	.loc 1 46 5 is_stmt 1
.L1:
	.loc 1 47 1 is_stmt 0
	lw	ra,12(sp)
	.cfi_restore 1
	lw	s0,8(sp)
	.cfi_restore 8
	.cfi_def_cfa 2, 16
	addi	sp,sp,16
	.cfi_def_cfa_offset 0
	jr	ra
	.cfi_endproc
.LFE79:
	.size	bl_platform_on, .-bl_platform_on
	.section	.text.bl_platform_off,"ax",@progbits
	.align	1
	.globl	bl_platform_off
	.type	bl_platform_off, @function
bl_platform_off:
.LFB80:
	.loc 1 50 1 is_stmt 1
	.cfi_startproc
.LVL4:
	.loc 1 51 5
	.loc 1 50 1 is_stmt 0
	addi	sp,sp,-16
	.cfi_def_cfa_offset 16
	sw	s0,12(sp)
	.cfi_offset 8, -4
	addi	s0,sp,16
	.cfi_def_cfa 8, 0
	.loc 1 56 1
	lw	s0,12(sp)
	.cfi_restore 8
	.cfi_def_cfa 2, 16
	.loc 1 51 5
	lw	a0,52(a0)
.LVL5:
	li	a1,2047
	.loc 1 56 1
	addi	sp,sp,16
	.cfi_def_cfa_offset 0
	.loc 1 51 5
	tail	ipc_host_disable_irq
.LVL6:
	.cfi_endproc
.LFE80:
	.size	bl_platform_off, .-bl_platform_off
	.comm	ipc_shenv,4,4
	.comm	cfg_start_req_u_tlv_t,12,4
	.text
.Letext0:
	.file 3 "/home/quanghaictu/intern/Ai-Thinker-WB2/toolchain/riscv/Linux/lib/gcc/riscv64-unknown-elf/10.2.0/include/stdint-gcc.h"
	.file 4 "/home/quanghaictu/intern/Ai-Thinker-WB2/components/os/bl_os_adapter/bl_os_adapter/include/bl_os_adapter/bl_os_type.h"
	.file 5 "/home/quanghaictu/intern/Ai-Thinker-WB2/components/network/wifi/include/bl60x_fw_api.h"
	.file 6 "/home/quanghaictu/intern/Ai-Thinker-WB2/components/network/wifi_manager/bl60x_wifi_driver/lmac_types.h"
	.file 7 "/home/quanghaictu/intern/Ai-Thinker-WB2/components/network/wifi_manager/bl60x_wifi_driver/lmac_mac.h"
	.file 8 "/home/quanghaictu/intern/Ai-Thinker-WB2/components/network/wifi_manager/bl60x_wifi_driver/ipc_shared.h"
	.file 9 "/home/quanghaictu/intern/Ai-Thinker-WB2/components/network/wifi_manager/bl60x_wifi_driver/ipc_host.h"
	.file 10 "/home/quanghaictu/intern/Ai-Thinker-WB2/components/network/wifi_manager/bl60x_wifi_driver/list.h"
	.file 11 "/home/quanghaictu/intern/Ai-Thinker-WB2/components/network/lwip/src/include/lwip/arch.h"
	.file 12 "/home/quanghaictu/intern/Ai-Thinker-WB2/components/network/lwip/src/include/lwip/err.h"
	.file 13 "/home/quanghaictu/intern/Ai-Thinker-WB2/components/network/lwip/src/include/lwip/ip4_addr.h"
	.file 14 "/home/quanghaictu/intern/Ai-Thinker-WB2/components/network/lwip/src/include/lwip/ip_addr.h"
	.file 15 "/home/quanghaictu/intern/Ai-Thinker-WB2/components/network/lwip/src/include/lwip/pbuf.h"
	.file 16 "/home/quanghaictu/intern/Ai-Thinker-WB2/components/network/lwip/src/include/lwip/memp.h"
	.file 17 "/home/quanghaictu/intern/Ai-Thinker-WB2/components/network/lwip/src/include/lwip/netif.h"
	.file 18 "/home/quanghaictu/intern/Ai-Thinker-WB2/components/platform/hosal/bl602_hal/bl_pm.h"
	.file 19 "/home/quanghaictu/intern/Ai-Thinker-WB2/components/network/wifi_manager/bl60x_wifi_driver/lmac_msg.h"
	.file 20 "/home/quanghaictu/intern/Ai-Thinker-WB2/components/network/wifi_manager/bl60x_wifi_driver/bl_cmds.h"
	.file 21 "/home/quanghaictu/intern/Ai-Thinker-WB2/components/network/wifi_manager/bl60x_wifi_driver/bl_defs.h"
	.file 22 "/home/quanghaictu/intern/Ai-Thinker-WB2/components/network/wifi_manager/bl60x_wifi_driver/ieee80211.h"
	.file 23 "/home/quanghaictu/intern/Ai-Thinker-WB2/components/network/wifi_manager/bl60x_wifi_driver/cfg80211.h"
	.file 24 "/home/quanghaictu/intern/Ai-Thinker-WB2/components/network/wifi_manager/bl60x_wifi_driver/bl_mod_params.h"
	.file 25 "/home/quanghaictu/intern/Ai-Thinker-WB2/components/network/wifi_manager/bl60x_wifi_driver/bl_utils.h"