	.file	"bl_rx.c"
	.option nopic
	.attribute arch, "rv32i2p0_m2p0_f2p0_c2p0"
	.attribute unaligned_access, 0
	.attribute stack_align, 16
	.text
.Ltext0:
	.cfi_sections	.debug_frame
	.section	.text.bl_comman_ind,"ax",@progbits
	.align	1
	.type	bl_comman_ind, @function
bl_comman_ind:
.LFB76:
	.file 1 "/home/dinhquangha/Ai-Thinker-WB2/components/network/wifi_manager/bl60x_wifi_driver/bl_rx.c"
	.loc 1 278 1
	.cfi_startproc
.LVL0:
	.loc 1 279 5
	.loc 1 279 9
	.loc 1 279 17
	.loc 1 280 5
	.loc 1 280 9
	.loc 1 280 17
	.loc 1 281 5
	.loc 1 278 1 is_stmt 0
	addi	sp,sp,-16
	.cfi_def_cfa_offset 16
	sw	s0,12(sp)
	.cfi_offset 8, -4
	addi	s0,sp,16
	.cfi_def_cfa 8, 0
	.loc 1 282 1
	lw	s0,12(sp)
	.cfi_restore 8
	.cfi_def_cfa 2, 16
	li	a0,0
.LVL1:
	addi	sp,sp,16
	.cfi_def_cfa_offset 0
	jr	ra
	.cfi_endproc
.LFE76:
	.size	bl_comman_ind, .-bl_comman_ind
	.section	.text.bl_rx_rssi_status_ind,"ax",@progbits
	.align	1
	.type	bl_rx_rssi_status_ind, @function
bl_rx_rssi_status_ind:
.LFB77:
	.loc 1 286 1 is_stmt 1
	.cfi_startproc
.LVL2:
	.loc 1 287 5
	.loc 1 289 5
	.loc 1 289 9
	.loc 1 289 17
	.loc 1 292 5
	.loc 1 292 9 is_stmt 0
	lui	a5,%hi(.LANCHOR0)
	lw	a5,%lo(.LANCHOR0)(a5)
	.loc 1 292 8
	beq	a5,zero,.L9
	.loc 1 293 9 is_stmt 1
	.loc 1 286 1 is_stmt 0
	addi	sp,sp,-16
	.cfi_def_cfa_offset 16
	sw	s0,8(sp)
	sw	ra,12(sp)
	.cfi_offset 8, -8
	.cfi_offset 1, -4
	addi	s0,sp,16
	.cfi_def_cfa 8, 0
	.loc 1 293 9
	lui	a4,%hi(.LANCHOR1)
	lw	a0,%lo(.LANCHOR1)(a4)
.LVL3:
	lb	a1,18(a2)
.LVL4:
	jalr	a5
.LVL5:
	.loc 1 296 5 is_stmt 1
	.loc 1 296 9
	.loc 1 296 17
	.loc 1 297 5
	.loc 1 298 1 is_stmt 0
	lw	ra,12(sp)
	.cfi_restore 1
	lw	s0,8(sp)
	.cfi_restore 8
	.cfi_def_cfa 2, 16
	li	a0,0
	addi	sp,sp,16
	.cfi_def_cfa_offset 0
	jr	ra
.LVL6:
.L9:
	.loc 1 296 5 is_stmt 1
	.loc 1 296 9
	.loc 1 296 17
	.loc 1 297 5
	.loc 1 298 1 is_stmt 0
	li	a0,0
.LVL7:
	ret
	.cfi_endproc
.LFE77:
	.size	bl_rx_rssi_status_ind, .-bl_rx_rssi_status_ind
	.section	.rodata.bl_rx_apm_sta_add_ind.str1.4,"aMS",@progbits,1
	.align	2
.LC0:
	.string	"[WF] APM_STA_ADD_IND\r\n"
	.align	2
.LC1:
	.string	"[WF]    flags %08X\r\n"
	.align	2
.LC2:
	.string	"[WF]    MAC %02X:%02X:%02X:%02X:%02X:%02X\r\n"
	.align	2
.LC3:
	.string	"[WF]    tsflo: 0x%lx\r\n"
	.align	2
.LC4:
	.string	"bl_rx.c"
	.align	2
.LC5:
	.string	"[WF]    tsfhi: 0x%lx\r\n"
	.align	2
.LC6:
	.string	"[WF]    rssi: %d\r\n"
	.align	2
.LC7:
	.string	"[WF]    data rate: 0x%x\r\n"
	.align	2
.LC8:
	.string	"[WF]    vif_idx %u\r\n"
	.align	2
.LC9:
	.string	"[WF]    sta_idx %u\r\n"
	.align	2
.LC10:
	.string	"-------------------------Warning: sta_idx already used: %d\r\n"
	.align	2
.LC11:
	.string	"[WF]    ------ Potential illegal sta_idx\r\n"
	.section	.text.bl_rx_apm_sta_add_ind,"ax",@progbits
	.align	1
	.type	bl_rx_apm_sta_add_ind, @function
bl_rx_apm_sta_add_ind:
.LFB91:
	.loc 1 748 1 is_stmt 1
	.cfi_startproc
.LVL8:
	.loc 1 749 5
	.loc 1 748 1 is_stmt 0
	addi	sp,sp,-32
	.cfi_def_cfa_offset 32
	sw	ra,28(sp)
	sw	s0,24(sp)
	sw	s1,20(sp)
	.cfi_offset 1, -4
	.cfi_offset 8, -8
	.cfi_offset 9, -12
	addi	s0,sp,32
	.cfi_def_cfa 8, 0
	sw	s2,16(sp)
	sw	s3,12(sp)
	sw	s4,8(sp)
	sw	s5,4(sp)
	.cfi_offset 18, -16
	.cfi_offset 19, -20
	.cfi_offset 20, -24
	.cfi_offset 21, -28
	.loc 1 752 19
	lui	s3,%hi(g_bl_ops_funcs)
	addi	s3,s3,%lo(g_bl_ops_funcs)
	.loc 1 748 1
	.loc 1 752 5
	lw	a5,4(s3)
	.loc 1 748 1
	mv	s2,a0
	.loc 1 752 5
	lui	a0,%hi(.LC0)
.LVL9:
	addi	a0,a0,%lo(.LC0)
	.loc 1 748 1
	mv	s1,a2
.LVL10:
	.loc 1 750 5 is_stmt 1
	.loc 1 752 5
	jalr	a5
.LVL11:
	.loc 1 753 5
	lw	a5,4(s3)
	lw	a1,16(s1)
	lui	a0,%hi(.LC1)
	addi	a0,a0,%lo(.LC1)
	jalr	a5
.LVL12:
	.loc 1 754 5
	lw	a7,4(s3)
	lbu	a6,25(s1)
	lbu	a5,24(s1)
	lbu	a4,23(s1)
	lbu	a3,22(s1)
	lbu	a2,21(s1)
	lbu	a1,20(s1)
	lui	a0,%hi(.LC2)
	addi	a0,a0,%lo(.LC2)
	jalr	a7
.LVL13:
	.loc 1 762 5
	lw	a6,204(s3)
	lw	a5,32(s1)
	lui	s5,%hi(.LC4)
	lui	a4,%hi(.LC3)
	addi	a4,a4,%lo(.LC3)
	li	a3,762
	addi	a2,s5,%lo(.LC4)
	li	a1,0
	li	a0,2
	jalr	a6
.LVL14:
	.loc 1 762 62
	.loc 1 763 5
	lw	a6,204(s3)
	lw	a5,36(s1)
	lui	a4,%hi(.LC5)
	addi	a4,a4,%lo(.LC5)
	li	a3,763
	addi	a2,s5,%lo(.LC4)
	li	a1,0
	li	a0,2
	jalr	a6
.LVL15:
	.loc 1 763 62
	.loc 1 764 5
	lw	a6,204(s3)
	lb	a5,28(s1)
	lui	a4,%hi(.LC6)
	addi	a4,a4,%lo(.LC6)
	li	a3,764
	addi	a2,s5,%lo(.LC4)
	li	a1,0
	li	a0,2
	jalr	a6
.LVL16:
	.loc 1 764 57
	.loc 1 765 5
	lw	a6,204(s3)
	lbu	a5,40(s1)
	lui	a4,%hi(.LC7)
	addi	a4,a4,%lo(.LC7)
	li	a3,765
	addi	a2,s5,%lo(.LC4)
	li	a1,0
	li	a0,2
	jalr	a6
.LVL17:
	.loc 1 765 69
	.loc 1 767 5
	lw	a5,4(s3)
	lbu	a1,26(s1)
	lui	a0,%hi(.LC8)
	addi	a0,a0,%lo(.LC8)
	jalr	a5
.LVL18:
	.loc 1 768 5
	lw	a5,4(s3)
	lbu	a1,27(s1)
	lui	a0,%hi(.LC9)
	addi	a0,a0,%lo(.LC9)
	jalr	a5
.LVL19:
	.loc 1 769 5
	.loc 1 769 12 is_stmt 0
	lbu	s4,27(s1)
	.loc 1 769 8
	li	a5,6
	bgtu	s4,a5,.L13
	.loc 1 770 9 is_stmt 1
.LVL20:
	.loc 1 771 9
	.loc 1 771 16 is_stmt 0
	li	a5,24
	mul	a5,s4,a5
	add	a5,s2,a5
	.loc 1 771 12
	lbu	a5,266(a5)
	beq	a5,zero,.L14
	.loc 1 772 13 is_stmt 1
	lw	a6,204(s3)
	lui	a4,%hi(.LC10)
	mv	a5,s4
	addi	a4,a4,%lo(.LC10)
	li	a3,772
	addi	a2,s5,%lo(.LC4)
	li	a1,0
	li	a0,2
	jalr	a6
.LVL21:
.L14:
	.loc 1 772 110 discriminator 1
	.loc 1 774 9 discriminator 1
	.loc 1 774 29 is_stmt 0 discriminator 1
	li	a5,24
	mul	s4,s4,a5
.LVL22:
	.loc 1 774 9 discriminator 1
	li	a2,6
	addi	a1,s1,20
	.loc 1 774 29 discriminator 1
	addi	a0,s4,260
	.loc 1 774 9 discriminator 1
	add	a0,s2,a0
	call	memcpy
.LVL23:
	.loc 1 775 9 is_stmt 1 discriminator 1
	.loc 1 775 27 is_stmt 0 discriminator 1
	lbu	a4,27(s1)
	.loc 1 775 22 discriminator 1
	add	a5,s2,s4
	sb	a4,267(a5)
	.loc 1 776 9 is_stmt 1 discriminator 1
	.loc 1 776 27 is_stmt 0 discriminator 1
	lbu	a4,26(s1)
	.loc 1 776 22 discriminator 1
	sb	a4,268(a5)
	.loc 1 777 9 is_stmt 1 discriminator 1
	.loc 1 777 22 is_stmt 0 discriminator 1
	li	a4,1
	sb	a4,266(a5)
	.loc 1 778 9 is_stmt 1 discriminator 1
	.loc 1 778 24 is_stmt 0 discriminator 1
	lb	a4,28(s1)
	.loc 1 778 19 discriminator 1
	sb	a4,271(a5)
	.loc 1 779 9 is_stmt 1 discriminator 1
	.loc 1 779 25 is_stmt 0 discriminator 1
	lw	a4,32(s1)
	.loc 1 779 20 discriminator 1
	sw	a4,276(a5)
	.loc 1 780 9 is_stmt 1 discriminator 1
	.loc 1 780 25 is_stmt 0 discriminator 1
	lw	a4,36(s1)
	.loc 1 780 20 discriminator 1
	sw	a4,280(a5)
	.loc 1 781 9 is_stmt 1 discriminator 1
	.loc 1 781 29 is_stmt 0 discriminator 1
	lbu	a4,40(s1)
	.loc 1 781 24 discriminator 1
	sb	a4,272(a5)
.L15:
	.loc 1 785 5 is_stmt 1
	lbu	a2,27(s1)
	li	a1,21
	li	a0,2
	call	aos_post_event
.LVL24:
	.loc 1 787 5
	.loc 1 788 1 is_stmt 0
	lw	ra,28(sp)
	.cfi_remember_state
	.cfi_restore 1
	lw	s0,24(sp)
	.cfi_restore 8
	.cfi_def_cfa 2, 32
	lw	s1,20(sp)
	.cfi_restore 9
.LVL25:
	lw	s2,16(sp)
	.cfi_restore 18
.LVL26:
	lw	s3,12(sp)
	.cfi_restore 19
	lw	s4,8(sp)
	.cfi_restore 20
	lw	s5,4(sp)
	.cfi_restore 21
	li	a0,0
	addi	sp,sp,32
	.cfi_def_cfa_offset 0
	jr	ra
.LVL27:
.L13:
	.cfi_restore_state
	.loc 1 783 9 is_stmt 1
	lw	a5,4(s3)
	lui	a0,%hi(.LC11)
	addi	a0,a0,%lo(.LC11)
	jalr	a5
.LVL28:
	j	.L15
	.cfi_endproc
.LFE91:
	.size	bl_rx_apm_sta_add_ind, .-bl_rx_apm_sta_add_ind
	.section	.text.notify_event_scan_done,"ax",@progbits
	.align	1
	.type	notify_event_scan_done, @function
notify_event_scan_done:
.LFB74:
	.loc 1 246 1
	.cfi_startproc
.LVL29:
	.loc 1 247 5
	.loc 1 248 5
	.loc 1 249 5
	.loc 1 251 5
	.loc 1 246 1 is_stmt 0
	addi	sp,sp,-32
	.cfi_def_cfa_offset 32
	sw	ra,28(sp)
	sw	s0,24(sp)
	sw	s1,20(sp)
	.cfi_offset 1, -4
	.cfi_offset 8, -8
	.cfi_offset 9, -12
	addi	s0,sp,32
	.cfi_def_cfa 8, 0
.LVL30:
	.loc 1 252 5 is_stmt 1
	.loc 1 253 5
	.loc 1 246 1 is_stmt 0
	mv	s1,a0
	.loc 1 253 5
	li	a2,4
	li	a1,0
	.loc 1 246 1
	.loc 1 253 5
	addi	a0,s0,-24
.LVL31:
	call	memset
.LVL32:
	.loc 1 254 5 is_stmt 1
	li	a2,4
	li	a1,0
	addi	a0,s0,-20
.LVL33:
	call	memset
.LVL34:
	.loc 1 256 5
	.loc 1 257 18 is_stmt 0
	li	a5,257
	sw	a5,-20(s0)
	.loc 1 260 9
	lui	a5,%hi(.LANCHOR2)
	lw	a5,%lo(.LANCHOR2)(a5)
	.loc 1 256 31
	addi	s1,s1,1
.LVL35:
	.loc 1 256 15
	sw	s1,-24(s0)
	.loc 1 257 5 is_stmt 1
	.loc 1 260 5
	.loc 1 260 8 is_stmt 0
	beq	a5,zero,.L20
	.loc 1 261 9 is_stmt 1
	lui	a4,%hi(.LANCHOR3)
	lw	a0,%lo(.LANCHOR3)(a4)
	addi	a1,s0,-24
.LVL36:
	jalr	a5
.LVL37:
.L20:
	.loc 1 263 1 is_stmt 0
	lw	ra,28(sp)
	.cfi_restore 1
	lw	s0,24(sp)
	.cfi_restore 8
	.cfi_def_cfa 2, 32
.LVL38:
	lw	s1,20(sp)
	.cfi_restore 9
.LVL39:
	addi	sp,sp,32
	.cfi_def_cfa_offset 0
	jr	ra
	.cfi_endproc
.LFE74:
	.size	notify_event_scan_done, .-notify_event_scan_done
	.section	.text.bl_rx_scanu_join_cfm,"ax",@progbits
	.align	1
	.type	bl_rx_scanu_join_cfm, @function
bl_rx_scanu_join_cfm:
.LFB79:
	.loc 1 335 1 is_stmt 1
	.cfi_startproc
.LVL40:
	.loc 1 336 5
	.loc 1 335 1 is_stmt 0
	addi	sp,sp,-16
	.cfi_def_cfa_offset 16
	sw	s0,8(sp)
	sw	ra,12(sp)
	.cfi_offset 8, -8
	.cfi_offset 1, -4
	addi	s0,sp,16
	.cfi_def_cfa 8, 0
	.loc 1 336 5
	li	a0,1
.LVL41:
	call	notify_event_scan_done
.LVL42:
	.loc 1 338 5 is_stmt 1
	.loc 1 339 1 is_stmt 0
	lw	ra,12(sp)
	.cfi_restore 1
	lw	s0,8(sp)
	.cfi_restore 8
	.cfi_def_cfa 2, 16
	li	a0,0
	addi	sp,sp,16
	.cfi_def_cfa_offset 0
	jr	ra
	.cfi_endproc
.LFE79:
	.size	bl_rx_scanu_join_cfm, .-bl_rx_scanu_join_cfm
	.section	.text.bl_rx_scanu_start_cfm,"ax",@progbits
	.align	1
	.type	bl_rx_scanu_start_cfm, @function
bl_rx_scanu_start_cfm:
.LFB78:
	.loc 1 312 1 is_stmt 1
	.cfi_startproc
.LVL43:
	.loc 1 313 5
	.loc 1 313 9
	.loc 1 313 17
	.loc 1 328 5
	.loc 1 312 1 is_stmt 0
	addi	sp,sp,-16
	.cfi_def_cfa_offset 16
	sw	s0,8(sp)
	sw	ra,12(sp)
	.cfi_offset 8, -8
	.cfi_offset 1, -4
	addi	s0,sp,16
	.cfi_def_cfa 8, 0
	.loc 1 328 5
	li	a0,0
.LVL44:
	call	notify_event_scan_done
.LVL45:
	.loc 1 329 5 is_stmt 1
	.loc 1 329 9
	.loc 1 329 17
	.loc 1 331 5
	.loc 1 332 1 is_stmt 0
	lw	ra,12(sp)
	.cfi_restore 1
	lw	s0,8(sp)
	.cfi_restore 8
	.cfi_def_cfa 2, 16
	li	a0,0
	addi	sp,sp,16
	.cfi_def_cfa_offset 0
	jr	ra
	.cfi_endproc
.LFE78:
	.size	bl_rx_scanu_start_cfm, .-bl_rx_scanu_start_cfm
	.section	.text.bl_rx_chan_switch_ind,"ax",@progbits
	.align	1
	.type	bl_rx_chan_switch_ind, @function
bl_rx_chan_switch_ind:
.LFB75:
	.loc 1 267 1 is_stmt 1
	.cfi_startproc
.LVL46:
	.loc 1 268 5
	.loc 1 270 5
	.loc 1 270 9
	.loc 1 270 17
	.loc 1 271 5
	.loc 1 267 1 is_stmt 0
	addi	sp,sp,-32
	.cfi_def_cfa_offset 32
	sw	ra,28(sp)
	sw	s0,24(sp)
	sw	s1,20(sp)
	.cfi_offset 1, -4
	.cfi_offset 8, -8
	.cfi_offset 9, -12
	addi	s0,sp,32
	.cfi_def_cfa 8, 0
	.loc 1 271 5
	lbu	s1,16(a2)
.LVL47:
.LBB23:
.LBB24:
	.loc 1 227 5 is_stmt 1
	.loc 1 228 5
	.loc 1 229 5
	.loc 1 231 5
	.loc 1 232 5
	.loc 1 233 5
	li	a1,0
.LVL48:
	li	a2,4
.LVL49:
	addi	a0,s0,-24
.LVL50:
	call	memset
.LVL51:
	.loc 1 234 5
	li	a2,4
	li	a1,0
	addi	a0,s0,-20
.LVL52:
	call	memset
.LVL53:
	.loc 1 236 5
	.loc 1 240 9 is_stmt 0
	lui	a5,%hi(.LANCHOR2)
	lw	a5,%lo(.LANCHOR2)(a5)
	.loc 1 236 15
	sw	zero,-24(s0)
	.loc 1 237 5 is_stmt 1
	.loc 1 237 18 is_stmt 0
	sw	s1,-20(s0)
	.loc 1 240 5 is_stmt 1
	.loc 1 240 8 is_stmt 0
	beq	a5,zero,.L31
	.loc 1 241 9 is_stmt 1
	lui	a4,%hi(.LANCHOR3)
	lw	a0,%lo(.LANCHOR3)(a4)
	addi	a1,s0,-24
.LVL54:
	jalr	a5
.LVL55:
.L31:
.LBE24:
.LBE23:
	.loc 1 272 5
	.loc 1 272 9
	.loc 1 272 17
	.loc 1 273 5
	.loc 1 274 1 is_stmt 0
	lw	ra,28(sp)
	.cfi_restore 1
	lw	s0,24(sp)
	.cfi_restore 8
	.cfi_def_cfa 2, 32
.LVL56:
	lw	s1,20(sp)
	.cfi_restore 9
	li	a0,0
	addi	sp,sp,32
	.cfi_def_cfa_offset 0
	jr	ra
	.cfi_endproc
.LFE75:
	.size	bl_rx_chan_switch_ind, .-bl_rx_chan_switch_ind
	.section	.text._rx_handle_beacon,"ax",@progbits
	.align	1
	.type	_rx_handle_beacon, @function
_rx_handle_beacon:
.LFB83:
	.loc 1 400 1 is_stmt 1
	.cfi_startproc
.LVL57:
	.loc 1 401 5
	.loc 1 402 5
	.loc 1 403 5
	.loc 1 404 5
	.loc 1 405 5
	.loc 1 407 5
	.loc 1 400 1 is_stmt 0
	addi	sp,sp,-192
	.cfi_def_cfa_offset 192
	sw	s0,184(sp)
	sw	s1,180(sp)
	sw	s2,176(sp)
	sw	s3,172(sp)
	sw	s4,168(sp)
	sw	s5,164(sp)
	sw	s6,160(sp)
	.cfi_offset 8, -8
	.cfi_offset 9, -12
	.cfi_offset 18, -16
	.cfi_offset 19, -20
	.cfi_offset 20, -24
	.cfi_offset 21, -28
	.cfi_offset 22, -32
	addi	s0,sp,192
	.cfi_def_cfa 8, 0
	sw	ra,188(sp)
	sw	s7,156(sp)
	mv	s2,a0
	mv	s3,a1
	.cfi_offset 1, -4
	.cfi_offset 23, -36
	.loc 1 407 5
	li	a2,64
	li	a1,0
.LVL58:
	addi	a0,s0,-112
.LVL59:
	call	memset
.LVL60:
	.loc 1 409 5 is_stmt 1
	.loc 1 410 23 is_stmt 0
	lhu	s1,0(s2)
	.loc 1 409 31
	addi	s4,s3,36
	.loc 1 409 19
	mv	s6,s4
.LVL61:
	.loc 1 410 5 is_stmt 1
	.loc 1 412 5
	mv	s5,s4
.LBB36:
.LBB37:
	.loc 1 345 7 is_stmt 0
	li	a5,0
.LVL62:
.L37:
	.loc 1 346 11 is_stmt 1
	ble	s1,a5,.L39
	.loc 1 348 9
	.loc 1 348 12 is_stmt 0
	lbu	a4,0(s5)
	.loc 1 349 23
	lbu	a2,1(s5)
	.loc 1 348 12
	bne	a4,zero,.L38
	.loc 1 349 13 is_stmt 1
	.loc 1 349 16 is_stmt 0
	li	a5,32
.LVL63:
	bgtu	a2,a5,.L39
	.loc 1 352 13 is_stmt 1
	.loc 1 353 13 is_stmt 0
	addi	a1,s5,2
	addi	a0,s0,-102
.LVL64:
	.loc 1 352 31
	sw	a2,-56(s0)
	.loc 1 353 13 is_stmt 1
	call	memcpy
.LVL65:
	.loc 1 354 13
	.loc 1 354 26 is_stmt 0
	lbu	a5,1(s5)
	.loc 1 354 31
	addi	a4,s0,-48
	add	a5,a4,a5
	sb	zero,-54(a5)
	.loc 1 355 13 is_stmt 1
.L39:
.LVL66:
.LBE37:
.LBE36:
	.loc 1 413 5
	lhu	a3,0(s2)
.LVL67:
.LBB39:
.LBB40:
	.loc 1 370 7 is_stmt 0
	li	a4,0
	.loc 1 373 12
	li	a2,3
.LVL68:
.L41:
	.loc 1 371 11 is_stmt 1
	ble	a3,a4,.L43
	.loc 1 373 9
	.loc 1 373 12 is_stmt 0
	lbu	a1,0(s4)
	.loc 1 374 23
	lbu	a5,1(s4)
	.loc 1 373 12
	bne	a1,a2,.L42
	.loc 1 374 13 is_stmt 1
	.loc 1 374 16 is_stmt 0
	li	a4,32
.LVL69:
	bgtu	a5,a4,.L43
	.loc 1 377 13 is_stmt 1
	.loc 1 377 21 is_stmt 0
	lbu	a5,2(s4)
	sb	a5,-66(s0)
	.loc 1 378 13 is_stmt 1
.L43:
.LVL70:
.LBE40:
.LBE39:
	.loc 1 415 5
	.loc 1 415 17 is_stmt 0
	addi	s1,s1,-36
.LVL71:
	slli	s1,s1,16
.LVL72:
	srli	s1,s1,16
	lui	a2,%hi(.LC12)
	li	a3,4
	addi	a2,a2,%lo(.LC12)
	mv	a1,s1
	mv	a0,s6
	call	mac_vsie_find
.LVL73:
	.loc 1 416 5 is_stmt 1
	.loc 1 416 8 is_stmt 0
	snez	a0,a0
.LVL74:
	sb	a0,-52(s0)
	.loc 1 430 5 is_stmt 1
	.loc 1 430 9 is_stmt 0
	li	a2,45
	mv	a1,s1
	mv	a0,s6
	call	mac_ie_find
.LVL75:
	.loc 1 432 22
	li	a5,13
	.loc 1 430 8
	bne	a0,zero,.L96
	.loc 1 434 10 is_stmt 1
	.loc 1 434 14 is_stmt 0
	li	a2,50
	mv	a1,s1
	mv	a0,s6
	call	mac_ie_find
.LVL76:
	.loc 1 436 22
	li	a5,5
	.loc 1 434 13
	bne	a0,zero,.L96
	.loc 1 440 9 is_stmt 1
	.loc 1 440 22 is_stmt 0
	li	a5,1
.L96:
	sw	a5,-112(s0)
	.loc 1 443 5 is_stmt 1
	.loc 1 443 9 is_stmt 0
	lhu	a5,34(s3)
	.loc 1 443 8
	andi	a5,a5,16
	beq	a5,zero,.L48
.LBB42:
	.loc 1 444 9 is_stmt 1
	.loc 1 451 21 is_stmt 0
	li	a2,48
	mv	a1,s1
	mv	a0,s6
	.loc 1 444 24
	sw	zero,-184(s0)
	sw	zero,-180(s0)
	.loc 1 445 9 is_stmt 1
.LVL77:
	.loc 1 446 9
	.loc 1 447 8
	.loc 1 448 8
	.loc 1 451 9
	.loc 1 451 21 is_stmt 0
	call	mac_ie_find
.LVL78:
	mv	s4,a0
.LVL79:
	.loc 1 452 9 is_stmt 1
	.loc 1 445 13 is_stmt 0
	li	s5,0
	.loc 1 452 12
	beq	a0,zero,.L49
	.loc 1 453 13 is_stmt 1
.LVL80:
.LBB43:
.LBB44:
	.loc 1 393 5
.LBE44:
.LBE43:
	.loc 1 453 30 is_stmt 0
	lbu	s7,1(a0)
	.loc 1 454 13
	addi	s5,s0,-144
	li	a2,32
	li	a1,0
	mv	a0,s5
.LVL81:
	call	memset
.LVL82:
	.loc 1 453 57
	addi	s7,s7,2
.LVL83:
	.loc 1 454 13 is_stmt 1
	.loc 1 455 13
	mv	a2,s5
	mv	a1,s7
	mv	a0,s4
	call	wpa_parse_wpa_ie_wrapper
.LVL84:
	.loc 1 456 13
	.loc 1 456 48 is_stmt 0
	sw	s5,-184(s0)
	.loc 1 456 44
	li	s5,1
.LVL85:
.L49:
	.loc 1 459 9 is_stmt 1
	.loc 1 459 21 is_stmt 0
	lui	a2,%hi(.LC13)
	li	a3,4
	addi	a2,a2,%lo(.LC13)
	mv	a1,s1
	mv	a0,s6
	call	mac_vsie_find
.LVL86:
	.loc 1 460 9 is_stmt 1
	.loc 1 460 12 is_stmt 0
	beq	a0,zero,.L50
	.loc 1 461 13 is_stmt 1
.LVL87:
.LBB45:
.LBB46:
	.loc 1 393 5
.LBE46:
.LBE45:
	.loc 1 462 13
	.loc 1 461 30 is_stmt 0
	lbu	a1,1(a0)
	.loc 1 462 13
	addi	s1,s0,-176
	mv	a2,s1
	addi	a1,a1,2
.LVL88:
	call	wpa_parse_wpa_ie_wrapper
.LVL89:
	.loc 1 463 13 is_stmt 1
	.loc 1 463 48 is_stmt 0
	slli	a5,s5,2
	addi	a4,s0,-48
	add	a5,a4,a5
	sw	s1,-136(a5)
	.loc 1 463 44
	addi	s5,s5,1
.LVL90:
.L50:
	.loc 1 466 9 is_stmt 1
	addi	t1,s0,-184
	.loc 1 448 33 is_stmt 0
	li	a1,0
	.loc 1 448 13
	li	a3,0
	.loc 1 447 27
	li	a4,0
	.loc 1 447 13
	li	a5,0
	.loc 1 466 16
	li	a7,0
.LBB47:
	.loc 1 473 16
	li	t2,1
	.loc 1 475 23
	li	t6,2
	.loc 1 482 34
	li	s1,6
	.loc 1 479 38
	li	s4,7
	.loc 1 477 34
	li	a0,3
.LBB48:
	.loc 1 498 20
	li	t3,5
	.loc 1 493 20
	li	t4,4
.LVL91:
.L51:
.LBE48:
.LBE47:
	.loc 1 466 21 is_stmt 1 discriminator 1
	.loc 1 466 9 is_stmt 0 discriminator 1
	bne	s5,a7,.L64
	.loc 1 505 9 is_stmt 1
	.loc 1 505 12 is_stmt 0
	li	a2,2
	bne	s5,a2,.L65
	.loc 1 506 13 is_stmt 1
	.loc 1 506 26 is_stmt 0
	li	a2,4
	sb	a2,-65(s0)
.L66:
	.loc 1 513 9 is_stmt 1
	.loc 1 513 12 is_stmt 0
	beq	a4,zero,.L67
	.loc 1 514 13 is_stmt 1
	.loc 1 514 28 is_stmt 0
	li	a4,2
.LVL92:
	sb	a4,-64(s0)
	.loc 1 516 9 is_stmt 1
	.loc 1 516 12 is_stmt 0
	bne	a5,zero,.L68
.LVL93:
.L69:
	.loc 1 522 9 is_stmt 1
	.loc 1 522 12 is_stmt 0
	beq	a1,zero,.L71
	.loc 1 523 13 is_stmt 1
	.loc 1 523 34 is_stmt 0
	li	a5,2
	sb	a5,-51(s0)
	.loc 1 525 9 is_stmt 1
	.loc 1 529 34 is_stmt 0
	li	a5,4
	.loc 1 525 12
	bne	a3,zero,.L99
.LVL94:
.L75:
.LBE42:
	.loc 1 536 5 is_stmt 1
	.loc 1 536 18 is_stmt 0
	lbu	a5,24(s2)
	.loc 1 545 5
	lui	a4,%hi(.LANCHOR4)
	lw	a0,%lo(.LANCHOR4)(a4)
	.loc 1 536 18
	sb	a5,-69(s0)
	.loc 1 537 5 is_stmt 1
	.loc 1 537 21 is_stmt 0
	lbu	a5,25(s2)
	.loc 1 545 5
	addi	a1,s0,-112
	.loc 1 537 21
	sb	a5,-68(s0)
	.loc 1 538 5 is_stmt 1
	.loc 1 538 21 is_stmt 0
	lbu	a5,26(s2)
	sb	a5,-67(s0)
	.loc 1 539 5 is_stmt 1
	.loc 1 540 5
	.loc 1 541 5
	.loc 1 542 5
	.loc 1 543 5
	.loc 1 544 5
	.loc 1 539 22 is_stmt 0
	lhu	a5,16(s3)
	sh	a5,-108(s0)
	.loc 1 541 22
	lhu	a5,18(s3)
	sh	a5,-106(s0)
	.loc 1 543 22
	lhu	a5,20(s3)
	sh	a5,-104(s0)
	.loc 1 545 5 is_stmt 1
	lui	a5,%hi(.LANCHOR5)
	lw	a5,%lo(.LANCHOR5)(a5)
	jalr	a5
.LVL95:
	.loc 1 546 1 is_stmt 0
	lw	ra,188(sp)
	.cfi_remember_state
	.cfi_restore 1
	lw	s0,184(sp)
	.cfi_restore 8
	.cfi_def_cfa 2, 192
	lw	s1,180(sp)
	.cfi_restore 9
	lw	s2,176(sp)
	.cfi_restore 18
.LVL96:
	lw	s3,172(sp)
	.cfi_restore 19
.LVL97:
	lw	s4,168(sp)
	.cfi_restore 20
	lw	s5,164(sp)
	.cfi_restore 21
	lw	s6,160(sp)
	.cfi_restore 22
.LVL98:
	lw	s7,156(sp)
	.cfi_restore 23
	addi	sp,sp,192
	.cfi_def_cfa_offset 0
	jr	ra
.LVL99:
.L38:
	.cfi_restore_state
.LBB56:
.LBB38:
	.loc 1 358 13 is_stmt 1
	.loc 1 358 28 is_stmt 0
	addi	a2,a2,2
	.loc 1 358 15
	add	a5,a5,a2
.LVL100:
	.loc 1 359 13 is_stmt 1
	.loc 1 359 20 is_stmt 0
	add	s5,s5,a2
.LVL101:
	j	.L37
.LVL102:
.L42:
.LBE38:
.LBE56:
.LBB57:
.LBB41:
	.loc 1 381 13 is_stmt 1
	.loc 1 381 28 is_stmt 0
	addi	a5,a5,2
	.loc 1 381 15
	add	a4,a4,a5
.LVL103:
	.loc 1 382 13 is_stmt 1
	.loc 1 382 20 is_stmt 0
	add	s4,s4,a5
.LVL104:
	j	.L41
.LVL105:
.L64:
.LBE41:
.LBE57:
.LBB58:
.LBB53:
	.loc 1 467 13 is_stmt 1
	.loc 1 467 28 is_stmt 0
	lw	a6,0(t1)
.LVL106:
	.loc 1 468 13 is_stmt 1
	.loc 1 473 19 is_stmt 0
	lw	t0,0(a6)
	.loc 1 468 17
	lw	t5,4(a6)
.LVL107:
	.loc 1 469 13 is_stmt 1
	.loc 1 469 17 is_stmt 0
	lw	a2,8(a6)
.LVL108:
	.loc 1 470 13 is_stmt 1
	.loc 1 471 13
	.loc 1 473 13
	.loc 1 473 16 is_stmt 0
	bne	t0,t2,.L52
	.loc 1 474 17 is_stmt 1
	.loc 1 474 30 is_stmt 0
	sb	t6,-65(s0)
.LVL109:
.L53:
	.loc 1 486 13 is_stmt 1
	.loc 1 486 25
.LBB49:
	.loc 1 487 17
	.loc 1 488 17
	.loc 1 488 20 is_stmt 0
	beq	t5,a0,.L58
	.loc 1 493 17 is_stmt 1
	.loc 1 493 20 is_stmt 0
	bne	t5,t4,.L59
	.loc 1 494 21 is_stmt 1
.LVL110:
	.loc 1 495 21
	.loc 1 495 24 is_stmt 0
	bne	a2,t4,.L93
.LVL111:
.L84:
	.loc 1 496 36
	li	a1,1
.LVL112:
	li	a4,1
.LVL113:
.L60:
.LBE49:
	.loc 1 486 67 is_stmt 1 discriminator 2
	.loc 1 486 25 discriminator 2
.LBE53:
	.loc 1 466 44 discriminator 2
	addi	a7,a7,1
.LVL114:
	addi	t1,t1,4
.LVL115:
	j	.L51
.LVL116:
.L52:
.LBB54:
	.loc 1 475 20
	.loc 1 475 23 is_stmt 0
	bne	t0,t6,.L53
	.loc 1 476 17 is_stmt 1
	.loc 1 476 23 is_stmt 0
	lw	a6,12(a6)
.LVL117:
	.loc 1 478 38
	andi	t0,a6,1024
	.loc 1 476 34
	andi	a6,a6,258
	.loc 1 476 20
	beq	a6,zero,.L55
	.loc 1 477 21 is_stmt 1
	.loc 1 478 21
	.loc 1 478 24 is_stmt 0
	bne	t0,zero,.L56
	.loc 1 477 34
	sb	a0,-65(s0)
	j	.L53
.L56:
	.loc 1 479 25 is_stmt 1
	.loc 1 479 38 is_stmt 0
	sb	s4,-65(s0)
	j	.L53
.L55:
	.loc 1 481 24 is_stmt 1
	.loc 1 481 27 is_stmt 0
	beq	t0,zero,.L53
	.loc 1 482 21 is_stmt 1
	.loc 1 482 34 is_stmt 0
	sb	s1,-65(s0)
	j	.L53
.LVL118:
.L59:
.LBB50:
	.loc 1 498 17 is_stmt 1
	.loc 1 498 20 is_stmt 0
	bne	t5,t3,.L62
	.loc 1 499 21 is_stmt 1
.LVL119:
	.loc 1 500 21
	.loc 1 500 24 is_stmt 0
	beq	a2,t3,.L81
	.loc 1 499 33
	li	a4,1
	.loc 1 499 26
	li	a5,1
.LVL120:
.L62:
.LBE50:
	.loc 1 486 67 is_stmt 1
	.loc 1 486 25
.LBB51:
	.loc 1 487 17
	.loc 1 488 17
	.loc 1 488 20 is_stmt 0
	beq	a2,a0,.L83
.LVL121:
.L63:
	.loc 1 493 17 is_stmt 1
	.loc 1 493 20 is_stmt 0
	beq	a2,t4,.L84
.LVL122:
.L76:
	.loc 1 498 17 is_stmt 1
	.loc 1 498 20 is_stmt 0
	bne	a2,t3,.L60
.LVL123:
.L81:
	.loc 1 501 49
	li	a1,1
.LVL124:
.L85:
	.loc 1 488 20
	li	a3,1
.LVL125:
	li	a4,1
	j	.L97
.LVL126:
.L58:
	.loc 1 489 21 is_stmt 1
	.loc 1 490 21
	.loc 1 490 24 is_stmt 0
	li	a5,1
	bne	a2,a0,.L63
.LVL127:
.L83:
	li	a3,1
.LVL128:
.L97:
	.loc 1 488 20
	li	a5,1
	j	.L60
.LVL129:
.L65:
.LBE51:
.LBE54:
	.loc 1 507 16 is_stmt 1
	.loc 1 507 19 is_stmt 0
	bne	s5,zero,.L66
	.loc 1 508 13 is_stmt 1
	.loc 1 508 26 is_stmt 0
	li	a2,1
	sb	a2,-65(s0)
	.loc 1 509 13 is_stmt 1
	.loc 1 509 28 is_stmt 0
	sb	a2,-64(s0)
	.loc 1 510 13 is_stmt 1
	.loc 1 510 34 is_stmt 0
	sb	a2,-51(s0)
	j	.L66
.LVL130:
.L68:
	.loc 1 520 13 is_stmt 1
	.loc 1 520 28 is_stmt 0
	li	a5,4
.LVL131:
	j	.L98
.LVL132:
.L48:
.LBE58:
	.loc 1 533 9 is_stmt 1
	.loc 1 533 22 is_stmt 0
	sb	zero,-65(s0)
	j	.L75
.LVL133:
.L93:
.LBB59:
.LBB55:
	.loc 1 486 67 is_stmt 1
	.loc 1 486 25
.LBB52:
	.loc 1 487 17
	.loc 1 488 17
	.loc 1 488 20 is_stmt 0
	li	a4,1
	bne	a2,a0,.L76
	j	.L85
.LVL134:
.L71:
.LBE52:
.LBE55:
	.loc 1 525 9 is_stmt 1
	.loc 1 525 12 is_stmt 0
	beq	a3,zero,.L75
	.loc 1 526 34
	li	a5,3
.L99:
	.loc 1 529 34
	sb	a5,-51(s0)
	j	.L75
.LVL135:
.L67:
	.loc 1 516 9 is_stmt 1
	.loc 1 516 12 is_stmt 0
	beq	a5,zero,.L69
	.loc 1 517 28
	li	a5,3
.LVL136:
.L98:
	.loc 1 520 28
	sb	a5,-64(s0)
	j	.L69
.LBE59:
	.cfi_endproc
.LFE83:
	.size	_rx_handle_beacon, .-_rx_handle_beacon
	.section	.rodata.bl_rx_scanu_result_ind.str1.4,"aMS",@progbits,1
	.align	2
.LC14:
	.string	"Bug Scan IND?\r\n"
	.section	.text.bl_rx_scanu_result_ind,"ax",@progbits
	.align	1
	.type	bl_rx_scanu_result_ind, @function
bl_rx_scanu_result_ind:
.LFB85:
	.loc 1 554 1 is_stmt 1
	.cfi_startproc
.LVL137:
	.loc 1 555 5
	.loc 1 554 1 is_stmt 0
	addi	sp,sp,-16
	.cfi_def_cfa_offset 16
	sw	s0,8(sp)
	sw	ra,12(sp)
	.cfi_offset 8, -8
	.cfi_offset 1, -4
	addi	s0,sp,16
	.cfi_def_cfa 8, 0
	lhu	a5,48(a2)
	.loc 1 558 8
	li	a4,128
	.loc 1 555 30
	addi	a0,a2,16
.LVL138:
	.loc 1 556 5 is_stmt 1
	andi	a5,a5,252
	.loc 1 556 28 is_stmt 0
	addi	a1,a2,48
.LVL139:
	.loc 1 558 5 is_stmt 1
	.file 2 "/home/dinhquangha/Ai-Thinker-WB2/components/network/wifi_manager/bl60x_wifi_driver/ieee80211.h"
	.loc 2 432 2
	.loc 1 558 8 is_stmt 0
	bne	a5,a4,.L101
.L105:
	.loc 1 561 9 is_stmt 1
.LVL140:
.LBB70:
.LBB71:
	.loc 1 550 5
	call	_rx_handle_beacon
.LVL141:
.L102:
.LBE71:
.LBE70:
	.loc 1 566 5
	.loc 1 567 1 is_stmt 0
	lw	ra,12(sp)
	.cfi_remember_state
	.cfi_restore 1
	lw	s0,8(sp)
	.cfi_restore 8
	.cfi_def_cfa 2, 16
	li	a0,0
	addi	sp,sp,16
	.cfi_def_cfa_offset 0
	jr	ra
.LVL142:
.L101:
	.cfi_restore_state
	.loc 1 560 12 is_stmt 1
	.loc 2 472 9
	.loc 1 560 15 is_stmt 0
	li	a4,80
	beq	a5,a4,.L105
.LVL143:
.LBB72:
.LBB73:
	.loc 1 563 9 is_stmt 1
	.loc 1 563 23 is_stmt 0
	lui	a5,%hi(g_bl_ops_funcs+4)
	.loc 1 563 9
	lw	a5,%lo(g_bl_ops_funcs+4)(a5)
	lui	a0,%hi(.LC14)
.LVL144:
	addi	a0,a0,%lo(.LC14)
	jalr	a5
.LVL145:
	j	.L102
.LBE73:
.LBE72:
	.cfi_endproc
.LFE85:
	.size	bl_rx_scanu_result_ind, .-bl_rx_scanu_result_ind
	.section	.text.bl_rx_sm_connect_ind_cb_register,"ax",@progbits
	.align	1
	.globl	bl_rx_sm_connect_ind_cb_register
	.type	bl_rx_sm_connect_ind_cb_register, @function
bl_rx_sm_connect_ind_cb_register:
.LFB57:
	.loc 1 90 1 is_stmt 1
	.cfi_startproc
.LVL146:
	.loc 1 91 5
	.loc 1 90 1 is_stmt 0
	addi	sp,sp,-16
	.cfi_def_cfa_offset 16
	sw	s0,12(sp)
	.cfi_offset 8, -4
	addi	s0,sp,16
	.cfi_def_cfa 8, 0
	.loc 1 95 1
	lw	s0,12(sp)
	.cfi_restore 8
	.cfi_def_cfa 2, 16
	.loc 1 91 23
	lui	a5,%hi(.LANCHOR6)
	sw	a1,%lo(.LANCHOR6)(a5)
	.loc 1 92 5 is_stmt 1
	.loc 1 92 27 is_stmt 0
	lui	a5,%hi(.LANCHOR7)
	sw	a0,%lo(.LANCHOR7)(a5)
	.loc 1 94 5 is_stmt 1
	.loc 1 95 1 is_stmt 0
	li	a0,0
.LVL147:
	addi	sp,sp,16
	.cfi_def_cfa_offset 0
	jr	ra
	.cfi_endproc
.LFE57:
	.size	bl_rx_sm_connect_ind_cb_register, .-bl_rx_sm_connect_ind_cb_register
	.section	.text.bl_rx_sm_connect_ind_cb_unregister,"ax",@progbits
	.align	1
	.globl	bl_rx_sm_connect_ind_cb_unregister
	.type	bl_rx_sm_connect_ind_cb_unregister, @function
bl_rx_sm_connect_ind_cb_unregister:
.LFB58:
	.loc 1 99 1 is_stmt 1
	.cfi_startproc
.LVL148:
	.loc 1 100 5
	.loc 1 99 1 is_stmt 0
	addi	sp,sp,-16
	.cfi_def_cfa_offset 16
	sw	s0,12(sp)
	.cfi_offset 8, -4
	addi	s0,sp,16
	.cfi_def_cfa 8, 0
	.loc 1 104 1
	lw	s0,12(sp)
	.cfi_restore 8
	.cfi_def_cfa 2, 16
	.loc 1 100 23
	lui	a5,%hi(.LANCHOR6)
	sw	zero,%lo(.LANCHOR6)(a5)
	.loc 1 101 5 is_stmt 1
	.loc 1 101 27 is_stmt 0
	lui	a5,%hi(.LANCHOR7)
	sw	zero,%lo(.LANCHOR7)(a5)
	.loc 1 103 5 is_stmt 1
	.loc 1 104 1 is_stmt 0
	li	a0,0
.LVL149:
	addi	sp,sp,16
	.cfi_def_cfa_offset 0
	jr	ra
	.cfi_endproc
.LFE58:
	.size	bl_rx_sm_connect_ind_cb_unregister, .-bl_rx_sm_connect_ind_cb_unregister
	.section	.text.bl_rx_sm_disconnect_ind_cb_register,"ax",@progbits
	.align	1
	.globl	bl_rx_sm_disconnect_ind_cb_register
	.type	bl_rx_sm_disconnect_ind_cb_register, @function
bl_rx_sm_disconnect_ind_cb_register:
.LFB59:
	.loc 1 107 1 is_stmt 1
	.cfi_startproc
.LVL150:
	.loc 1 108 5
	.loc 1 107 1 is_stmt 0
	addi	sp,sp,-16
	.cfi_def_cfa_offset 16
	sw	s0,12(sp)
	.cfi_offset 8, -4
	addi	s0,sp,16
	.cfi_def_cfa 8, 0
	.loc 1 112 1
	lw	s0,12(sp)
	.cfi_restore 8
	.cfi_def_cfa 2, 16
	.loc 1 108 26
	lui	a5,%hi(.LANCHOR8)
	sw	a1,%lo(.LANCHOR8)(a5)
	.loc 1 109 5 is_stmt 1
	.loc 1 109 30 is_stmt 0
	lui	a5,%hi(.LANCHOR9)
	sw	a0,%lo(.LANCHOR9)(a5)
	.loc 1 111 5 is_stmt 1
	.loc 1 112 1 is_stmt 0
	li	a0,0
.LVL151:
	addi	sp,sp,16
	.cfi_def_cfa_offset 0
	jr	ra
	.cfi_endproc
.LFE59:
	.size	bl_rx_sm_disconnect_ind_cb_register, .-bl_rx_sm_disconnect_ind_cb_register
	.section	.text.bl_rx_sm_disconnect_ind_cb_unregister,"ax",@progbits
	.align	1
	.globl	bl_rx_sm_disconnect_ind_cb_unregister
	.type	bl_rx_sm_disconnect_ind_cb_unregister, @function
bl_rx_sm_disconnect_ind_cb_unregister:
.LFB60:
	.loc 1 116 1 is_stmt 1
	.cfi_startproc
.LVL152:
	.loc 1 117 5
	.loc 1 116 1 is_stmt 0
	addi	sp,sp,-16
	.cfi_def_cfa_offset 16
	sw	s0,12(sp)
	.cfi_offset 8, -4
	addi	s0,sp,16
	.cfi_def_cfa 8, 0
	.loc 1 121 1
	lw	s0,12(sp)
	.cfi_restore 8
	.cfi_def_cfa 2, 16
	.loc 1 117 26
	lui	a5,%hi(.LANCHOR8)
	sw	zero,%lo(.LANCHOR8)(a5)
	.loc 1 118 5 is_stmt 1
	.loc 1 118 30 is_stmt 0
	lui	a5,%hi(.LANCHOR9)
	sw	zero,%lo(.LANCHOR9)(a5)
	.loc 1 120 5 is_stmt 1
	.loc 1 121 1 is_stmt 0
	li	a0,0
.LVL153:
	addi	sp,sp,16
	.cfi_def_cfa_offset 0
	jr	ra
	.cfi_endproc
.LFE60:
	.size	bl_rx_sm_disconnect_ind_cb_unregister, .-bl_rx_sm_disconnect_ind_cb_unregister
	.section	.text.bl_rx_beacon_ind_cb_register,"ax",@progbits
	.align	1
	.globl	bl_rx_beacon_ind_cb_register
	.type	bl_rx_beacon_ind_cb_register, @function
bl_rx_beacon_ind_cb_register:
.LFB61:
	.loc 1 124 1 is_stmt 1
	.cfi_startproc
.LVL154:
	.loc 1 125 5
	.loc 1 124 1 is_stmt 0
	addi	sp,sp,-16
	.cfi_def_cfa_offset 16
	sw	s0,12(sp)
	.cfi_offset 8, -4
	addi	s0,sp,16
	.cfi_def_cfa 8, 0
	.loc 1 129 1
	lw	s0,12(sp)
	.cfi_restore 8
	.cfi_def_cfa 2, 16
	.loc 1 125 19
	lui	a5,%hi(.LANCHOR5)
	sw	a1,%lo(.LANCHOR5)(a5)
	.loc 1 126 5 is_stmt 1
	.loc 1 126 23 is_stmt 0
	lui	a5,%hi(.LANCHOR4)
	sw	a0,%lo(.LANCHOR4)(a5)
	.loc 1 128 5 is_stmt 1
	.loc 1 129 1 is_stmt 0
	li	a0,0
.LVL155:
	addi	sp,sp,16
	.cfi_def_cfa_offset 0
	jr	ra
	.cfi_endproc
.LFE61:
	.size	bl_rx_beacon_ind_cb_register, .-bl_rx_beacon_ind_cb_register
	.section	.text.bl_rx_beacon_ind_cb_unregister,"ax",@progbits
	.align	1
	.globl	bl_rx_beacon_ind_cb_unregister
	.type	bl_rx_beacon_ind_cb_unregister, @function
bl_rx_beacon_ind_cb_unregister:
.LFB62:
	.loc 1 133 1 is_stmt 1
	.cfi_startproc
.LVL156:
	.loc 1 134 5
	.loc 1 133 1 is_stmt 0
	addi	sp,sp,-16
	.cfi_def_cfa_offset 16
	sw	s0,12(sp)
	.cfi_offset 8, -4
	addi	s0,sp,16
	.cfi_def_cfa 8, 0
	.loc 1 138 1
	lw	s0,12(sp)
	.cfi_restore 8
	.cfi_def_cfa 2, 16
	.loc 1 134 19
	lui	a5,%hi(.LANCHOR5)
	sw	zero,%lo(.LANCHOR5)(a5)
	.loc 1 135 5 is_stmt 1
	.loc 1 135 23 is_stmt 0
	lui	a5,%hi(.LANCHOR4)
	sw	zero,%lo(.LANCHOR4)(a5)
	.loc 1 137 5 is_stmt 1
	.loc 1 138 1 is_stmt 0
	li	a0,0
.LVL157:
	addi	sp,sp,16
	.cfi_def_cfa_offset 0
	jr	ra
	.cfi_endproc
.LFE62:
	.size	bl_rx_beacon_ind_cb_unregister, .-bl_rx_beacon_ind_cb_unregister
	.section	.text.bl_rx_probe_resp_ind_cb_register,"ax",@progbits
	.align	1
	.globl	bl_rx_probe_resp_ind_cb_register
	.type	bl_rx_probe_resp_ind_cb_register, @function
bl_rx_probe_resp_ind_cb_register:
.LFB63:
	.loc 1 141 1 is_stmt 1
	.cfi_startproc
.LVL158:
	.loc 1 142 5
	.loc 1 143 5
	.loc 1 145 5
	.loc 1 141 1 is_stmt 0
	addi	sp,sp,-16
	.cfi_def_cfa_offset 16
	sw	s0,12(sp)
	.cfi_offset 8, -4
	addi	s0,sp,16
	.cfi_def_cfa 8, 0
	.loc 1 146 1
	lw	s0,12(sp)
	.cfi_restore 8
	.cfi_def_cfa 2, 16
	li	a0,0
.LVL159:
	addi	sp,sp,16
	.cfi_def_cfa_offset 0
	jr	ra
	.cfi_endproc
.LFE63:
	.size	bl_rx_probe_resp_ind_cb_register, .-bl_rx_probe_resp_ind_cb_register
	.section	.text.bl_rx_probe_resp_ind_cb_unregister,"ax",@progbits
	.align	1
	.globl	bl_rx_probe_resp_ind_cb_unregister
	.type	bl_rx_probe_resp_ind_cb_unregister, @function
bl_rx_probe_resp_ind_cb_unregister:
.LFB64:
	.loc 1 150 1 is_stmt 1
	.cfi_startproc
.LVL160:
	.loc 1 151 5
	.loc 1 152 5
	.loc 1 154 5
	.loc 1 150 1 is_stmt 0
	addi	sp,sp,-16
	.cfi_def_cfa_offset 16
	sw	s0,12(sp)
	.cfi_offset 8, -4
	addi	s0,sp,16
	.cfi_def_cfa 8, 0
	.loc 1 155 1
	lw	s0,12(sp)
	.cfi_restore 8
	.cfi_def_cfa 2, 16
	li	a0,0
.LVL161:
	addi	sp,sp,16
	.cfi_def_cfa_offset 0
	jr	ra
	.cfi_endproc
.LFE64:
	.size	bl_rx_probe_resp_ind_cb_unregister, .-bl_rx_probe_resp_ind_cb_unregister
	.section	.text.bl_rx_pkt_cb_register,"ax",@progbits
	.align	1
	.globl	bl_rx_pkt_cb_register
	.type	bl_rx_pkt_cb_register, @function
bl_rx_pkt_cb_register:
.LFB65:
	.loc 1 159 1 is_stmt 1
	.cfi_startproc
.LVL162:
	.loc 1 160 5
	.loc 1 159 1 is_stmt 0
	addi	sp,sp,-16
	.cfi_def_cfa_offset 16
	sw	s0,12(sp)
	.cfi_offset 8, -4
	addi	s0,sp,16
	.cfi_def_cfa 8, 0
	.loc 1 164 1
	lw	s0,12(sp)
	.cfi_restore 8
	.cfi_def_cfa 2, 16
	.loc 1 160 12
	lui	a5,%hi(.LANCHOR10)
	sw	a1,%lo(.LANCHOR10)(a5)
	.loc 1 161 5 is_stmt 1
	.loc 1 161 16 is_stmt 0
	lui	a5,%hi(.LANCHOR11)
	sw	a0,%lo(.LANCHOR11)(a5)
	.loc 1 163 5 is_stmt 1
	.loc 1 164 1 is_stmt 0
	li	a0,0
.LVL163:
	addi	sp,sp,16
	.cfi_def_cfa_offset 0
	jr	ra
	.cfi_endproc
.LFE65:
	.size	bl_rx_pkt_cb_register, .-bl_rx_pkt_cb_register
	.section	.text.bl_rx_pkt_cb_unregister,"ax",@progbits
	.align	1
	.globl	bl_rx_pkt_cb_unregister
	.type	bl_rx_pkt_cb_unregister, @function
bl_rx_pkt_cb_unregister:
.LFB66:
	.loc 1 168 1 is_stmt 1
	.cfi_startproc
.LVL164:
	.loc 1 169 5
	.loc 1 168 1 is_stmt 0
	addi	sp,sp,-16
	.cfi_def_cfa_offset 16
	sw	s0,12(sp)
	.cfi_offset 8, -4
	addi	s0,sp,16
	.cfi_def_cfa 8, 0
	.loc 1 173 1
	lw	s0,12(sp)
	.cfi_restore 8
	.cfi_def_cfa 2, 16
	.loc 1 169 12
	lui	a5,%hi(.LANCHOR10)
	sw	zero,%lo(.LANCHOR10)(a5)
	.loc 1 170 5 is_stmt 1
	.loc 1 170 16 is_stmt 0
	lui	a5,%hi(.LANCHOR11)
	sw	zero,%lo(.LANCHOR11)(a5)
	.loc 1 172 5 is_stmt 1
	.loc 1 173 1 is_stmt 0
	li	a0,0
.LVL165:
	addi	sp,sp,16
	.cfi_def_cfa_offset 0
	jr	ra
	.cfi_endproc
.LFE66:
	.size	bl_rx_pkt_cb_unregister, .-bl_rx_pkt_cb_unregister
	.section	.text.bl_rx_pkt_adv_cb_register,"ax",@progbits
	.align	1
	.globl	bl_rx_pkt_adv_cb_register
	.type	bl_rx_pkt_adv_cb_register, @function
bl_rx_pkt_adv_cb_register:
.LFB67:
	.loc 1 176 1 is_stmt 1
	.cfi_startproc
.LVL166:
	.loc 1 177 5
	.loc 1 176 1 is_stmt 0
	addi	sp,sp,-16
	.cfi_def_cfa_offset 16
	sw	s0,12(sp)
	.cfi_offset 8, -4
	addi	s0,sp,16
	.cfi_def_cfa 8, 0
	.loc 1 181 1
	lw	s0,12(sp)
	.cfi_restore 8
	.cfi_def_cfa 2, 16
	.loc 1 177 16
	lui	a5,%hi(.LANCHOR12)
	sw	a1,%lo(.LANCHOR12)(a5)
	.loc 1 178 5 is_stmt 1
	.loc 1 178 16 is_stmt 0
	lui	a5,%hi(.LANCHOR11)
	sw	a0,%lo(.LANCHOR11)(a5)
	.loc 1 180 5 is_stmt 1
	.loc 1 181 1 is_stmt 0
	li	a0,0
.LVL167:
	addi	sp,sp,16
	.cfi_def_cfa_offset 0
	jr	ra
	.cfi_endproc
.LFE67:
	.size	bl_rx_pkt_adv_cb_register, .-bl_rx_pkt_adv_cb_register
	.section	.text.bl_rx_pkt_adv_cb_unregister,"ax",@progbits
	.align	1
	.globl	bl_rx_pkt_adv_cb_unregister
	.type	bl_rx_pkt_adv_cb_unregister, @function
bl_rx_pkt_adv_cb_unregister:
.LFB68:
	.loc 1 184 1 is_stmt 1
	.cfi_startproc
.LVL168:
	.loc 1 185 5
	.loc 1 184 1 is_stmt 0
	addi	sp,sp,-16
	.cfi_def_cfa_offset 16
	sw	s0,12(sp)
	.cfi_offset 8, -4
	addi	s0,sp,16
	.cfi_def_cfa 8, 0
	.loc 1 189 1
	lw	s0,12(sp)
	.cfi_restore 8
	.cfi_def_cfa 2, 16
	.loc 1 185 16
	lui	a5,%hi(.LANCHOR12)
	sw	zero,%lo(.LANCHOR12)(a5)
	.loc 1 186 5 is_stmt 1
	.loc 1 186 16 is_stmt 0
	lui	a5,%hi(.LANCHOR11)
	sw	zero,%lo(.LANCHOR11)(a5)
	.loc 1 188 5 is_stmt 1
	.loc 1 189 1 is_stmt 0
	li	a0,0
.LVL169:
	addi	sp,sp,16
	.cfi_def_cfa_offset 0
	jr	ra
	.cfi_endproc
.LFE68:
	.size	bl_rx_pkt_adv_cb_unregister, .-bl_rx_pkt_adv_cb_unregister
	.section	.text.bl_rx_rssi_cb_register,"ax",@progbits
	.align	1
	.globl	bl_rx_rssi_cb_register
	.type	bl_rx_rssi_cb_register, @function
bl_rx_rssi_cb_register:
.LFB69:
	.loc 1 193 1 is_stmt 1
	.cfi_startproc
.LVL170:
	.loc 1 194 5
	.loc 1 193 1 is_stmt 0
	addi	sp,sp,-16
	.cfi_def_cfa_offset 16
	sw	s0,12(sp)
	.cfi_offset 8, -4
	addi	s0,sp,16
	.cfi_def_cfa 8, 0
	.loc 1 198 1
	lw	s0,12(sp)
	.cfi_restore 8
	.cfi_def_cfa 2, 16
	.loc 1 194 13
	lui	a5,%hi(.LANCHOR0)
	sw	a1,%lo(.LANCHOR0)(a5)
	.loc 1 195 5 is_stmt 1
	.loc 1 195 17 is_stmt 0
	lui	a5,%hi(.LANCHOR1)
	sw	a0,%lo(.LANCHOR1)(a5)
	.loc 1 197 5 is_stmt 1
	.loc 1 198 1 is_stmt 0
	li	a0,0
.LVL171:
	addi	sp,sp,16
	.cfi_def_cfa_offset 0
	jr	ra
	.cfi_endproc
.LFE69:
	.size	bl_rx_rssi_cb_register, .-bl_rx_rssi_cb_register
	.section	.text.bl_rx_rssi_cb_unregister,"ax",@progbits
	.align	1
	.globl	bl_rx_rssi_cb_unregister
	.type	bl_rx_rssi_cb_unregister, @function
bl_rx_rssi_cb_unregister:
.LFB70:
	.loc 1 201 1 is_stmt 1
	.cfi_startproc
.LVL172:
	.loc 1 202 5
	.loc 1 201 1 is_stmt 0
	addi	sp,sp,-16
	.cfi_def_cfa_offset 16
	sw	s0,12(sp)
	.cfi_offset 8, -4
	addi	s0,sp,16
	.cfi_def_cfa 8, 0
	.loc 1 206 1
	lw	s0,12(sp)
	.cfi_restore 8
	.cfi_def_cfa 2, 16
	.loc 1 202 13
	lui	a5,%hi(.LANCHOR0)
	sw	zero,%lo(.LANCHOR0)(a5)
	.loc 1 203 5 is_stmt 1
	.loc 1 203 17 is_stmt 0
	lui	a5,%hi(.LANCHOR1)
	sw	zero,%lo(.LANCHOR1)(a5)
	.loc 1 205 5 is_stmt 1
	.loc 1 206 1 is_stmt 0
	li	a0,0
.LVL173:
	addi	sp,sp,16
	.cfi_def_cfa_offset 0
	jr	ra
	.cfi_endproc
.LFE70:
	.size	bl_rx_rssi_cb_unregister, .-bl_rx_rssi_cb_unregister
	.section	.text.bl_rx_event_register,"ax",@progbits
	.align	1
	.globl	bl_rx_event_register
	.type	bl_rx_event_register, @function
bl_rx_event_register:
.LFB71:
	.loc 1 210 1 is_stmt 1
	.cfi_startproc
.LVL174:
	.loc 1 211 5
	.loc 1 210 1 is_stmt 0
	addi	sp,sp,-16
	.cfi_def_cfa_offset 16
	sw	s0,12(sp)
	.cfi_offset 8, -4
	addi	s0,sp,16
	.cfi_def_cfa 8, 0
	.loc 1 215 1
	lw	s0,12(sp)
	.cfi_restore 8
	.cfi_def_cfa 2, 16
	.loc 1 211 14
	lui	a5,%hi(.LANCHOR2)
	sw	a1,%lo(.LANCHOR2)(a5)
	.loc 1 212 5 is_stmt 1
	.loc 1 212 18 is_stmt 0
	lui	a5,%hi(.LANCHOR3)
	sw	a0,%lo(.LANCHOR3)(a5)
	.loc 1 214 5 is_stmt 1
	.loc 1 215 1 is_stmt 0
	li	a0,0
.LVL175:
	addi	sp,sp,16
	.cfi_def_cfa_offset 0
	jr	ra
	.cfi_endproc
.LFE71:
	.size	bl_rx_event_register, .-bl_rx_event_register
	.section	.text.bl_rx_event_unregister,"ax",@progbits
	.align	1
	.globl	bl_rx_event_unregister
	.type	bl_rx_event_unregister, @function
bl_rx_event_unregister:
.LFB72:
	.loc 1 218 1 is_stmt 1
	.cfi_startproc
.LVL176:
	.loc 1 219 5
	.loc 1 218 1 is_stmt 0
	addi	sp,sp,-16
	.cfi_def_cfa_offset 16
	sw	s0,12(sp)
	.cfi_offset 8, -4
	addi	s0,sp,16
	.cfi_def_cfa 8, 0
	.loc 1 223 1
	lw	s0,12(sp)
	.cfi_restore 8
	.cfi_def_cfa 2, 16
	.loc 1 219 14
	lui	a5,%hi(.LANCHOR2)
	sw	zero,%lo(.LANCHOR2)(a5)
	.loc 1 220 5 is_stmt 1
	.loc 1 220 18 is_stmt 0
	lui	a5,%hi(.LANCHOR3)
	sw	zero,%lo(.LANCHOR3)(a5)
	.loc 1 222 5 is_stmt 1
	.loc 1 223 1 is_stmt 0
	li	a0,0
.LVL177:
	addi	sp,sp,16
	.cfi_def_cfa_offset 0
	jr	ra
	.cfi_endproc
.LFE72:
	.size	bl_rx_event_unregister, .-bl_rx_event_unregister
	.section	.rodata.wifi_mgmr_get_sm_status_code_str.str1.4,"aMS",@progbits,1
	.align	2
.LC15:
	.string	"Unknown Code"
	.section	.text.wifi_mgmr_get_sm_status_code_str,"ax",@progbits
	.align	1
	.globl	wifi_mgmr_get_sm_status_code_str
	.type	wifi_mgmr_get_sm_status_code_str, @function
wifi_mgmr_get_sm_status_code_str:
.LFB87:
	.loc 1 597 1 is_stmt 1
	.cfi_startproc
.LVL178:
	.loc 1 598 5
.LBB76:
.LBB77:
	.loc 1 582 5
	.loc 1 584 5
	.loc 1 584 17
.LBE77:
.LBE76:
	.loc 1 597 1 is_stmt 0
	addi	sp,sp,-16
	.cfi_def_cfa_offset 16
	lui	a5,%hi(.LANCHOR13)
	sw	s0,12(sp)
	addi	a5,a5,%lo(.LANCHOR13)
	.cfi_offset 8, -4
	addi	s0,sp,16
	.cfi_def_cfa 8, 0
	addi	a4,a5,216
.LVL179:
.L140:
.LBB80:
.LBB78:
	.loc 1 585 9 is_stmt 1
	.loc 1 585 12 is_stmt 0
	lhu	a3,0(a5)
	beq	a3,a0,.L139
	.loc 1 584 26 is_stmt 1
	.loc 1 584 17
	.loc 1 584 5 is_stmt 0
	addi	a5,a5,8
	bne	a4,a5,.L140
	.loc 1 590 16
	lui	a0,%hi(.LC15)
.LVL180:
	addi	a0,a0,%lo(.LC15)
.LVL181:
.L138:
.LBE78:
.LBE80:
	.loc 1 599 1
	lw	s0,12(sp)
	.cfi_remember_state
	.cfi_restore 8
	.cfi_def_cfa 2, 16
	addi	sp,sp,16
	.cfi_def_cfa_offset 0
	jr	ra
.LVL182:
.L139:
	.cfi_restore_state
.LBB81:
.LBB79:
	.loc 1 589 5 is_stmt 1
	.loc 1 593 5
	.loc 1 593 19 is_stmt 0
	lw	a0,4(a5)
.LVL183:
	j	.L138
.LBE79:
.LBE81:
	.cfi_endproc
.LFE87:
	.size	wifi_mgmr_get_sm_status_code_str, .-wifi_mgmr_get_sm_status_code_str
	.section	.rodata.bl_rx_sm_disconnect_ind.str1.4,"aMS",@progbits,1
	.align	2
.LC16:
	.string	"0.0.0.0"
	.align	2
.LC17:
	.string	"[RX]   sm_disconnect_ind\r\n       status_code %u\r\n       802.11 reason_code %u\r\n"
	.align	2
.LC18:
	.string	"[RX]   disconnect reason: %s\r\n"
	.align	2
.LC19:
	.string	"[RX]   vif_idx %u\r\n"
	.align	2
.LC20:
	.string	"[RX]   ft_over_ds %u\r\n"
	.align	2
.LC21:
	.string	"[RX]   tlv_ptr first %p\r\n"
	.section	.text.bl_rx_sm_disconnect_ind,"ax",@progbits
	.align	1
	.type	bl_rx_sm_disconnect_ind, @function
bl_rx_sm_disconnect_ind:
.LFB90:
	.loc 1 705 1 is_stmt 1
	.cfi_startproc
.LVL184:
	.loc 1 706 5
	.loc 1 705 1 is_stmt 0
	addi	sp,sp,-64
	.cfi_def_cfa_offset 64
	sw	ra,60(sp)
	sw	s0,56(sp)
	sw	s1,52(sp)
	.cfi_offset 1, -4
	.cfi_offset 8, -8
	.cfi_offset 9, -12
	addi	s0,sp,64
	.cfi_def_cfa 8, 0
	sw	s2,48(sp)
	sw	s3,44(sp)
	sw	s4,40(sp)
	.cfi_offset 18, -16
	.cfi_offset 19, -20
	.cfi_offset 20, -24
	mv	s3,a0
	.loc 1 713 21
	lui	a0,%hi(.LC16)
.LVL185:
	.loc 1 705 1
	.loc 1 713 21
	addi	a0,a0,%lo(.LC16)
	.loc 1 714 19
	lui	s2,%hi(g_bl_ops_funcs)
	.loc 1 705 1
	mv	s1,a2
.LVL186:
	.loc 1 707 5 is_stmt 1
	.loc 1 708 5
	.loc 1 709 5
	.loc 1 711 5
	.loc 1 711 9
	.loc 1 711 17
	.loc 1 713 5
	.loc 1 714 19 is_stmt 0
	addi	s2,s2,%lo(g_bl_ops_funcs)
	.loc 1 713 21
	call	ipaddr_addr
.LVL187:
	.loc 1 714 5
	lhu	a2,18(s1)
	lw	a5,4(s2)
	lhu	a1,16(s1)
	.loc 1 713 19
	sw	a0,-56(s0)
	.loc 1 714 5 is_stmt 1
	lui	a0,%hi(.LC17)
	addi	a0,a0,%lo(.LC17)
	jalr	a5
.LVL188:
	.loc 1 717 5
	lhu	a0,16(s1)
	.loc 1 717 19 is_stmt 0
	lw	s4,4(s2)
	.loc 1 717 5
	call	wifi_mgmr_get_sm_status_code_str
.LVL189:
	mv	a1,a0
	lui	a0,%hi(.LC18)
	addi	a0,a0,%lo(.LC18)
	jalr	s4
.LVL190:
	.loc 1 718 5 is_stmt 1
	lw	a5,4(s2)
	lbu	a1,20(s1)
	lui	a0,%hi(.LC19)
	addi	a0,a0,%lo(.LC19)
	jalr	a5
.LVL191:
	.loc 1 719 5
	lw	a5,4(s2)
	lbu	a1,21(s1)
	lui	a0,%hi(.LC20)
	addi	a0,a0,%lo(.LC20)
	jalr	a5
.LVL192:
	.loc 1 720 5
	lw	a5,4(s2)
	lw	a1,24(s1)
	lui	a0,%hi(.LC21)
	addi	a0,a0,%lo(.LC21)
	.loc 1 722 9 is_stmt 0
	lui	s2,%hi(.LANCHOR8)
	.loc 1 720 5
	jalr	a5
.LVL193:
	.loc 1 722 5 is_stmt 1
	.loc 1 722 9 is_stmt 0
	addi	s2,s2,%lo(.LANCHOR8)
	.loc 1 722 8
	lw	a5,0(s2)
	beq	a5,zero,.L145
	.loc 1 723 9 is_stmt 1
	li	a1,0
	li	a2,20
	addi	a0,s0,-52
	call	memset
.LVL194:
	.loc 1 724 9
	.loc 1 725 9
	.loc 1 726 9
	.loc 1 726 30 is_stmt 0
	lbu	a5,20(s1)
	.loc 1 724 29
	lw	a4,16(s1)
	.loc 1 729 9
	addi	a1,s0,-52
	.loc 1 726 25
	sb	a5,-48(s0)
	.loc 1 727 9 is_stmt 1
	.loc 1 727 33 is_stmt 0
	lbu	a5,21(s1)
	.loc 1 724 29
	sw	a4,-52(s0)
	.loc 1 729 9
	lui	a4,%hi(.LANCHOR9)
	.loc 1 727 33
	sw	a5,-44(s0)
	.loc 1 728 9 is_stmt 1
	.loc 1 728 34 is_stmt 0
	lw	a5,24(s1)
	.loc 1 729 9
	lw	a0,%lo(.LANCHOR9)(a4)
	.loc 1 728 34
	sw	a5,-40(s0)
	lw	a5,28(s1)
	sw	a5,-36(s0)
	.loc 1 729 9 is_stmt 1
	lw	a5,0(s2)
	jalr	a5
.LVL195:
.L145:
	.loc 1 733 5
	.loc 1 733 36 is_stmt 0
	lbu	s1,20(s1)
.LVL196:
	.loc 1 734 5 is_stmt 1
	.loc 1 734 25 is_stmt 0
	li	a0,28
	mul	s1,s1,a0
.LVL197:
	add	s1,s3,s1
	lw	a0,72(s1)
	.loc 1 734 16
	beq	a0,zero,.L146
	.loc 1 735 9 is_stmt 1
	lui	a1,%hi(netif_set_link_down)
	li	a2,0
	addi	a1,a1,%lo(netif_set_link_down)
	call	netifapi_netif_common
.LVL198:
	.loc 1 736 9
	lw	a0,72(s1)
	addi	a3,s0,-56
	mv	a2,a3
	mv	a1,a3
	call	netifapi_netif_set_addr
.LVL199:
.L146:
	.loc 1 738 5
	.loc 1 738 9
	.loc 1 738 17
	.loc 1 739 5
	.loc 1 740 1 is_stmt 0
	lw	ra,60(sp)
	.cfi_restore 1
	lw	s0,56(sp)
	.cfi_restore 8
	.cfi_def_cfa 2, 64
	lw	s1,52(sp)
	.cfi_restore 9
	lw	s2,48(sp)
	.cfi_restore 18
	lw	s3,44(sp)
	.cfi_restore 19
.LVL200:
	lw	s4,40(sp)
	.cfi_restore 20
	li	a0,0
	addi	sp,sp,64
	.cfi_def_cfa_offset 0
	jr	ra
	.cfi_endproc
.LFE90:
	.size	bl_rx_sm_disconnect_ind, .-bl_rx_sm_disconnect_ind
	.section	.rodata.bl_rx_sm_connect_ind.str1.4,"aMS",@progbits,1
	.align	2
.LC22:
	.string	"[RX] Connection Status\r\n"
	.align	2
.LC23:
	.string	"[RX]   status_code %u\r\n"
	.align	2
.LC24:
	.string	"[RX]   reason_code %u\r\n"
	.align	2
.LC25:
	.string	"[RX]   connect result: %s\r\n"
	.align	2
.LC26:
	.string	"[RX]   MAC %02X:%02X:%02X:%02X:%02X:%02X\r\n"
	.align	2
.LC27:
	.string	"[RX]   ap_idx %u\r\n"
	.align	2
.LC28:
	.string	"[RX]   ch_idx %u\r\n"
	.align	2
.LC29:
	.string	"[RX]   qos %u\r\n"
	.align	2
.LC30:
	.string	"[RX]   acm %u\r\n"
	.align	2
.LC31:
	.string	"[RX]   assoc_req_ie_len %u\r\n"
	.align	2
.LC32:
	.string	"[RX]   assoc_rsp_ie_len %u\r\n"
	.align	2
.LC33:
	.string	"[RX]   aid %u\r\n"
	.align	2
.LC34:
	.string	"[RX]   band %u\r\n"
	.align	2
.LC35:
	.string	"[RX]   center_freq %u\r\n"
	.align	2
.LC36:
	.string	"[RX]   width %u\r\n"
	.align	2
.LC37:
	.string	"[RX]   center_freq1 %u\r\n"
	.align	2
.LC38:
	.string	"[RX]   center_freq2 %u\r\n"
	.align	2
.LC39:
	.string	"[RX]  -------- CRITICAL when check netif. ptr is %p:%p\r\n"
	.section	.text.bl_rx_sm_connect_ind,"ax",@progbits
	.align	1
	.type	bl_rx_sm_connect_ind, @function
bl_rx_sm_connect_ind:
.LFB89:
	.loc 1 609 1 is_stmt 1
	.cfi_startproc
.LVL201:
	.loc 1 610 5
	.loc 1 609 1 is_stmt 0
	addi	sp,sp,-80
	.cfi_def_cfa_offset 80
	sw	ra,76(sp)
	sw	s0,72(sp)
	sw	s1,68(sp)
	.cfi_offset 1, -4
	.cfi_offset 8, -8
	.cfi_offset 9, -12
	addi	s0,sp,80
	.cfi_def_cfa 8, 0
	sw	s2,64(sp)
	sw	s3,60(sp)
	sw	s4,56(sp)
	sw	s5,52(sp)
	.cfi_offset 18, -16
	.cfi_offset 19, -20
	.cfi_offset 20, -24
	.cfi_offset 21, -28
	.loc 1 618 19
	lui	s4,%hi(g_bl_ops_funcs)
	addi	s2,s4,%lo(g_bl_ops_funcs)
	.loc 1 609 1
	.loc 1 618 5
	lw	a5,4(s2)
	.loc 1 609 1
	mv	s3,a0
	.loc 1 618 5
	lui	a0,%hi(.LC22)
.LVL202:
	addi	a0,a0,%lo(.LC22)
	.loc 1 609 1
	mv	s1,a2
.LVL203:
	.loc 1 611 5 is_stmt 1
	.loc 1 612 5
	.loc 1 613 5
	.loc 1 615 5
	.loc 1 616 5
	.loc 1 616 9
	.loc 1 616 17
	.loc 1 618 5
	jalr	a5
.LVL204:
	.loc 1 619 5
	lw	a5,4(s2)
	lhu	a1,16(s1)
	lui	a0,%hi(.LC23)
	addi	a0,a0,%lo(.LC23)
	jalr	a5
.LVL205:
	.loc 1 620 5
	lw	a5,4(s2)
	lhu	a1,18(s1)
	lui	a0,%hi(.LC24)
	addi	a0,a0,%lo(.LC24)
	jalr	a5
.LVL206:
	.loc 1 621 5
	lhu	a0,16(s1)
	.loc 1 621 19 is_stmt 0
	lw	s5,4(s2)
	addi	s4,s4,%lo(g_bl_ops_funcs)
	.loc 1 621 5
	call	wifi_mgmr_get_sm_status_code_str
.LVL207:
	mv	a1,a0
	lui	a0,%hi(.LC25)
	addi	a0,a0,%lo(.LC25)
	jalr	s5
.LVL208:
	.loc 1 622 5 is_stmt 1
	lw	a7,4(s2)
	lbu	a6,25(s1)
	lbu	a4,23(s1)
	lbu	a3,22(s1)
	lbu	a2,21(s1)
	lbu	a5,24(s1)
	lbu	a1,20(s1)
	lui	a0,%hi(.LC26)
	addi	a0,a0,%lo(.LC26)
	jalr	a7
.LVL209:
	.loc 1 630 5
	lw	a5,4(s2)
	lbu	a1,27(s1)
	lui	a0,%hi(.LC19)
	addi	a0,a0,%lo(.LC19)
	jalr	a5
.LVL210:
	.loc 1 631 5
	lw	a5,4(s2)
	lbu	a1,28(s1)
	lui	a0,%hi(.LC27)
	addi	a0,a0,%lo(.LC27)
	jalr	a5
.LVL211:
	.loc 1 632 5
	lw	a5,4(s2)
	lbu	a1,29(s1)
	lui	a0,%hi(.LC28)
	addi	a0,a0,%lo(.LC28)
	jalr	a5
.LVL212:
	.loc 1 633 5
	lw	a5,4(s2)
	lbu	a1,30(s1)
	lui	a0,%hi(.LC29)
	addi	a0,a0,%lo(.LC29)
	jalr	a5
.LVL213:
	.loc 1 634 5
	lw	a5,4(s2)
	lbu	a1,31(s1)
	lui	a0,%hi(.LC30)
	addi	a0,a0,%lo(.LC30)
	jalr	a5
.LVL214:
	.loc 1 635 5
	lw	a5,4(s2)
	lhu	a1,32(s1)
	lui	a0,%hi(.LC31)
	addi	a0,a0,%lo(.LC31)
	jalr	a5
.LVL215:
	.loc 1 636 5
	lw	a5,4(s2)
	lhu	a1,34(s1)
	lui	a0,%hi(.LC32)
	addi	a0,a0,%lo(.LC32)
	jalr	a5
.LVL216:
	.loc 1 637 5
	lw	a5,4(s2)
	lhu	a1,836(s1)
	lui	a0,%hi(.LC33)
	addi	a0,a0,%lo(.LC33)
	jalr	a5
.LVL217:
	.loc 1 638 5
	lw	a5,4(s2)
	lbu	a1,838(s1)
	lui	a0,%hi(.LC34)
	addi	a0,a0,%lo(.LC34)
	jalr	a5
.LVL218:
	.loc 1 639 5
	lw	a5,4(s2)
	lhu	a1,840(s1)
	lui	a0,%hi(.LC35)
	addi	a0,a0,%lo(.LC35)
	jalr	a5
.LVL219:
	.loc 1 640 5
	lw	a5,4(s2)
	lbu	a1,842(s1)
	lui	a0,%hi(.LC36)
	addi	a0,a0,%lo(.LC36)
	jalr	a5
.LVL220:
	.loc 1 641 5
	lw	a5,4(s2)
	lw	a1,844(s1)
	lui	a0,%hi(.LC37)
	addi	a0,a0,%lo(.LC37)
	jalr	a5
.LVL221:
	.loc 1 642 5
	lw	a5,4(s2)
	lw	a1,848(s1)
	lui	a0,%hi(.LC38)
	addi	a0,a0,%lo(.LC38)
	jalr	a5
.LVL222:
	.loc 1 643 5
	lw	a5,4(s2)
	lw	a1,868(s1)
	lui	a0,%hi(.LC21)
	addi	a0,a0,%lo(.LC21)
	jalr	a5
.LVL223:
	.loc 1 645 5
	.loc 1 645 8 is_stmt 0
	lhu	a5,16(s1)
	bne	a5,zero,.L155
	.loc 1 646 9 is_stmt 1
	.loc 1 646 29 is_stmt 0
	lbu	a5,28(s1)
	.loc 1 647 22
	li	a4,1
	sw	a4,0(s3)
	.loc 1 649 18
	li	a4,24
	.loc 1 646 24
	sw	a5,468(s3)
	.loc 1 647 9 is_stmt 1
	.loc 1 648 9
.LVL224:
	.loc 1 649 9
	.loc 1 649 18 is_stmt 0
	mul	a5,a5,a4
.LVL225:
	lbu	a4,30(s1)
	add	a5,s3,a5
	sb	a4,270(a5)
.LVL226:
.L156:
	.loc 1 653 5 is_stmt 1
	.loc 1 653 9
	.loc 1 653 17
	.loc 1 655 5
	li	a2,44
	li	a1,0
	addi	a0,s0,-76
	call	memset
.LVL227:
	.loc 1 656 5
	.loc 1 657 5
	.loc 1 658 5
	.loc 1 659 5
	.loc 1 660 5
	.loc 1 661 5
	.loc 1 662 5
	.loc 1 663 5
	.loc 1 656 25 is_stmt 0
	lw	a5,16(s1)
	sw	a5,-76(s0)
	.loc 1 658 22
	lw	a5,20(s1)
	sw	a5,-72(s0)
	.loc 1 662 22
	lhu	a5,24(s1)
	sh	a5,-68(s0)
	.loc 1 664 5 is_stmt 1
	.loc 1 664 21 is_stmt 0
	lbu	a5,27(s1)
	sb	a5,-66(s0)
	.loc 1 665 5 is_stmt 1
	.loc 1 665 20 is_stmt 0
	lbu	a5,28(s1)
	sb	a5,-65(s0)
	.loc 1 666 5 is_stmt 1
	.loc 1 666 20 is_stmt 0
	lbu	a5,29(s1)
	sb	a5,-64(s0)
	.loc 1 667 5 is_stmt 1
	.loc 1 667 22 is_stmt 0
	lbu	a5,30(s1)
	sw	a5,-60(s0)
	.loc 1 668 5 is_stmt 1
	.loc 1 668 17 is_stmt 0
	lhu	a5,836(s1)
	sh	a5,-56(s0)
	.loc 1 669 5 is_stmt 1
	.loc 1 669 18 is_stmt 0
	lbu	a5,838(s1)
	sb	a5,-54(s0)
	.loc 1 670 5 is_stmt 1
	.loc 1 670 25 is_stmt 0
	lhu	a5,840(s1)
	sh	a5,-52(s0)
	.loc 1 671 5 is_stmt 1
	.loc 1 671 19 is_stmt 0
	lbu	a5,842(s1)
	sb	a5,-50(s0)
	.loc 1 672 5 is_stmt 1
	.loc 1 672 26 is_stmt 0
	addi	a5,s1,768
	lw	a4,76(a5)
	sw	a4,-48(s0)
	.loc 1 673 5 is_stmt 1
	.loc 1 673 26 is_stmt 0
	lw	a4,80(a5)
	sw	a4,-44(s0)
	.loc 1 674 5 is_stmt 1
	.loc 1 674 30 is_stmt 0
	lw	a4,100(a5)
	lw	a5,104(a5)
	sw	a4,-40(s0)
	sw	a5,-36(s0)
	.loc 1 676 5 is_stmt 1
	.loc 1 676 9 is_stmt 0
	lui	a5,%hi(.LANCHOR6)
	lw	a5,%lo(.LANCHOR6)(a5)
	.loc 1 676 8
	beq	a5,zero,.L157
	.loc 1 677 9 is_stmt 1
	lui	a4,%hi(.LANCHOR7)
	lw	a0,%lo(.LANCHOR7)(a4)
	addi	a1,s0,-76
	jalr	a5
.LVL228:
.L157:
	.loc 1 680 5
	.loc 1 680 8 is_stmt 0
	lhu	a5,16(s1)
	bne	a5,zero,.L158
	.loc 1 684 9 is_stmt 1
	.loc 1 684 40 is_stmt 0
	lbu	a0,27(s1)
	.loc 1 684 16
	li	a5,28
	mul	a0,a0,a5
	addi	a1,a0,64
	add	a1,s3,a1
.LVL229:
	.loc 1 685 9 is_stmt 1
	.loc 1 685 29 is_stmt 0
	add	s3,s3,a0
.LVL230:
	lw	a0,72(s3)
	.loc 1 685 20
	beq	a0,zero,.L159
	.loc 1 686 13 is_stmt 1
	lui	a1,%hi(netif_set_link_up)
.LVL231:
	li	a2,0
	addi	a1,a1,%lo(netif_set_link_up)
	call	netifapi_netif_common
.LVL232:
	.loc 1 687 13
	lw	a0,72(s3)
	lui	a1,%hi(netif_set_default)
	li	a2,0
	addi	a1,a1,%lo(netif_set_default)
	call	netifapi_netif_common
.LVL233:
.L158:
	.loc 1 699 5
	.loc 1 700 1 is_stmt 0
	lw	ra,76(sp)
	.cfi_remember_state
	.cfi_restore 1
	lw	s0,72(sp)
	.cfi_restore 8
	.cfi_def_cfa 2, 80
	lw	s1,68(sp)
	.cfi_restore 9
.LVL234:
	lw	s2,64(sp)
	.cfi_restore 18
	lw	s3,60(sp)
	.cfi_restore 19
	lw	s4,56(sp)
	.cfi_restore 20
	lw	s5,52(sp)
	.cfi_restore 21
	li	a0,0
	addi	sp,sp,80
	.cfi_def_cfa_offset 0
	jr	ra
.LVL235:
.L155:
	.cfi_restore_state
	.loc 1 651 9 is_stmt 1
	.loc 1 651 22 is_stmt 0
	sw	zero,0(s3)
	j	.L156
.LVL236:
.L159:
	.loc 1 693 13 is_stmt 1
	lw	a5,4(s4)
	lui	a0,%hi(.LC39)
	li	a2,0
	addi	a0,a0,%lo(.LC39)
	jalr	a5
.LVL237:
	j	.L158
	.cfi_endproc
.LFE89:
	.size	bl_rx_sm_connect_ind, .-bl_rx_sm_connect_ind
	.section	.text.wifi_mgmr_get_apm_status_code_str,"ax",@progbits
	.align	1
	.globl	wifi_mgmr_get_apm_status_code_str
	.type	wifi_mgmr_get_apm_status_code_str, @function
wifi_mgmr_get_apm_status_code_str:
.LFB88:
	.loc 1 602 1
	.cfi_startproc
.LVL238:
	.loc 1 603 5
.LBB84:
.LBB85:
	.loc 1 582 5
	.loc 1 584 5
	.loc 1 584 17
.LBE85:
.LBE84:
	.loc 1 602 1 is_stmt 0
	addi	sp,sp,-16
	.cfi_def_cfa_offset 16
	lui	a5,%hi(.LANCHOR14)
	sw	s0,12(sp)
	addi	a5,a5,%lo(.LANCHOR14)
	.cfi_offset 8, -4
	addi	s0,sp,16
	.cfi_def_cfa 8, 0
	addi	a4,a5,48
.LVL239:
.L166:
.LBB88:
.LBB86:
	.loc 1 585 9 is_stmt 1
	.loc 1 585 12 is_stmt 0
	lhu	a3,0(a5)
	beq	a3,a0,.L165
	.loc 1 584 26 is_stmt 1
	.loc 1 584 17
	.loc 1 584 5 is_stmt 0
	addi	a5,a5,8
	bne	a4,a5,.L166
	.loc 1 590 16
	lui	a0,%hi(.LC15)
.LVL240:
	addi	a0,a0,%lo(.LC15)
.LVL241:
.L164:
.LBE86:
.LBE88:
	.loc 1 604 1
	lw	s0,12(sp)
	.cfi_remember_state
	.cfi_restore 8
	.cfi_def_cfa 2, 16
	addi	sp,sp,16
	.cfi_def_cfa_offset 0
	jr	ra
.LVL242:
.L165:
	.cfi_restore_state
.LBB89:
.LBB87:
	.loc 1 589 5 is_stmt 1
	.loc 1 593 5
	.loc 1 593 19 is_stmt 0
	lw	a0,4(a5)
.LVL243:
	j	.L164
.LBE87:
.LBE89:
	.cfi_endproc
.LFE88:
	.size	wifi_mgmr_get_apm_status_code_str, .-wifi_mgmr_get_apm_status_code_str
	.section	.rodata.bl_rx_apm_sta_del_ind.str1.4,"aMS",@progbits,1
	.align	2
.LC40:
	.string	"[WF] APM_STA_DEL_IND\r\n"
	.align	2
.LC41:
	.string	"[WF]    statuts_code %u\r\n"
	.align	2
.LC42:
	.string	"[WF]    reason_code %u\r\n"
	.align	2
.LC43:
	.string	"[RX]    disconnect reason: %s\r\n"
	.align	2
.LC44:
	.string	"[WF]    -------------------------Warning: sta_idx already empty: %d\r\n"
	.align	2
.LC45:
	.string	"[WF]    --------- Potential illegal sta_idx\r\n"
	.section	.text.bl_rx_apm_sta_del_ind,"ax",@progbits
	.align	1
	.type	bl_rx_apm_sta_del_ind, @function
bl_rx_apm_sta_del_ind:
.LFB92:
	.loc 1 791 1 is_stmt 1
	.cfi_startproc
.LVL244:
	.loc 1 792 5
	.loc 1 791 1 is_stmt 0
	addi	sp,sp,-32
	.cfi_def_cfa_offset 32
	sw	ra,28(sp)
	sw	s0,24(sp)
	sw	s1,20(sp)
	.cfi_offset 1, -4
	.cfi_offset 8, -8
	.cfi_offset 9, -12
	addi	s0,sp,32
	.cfi_def_cfa 8, 0
	sw	s2,16(sp)
	sw	s3,12(sp)
	sw	s4,8(sp)
	.loc 1 795 19
	lui	s1,%hi(g_bl_ops_funcs)
	addi	s1,s1,%lo(g_bl_ops_funcs)
	.loc 1 791 1
	.cfi_offset 18, -16
	.cfi_offset 19, -20
	.cfi_offset 20, -24
	.loc 1 795 5
	lw	a5,4(s1)
	.loc 1 791 1
	mv	s3,a0
	.loc 1 795 5
	lui	a0,%hi(.LC40)
.LVL245:
	addi	a0,a0,%lo(.LC40)
	.loc 1 791 1
	mv	s2,a2
.LVL246:
	.loc 1 793 5 is_stmt 1
	.loc 1 795 5
	jalr	a5
.LVL247:
	.loc 1 796 5
	lw	a5,4(s1)
	lbu	a1,20(s2)
	lui	a0,%hi(.LC9)
	addi	a0,a0,%lo(.LC9)
	jalr	a5
.LVL248:
	.loc 1 797 5
	lw	a5,4(s1)
	lhu	a1,16(s2)
	lui	a0,%hi(.LC41)
	addi	a0,a0,%lo(.LC41)
	jalr	a5
.LVL249:
	.loc 1 798 5
	lw	a5,4(s1)
	lhu	a1,18(s2)
	lui	a0,%hi(.LC42)
	addi	a0,a0,%lo(.LC42)
	jalr	a5
.LVL250:
	.loc 1 799 5
	lhu	a0,16(s2)
	.loc 1 799 19 is_stmt 0
	lw	s4,4(s1)
	.loc 1 799 5
	call	wifi_mgmr_get_apm_status_code_str
.LVL251:
	mv	a1,a0
	lui	a0,%hi(.LC43)
	addi	a0,a0,%lo(.LC43)
	jalr	s4
.LVL252:
	.loc 1 801 5 is_stmt 1
	.loc 1 801 12 is_stmt 0
	lbu	s4,20(s2)
	.loc 1 801 8
	li	a5,6
	bgtu	s4,a5,.L171
	.loc 1 802 9 is_stmt 1
.LVL253:
	.loc 1 803 9
	.loc 1 803 21 is_stmt 0
	li	a5,24
	mul	a5,s4,a5
	add	a5,s3,a5
	.loc 1 803 12
	lbu	a5,266(a5)
	bne	a5,zero,.L172
	.loc 1 804 13 is_stmt 1
	lw	a6,204(s1)
	lui	a4,%hi(.LC44)
	lui	a2,%hi(.LC4)
	mv	a5,s4
	addi	a4,a4,%lo(.LC44)
	li	a3,804
	addi	a2,a2,%lo(.LC4)
	li	a1,0
	li	a0,2
	jalr	a6
.LVL254:
.L172:
	.loc 1 804 119 discriminator 1
	.loc 1 806 9 discriminator 1
	.loc 1 806 22 is_stmt 0 discriminator 1
	li	a5,24
	mul	s4,s4,a5
.LVL255:
	add	s4,s3,s4
	sb	zero,266(s4)
.L173:
	.loc 1 810 5 is_stmt 1
	lbu	a2,20(s2)
	li	a1,22
	li	a0,2
	call	aos_post_event
.LVL256:
	.loc 1 812 5
	.loc 1 813 1 is_stmt 0
	lw	ra,28(sp)
	.cfi_remember_state
	.cfi_restore 1
	lw	s0,24(sp)
	.cfi_restore 8
	.cfi_def_cfa 2, 32
	lw	s1,20(sp)
	.cfi_restore 9
	lw	s2,16(sp)
	.cfi_restore 18
.LVL257:
	lw	s3,12(sp)
	.cfi_restore 19
.LVL258:
	lw	s4,8(sp)
	.cfi_restore 20
	li	a0,0
	addi	sp,sp,32
	.cfi_def_cfa_offset 0
	jr	ra
.LVL259:
.L171:
	.cfi_restore_state
	.loc 1 808 9 is_stmt 1
	lw	a5,4(s1)
	lui	a0,%hi(.LC45)
	addi	a0,a0,%lo(.LC45)
	jalr	a5
.LVL260:
	j	.L173
	.cfi_endproc
.LFE92:
	.size	bl_rx_apm_sta_del_ind, .-bl_rx_apm_sta_del_ind
	.section	.text.bl_rx_handle_msg,"ax",@progbits
	.align	1
	.globl	bl_rx_handle_msg
	.type	bl_rx_handle_msg, @function
bl_rx_handle_msg:
.LFB93:
	.loc 1 832 1
	.cfi_startproc
.LVL261:
	.loc 1 834 5
	.loc 1 832 1 is_stmt 0
	addi	sp,sp,-16
	.cfi_def_cfa_offset 16
	sw	s0,12(sp)
	.cfi_offset 8, -4
	addi	s0,sp,16
	.cfi_def_cfa 8, 0
	.loc 1 834 65
	lw	a5,0(a1)
	.loc 1 835 1
	lw	s0,12(sp)
	.cfi_restore 8
	.cfi_def_cfa 2, 16
	.loc 1 834 5
	addi	a0,a0,4
.LVL262:
	.loc 1 834 71
	srli	a4,a5,10
	.loc 1 834 58
	slli	a3,a4,2
	lui	a4,%hi(.LANCHOR15)
	addi	a4,a4,%lo(.LANCHOR15)
	add	a4,a4,a3
	.loc 1 834 5
	lw	a4,0(a4)
	.loc 1 834 91
	andi	a5,a5,1023
	.loc 1 834 5
	slli	a5,a5,2
	add	a5,a4,a5
	lw	a2,0(a5)
	lw	a4,36(a0)
	.loc 1 835 1
	addi	sp,sp,16
	.cfi_def_cfa_offset 0
	.loc 1 834 5
	jr	a4
.LVL263:
	.cfi_endproc
.LFE93:
	.size	bl_rx_handle_msg, .-bl_rx_handle_msg
	.section	.text.bl_rx_e2a_handler,"ax",@progbits
	.align	1
	.globl	bl_rx_e2a_handler
	.type	bl_rx_e2a_handler, @function
bl_rx_e2a_handler:
.LFB94:
	.loc 1 838 1 is_stmt 1
	.cfi_startproc
.LVL264:
	.loc 1 839 5
	.loc 1 842 5
	.loc 1 838 1 is_stmt 0
	addi	sp,sp,-16
	.cfi_def_cfa_offset 16
	sw	s0,12(sp)
	.cfi_offset 8, -4
	addi	s0,sp,16
	.cfi_def_cfa 8, 0
	.loc 1 842 67
	lw	a5,0(a0)
	.loc 1 843 1
	lw	s0,12(sp)
	.cfi_restore 8
	.cfi_def_cfa 2, 16
	.loc 1 838 1
	mv	a1,a0
	.loc 1 842 73
	srli	a4,a5,10
	.loc 1 842 60
	slli	a3,a4,2
	lui	a4,%hi(.LANCHOR15)
	addi	a4,a4,%lo(.LANCHOR15)
	add	a4,a4,a3
	.loc 1 842 5
	lw	a4,0(a4)
	.loc 1 842 93
	andi	a5,a5,1023
	.loc 1 842 5
	slli	a5,a5,2
	add	a5,a4,a5
	.loc 1 842 20
	lui	a4,%hi(wifi_hw+40)
	.loc 1 842 5
	lw	a4,%lo(wifi_hw+40)(a4)
	lw	a2,0(a5)
	lui	a0,%hi(wifi_hw+4)
.LVL265:
	.loc 1 843 1
	.loc 1 842 5
	addi	a0,a0,%lo(wifi_hw+4)
	.loc 1 843 1
	addi	sp,sp,16
	.cfi_def_cfa_offset 0
	.loc 1 842 5
	jr	a4
.LVL266:
	.cfi_endproc
.LFE94:
	.size	bl_rx_e2a_handler, .-bl_rx_e2a_handler
	.section	.text.bl_rx_pkt_cb,"ax",@progbits
	.align	1
	.globl	bl_rx_pkt_cb
	.type	bl_rx_pkt_cb, @function
bl_rx_pkt_cb:
.LFB95:
	.loc 1 846 1 is_stmt 1
	.cfi_startproc
.LVL267:
	.loc 1 847 5
	.loc 1 846 1 is_stmt 0
	addi	sp,sp,-16
	.cfi_def_cfa_offset 16
	sw	s0,8(sp)
	sw	s1,4(sp)
	sw	s2,0(sp)
	sw	ra,12(sp)
	.cfi_offset 8, -8
	.cfi_offset 9, -12
	.cfi_offset 18, -16
	.cfi_offset 1, -4
	addi	s0,sp,16
	.cfi_def_cfa 8, 0
	.loc 1 847 9
	lui	a5,%hi(.LANCHOR10)
	lw	a5,%lo(.LANCHOR10)(a5)
	.loc 1 846 1
	mv	s1,a2
	mv	s2,a3
	.loc 1 847 8
	beq	a5,zero,.L180
	.loc 1 848 9 is_stmt 1
	lui	a4,%hi(.LANCHOR11)
	mv	a2,a1
.LVL268:
	mv	a1,a0
.LVL269:
	lw	a0,%lo(.LANCHOR11)(a4)
.LVL270:
	jalr	a5
.LVL271:
.L180:
	.loc 1 850 5
	.loc 1 850 9 is_stmt 0
	lui	a5,%hi(.LANCHOR12)
	lw	a5,%lo(.LANCHOR12)(a5)
	.loc 1 850 8
	beq	a5,zero,.L179
	.loc 1 851 9 is_stmt 1
	.loc 1 853 1 is_stmt 0
	lw	s0,8(sp)
	.cfi_remember_state
	.cfi_restore 8
	.cfi_def_cfa 2, 16
	.loc 1 851 9
	lui	a4,%hi(.LANCHOR11)
	.loc 1 853 1
	lw	ra,12(sp)
	.cfi_restore 1
	.loc 1 851 9
	lw	a0,%lo(.LANCHOR11)(a4)
	mv	a2,s2
	mv	a1,s1
	.loc 1 853 1
	lw	s2,0(sp)
	.cfi_restore 18
.LVL272:
	lw	s1,4(sp)
	.cfi_restore 9
.LVL273:
	addi	sp,sp,16
	.cfi_def_cfa_offset 0
	.loc 1 851 9
	jr	a5
.LVL274:
.L179:
	.cfi_restore_state
	.loc 1 853 1
	lw	ra,12(sp)
	.cfi_restore 1
	lw	s0,8(sp)
	.cfi_restore 8
	.cfi_def_cfa 2, 16
	lw	s1,4(sp)
	.cfi_restore 9
.LVL275:
	lw	s2,0(sp)
	.cfi_restore 18
.LVL276:
	addi	sp,sp,16
	.cfi_def_cfa_offset 0
	jr	ra
	.cfi_endproc
.LFE95:
	.size	bl_rx_pkt_cb, .-bl_rx_pkt_cb
	.section	.rodata.str1.4,"aMS",@progbits,1
	.align	2
.LC46:
	.string	"apm connect ind ok"
	.align	2
.LC47:
	.string	"User delete STA"
	.align	2
.LC48:
	.string	"STA send deauth to AP"
	.align	2
.LC49:
	.string	"STA send disassociate to AP"
	.align	2
.LC50:
	.string	"timeout and delete connection"
	.align	2
.LC51:
	.string	"Delete STA for new connection"
	.align	2
.LC52:
	.string	"sm connect ind ok"
	.align	2
.LC53:
	.string	"tx auth frame alloc failure"
	.align	2
.LC54:
	.string	"Authentication failure"
	.align	2
.LC55:
	.string	"Auth response but auth algo failure"
	.align	2
.LC56:
	.string	"tx assoc frame alloc failure"
	.align	2
.LC57:
	.string	"Association failure"
	.align	2
.LC58:
	.string	"deauth by AP when connecting"
	.align	2
.LC59:
	.string	"deauth by AP when connected"
	.align	2
.LC60:
	.string	"Passwd error, 4-way handshake timeout"
	.align	2
.LC61:
	.string	"Passwd error, tx deauth frame transmit failure"
	.align	2
.LC62:
	.string	"Passwd error, tx deauth frame allocate failure"
	.align	2
.LC63:
	.string	"auth or associate frame response timeout failure"
	.align	2
.LC64:
	.string	"SSID error, scan no bssid and channel"
	.align	2
.LC65:
	.string	"create channel context failure when join network"
	.align	2
.LC66:
	.string	"join network failure"
	.align	2
.LC67:
	.string	"add sta failure"
	.align	2
.LC68:
	.string	"ap beacon loss"
	.align	2
.LC69:
	.string	"network security no match"
	.align	2
.LC70:
	.string	"wep network psk len error"
	.align	2
.LC71:
	.string	"user disconnect and send deauth"
	.align	2
.LC72:
	.string	"user disconnect but no send deauth"
	.align	2
.LC73:
	.string	"fw disconnect(tx nullframe failures)"
	.align	2
.LC74:
	.string	"fw disconnect(traffic loss)"
	.align	2
.LC75:
	.string	"user connect abort and send deauth"
	.align	2
.LC76:
	.string	"user connect abort without sending deauth"
	.align	2
.LC77:
	.string	"user connect abort when joining network"
	.align	2
.LC78:
	.string	"user connect abort when scanning"
	.comm	cfg_start_req_u_tlv_t,12,4
	.section	.rodata
	.align	2
.LC12:
	.string	""
	.string	"P\362\004"
	.zero	3
.LC13:
	.string	""
	.string	"P\362\001"
	.section	.rodata.apm_hdlrs,"a"
	.align	2
	.type	apm_hdlrs, @object
	.size	apm_hdlrs, 52
apm_hdlrs:
	.zero	16
	.word	bl_rx_apm_sta_add_ind
	.word	bl_rx_apm_sta_del_ind
	.zero	28
	.section	.rodata.apm_reason_list,"a"
	.align	2
	.set	.LANCHOR14,. + 0
	.type	apm_reason_list, @object
	.size	apm_reason_list, 48
apm_reason_list:
	.half	0
	.zero	2
	.word	.LC46
	.half	1
	.zero	2
	.word	.LC47
	.half	2
	.zero	2
	.word	.LC48
	.half	3
	.zero	2
	.word	.LC49
	.half	4
	.zero	2
	.word	.LC50
	.half	5
	.zero	2
	.word	.LC51
	.section	.rodata.me_hdlrs,"a"
	.align	2
	.type	me_hdlrs, @object
	.size	me_hdlrs, 68
me_hdlrs:
	.zero	16
	.word	bl_comman_ind
	.zero	16
	.word	bl_comman_ind
	.zero	28
	.section	.rodata.mm_hdlrs,"a"
	.align	2
	.type	mm_hdlrs, @object
	.size	mm_hdlrs, 324
mm_hdlrs:
	.zero	200
	.word	bl_rx_chan_switch_ind
	.word	bl_comman_ind
	.zero	8
	.word	bl_comman_ind
	.word	bl_comman_ind
	.word	bl_comman_ind
	.zero	16
	.word	bl_comman_ind
	.zero	24
	.word	bl_rx_rssi_status_ind
	.zero	48
	.section	.rodata.msg_hdlrs,"a"
	.align	2
	.set	.LANCHOR15,. + 0
	.type	msg_hdlrs, @object
	.size	msg_hdlrs, 36
msg_hdlrs:
	.word	mm_hdlrs
	.zero	4
	.word	scan_hdlrs
	.word	me_hdlrs
	.word	sm_hdlrs
	.word	apm_hdlrs
	.zero	8
	.word	cfg_hdlrs
	.section	.rodata.scan_hdlrs,"a"
	.align	2
	.type	scan_hdlrs, @object
	.size	scan_hdlrs, 28
scan_hdlrs:
	.zero	4
	.word	bl_rx_scanu_start_cfm
	.zero	4
	.word	bl_rx_scanu_join_cfm
	.word	bl_rx_scanu_result_ind
	.zero	8
	.section	.rodata.sm_hdlrs,"a"
	.align	2
	.type	sm_hdlrs, @object
	.size	sm_hdlrs, 40
sm_hdlrs:
	.zero	8
	.word	bl_rx_sm_connect_ind
	.zero	8
	.word	bl_rx_sm_disconnect_ind
	.zero	16
	.section	.rodata.sm_reason_list,"a"
	.align	2
	.set	.LANCHOR13,. + 0
	.type	sm_reason_list, @object
	.size	sm_reason_list, 216
sm_reason_list:
	.half	0
	.zero	2
	.word	.LC52
	.half	1
	.zero	2
	.word	.LC53
	.half	2
	.zero	2
	.word	.LC54
	.half	3
	.zero	2
	.word	.LC55
	.half	4
	.zero	2
	.word	.LC56
	.half	5
	.zero	2
	.word	.LC57
	.half	6
	.zero	2
	.word	.LC58
	.half	7
	.zero	2
	.word	.LC59
	.half	8
	.zero	2
	.word	.LC60
	.half	9
	.zero	2
	.word	.LC61
	.half	10
	.zero	2
	.word	.LC62
	.half	11
	.zero	2
	.word	.LC63
	.half	12
	.zero	2
	.word	.LC64
	.half	13
	.zero	2
	.word	.LC65
	.half	14
	.zero	2
	.word	.LC66
	.half	15
	.zero	2
	.word	.LC67
	.half	16
	.zero	2
	.word	.LC68
	.half	17
	.zero	2
	.word	.LC69
	.half	18
	.zero	2
	.word	.LC70
	.half	19
	.zero	2
	.word	.LC71
	.half	20
	.zero	2
	.word	.LC72
	.half	21
	.zero	2
	.word	.LC73
	.half	22
	.zero	2
	.word	.LC74
	.half	23
	.zero	2
	.word	.LC75
	.half	24
	.zero	2
	.word	.LC76
	.half	25
	.zero	2
	.word	.LC77
	.half	26
	.zero	2
	.word	.LC78
	.section	.sbss.cb_beacon_ind,"aw",@nobits
	.align	2
	.set	.LANCHOR5,. + 0
	.type	cb_beacon_ind, @object
	.size	cb_beacon_ind, 4
cb_beacon_ind:
	.zero	4
	.section	.sbss.cb_beacon_ind_env,"aw",@nobits
	.align	2
	.set	.LANCHOR4,. + 0
	.type	cb_beacon_ind_env, @object
	.size	cb_beacon_ind_env, 4
cb_beacon_ind_env:
	.zero	4
	.section	.sbss.cb_event,"aw",@nobits
	.align	2
	.set	.LANCHOR2,. + 0
	.type	cb_event, @object
	.size	cb_event, 4
cb_event:
	.zero	4
	.section	.sbss.cb_event_env,"aw",@nobits
	.align	2
	.set	.LANCHOR3,. + 0
	.type	cb_event_env, @object
	.size	cb_event_env, 4
cb_event_env:
	.zero	4
	.section	.sbss.cb_pkt,"aw",@nobits
	.align	2
	.set	.LANCHOR10,. + 0
	.type	cb_pkt, @object
	.size	cb_pkt, 4
cb_pkt:
	.zero	4
	.section	.sbss.cb_pkt_adv,"aw",@nobits
	.align	2
	.set	.LANCHOR12,. + 0
	.type	cb_pkt_adv, @object
	.size	cb_pkt_adv, 4
cb_pkt_adv:
	.zero	4
	.section	.sbss.cb_pkt_env,"aw",@nobits
	.align	2
	.set	.LANCHOR11,. + 0
	.type	cb_pkt_env, @object
	.size	cb_pkt_env, 4
cb_pkt_env:
	.zero	4
	.section	.sbss.cb_rssi,"aw",@nobits
	.align	2
	.set	.LANCHOR0,. + 0
	.type	cb_rssi, @object
	.size	cb_rssi, 4
cb_rssi:
	.zero	4
	.section	.sbss.cb_rssi_env,"aw",@nobits
	.align	2
	.set	.LANCHOR1,. + 0
	.type	cb_rssi_env, @object
	.size	cb_rssi_env, 4
cb_rssi_env:
	.zero	4
	.section	.sbss.cb_sm_connect_ind,"aw",@nobits
	.align	2
	.set	.LANCHOR6,. + 0
	.type	cb_sm_connect_ind, @object
	.size	cb_sm_connect_ind, 4
cb_sm_connect_ind:
	.zero	4
	.section	.sbss.cb_sm_connect_ind_env,"aw",@nobits
	.align	2
	.set	.LANCHOR7,. + 0
	.type	cb_sm_connect_ind_env, @object
	.size	cb_sm_connect_ind_env, 4
cb_sm_connect_ind_env:
	.zero	4
	.section	.sbss.cb_sm_disconnect_ind,"aw",@nobits
	.align	2
	.set	.LANCHOR8,. + 0
	.type	cb_sm_disconnect_ind, @object
	.size	cb_sm_disconnect_ind, 4
cb_sm_disconnect_ind:
	.zero	4
	.section	.sbss.cb_sm_disconnect_ind_env,"aw",@nobits
	.align	2
	.set	.LANCHOR9,. + 0
	.type	cb_sm_disconnect_ind_env, @object
	.size	cb_sm_disconnect_ind_env, 4
cb_sm_disconnect_ind_env:
	.zero	4
	.section	.srodata.cfg_hdlrs,"a"
	.align	2
	.type	cfg_hdlrs, @object
	.size	cfg_hdlrs, 8
cfg_hdlrs:
	.zero	8
	.text
.Letext0:
	.file 3 "/home/dinhquangha/Ai-Thinker-WB2/toolchain/riscv/Linux/riscv64-unknown-elf/include/machine/_default_types.h"
	.file 4 "/home/dinhquangha/Ai-Thinker-WB2/toolchain/riscv/Linux/lib/gcc/riscv64-unknown-elf/10.2.0/include/stddef.h"
	.file 5 "/home/dinhquangha/Ai-Thinker-WB2/toolchain/riscv/Linux/riscv64-unknown-elf/include/sys/_stdint.h"
	.file 6 "/home/dinhquangha/Ai-Thinker-WB2/components/network/lwip/src/include/lwip/arch.h"
	.file 7 "/home/dinhquangha/Ai-Thinker-WB2/components/network/lwip/src/include/lwip/ip4_addr.h"
	.file 8 "/home/dinhquangha/Ai-Thinker-WB2/components/network/lwip/src/include/lwip/ip_addr.h"
	.file 9 "/home/dinhquangha/Ai-Thinker-WB2/components/network/lwip/src/include/lwip/err.h"
	.file 10 "/home/dinhquangha/Ai-Thinker-WB2/components/network/lwip/src/include/lwip/pbuf.h"
	.file 11 "/home/dinhquangha/Ai-Thinker-WB2/components/network/lwip/src/include/lwip/netif.h"
	.file 12 "/home/dinhquangha/Ai-Thinker-WB2/components/network/wifi_manager/bl60x_wifi_driver/lmac_types.h"
	.file 13 "/home/dinhquangha/Ai-Thinker-WB2/components/network/wifi_manager/bl60x_wifi_driver/lmac_mac.h"
	.file 14 "/home/dinhquangha/Ai-Thinker-WB2/components/network/lwip/src/include/lwip/memp.h"
	.file 15 "/home/dinhquangha/Ai-Thinker-WB2/components/platform/hosal/bl602_hal/bl_pm.h"
	.file 16 "/home/dinhquangha/Ai-Thinker-WB2/components/os/bl_os_adapter/bl_os_adapter/include/bl_os_adapter/bl_os_type.h"
	.file 17 "/home/dinhquangha/Ai-Thinker-WB2/components/os/bl_os_adapter/bl_os_adapter/include/bl_os_adapter/bl_os_adapter.h"
	.file 18 "/home/dinhquangha/Ai-Thinker-WB2/components/os/bl_os_adapter/bl_os_adapter/include/bl_os_adapter/bl_os_log.h"
	.file 19 "/home/dinhquangha/Ai-Thinker-WB2/components/network/wifi/include/bl60x_fw_api.h"
	.file 20 "/home/dinhquangha/Ai-Thinker-WB2/components/network/wifi_manager/bl60x_wifi_driver/include/wifi_mgmr_ext.h"
	.file 21 "/home/dinhquangha/Ai-Thinker-WB2/components/network/wifi_manager/bl60x_wifi_driver/bl_main.h"
	.file 22 "/home/dinhquangha/Ai-Thinker-WB2/components/network/wifi_manager/bl60x_wifi_driver/ipc_shared.h"
	.file 23 "/home/dinhquangha/Ai-Thinker-WB2/components/network/wifi_manager/bl60x_wifi_driver/ipc_host.h"
	.file 24 "/home/dinhquangha/Ai-Thinker-WB2/components/network/wifi_manager/bl60x_wifi_driver/list.h"
	.file 25 "/home/dinhquangha/Ai-Thinker-WB2/components/network/wifi_manager/bl60x_wifi_driver/lmac_msg.h"
	.file 26 "/home/dinhquangha/Ai-Thinker-WB2/components/network/wifi_manager/bl60x_wifi_driver/bl_cmds.h"
	.file 27 "/home/dinhquangha/Ai-Thinker-WB2/components/network/wifi_manager/bl60x_wifi_driver/bl_defs.h"
	.file 28 "/home/dinhquangha/Ai-Thinker-WB2/components/network/wifi_manager/bl60x_wifi_driver/cfg80211.h"
	.file 29 "/home/dinhquangha/Ai-Thinker-WB2/components/network/wifi_manager/bl60x_wifi_driver/bl_mod_params.h"
	.file 30 "/home/dinhquangha/Ai-Thinker-WB2/components/network/wifi_manager/bl60x_wifi_driver/bl_rx.h"
	.file 31 "/home/dinhquangha/Ai-Thinker-WB2/components/network/wifi/include/supplicant_api.h"
	.file 32 "/home/dinhquangha/Ai-Thinker-WB2/components/stage/yloop/include/aos/yloop.h"
	.file 33 "/home/dinhquangha/Ai-Thinker-WB2/toolchain/riscv/Linux/riscv64-unknown-elf/include/string.h"
	.file 34 "/home/dinhquangha/Ai-Thinker-WB2/components/network/lwip/src/include/lwip/netifapi.h"
	.file 35 "/home/dinhquangha/Ai-Thinker-WB2/components/security/wpa_supplicant/include/bl_supplicant/bl_wpa.h"