	.file	"wifi_mgmr.c"
	.option nopic
	.attribute arch, "rv32i2p0_m2p0_f2p0_c2p0"
	.attribute unaligned_access, 0
	.attribute stack_align, 16
	.text
.Ltext0:
	.cfi_sections	.debug_frame
	.section	.rodata.printErrMsg.str1.4,"aMS",@progbits,1
	.align	2
.LC0:
	.string	"ENTERED ERROR STATE!"
	.section	.text.printErrMsg,"ax",@progbits
	.align	1
	.type	printErrMsg, @function
printErrMsg:
.LFB58:
	.file 1 "/home/dinhquangha/intern/Ai-Thinker-WB2/components/network/wifi_manager/bl60x_wifi_driver/wifi_mgmr.c"
	.loc 1 62 1
	.cfi_startproc
.LVL0:
	.loc 1 63 4
	.loc 1 62 1 is_stmt 0
	addi	sp,sp,-16
	.cfi_def_cfa_offset 16
	sw	s0,12(sp)
	.cfi_offset 8, -4
	addi	s0,sp,16
	.cfi_def_cfa 8, 0
	.loc 1 64 1
	lw	s0,12(sp)
	.cfi_restore 8
	.cfi_def_cfa 2, 16
	.loc 1 63 18
	lui	a5,%hi(g_bl_ops_funcs+4)
	.loc 1 63 4
	lw	a5,%lo(g_bl_ops_funcs+4)(a5)
	lui	a0,%hi(.LC0)
.LVL1:
	.loc 1 64 1
	.loc 1 63 4
	addi	a0,a0,%lo(.LC0)
	.loc 1 64 1
	addi	sp,sp,16
	.cfi_def_cfa_offset 0
	.loc 1 63 4
	jr	a5
.LVL2:
	.cfi_endproc
.LFE58:
	.size	printErrMsg, .-printErrMsg
	.section	.text._pending_task_set_safely,"ax",@progbits
	.align	1
	.type	_pending_task_set_safely, @function
_pending_task_set_safely:
.LFB59:
	.loc 1 67 1 is_stmt 1
	.cfi_startproc
.LVL3:
.LBB37:
	.loc 1 68 7
	.loc 1 68 29
.LBE37:
	.loc 1 67 1 is_stmt 0
	addi	sp,sp,-16
	.cfi_def_cfa_offset 16
	sw	s0,8(sp)
	sw	s1,4(sp)
	sw	s2,0(sp)
	sw	ra,12(sp)
	.cfi_offset 8, -8
	.cfi_offset 9, -12
	.cfi_offset 18, -16
	.cfi_offset 1, -4
	addi	s0,sp,16
	.cfi_def_cfa 8, 0
.LBB38:
	.loc 1 68 57
	lui	s1,%hi(g_bl_ops_funcs)
.LBE38:
	.loc 1 67 1
.LBB39:
	.loc 1 68 57
	addi	s1,s1,%lo(g_bl_ops_funcs)
	.loc 1 68 43
	lw	a5,20(s1)
.LBE39:
	.loc 1 67 1
	mv	s2,a0
.LBB40:
	.loc 1 68 43
	jalr	a5
.LVL4:
	.loc 1 68 76 is_stmt 1
	.loc 1 69 5
	.loc 1 69 31 is_stmt 0
	lui	a5,%hi(wifiMgmr+4096)
	addi	a5,a5,%lo(wifiMgmr+4096)
	lw	a4,400(a5)
	or	a4,a4,s2
	sw	a4,400(a5)
	.loc 1 70 5 is_stmt 1
.LBE40:
	.loc 1 71 1 is_stmt 0
	lw	s0,8(sp)
	.cfi_restore 8
	.cfi_def_cfa 2, 16
.LBB41:
	.loc 1 70 5
	lw	a5,24(s1)
.LBE41:
	.loc 1 71 1
	lw	ra,12(sp)
	.cfi_restore 1
	lw	s1,4(sp)
	.cfi_restore 9
	lw	s2,0(sp)
	.cfi_restore 18
.LVL5:
	addi	sp,sp,16
	.cfi_def_cfa_offset 0
.LBB42:
	.loc 1 70 5
	jr	a5
.LVL6:
.LBE42:
	.cfi_endproc
.LFE59:
	.size	_pending_task_set_safely, .-_pending_task_set_safely
	.section	.text._pending_task_clr_safely,"ax",@progbits
	.align	1
	.type	_pending_task_clr_safely, @function
_pending_task_clr_safely:
.LFB60:
	.loc 1 74 1 is_stmt 1
	.cfi_startproc
.LVL7:
.LBB43:
	.loc 1 75 7
	.loc 1 75 29
.LBE43:
	.loc 1 74 1 is_stmt 0
	addi	sp,sp,-16
	.cfi_def_cfa_offset 16
	sw	s0,8(sp)
	sw	s1,4(sp)
	sw	s2,0(sp)
	sw	ra,12(sp)
	.cfi_offset 8, -8
	.cfi_offset 9, -12
	.cfi_offset 18, -16
	.cfi_offset 1, -4
	addi	s0,sp,16
	.cfi_def_cfa 8, 0
.LBB44:
	.loc 1 75 57
	lui	s2,%hi(g_bl_ops_funcs)
.LBE44:
	.loc 1 74 1
.LBB45:
	.loc 1 75 57
	addi	s2,s2,%lo(g_bl_ops_funcs)
	.loc 1 75 43
	lw	a5,20(s2)
.LBE45:
	.loc 1 74 1
	mv	s1,a0
.LBB46:
	.loc 1 75 43
	jalr	a5
.LVL8:
	.loc 1 75 76 is_stmt 1
	.loc 1 76 5
	.loc 1 76 31 is_stmt 0
	lui	a4,%hi(wifiMgmr+4096)
	addi	a4,a4,%lo(wifiMgmr+4096)
	lw	a3,400(a4)
	.loc 1 76 35
	not	a5,s1
	.loc 1 76 31
	and	a5,a3,a5
	sw	a5,400(a4)
	.loc 1 77 5 is_stmt 1
.LBE46:
	.loc 1 78 1 is_stmt 0
	lw	s0,8(sp)
	.cfi_restore 8
	.cfi_def_cfa 2, 16
.LBB47:
	.loc 1 77 5
	lw	a5,24(s2)
.LBE47:
	.loc 1 78 1
	lw	ra,12(sp)
	.cfi_restore 1
	lw	s1,4(sp)
	.cfi_restore 9
.LVL9:
	lw	s2,0(sp)
	.cfi_restore 18
	addi	sp,sp,16
	.cfi_def_cfa_offset 0
.LBB48:
	.loc 1 77 5
	jr	a5
.LVL10:
.LBE48:
	.cfi_endproc
.LFE60:
	.size	_pending_task_clr_safely, .-_pending_task_clr_safely
	.section	.rodata.stateGlobalAction.str1.4,"aMS",@progbits,1
	.align	2
.LC1:
	.string	"[WF][SM] Global Action\r\n"
	.section	.text.stateGlobalAction,"ax",@progbits
	.align	1
	.type	stateGlobalAction, @function
stateGlobalAction:
.LFB72:
	.loc 1 417 1 is_stmt 1
	.cfi_startproc
.LVL11:
	.loc 1 418 5
	.loc 1 417 1 is_stmt 0
	addi	sp,sp,-16
	.cfi_def_cfa_offset 16
	sw	s0,12(sp)
	.cfi_offset 8, -4
	addi	s0,sp,16
	.cfi_def_cfa 8, 0
	.loc 1 419 1
	lw	s0,12(sp)
	.cfi_restore 8
	.cfi_def_cfa 2, 16
	.loc 1 418 19
	lui	a5,%hi(g_bl_ops_funcs+4)
	.loc 1 418 5
	lw	a5,%lo(g_bl_ops_funcs+4)(a5)
	lui	a0,%hi(.LC1)
.LVL12:
	.loc 1 419 1
	.loc 1 418 5
	addi	a0,a0,%lo(.LC1)
	.loc 1 419 1
	addi	sp,sp,16
	.cfi_def_cfa_offset 0
	.loc 1 418 5
	jr	a5
.LVL13:
	.cfi_endproc
.LFE72:
	.size	stateGlobalAction, .-stateGlobalAction
	.section	.text.stateGuard,"ax",@progbits
	.align	1
	.type	stateGuard, @function
stateGuard:
.LFB73:
	.loc 1 422 1 is_stmt 1
	.cfi_startproc
.LVL14:
	.loc 1 423 5
	.loc 1 425 5
	.loc 1 426 5
	.loc 1 422 1 is_stmt 0
	addi	sp,sp,-16
	.cfi_def_cfa_offset 16
	sw	s0,12(sp)
.LVL15:
	.cfi_offset 8, -4
	addi	s0,sp,16
	.cfi_def_cfa 8, 0
	.loc 1 426 25
	lw	a3,4(a1)
	.loc 1 430 1
	lw	s0,12(sp)
	.cfi_restore 8
	.cfi_def_cfa 2, 16
	.loc 1 426 25
	lbu	a4,1(a3)
	lbu	a5,0(a3)
	slli	a4,a4,8
	or	a4,a4,a5
	lbu	a5,2(a3)
	slli	a5,a5,16
	or	a4,a5,a4
	lbu	a5,3(a3)
	.loc 1 430 1
	addi	sp,sp,16
	.cfi_def_cfa_offset 0
	.loc 1 426 25
	slli	a5,a5,24
	or	a5,a5,a4
	.loc 1 426 8
	sub	a0,a0,a5
.LVL16:
	.loc 1 430 1
	seqz	a0,a0
	jr	ra
	.cfi_endproc
.LFE73:
	.size	stateGuard, .-stateGuard
	.section	.rodata.stateAction.str1.4,"aMS",@progbits,1
	.align	2
.LC2:
	.string	"[WF][SM] State Action ###%s### --->>> ###%s###\r\n"
	.section	.text.stateAction,"ax",@progbits
	.align	1
	.type	stateAction, @function
stateAction:
.LFB74:
	.loc 1 434 1 is_stmt 1
	.cfi_startproc
.LVL17:
	.loc 1 435 5
	.loc 1 434 1 is_stmt 0
	addi	sp,sp,-16
	.cfi_def_cfa_offset 16
	sw	s0,12(sp)
	.cfi_offset 8, -4
	addi	s0,sp,16
	.cfi_def_cfa 8, 0
	.loc 1 439 1
	lw	s0,12(sp)
	.cfi_restore 8
	.cfi_def_cfa 2, 16
	.loc 1 435 19
	lui	a5,%hi(g_bl_ops_funcs+4)
	.loc 1 435 5
	lw	a5,%lo(g_bl_ops_funcs+4)(a5)
	.loc 1 434 1
	mv	a1,a0
.LVL18:
	.loc 1 435 5
	lui	a0,%hi(.LC2)
.LVL19:
	.loc 1 439 1
	.loc 1 435 5
	addi	a0,a0,%lo(.LC2)
	.loc 1 439 1
	addi	sp,sp,16
	.cfi_def_cfa_offset 0
	.loc 1 435 5
	jr	a5
.LVL20:
	.cfi_endproc
.LFE74:
	.size	stateAction, .-stateAction
	.section	.rodata.stateExit.str1.4,"aMS",@progbits,1
	.align	2
.LC3:
	.string	"[WF][SM] Exiting %s state\r\n"
	.section	.text.stateExit,"ax",@progbits
	.align	1
	.type	stateExit, @function
stateExit:
.LFB89:
	.loc 1 782 1 is_stmt 1
	.cfi_startproc
.LVL21:
	.loc 1 783 4
	.loc 1 782 1 is_stmt 0
	addi	sp,sp,-16
	.cfi_def_cfa_offset 16
	sw	s0,12(sp)
	.cfi_offset 8, -4
	addi	s0,sp,16
	.cfi_def_cfa 8, 0
	.loc 1 784 1
	lw	s0,12(sp)
	.cfi_restore 8
	.cfi_def_cfa 2, 16
	.loc 1 783 18
	lui	a5,%hi(g_bl_ops_funcs+4)
	.loc 1 783 4
	lw	a5,%lo(g_bl_ops_funcs+4)(a5)
	.loc 1 782 1
	mv	a1,a0
.LVL22:
	.loc 1 783 4
	lui	a0,%hi(.LC3)
.LVL23:
	.loc 1 784 1
	.loc 1 783 4
	addi	a0,a0,%lo(.LC3)
	.loc 1 784 1
	addi	sp,sp,16
	.cfi_def_cfa_offset 0
	.loc 1 783 4
	jr	a5
.LVL24:
	.cfi_endproc
.LFE89:
	.size	stateExit, .-stateExit
	.section	.rodata.dump_connect_param.str1.4,"aMS",@progbits,1
	.align	2
.LC4:
	.string	"true"
	.align	2
.LC5:
	.string	"false"
	.align	2
.LC6:
	.string	"[WF][SM] Action Connect\r\n"
	.align	2
.LC7:
	.string	"\tssid %s\r\n"
	.align	2
.LC8:
	.string	"\tssid len %u\r\n"
	.align	2
.LC9:
	.string	"\tpassphr %s\r\n"
	.align	2
.LC10:
	.string	"\tpassphr len %u\r\n"
	.align	2
.LC11:
	.string	"\tpsk %s\r\n"
	.align	2
.LC12:
	.string	"\tpsk len %u\r\n"
	.align	2
.LC13:
	.string	"\tband %d\r\n"
	.align	2
.LC14:
	.string	"\tfreq %d\r\n"
	.align	2
.LC15:
	.string	"\tbssid %02X:%02X:%02X:%02X:%02X:%02X\r\n"
	.align	2
.LC16:
	.string	"\tdhcp status: %s\r\n"
	.align	2
.LC17:
	.string	"\tflags: %u\r\n"
	.section	.text.dump_connect_param,"ax",@progbits
	.align	1
	.type	dump_connect_param, @function
dump_connect_param:
.LFB93:
	.loc 1 882 1 is_stmt 1
	.cfi_startproc
.LVL25:
	.loc 1 883 5
	.loc 1 882 1 is_stmt 0
	addi	sp,sp,-32
	.cfi_def_cfa_offset 32
	sw	ra,28(sp)
	sw	s0,24(sp)
	sw	s1,20(sp)
	.cfi_offset 1, -4
	.cfi_offset 8, -8
	.cfi_offset 9, -12
	addi	s0,sp,32
	.cfi_def_cfa 8, 0
	sw	s2,16(sp)
	sw	s3,12(sp)
	sw	s4,8(sp)
	sw	s5,4(sp)
	sw	s6,0(sp)
	.cfi_offset 18, -16
	.cfi_offset 19, -20
	.cfi_offset 20, -24
	.cfi_offset 21, -28
	.cfi_offset 22, -32
	.loc 1 883 19
	lui	s4,%hi(g_bl_ops_funcs)
	addi	s2,s4,%lo(g_bl_ops_funcs)
	.loc 1 882 1
	.loc 1 883 5
	lw	a5,4(s2)
	.loc 1 882 1
	mv	s1,a0
	.loc 1 883 5
	lui	a0,%hi(.LC6)
.LVL26:
	addi	a0,a0,%lo(.LC6)
	.loc 1 882 1
	mv	s3,a3
	mv	s6,a2
	mv	s5,a1
	.loc 1 883 5
	jalr	a5
.LVL27:
	.loc 1 884 5 is_stmt 1
	lw	a5,4(s2)
	lui	a0,%hi(.LC7)
	mv	a1,s1
	addi	a0,a0,%lo(.LC7)
	jalr	a5
.LVL28:
	.loc 1 885 5
	.loc 1 885 74 is_stmt 0
	lbu	a5,34(s1)
	lbu	a4,33(s1)
	lbu	a1,36(s1)
	slli	a5,a5,8
	or	a4,a5,a4
	lbu	a5,35(s1)
	slli	a1,a1,24
	.loc 1 885 5
	lui	a0,%hi(.LC8)
	.loc 1 885 74
	slli	a5,a5,16
	or	a5,a5,a4
	.loc 1 885 5
	lw	a4,4(s2)
	or	a1,a1,a5
	addi	a0,a0,%lo(.LC8)
	jalr	a4
.LVL29:
	.loc 1 886 5 is_stmt 1
	lw	a5,4(s2)
	lui	a0,%hi(.LC9)
	addi	a1,s1,37
	addi	a0,a0,%lo(.LC9)
	jalr	a5
.LVL30:
	.loc 1 887 5
	.loc 1 887 77 is_stmt 0
	lbu	a5,168(s1)
	lbu	a4,167(s1)
	lbu	a1,170(s1)
	slli	a5,a5,8
	or	a4,a5,a4
	lbu	a5,169(s1)
	slli	a1,a1,24
	.loc 1 887 5
	lui	a0,%hi(.LC10)
	.loc 1 887 77
	slli	a5,a5,16
	or	a5,a5,a4
	.loc 1 887 5
	lw	a4,4(s2)
	or	a1,a1,a5
	addi	a0,a0,%lo(.LC10)
	jalr	a4
.LVL31:
	.loc 1 888 5 is_stmt 1
	lw	a5,4(s2)
	lui	a0,%hi(.LC11)
	addi	a1,s1,102
	addi	a0,a0,%lo(.LC11)
	jalr	a5
.LVL32:
	.loc 1 889 5
	.loc 1 889 73 is_stmt 0
	lbu	a5,172(s1)
	lbu	a4,171(s1)
	lbu	a1,174(s1)
	slli	a5,a5,8
	or	a4,a5,a4
	lbu	a5,173(s1)
	slli	a1,a1,24
	.loc 1 889 5
	lui	a0,%hi(.LC12)
	.loc 1 889 73
	slli	a5,a5,16
	or	a5,a5,a4
	.loc 1 889 5
	lw	a4,4(s2)
	or	a1,a1,a5
	addi	a0,a0,%lo(.LC12)
	jalr	a4
.LVL33:
	.loc 1 890 5 is_stmt 1
	lw	a5,4(s2)
	lui	a0,%hi(.LC13)
	mv	a1,s5
	addi	a0,a0,%lo(.LC13)
	jalr	a5
.LVL34:
	.loc 1 891 5
	lw	a5,4(s2)
	lui	a0,%hi(.LC14)
	mv	a1,s6
	addi	a0,a0,%lo(.LC14)
	jalr	a5
.LVL35:
	.loc 1 892 5
	lbu	a5,4(s3)
	lbu	a4,3(s3)
	lw	a7,4(s2)
	lbu	a6,5(s3)
	lbu	a3,2(s3)
	lbu	a2,1(s3)
	lbu	a1,0(s3)
	lui	a0,%hi(.LC15)
	addi	a0,a0,%lo(.LC15)
	jalr	a7
.LVL36:
	.loc 1 893 5
	lbu	a4,188(s1)
	.loc 1 893 19 is_stmt 0
	lw	a5,4(s2)
	addi	s4,s4,%lo(g_bl_ops_funcs)
	.loc 1 893 5
	bne	a4,zero,.L17
	lui	a1,%hi(.LC5)
	addi	a1,a1,%lo(.LC5)
.L16:
	.loc 1 893 5 discriminator 4
	lui	a0,%hi(.LC16)
	addi	a0,a0,%lo(.LC16)
	jalr	a5
.LVL37:
	.loc 1 894 5 is_stmt 1 discriminator 4
	.loc 1 894 68 is_stmt 0 discriminator 4
	lbu	a1,190(s1)
	lbu	a5,189(s1)
	.loc 1 895 1 discriminator 4
	lw	s0,24(sp)
	.cfi_remember_state
	.cfi_restore 8
	.cfi_def_cfa 2, 32
	.loc 1 894 68 discriminator 4
	slli	a1,a1,8
	or	a1,a1,a5
	lbu	a5,191(s1)
	.loc 1 894 5 discriminator 4
	lw	a4,4(s4)
	.loc 1 895 1 discriminator 4
	lw	ra,28(sp)
	.cfi_restore 1
	.loc 1 894 68 discriminator 4
	slli	a5,a5,16
	or	a5,a5,a1
	lbu	a1,192(s1)
	.loc 1 895 1 discriminator 4
	lw	s2,16(sp)
	.cfi_restore 18
	lw	s1,20(sp)
	.cfi_restore 9
.LVL38:
	lw	s3,12(sp)
	.cfi_restore 19
.LVL39:
	lw	s4,8(sp)
	.cfi_restore 20
	lw	s5,4(sp)
	.cfi_restore 21
.LVL40:
	lw	s6,0(sp)
	.cfi_restore 22
.LVL41:
	.loc 1 894 68 discriminator 4
	slli	a1,a1,24
	.loc 1 894 5 discriminator 4
	lui	a0,%hi(.LC17)
	.loc 1 895 1 discriminator 4
	.loc 1 894 5 discriminator 4
	or	a1,a1,a5
	addi	a0,a0,%lo(.LC17)
	.loc 1 895 1 discriminator 4
	addi	sp,sp,32
	.cfi_def_cfa_offset 0
	.loc 1 894 5 discriminator 4
	jr	a4
.LVL42:
.L17:
	.cfi_restore_state
	.loc 1 893 5
	lui	a1,%hi(.LC4)
	addi	a1,a1,%lo(.LC4)
	j	.L16
	.cfi_endproc
.LFE93:
	.size	dump_connect_param, .-dump_connect_param
	.section	.text.stateConnectedIPNoAction_ipgot,"ax",@progbits
	.align	1
	.type	stateConnectedIPNoAction_ipgot, @function
stateConnectedIPNoAction_ipgot:
.LFB150:
	.cfi_startproc
	addi	sp,sp,-16
	.cfi_def_cfa_offset 16
	sw	s0,12(sp)
	.cfi_offset 8, -4
	addi	s0,sp,16
	.cfi_def_cfa 8, 0
	lw	s0,12(sp)
	.cfi_restore 8
	.cfi_def_cfa 2, 16
	addi	sp,sp,16
	.cfi_def_cfa_offset 0
	tail	stateAction
	.cfi_endproc
.LFE150:
	.size	stateConnectedIPNoAction_ipgot, .-stateConnectedIPNoAction_ipgot
	.section	.text.stateConnectedIPNoExit,"ax",@progbits
	.align	1
	.type	stateConnectedIPNoExit, @function
stateConnectedIPNoExit:
.LFB103:
	.loc 1 1159 1 is_stmt 1
	.cfi_startproc
.LVL43:
	.loc 1 1160 5
	.loc 1 1162 5
	.loc 1 1163 5
	.loc 1 1159 1 is_stmt 0
	addi	sp,sp,-16
	.cfi_def_cfa_offset 16
	sw	s0,8(sp)
	sw	s1,4(sp)
	sw	s2,0(sp)
	sw	ra,12(sp)
	.cfi_offset 8, -8
	.cfi_offset 9, -12
	.cfi_offset 18, -16
	.cfi_offset 1, -4
	addi	s0,sp,16
	.cfi_def_cfa 8, 0
	.loc 1 1163 19
	lui	s2,%hi(g_bl_ops_funcs)
	.loc 1 1159 1
	.loc 1 1163 19
	addi	s2,s2,%lo(g_bl_ops_funcs)
	.loc 1 1163 5
	lw	a5,4(s2)
	.loc 1 1159 1
	mv	s1,a0
	.loc 1 1163 5
	mv	a1,a0
.LVL44:
	lui	a0,%hi(.LC3)
.LVL45:
	addi	a0,a0,%lo(.LC3)
	jalr	a5
.LVL46:
	.loc 1 1164 5 is_stmt 1
	.loc 1 1164 32 is_stmt 0
	lw	a0,32(s1)
	.loc 1 1164 8
	beq	a0,zero,.L21
	.loc 1 1165 9 is_stmt 1
	lw	a5,120(s2)
	li	a1,0
	jalr	a5
.LVL47:
	.loc 1 1166 9
	.loc 1 1166 40 is_stmt 0
	sw	zero,32(s1)
.L21:
	.loc 1 1168 1
	lw	ra,12(sp)
	.cfi_restore 1
	lw	s0,8(sp)
	.cfi_restore 8
	.cfi_def_cfa 2, 16
	lw	s1,4(sp)
	.cfi_restore 9
.LVL48:
	lw	s2,0(sp)
	.cfi_restore 18
	addi	sp,sp,16
	.cfi_def_cfa_offset 0
	jr	ra
	.cfi_endproc
.LFE103:
	.size	stateConnectedIPNoExit, .-stateConnectedIPNoExit
	.section	.text.stateConnectedIPYesGuard_ip_update,"ax",@progbits
	.align	1
	.type	stateConnectedIPYesGuard_ip_update, @function
stateConnectedIPYesGuard_ip_update:
.LFB104:
	.loc 1 1191 1 is_stmt 1
	.cfi_startproc
.LVL49:
	.loc 1 1192 5
	.loc 1 1194 5
	.loc 1 1195 5
	.loc 1 1191 1 is_stmt 0
	addi	sp,sp,-16
	.cfi_def_cfa_offset 16
	sw	s0,12(sp)
.LVL50:
	.cfi_offset 8, -4
	addi	s0,sp,16
	.cfi_def_cfa 8, 0
	.loc 1 1195 25
	lw	a3,4(a1)
	.loc 1 1200 1
	lw	s0,12(sp)
	.cfi_restore 8
	.cfi_def_cfa 2, 16
	.loc 1 1195 25
	lbu	a4,1(a3)
	lbu	a5,0(a3)
	slli	a4,a4,8
	or	a4,a4,a5
	lbu	a5,2(a3)
	slli	a5,a5,16
	or	a4,a5,a4
	lbu	a5,3(a3)
	.loc 1 1200 1
	addi	sp,sp,16
	.cfi_def_cfa_offset 0
	.loc 1 1195 25
	slli	a5,a5,24
	or	a5,a5,a4
	.loc 1 1195 8
	sub	a0,a0,a5
.LVL51:
	.loc 1 1200 1
	seqz	a0,a0
	jr	ra
	.cfi_endproc
.LFE104:
	.size	stateConnectedIPYesGuard_ip_update, .-stateConnectedIPYesGuard_ip_update
	.section	.rodata.stateConnectingEnter.str1.4,"aMS",@progbits,1
	.align	2
.LC18:
	.string	"[WF][SM] Entering %s state\r\n"
	.section	.text.stateConnectingEnter,"ax",@progbits
	.align	1
	.type	stateConnectingEnter, @function
stateConnectingEnter:
.LFB79:
	.loc 1 514 1 is_stmt 1
	.cfi_startproc
.LVL52:
	.loc 1 515 4
	.loc 1 514 1 is_stmt 0
	addi	sp,sp,-16
	.cfi_def_cfa_offset 16
	sw	s0,8(sp)
	sw	ra,12(sp)
	.cfi_offset 8, -8
	.cfi_offset 1, -4
	addi	s0,sp,16
	.cfi_def_cfa 8, 0
	.loc 1 515 18
	lui	a5,%hi(g_bl_ops_funcs+4)
	.loc 1 515 4
	lw	a5,%lo(g_bl_ops_funcs+4)(a5)
	.loc 1 514 1
	mv	a1,a0
.LVL53:
	.loc 1 515 4
	lui	a0,%hi(.LC18)
.LVL54:
	addi	a0,a0,%lo(.LC18)
	jalr	a5
.LVL55:
	.loc 1 516 4 is_stmt 1
	.loc 1 517 1 is_stmt 0
	lw	s0,8(sp)
	.cfi_restore 8
	.cfi_def_cfa 2, 16
	lw	ra,12(sp)
	.cfi_restore 1
	.loc 1 516 4
	li	a2,0
	.loc 1 517 1
	.loc 1 516 4
	li	a1,8
	li	a0,2
	.loc 1 517 1
	addi	sp,sp,16
	.cfi_def_cfa_offset 0
	.loc 1 516 4
	tail	aos_post_event
.LVL56:
	.cfi_endproc
.LFE79:
	.size	stateConnectingEnter, .-stateConnectingEnter
	.section	.rodata.stateEnter.str1.4,"aMS",@progbits,1
	.align	2
.LC19:
	.string	"[WF][SM] Pending Scan Sent\r\n"
	.section	.text.stateEnter,"ax",@progbits
	.align	1
	.type	stateEnter, @function
stateEnter:
.LFB90:
	.loc 1 787 1 is_stmt 1
	.cfi_startproc
.LVL57:
	.loc 1 788 5
.LBB49:
.LBB50:
	.loc 1 82 5
.LBE50:
.LBE49:
	.loc 1 787 1 is_stmt 0
	addi	sp,sp,-16
	.cfi_def_cfa_offset 16
	sw	s0,8(sp)
	sw	s1,4(sp)
	sw	s2,0(sp)
	sw	ra,12(sp)
	.cfi_offset 8, -8
	.cfi_offset 9, -12
	.cfi_offset 18, -16
	.cfi_offset 1, -4
	addi	s0,sp,16
	.cfi_def_cfa 8, 0
.LBB53:
.LBB51:
	.loc 1 82 34
	lui	a5,%hi(wifiMgmr+4496)
	.loc 1 82 39
	lw	a5,%lo(wifiMgmr+4496)(a5)
	lui	s1,%hi(g_bl_ops_funcs)
.LBE51:
.LBE53:
	.loc 1 787 1
	mv	s2,a0
.LBB54:
.LBB52:
	.loc 1 82 39
	andi	a5,a5,1
	addi	s1,s1,%lo(g_bl_ops_funcs)
.LBE52:
.LBE54:
	.loc 1 788 8
	beq	a5,zero,.L32
	.loc 1 789 9 is_stmt 1
	lw	a5,4(s1)
	lui	a0,%hi(.LC19)
.LVL58:
	addi	a0,a0,%lo(.LC19)
	jalr	a5
.LVL59:
	.loc 1 790 9
	lui	a3,%hi(mac_addr_bcst)
	lui	a0,%hi(wifiMgmr+40)
	li	a6,0
	li	a5,0
	li	a4,0
	addi	a3,a3,%lo(mac_addr_bcst)
	li	a2,0
	li	a1,0
	addi	a0,a0,%lo(wifiMgmr+40)
	call	bl_main_scan
.LVL60:
	.loc 1 791 9
	li	a0,1
	call	_pending_task_clr_safely
.LVL61:
.L32:
	.loc 1 794 4
	.loc 1 795 1 is_stmt 0
	lw	s0,8(sp)
	.cfi_restore 8
	.cfi_def_cfa 2, 16
	.loc 1 794 4
	lw	a5,4(s1)
	.loc 1 795 1
	lw	ra,12(sp)
	.cfi_restore 1
	lw	s1,4(sp)
	.cfi_restore 9
	.loc 1 794 4
	mv	a1,s2
	.loc 1 795 1
	lw	s2,0(sp)
	.cfi_restore 18
.LVL62:
	.loc 1 794 4
	lui	a0,%hi(.LC18)
	.loc 1 795 1
	.loc 1 794 4
	addi	a0,a0,%lo(.LC18)
	.loc 1 795 1
	addi	sp,sp,16
	.cfi_def_cfa_offset 0
	.loc 1 794 4
	jr	a5
.LVL63:
	.cfi_endproc
.LFE90:
	.size	stateEnter, .-stateEnter
	.section	.rodata.stateGlobalGuard_fw_scan.str1.4,"aMS",@progbits,1
	.align	2
.LC20:
	.string	"------>>>>>> Scan CMD Pending\r\n"
	.align	2
.LC21:
	.string	"------>>>>>> FW busy\r\n"
	.align	2
.LC22:
	.string	"------>>>>>> Scan CMD fixed channels_num:%u\r\n"
	.align	2
.LC23:
	.string	"------>>>>>> Scan CMD\r\n"
	.section	.text.stateGlobalGuard_fw_scan,"ax",@progbits
	.align	1
	.type	stateGlobalGuard_fw_scan, @function
stateGlobalGuard_fw_scan:
.LFB71:
	.loc 1 351 1 is_stmt 1
	.cfi_startproc
.LVL64:
	.loc 1 352 5
	.loc 1 353 5
	.loc 1 354 5
	.loc 1 355 5
	.loc 1 356 5
	.loc 1 357 5
	.loc 1 358 5
	.loc 1 360 5
	.loc 1 351 1 is_stmt 0
	addi	sp,sp,-64
	.cfi_def_cfa_offset 64
	sw	s0,56(sp)
	sw	ra,60(sp)
	sw	s1,52(sp)
	sw	s2,48(sp)
	sw	s3,44(sp)
	sw	s4,40(sp)
	.cfi_offset 8, -8
	.cfi_offset 1, -4
	.cfi_offset 9, -12
	.cfi_offset 18, -16
	.cfi_offset 19, -20
	.cfi_offset 20, -24
	addi	s0,sp,64
	.cfi_def_cfa 8, 0
	.loc 1 360 9
	lw	s1,4(a1)
.LVL65:
	.loc 1 363 5 is_stmt 1
	.loc 1 363 39 is_stmt 0
	lbu	a4,1(s1)
	lbu	a5,0(s1)
	slli	a4,a4,8
	or	a4,a4,a5
	lbu	a5,2(s1)
	slli	a5,a5,16
	or	a4,a5,a4
	lbu	a5,3(s1)
	slli	a5,a5,24
	or	a5,a5,a4
	.loc 1 363 8
	li	a4,19
	bne	a5,a4,.L38
	.loc 1 368 5 is_stmt 1
	.loc 1 368 39 is_stmt 0
	lui	s3,%hi(wifiMgmr+4096)
	addi	s3,s3,%lo(wifiMgmr+4096)
	lw	a4,232(s3)
	.loc 1 368 8
	lui	a5,%hi(.LANCHOR0)
	lui	s2,%hi(g_bl_ops_funcs)
	addi	a5,a5,%lo(.LANCHOR0)
	addi	s2,s2,%lo(g_bl_ops_funcs)
	beq	a4,a5,.L39
	.loc 1 368 53 discriminator 1
	lui	a5,%hi(.LANCHOR1)
	addi	a5,a5,%lo(.LANCHOR1)
	beq	a4,a5,.L39
	.loc 1 369 60
	lui	a5,%hi(.LANCHOR2)
	addi	a5,a5,%lo(.LANCHOR2)
	bne	a4,a5,.L40
.L39:
	.loc 1 371 13 is_stmt 1
	lw	a5,4(s2)
	lui	a0,%hi(.LC20)
.LVL66:
	addi	a0,a0,%lo(.LC20)
	jalr	a5
.LVL67:
	.loc 1 373 13
	li	a0,1
	call	_pending_task_set_safely
.LVL68:
	.loc 1 374 13
.L38:
	.loc 1 413 1 is_stmt 0
	lw	ra,60(sp)
	.cfi_remember_state
	.cfi_restore 1
	lw	s0,56(sp)
	.cfi_restore 8
	.cfi_def_cfa 2, 64
	lw	s1,52(sp)
	.cfi_restore 9
.LVL69:
	lw	s2,48(sp)
	.cfi_restore 18
	lw	s3,44(sp)
	.cfi_restore 19
	lw	s4,40(sp)
	.cfi_restore 20
	li	a0,0
	addi	sp,sp,64
	.cfi_def_cfa_offset 0
	jr	ra
.LVL70:
.L40:
	.cfi_restore_state
	.loc 1 377 5 is_stmt 1
	.loc 1 378 5
	.loc 1 380 5 is_stmt 0
	li	a2,6
	addi	a1,s1,16
.LVL71:
	addi	a0,s0,-40
.LVL72:
	.loc 1 378 17
	lhu	s4,22(s1)
.LVL73:
	.loc 1 379 5 is_stmt 1
	.loc 1 380 5
	call	memcpy
.LVL74:
	.loc 1 381 5
	.loc 1 382 5
	.loc 1 395 5
	.loc 1 395 33 is_stmt 0
	lw	a4,232(s3)
	.loc 1 395 8
	lui	a5,%hi(.LANCHOR3)
	addi	a5,a5,%lo(.LANCHOR3)
	beq	a4,a5,.L41
	.loc 1 395 47 discriminator 1
	lui	a5,%hi(.LANCHOR4)
	addi	a5,a5,%lo(.LANCHOR4)
	beq	a4,a5,.L41
	.loc 1 396 61
	lui	a5,%hi(.LANCHOR5)
	addi	a5,a5,%lo(.LANCHOR5)
	beq	a4,a5,.L41
	.loc 1 398 13 is_stmt 1
	lw	a5,4(s2)
	lui	a0,%hi(.LC21)
	addi	a0,a0,%lo(.LC21)
	jalr	a5
.LVL75:
	.loc 1 399 13
	li	a2,1
	li	a1,9
	li	a0,2
	call	aos_post_event
.LVL76:
	.loc 1 400 13
	.loc 1 400 19 is_stmt 0
	j	.L38
.LVL77:
.L41:
	.loc 1 381 15
	lbu	a5,86(s1)
	.loc 1 382 19
	lw	a6,88(s1)
	.loc 1 403 5 is_stmt 1
	.loc 1 379 10 is_stmt 0
	addi	a4,s1,52
	sw	a5,-56(s0)
	sw	a6,-60(s0)
	sw	a4,-52(s0)
	.loc 1 398 27
	lw	a3,4(s2)
	lui	s2,%hi(wifiMgmr+40)
	.loc 1 403 8
	beq	s4,zero,.L42
	.loc 1 404 9 is_stmt 1
	lui	a0,%hi(.LC22)
	mv	a1,s4
	addi	a0,a0,%lo(.LC22)
	jalr	a3
.LVL78:
	.loc 1 405 9
	lw	a6,-60(s0)
	lw	a5,-56(s0)
	lw	a4,-52(s0)
	addi	a3,s0,-40
	mv	a2,s4
	addi	a1,s1,24
.L44:
	.loc 1 409 9 is_stmt 0
	addi	a0,s2,%lo(wifiMgmr+40)
	call	bl_main_scan
.LVL79:
	j	.L38
.LVL80:
.L42:
	.loc 1 408 9 is_stmt 1
	lui	a0,%hi(.LC23)
	addi	a0,a0,%lo(.LC23)
	jalr	a3
.LVL81:
	.loc 1 409 9
	lw	a6,-60(s0)
	lw	a5,-56(s0)
	lw	a4,-52(s0)
	addi	a3,s0,-40
	li	a2,0
	li	a1,0
	j	.L44
	.cfi_endproc
.LFE71:
	.size	stateGlobalGuard_fw_scan, .-stateGlobalGuard_fw_scan
	.section	.text.stateSnifferGuard_ChannelSet,"ax",@progbits
	.align	1
	.type	stateSnifferGuard_ChannelSet, @function
stateSnifferGuard_ChannelSet:
.LFB76:
	.loc 1 457 1
	.cfi_startproc
.LVL82:
	.loc 1 458 5
	.loc 1 460 5
	.loc 1 460 9 is_stmt 0
	lw	a5,4(a1)
.LVL83:
	.loc 1 461 5 is_stmt 1
	.loc 1 461 25 is_stmt 0
	lbu	a3,1(a5)
	lbu	a4,0(a5)
	slli	a3,a3,8
	or	a3,a3,a4
	lbu	a4,2(a5)
	slli	a4,a4,16
	or	a3,a4,a3
	lbu	a4,3(a5)
	slli	a4,a4,24
	or	a4,a4,a3
	.loc 1 461 8
	bne	a0,a4,.L48
	.loc 1 465 5 is_stmt 1
	.loc 1 457 1 is_stmt 0
	addi	sp,sp,-16
	.cfi_def_cfa_offset 16
	sw	s0,8(sp)
	sw	ra,12(sp)
	.cfi_offset 8, -8
	.cfi_offset 1, -4
	addi	s0,sp,16
	.cfi_def_cfa 8, 0
	.loc 1 465 58
	lbu	a1,9(a5)
.LVL84:
	.loc 1 465 41
	lbu	a0,5(a5)
.LVL85:
	.loc 1 465 58
	lbu	a3,8(a5)
	.loc 1 465 41
	lbu	a4,4(a5)
	.loc 1 465 58
	slli	a1,a1,8
	.loc 1 465 41
	slli	a0,a0,8
	.loc 1 465 58
	or	a1,a1,a3
	.loc 1 465 41
	or	a0,a0,a4
	.loc 1 465 58
	lbu	a3,10(a5)
	.loc 1 465 41
	lbu	a4,6(a5)
	.loc 1 465 58
	slli	a3,a3,16
	.loc 1 465 41
	slli	a4,a4,16
	.loc 1 465 58
	or	a3,a3,a1
	.loc 1 465 41
	or	a4,a4,a0
	.loc 1 465 58
	lbu	a1,11(a5)
	.loc 1 465 41
	lbu	a0,7(a5)
	.loc 1 465 58
	slli	a1,a1,24
	.loc 1 465 41
	slli	a0,a0,24
	.loc 1 465 5
	or	a1,a1,a3
	or	a0,a0,a4
	call	bl_main_monitor_channel_set
.LVL86:
	.loc 1 467 5 is_stmt 1
	.loc 1 468 1 is_stmt 0
	lw	ra,12(sp)
	.cfi_restore 1
	lw	s0,8(sp)
	.cfi_restore 8
	.cfi_def_cfa 2, 16
	li	a0,0
	addi	sp,sp,16
	.cfi_def_cfa_offset 0
	jr	ra
.LVL87:
.L48:
	li	a0,0
.LVL88:
	ret
	.cfi_endproc
.LFE76:
	.size	stateSnifferGuard_ChannelSet, .-stateSnifferGuard_ChannelSet
	.section	.text.stateSnifferGuard_idle,"ax",@progbits
	.align	1
	.type	stateSnifferGuard_idle, @function
stateSnifferGuard_idle:
.LFB75:
	.loc 1 443 1 is_stmt 1
	.cfi_startproc
.LVL89:
	.loc 1 444 5
	.loc 1 446 5
	.loc 1 447 5
	.loc 1 447 25 is_stmt 0
	lw	a3,4(a1)
	lbu	a4,1(a3)
	lbu	a5,0(a3)
	slli	a4,a4,8
	or	a4,a4,a5
	lbu	a5,2(a3)
	slli	a5,a5,16
	or	a4,a5,a4
	lbu	a5,3(a3)
	slli	a5,a5,24
	or	a5,a5,a4
	.loc 1 447 8
	bne	a0,a5,.L53
	.loc 1 451 5 is_stmt 1
	.loc 1 443 1 is_stmt 0
	addi	sp,sp,-16
	.cfi_def_cfa_offset 16
	sw	s0,8(sp)
.LVL90:
	sw	ra,12(sp)
	.cfi_offset 8, -8
	.cfi_offset 1, -4
	addi	s0,sp,16
	.cfi_def_cfa 8, 0
	.loc 1 451 5
	call	bl_main_monitor_disable
.LVL91:
	.loc 1 452 5 is_stmt 1
	.loc 1 453 1 is_stmt 0
	lw	ra,12(sp)
	.cfi_restore 1
	lw	s0,8(sp)
	.cfi_restore 8
	.cfi_def_cfa 2, 16
	.loc 1 452 11
	li	a0,1
	.loc 1 453 1
	addi	sp,sp,16
	.cfi_def_cfa_offset 0
	jr	ra
.LVL92:
.L53:
	.loc 1 448 15
	li	a0,0
.LVL93:
	.loc 1 453 1
	ret
	.cfi_endproc
.LFE75:
	.size	stateSnifferGuard_idle, .-stateSnifferGuard_idle
	.section	.text.stateIdleGuard_sniffer,"ax",@progbits
	.align	1
	.type	stateIdleGuard_sniffer, @function
stateIdleGuard_sniffer:
.LFB92:
	.loc 1 869 1 is_stmt 1
	.cfi_startproc
.LVL94:
	.loc 1 870 5
	.loc 1 872 5
	.loc 1 873 5
	.loc 1 873 25 is_stmt 0
	lw	a3,4(a1)
	lbu	a4,1(a3)
	lbu	a5,0(a3)
	slli	a4,a4,8
	or	a4,a4,a5
	lbu	a5,2(a3)
	slli	a5,a5,16
	or	a4,a5,a4
	lbu	a5,3(a3)
	slli	a5,a5,24
	or	a5,a5,a4
	.loc 1 873 8
	bne	a0,a5,.L60
	.loc 1 877 5 is_stmt 1
	.loc 1 869 1 is_stmt 0
	addi	sp,sp,-16
	.cfi_def_cfa_offset 16
	sw	s0,8(sp)
.LVL95:
	sw	ra,12(sp)
	.cfi_offset 8, -8
	.cfi_offset 1, -4
	addi	s0,sp,16
	.cfi_def_cfa 8, 0
	.loc 1 877 5
	call	bl_main_monitor
.LVL96:
	.loc 1 878 5 is_stmt 1
	.loc 1 879 1 is_stmt 0
	lw	ra,12(sp)
	.cfi_restore 1
	lw	s0,8(sp)
	.cfi_restore 8
	.cfi_def_cfa 2, 16
	.loc 1 878 11
	li	a0,1
	.loc 1 879 1
	addi	sp,sp,16
	.cfi_def_cfa_offset 0
	jr	ra
.LVL97:
.L60:
	.loc 1 874 15
	li	a0,0
.LVL98:
	.loc 1 879 1
	ret
	.cfi_endproc
.LFE92:
	.size	stateIdleGuard_sniffer, .-stateIdleGuard_sniffer
	.section	.text.stateGlobal_cfg_req,"ax",@progbits
	.align	1
	.type	stateGlobal_cfg_req, @function
stateGlobal_cfg_req:
.LFB78:
	.loc 1 500 1 is_stmt 1
	.cfi_startproc
.LVL99:
	.loc 1 501 5
	.loc 1 502 5
	.loc 1 504 5
	.loc 1 504 9 is_stmt 0
	lw	a4,4(a1)
.LVL100:
	.loc 1 505 5 is_stmt 1
	.loc 1 505 42 is_stmt 0
	lbu	a3,1(a4)
	lbu	a5,0(a4)
	slli	a3,a3,8
	or	a3,a3,a5
	lbu	a5,2(a4)
	slli	a5,a5,16
	or	a3,a5,a3
	lbu	a5,3(a4)
	slli	a5,a5,24
	or	a5,a5,a3
	.loc 1 505 8
	li	a3,23
	bne	a5,a3,.L68
	.loc 1 506 9 is_stmt 1
.LVL101:
	.loc 1 507 9
	.loc 1 500 1 is_stmt 0
	addi	sp,sp,-16
	.cfi_def_cfa_offset 16
	sw	s0,8(sp)
	sw	ra,12(sp)
	.cfi_offset 8, -8
	.cfi_offset 1, -4
	addi	s0,sp,16
	.cfi_def_cfa 8, 0
	.loc 1 507 9
	lbu	a3,29(a4)
	lbu	a2,25(a4)
	lbu	a1,21(a4)
.LVL102:
	lbu	a0,17(a4)
.LVL103:
	lbu	t3,28(a4)
	lbu	t1,24(a4)
	lbu	a7,20(a4)
	lbu	a6,16(a4)
	slli	a3,a3,8
	slli	a2,a2,8
	slli	a1,a1,8
	slli	a0,a0,8
	or	a3,a3,t3
	or	a2,a2,t1
	lbu	t3,30(a4)
	lbu	t1,26(a4)
	or	a1,a1,a7
	or	a0,a0,a6
	lbu	a7,22(a4)
	lbu	a6,18(a4)
	slli	t3,t3,16
	slli	t1,t1,16
	slli	a7,a7,16
	slli	a6,a6,16
	or	t3,t3,a3
	or	t1,t1,a2
	lbu	a3,31(a4)
	lbu	a2,27(a4)
	or	a7,a7,a1
	or	a6,a6,a0
	lbu	a1,23(a4)
	lbu	a0,19(a4)
	slli	a3,a3,24
	slli	a2,a2,24
	slli	a1,a1,24
	slli	a0,a0,24
	li	a5,0
	addi	a4,a4,36
.LVL104:
	or	a3,a3,t3
	or	a2,a2,t1
	or	a1,a1,a7
	or	a0,a0,a6
	call	bl_main_cfg_task_req
.LVL105:
	.loc 1 510 5 is_stmt 1
	.loc 1 511 1 is_stmt 0
	lw	ra,12(sp)
	.cfi_restore 1
	lw	s0,8(sp)
	.cfi_restore 8
	.cfi_def_cfa 2, 16
	li	a0,0
	addi	sp,sp,16
	.cfi_def_cfa_offset 0
	jr	ra
.LVL106:
.L68:
	.loc 1 510 5 is_stmt 1
	.loc 1 511 1 is_stmt 0
	li	a0,0
.LVL107:
	ret
	.cfi_endproc
.LFE78:
	.size	stateGlobal_cfg_req, .-stateGlobal_cfg_req
	.section	.rodata.stateConnectedIPYesGuard_rcconfig.str1.4,"aMS",@progbits,1
	.align	2
.LC24:
	.string	"[WF][SM] rate config, use sta_idx 0, rate_config %04X\r\n"
	.section	.text.stateConnectedIPYesGuard_rcconfig,"ax",@progbits
	.align	1
	.type	stateConnectedIPYesGuard_rcconfig, @function
stateConnectedIPYesGuard_rcconfig:
.LFB106:
	.loc 1 1217 1 is_stmt 1
	.cfi_startproc
.LVL108:
	.loc 1 1218 5
	.loc 1 1220 5
	.loc 1 1217 1 is_stmt 0
	addi	sp,sp,-16
	.cfi_def_cfa_offset 16
	sw	s0,8(sp)
	sw	ra,12(sp)
	sw	s1,4(sp)
	.cfi_offset 8, -8
	.cfi_offset 1, -4
	.cfi_offset 9, -12
	addi	s0,sp,16
	.cfi_def_cfa 8, 0
	.loc 1 1220 9
	lw	s1,4(a1)
.LVL109:
	.loc 1 1221 5 is_stmt 1
	.loc 1 1221 25 is_stmt 0
	lbu	a4,1(s1)
	lbu	a5,0(s1)
	slli	a4,a4,8
	or	a4,a4,a5
	lbu	a5,2(s1)
	slli	a5,a5,16
	or	a4,a5,a4
	lbu	a5,3(s1)
	slli	a5,a5,24
	or	a5,a5,a4
	.loc 1 1221 8
	bne	a0,a5,.L72
	.loc 1 1225 5 is_stmt 1
	.loc 1 1225 110 is_stmt 0
	lbu	a1,5(s1)
.LVL110:
	lbu	a5,4(s1)
	.loc 1 1225 19
	lui	a4,%hi(g_bl_ops_funcs+4)
	.loc 1 1225 110
	slli	a1,a1,8
	or	a1,a1,a5
	lbu	a5,6(s1)
	.loc 1 1225 5
	lw	a4,%lo(g_bl_ops_funcs+4)(a4)
	lui	a0,%hi(.LC24)
.LVL111:
	.loc 1 1225 110
	slli	a5,a5,16
	or	a5,a5,a1
	lbu	a1,7(s1)
	.loc 1 1225 5
	addi	a0,a0,%lo(.LC24)
	.loc 1 1225 110
	slli	a1,a1,24
	.loc 1 1225 5
	or	a1,a1,a5
	jalr	a4
.LVL112:
	.loc 1 1226 5 is_stmt 1
	.loc 1 1226 55 is_stmt 0
	lbu	a5,5(s1)
	lbu	a1,4(s1)
	slli	a5,a5,8
	.loc 1 1226 5
	or	a1,a5,a1
	lui	a5,%hi(wifi_hw+468)
	lbu	a0,%lo(wifi_hw+468)(a5)
	call	bl_main_rate_config
.LVL113:
	.loc 1 1228 5 is_stmt 1
.L72:
	.loc 1 1229 1 is_stmt 0
	lw	ra,12(sp)
	.cfi_restore 1
	lw	s0,8(sp)
	.cfi_restore 8
	.cfi_def_cfa 2, 16
	lw	s1,4(sp)
	.cfi_restore 9
.LVL114:
	li	a0,0
	addi	sp,sp,16
	.cfi_def_cfa_offset 0
	jr	ra
	.cfi_endproc
.LFE106:
	.size	stateConnectedIPYesGuard_rcconfig, .-stateConnectedIPYesGuard_rcconfig
	.section	.text.stateConnectedIPYes_action,"ax",@progbits
	.align	1
	.type	stateConnectedIPYes_action, @function
stateConnectedIPYes_action:
.LFB107:
	.loc 1 1233 1 is_stmt 1
	.cfi_startproc
.LVL115:
	.loc 1 1234 5
	.loc 1 1236 5
	.loc 1 1233 1 is_stmt 0
	addi	sp,sp,-32
	.cfi_def_cfa_offset 32
	sw	ra,28(sp)
	sw	s0,24(sp)
	sw	s1,20(sp)
	.cfi_offset 1, -4
	.cfi_offset 8, -8
	.cfi_offset 9, -12
	addi	s0,sp,32
	.cfi_def_cfa 8, 0
	.loc 1 1237 19
	lui	a5,%hi(g_bl_ops_funcs+4)
	.loc 1 1237 5
	lw	a5,%lo(g_bl_ops_funcs+4)(a5)
	.loc 1 1233 1
	mv	a1,a0
.LVL116:
	.loc 1 1237 5
	lui	a0,%hi(.LC2)
.LVL117:
	.loc 1 1236 27
	sw	zero,-20(s0)
	.loc 1 1237 5 is_stmt 1
	addi	a0,a0,%lo(.LC2)
	jalr	a5
.LVL118:
	.loc 1 1241 5
	lui	s1,%hi(wifiMgmr+40)
	addi	a0,s1,%lo(wifiMgmr+40)
	call	wifi_netif_dhcp_stop
.LVL119:
	.loc 1 1242 5
	addi	a3,s0,-20
	addi	a0,s1,%lo(wifiMgmr+40)
	mv	a2,a3
	mv	a1,a3
	call	netifapi_netif_set_addr
.LVL120:
	.loc 1 1243 1 is_stmt 0
	lw	ra,28(sp)
	.cfi_restore 1
	lw	s0,24(sp)
	.cfi_restore 8
	.cfi_def_cfa 2, 32
	lw	s1,20(sp)
	.cfi_restore 9
	addi	sp,sp,32
	.cfi_def_cfa_offset 0
	jr	ra
	.cfi_endproc
.LFE107:
	.size	stateConnectedIPYes_action, .-stateConnectedIPYes_action
	.section	.text.stateConnectedIPNoGuard_disconnect,"ax",@progbits
	.align	1
	.type	stateConnectedIPNoGuard_disconnect, @function
stateConnectedIPNoGuard_disconnect:
.LFB95:
	.loc 1 965 1 is_stmt 1
	.cfi_startproc
.LVL121:
	.loc 1 966 5
	.loc 1 968 5
	.loc 1 969 5
	.loc 1 969 25 is_stmt 0
	lw	a3,4(a1)
	lbu	a4,1(a3)
	lbu	a5,0(a3)
	slli	a4,a4,8
	or	a4,a4,a5
	lbu	a5,2(a3)
	slli	a5,a5,16
	or	a4,a5,a4
	lbu	a5,3(a3)
	slli	a5,a5,24
	or	a5,a5,a4
	.loc 1 969 8
	bne	a0,a5,.L79
	.loc 1 973 5 is_stmt 1
	.loc 1 965 1 is_stmt 0
	addi	sp,sp,-16
	.cfi_def_cfa_offset 16
	sw	s0,8(sp)
.LVL122:
	sw	ra,12(sp)
	.cfi_offset 8, -8
	.cfi_offset 1, -4
	addi	s0,sp,16
	.cfi_def_cfa 8, 0
	.loc 1 973 5
	call	bl_main_disconnect
.LVL123:
	.loc 1 975 5 is_stmt 1
	.loc 1 976 1 is_stmt 0
	lw	ra,12(sp)
	.cfi_restore 1
	lw	s0,8(sp)
	.cfi_restore 8
	.cfi_def_cfa 2, 16
	li	a0,0
	addi	sp,sp,16
	.cfi_def_cfa_offset 0
	jr	ra
.LVL124:
.L79:
	li	a0,0
.LVL125:
	ret
	.cfi_endproc
.LFE95:
	.size	stateConnectedIPNoGuard_disconnect, .-stateConnectedIPNoGuard_disconnect
	.section	.text.stateConnectedIPYesGuard_disconnect,"ax",@progbits
	.align	1
	.type	stateConnectedIPYesGuard_disconnect, @function
stateConnectedIPYesGuard_disconnect:
.LFB152:
	.cfi_startproc
	addi	sp,sp,-16
	.cfi_def_cfa_offset 16
	sw	s0,12(sp)
	.cfi_offset 8, -4
	addi	s0,sp,16
	.cfi_def_cfa 8, 0
	lw	s0,12(sp)
	.cfi_restore 8
	.cfi_def_cfa 2, 16
	addi	sp,sp,16
	.cfi_def_cfa_offset 0
	tail	stateConnectedIPNoGuard_disconnect
	.cfi_endproc
.LFE152:
	.size	stateConnectedIPYesGuard_disconnect, .-stateConnectedIPYesGuard_disconnect
	.section	.rodata.stateDisconnect_enter.str1.4,"aMS",@progbits,1
	.align	2
.LC25:
	.string	"[WF][SM] Will retry connect after %d seconds ...\r\n"
	.align	2
.LC26:
	.string	"[WF][SM] Will retry connect after %d seconds ... (%d/%d)\r\n"
	.align	2
.LC27:
	.string	"[WF][SM] Will NOT retry connect\r\n"
	.section	.text.stateDisconnect_enter,"ax",@progbits
	.align	1
	.type	stateDisconnect_enter, @function
stateDisconnect_enter:
.LFB113:
	.loc 1 1414 1 is_stmt 1
	.cfi_startproc
.LVL126:
	.loc 1 1416 5
	.loc 1 1414 1 is_stmt 0
	addi	sp,sp,-48
	.cfi_def_cfa_offset 48
	sw	ra,44(sp)
	sw	s0,40(sp)
	sw	s1,36(sp)
	sw	s2,32(sp)
	sw	s4,24(sp)
	.cfi_offset 1, -4
	.cfi_offset 8, -8
	.cfi_offset 9, -12
	.cfi_offset 18, -16
	.cfi_offset 20, -24
	addi	s0,sp,48
	.cfi_def_cfa 8, 0
	sw	s3,28(sp)
	sw	s5,20(sp)
	.loc 1 1422 19
	lui	s2,%hi(g_bl_ops_funcs)
	.loc 1 1414 1
	.cfi_offset 19, -20
	.cfi_offset 21, -28
	.loc 1 1422 19
	addi	a5,s2,%lo(g_bl_ops_funcs)
	.loc 1 1422 5
	lw	a5,4(a5)
	mv	a1,a0
.LVL127:
	.loc 1 1414 1
	mv	s4,a0
	.loc 1 1422 5
	lui	a0,%hi(.LC18)
.LVL128:
	addi	a0,a0,%lo(.LC18)
	.loc 1 1416 9
	sw	zero,-36(s0)
	.loc 1 1418 5 is_stmt 1
	.loc 1 1419 5
	.loc 1 1421 5
	.loc 1 1422 5
	jalr	a5
.LVL129:
	.loc 1 1427 5
	.loc 1 1427 9 is_stmt 0
	lui	s1,%hi(wifiMgmr)
	addi	a0,s1,%lo(wifiMgmr)
	li	a1,-1
	call	wifi_mgmr_profile_autoreconnect_is_enabled
.LVL130:
.LBB55:
.LBB56:
	.loc 1 82 5 is_stmt 1
	.loc 1 82 34 is_stmt 0
	li	a5,4096
	addi	s1,s1,%lo(wifiMgmr)
	add	s1,s1,a5
	.loc 1 82 39
	lw	a5,400(s1)
	lui	s1,%hi(wifiMgmr+4096)
	addi	s2,s2,%lo(g_bl_ops_funcs)
	andi	a5,a5,8
.LBE56:
.LBE55:
	.loc 1 1427 67
	or	a5,a5,a0
	addi	s1,s1,%lo(wifiMgmr+4096)
	beq	a5,zero,.L85
	.loc 1 1428 3 is_stmt 1
	.loc 1 1428 88 is_stmt 0
	lhu	s3,384(s1)
	li	a5,2
	slli	a4,s3,16
	srli	a4,a4,16
	bgeu	a4,a5,.L86
	li	s3,2
.L86:
	.loc 1 1429 32
	lhu	s5,386(s1)
	.loc 1 1428 12
	slli	s3,s3,16
	srli	s3,s3,16
.LVL131:
	.loc 1 1429 9 is_stmt 1
	.loc 1 1430 3
	.loc 1 1430 6 is_stmt 0
	beq	s5,zero,.L87
	.loc 1 1430 25 discriminator 1
	lhu	a5,382(s1)
	bgeu	a5,s5,.L88
.L87:
	.loc 1 1431 4 is_stmt 1
	.loc 1 1431 34 is_stmt 0
	lw	a5,116(s2)
	lui	a0,%hi(disconnect_retry)
	mv	a1,s4
	addi	a0,a0,%lo(disconnect_retry)
	jalr	a5
.LVL132:
	.loc 1 1431 32
	sw	a0,32(s4)
	.loc 1 1433 4 is_stmt 1
.LVL133:
.LBB57:
.LBB58:
	.loc 1 82 5
	.loc 1 82 39 is_stmt 0
	lw	a5,400(s1)
	lw	a4,124(s2)
	andi	a5,a5,8
.LBE58:
.LBE57:
	.loc 1 1433 7
	beq	a5,zero,.L89
	.loc 1 1434 5 is_stmt 1
	li	a2,999424
	addi	a2,a2,577
	li	a1,0
.L101:
	.loc 1 1436 5 is_stmt 0
	jalr	a4
.LVL134:
	.loc 1 1438 4 is_stmt 1
	.loc 1 1438 40 is_stmt 0
	li	a5,1
	sb	a5,36(s4)
	.loc 1 1439 4 is_stmt 1
	.loc 1 1440 19 is_stmt 0
	lw	a5,4(s2)
	.loc 1 1439 7
	bne	s5,zero,.L91
	.loc 1 1440 5 is_stmt 1
	lui	a0,%hi(.LC25)
	mv	a1,s3
	addi	a0,a0,%lo(.LC25)
	jalr	a5
.LVL135:
.L88:
	.loc 1 1451 5
	lhu	a2,248(s1)
	li	a1,5
	li	a0,2
	call	aos_post_event
.LVL136:
	.loc 1 1454 5
	.loc 1 1454 14 is_stmt 0
	addi	a0,s0,-36
	call	bl60x_check_mac_status
.LVL137:
	.loc 1 1454 45
	lw	a5,-36(s0)
	or	a0,a0,a5
	bne	a0,zero,.L92
.LBB59:
	.loc 1 1455 9 is_stmt 1
	li	a2,0
	li	a1,23
	li	a0,2
	call	aos_post_event
.LVL138:
	.loc 1 1457 1
	.loc 1 1458 13
	call	helper_record_dump
.LVL139:
.L92:
.LBE59:
	.loc 1 1462 5
.LBB60:
.LBB61:
	.loc 1 82 5
	.loc 1 82 39 is_stmt 0
	lw	a5,400(s1)
	andi	a5,a5,1
.LBE61:
.LBE60:
	.loc 1 1462 8
	beq	a5,zero,.L84
	.loc 1 1463 9 is_stmt 1
	lw	a5,4(s2)
	lui	a0,%hi(.LC19)
	addi	a0,a0,%lo(.LC19)
	jalr	a5
.LVL140:
	.loc 1 1464 9
	lui	a3,%hi(mac_addr_bcst)
	lui	a0,%hi(wifiMgmr+40)
	li	a6,0
	li	a5,0
	li	a4,0
	addi	a3,a3,%lo(mac_addr_bcst)
	li	a2,0
	li	a1,0
	addi	a0,a0,%lo(wifiMgmr+40)
	call	bl_main_scan
.LVL141:
	.loc 1 1465 9
	li	a0,1
	call	_pending_task_clr_safely
.LVL142:
.L84:
	.loc 1 1467 1 is_stmt 0
	lw	ra,44(sp)
	.cfi_remember_state
	.cfi_restore 1
	lw	s0,40(sp)
	.cfi_restore 8
	.cfi_def_cfa 2, 48
	lw	s1,36(sp)
	.cfi_restore 9
	lw	s2,32(sp)
	.cfi_restore 18
	lw	s3,28(sp)
	.cfi_restore 19
	lw	s4,24(sp)
	.cfi_restore 20
.LVL143:
	lw	s5,20(sp)
	.cfi_restore 21
	addi	sp,sp,48
	.cfi_def_cfa_offset 0
	jr	ra
.LVL144:
.L89:
	.cfi_restore_state
	.loc 1 1436 5 is_stmt 1
	li	a2,0
	mv	a1,s3
	j	.L101
.L91:
	.loc 1 1443 6
	lhu	a2,382(s1)
	lui	a0,%hi(.LC26)
	mv	a3,s5
	mv	a1,s3
	addi	a0,a0,%lo(.LC26)
	jalr	a5
.LVL145:
	.loc 1 1444 5
	.loc 1 1444 31 is_stmt 0
	lhu	a5,382(s1)
	addi	a5,a5,1
	sh	a5,382(s1)
	j	.L88
.LVL146:
.L85:
	.loc 1 1448 9 is_stmt 1
	lw	a5,4(s2)
	lui	a0,%hi(.LC27)
	addi	a0,a0,%lo(.LC27)
	jalr	a5
.LVL147:
	.loc 1 1449 9
	li	a2,2
	li	a1,1
	li	a0,0
	call	wifi_mgmr_api_common_msg
.LVL148:
	j	.L88
	.cfi_endproc
.LFE113:
	.size	stateDisconnect_enter, .-stateDisconnect_enter
	.section	.rodata.disconnect_retry.str1.4,"aMS",@progbits,1
	.align	2
.LC28:
	.string	"[WF][SM] Retry Again --->>> retry Abort, since profile copy failed, ret is %d, wifiMgmr.profile_active_index is %u\r\n"
	.align	2
.LC29:
	.string	"[WF][SM] Retry Again --->>> retry connect\r\n"
	.section	.text.disconnect_retry,"ax",@progbits
	.align	1
	.type	disconnect_retry, @function
disconnect_retry:
.LFB112:
	.loc 1 1382 1
	.cfi_startproc
.LVL149:
	.loc 1 1383 5
	.loc 1 1384 5
	.loc 1 1388 5
.LBB62:
.LBB63:
	.loc 1 82 5
.LBE63:
.LBE62:
	.loc 1 1382 1 is_stmt 0
	addi	sp,sp,-32
	.cfi_def_cfa_offset 32
	sw	s1,20(sp)
	.cfi_offset 9, -12
.LBB69:
.LBB64:
	.loc 1 82 34
	lui	s1,%hi(wifiMgmr)
.LBE64:
.LBE69:
	.loc 1 1382 1
	sw	s0,24(sp)
	sw	s2,16(sp)
	sw	s3,12(sp)
	sw	s4,8(sp)
	sw	s5,4(sp)
	sw	ra,28(sp)
.LBB70:
.LBB65:
	.loc 1 82 34
	li	a5,4096
	.cfi_offset 8, -8
	.cfi_offset 18, -16
	.cfi_offset 19, -20
	.cfi_offset 20, -24
	.cfi_offset 21, -28
	.cfi_offset 1, -4
.LBE65:
.LBE70:
	.loc 1 1382 1
	addi	s0,sp,32
	.cfi_def_cfa 8, 0
.LBB71:
.LBB66:
	.loc 1 82 34
	addi	s4,s1,%lo(wifiMgmr)
.LBE66:
.LBE71:
	.loc 1 1382 1
.LBB72:
.LBB67:
	.loc 1 82 34
	add	s4,s4,a5
	.loc 1 82 39
	lw	a5,400(s4)
	lui	s3,%hi(g_bl_ops_funcs)
.LBE67:
.LBE72:
	.loc 1 1393 15
	addi	s2,a0,37
.LBB73:
.LBB68:
	.loc 1 82 39
	andi	a5,a5,8
	addi	s5,s1,%lo(wifiMgmr)
	addi	s3,s3,%lo(g_bl_ops_funcs)
.LBE68:
.LBE73:
	.loc 1 1388 8
	beq	a5,zero,.L103
	.loc 1 1390 9 is_stmt 1
	li	a0,8
.LVL150:
	call	_pending_task_clr_safely
.LVL151:
	.loc 1 1393 9
	.loc 1 1393 15 is_stmt 0
	mv	a1,s2
	li	a2,1
	addi	a0,s1,%lo(wifiMgmr)
	call	wifi_mgmr_profile_get_by_idx
.LVL152:
	mv	a1,a0
.LVL153:
	.loc 1 1394 9 is_stmt 1
	.loc 1 1394 12 is_stmt 0
	blt	a0,zero,.L104
	.loc 1 1396 13 is_stmt 1
	li	a1,0
	addi	a0,s1,%lo(wifiMgmr)
.LVL154:
	call	wifi_mgmr_profile_del_by_idx
.LVL155:
	.loc 1 1397 13
	li	a3,0
	li	a2,0
	mv	a1,s2
	addi	a0,s1,%lo(wifiMgmr)
	call	wifi_mgmr_profile_add_by_idx
.LVL156:
	.loc 1 1399 13
	li	a2,1
	li	a1,1
	addi	a0,s1,%lo(wifiMgmr)
	call	wifi_mgmr_profile_set_active_by_idx
.LVL157:
	.loc 1 1400 13
	.loc 1 1400 39 is_stmt 0
	li	a5,-1
	sw	a5,396(s4)
	.loc 1 1405 5 is_stmt 1
.L105:
	.loc 1 1408 9
	lw	a5,4(s3)
	lui	a0,%hi(.LC29)
	addi	a0,a0,%lo(.LC29)
	jalr	a5
.LVL158:
	.loc 1 1409 9
	.loc 1 1411 1 is_stmt 0
	lw	s0,24(sp)
	.cfi_remember_state
	.cfi_restore 8
	.cfi_def_cfa 2, 32
	lw	ra,28(sp)
	.cfi_restore 1
	lw	s1,20(sp)
	.cfi_restore 9
	lw	s2,16(sp)
	.cfi_restore 18
.LVL159:
	lw	s3,12(sp)
	.cfi_restore 19
	lw	s4,8(sp)
	.cfi_restore 20
	lw	s5,4(sp)
	.cfi_restore 21
	addi	sp,sp,32
	.cfi_def_cfa_offset 0
	.loc 1 1409 9
	tail	wifi_mgmr_api_reconnect
.LVL160:
.L103:
	.cfi_restore_state
	.loc 1 1403 9 is_stmt 1
	.loc 1 1403 15 is_stmt 0
	mv	a1,s2
	li	a2,0
	addi	a0,s1,%lo(wifiMgmr)
.LVL161:
	call	wifi_mgmr_profile_get_by_idx
.LVL162:
	mv	a1,a0
.LVL163:
	.loc 1 1405 5 is_stmt 1
	.loc 1 1405 8 is_stmt 0
	bge	a0,zero,.L105
.L104:
	.loc 1 1406 9 is_stmt 1
	.loc 1 1411 1 is_stmt 0
	lw	s0,24(sp)
	.cfi_restore 8
	.cfi_def_cfa 2, 32
	.loc 1 1406 9
	lw	a5,4(s3)
	lw	a2,644(s5)
	.loc 1 1411 1
	lw	ra,28(sp)
	.cfi_restore 1
	lw	s1,20(sp)
	.cfi_restore 9
	lw	s2,16(sp)
	.cfi_restore 18
.LVL164:
	lw	s3,12(sp)
	.cfi_restore 19
	lw	s4,8(sp)
	.cfi_restore 20
	lw	s5,4(sp)
	.cfi_restore 21
	.loc 1 1406 9
	lui	a0,%hi(.LC28)
.LVL165:
	.loc 1 1411 1
	.loc 1 1406 9
	addi	a0,a0,%lo(.LC28)
	.loc 1 1411 1
	addi	sp,sp,32
	.cfi_def_cfa_offset 0
	.loc 1 1406 9
	jr	a5
.LVL166:
	.cfi_endproc
.LFE112:
	.size	disconnect_retry, .-disconnect_retry
	.section	.rodata.stateDisconnect_action_idle.str1.4,"aMS",@progbits,1
	.align	2
.LC30:
	.string	"[WF][SM] Removing STA interface...\r\n"
	.section	.text.stateDisconnect_action_idle,"ax",@progbits
	.align	1
	.type	stateDisconnect_action_idle, @function
stateDisconnect_action_idle:
.LFB111:
	.loc 1 1372 1 is_stmt 1
	.cfi_startproc
.LVL167:
	.loc 1 1373 5
	.loc 1 1372 1 is_stmt 0
	addi	sp,sp,-16
	.cfi_def_cfa_offset 16
	sw	ra,12(sp)
	sw	s0,8(sp)
	sw	s1,4(sp)
	.cfi_offset 1, -4
	.cfi_offset 8, -8
	.cfi_offset 9, -12
	addi	s0,sp,16
	.cfi_def_cfa 8, 0
	.loc 1 1373 19
	lui	s1,%hi(g_bl_ops_funcs)
	.loc 1 1372 1
	.loc 1 1373 19
	addi	s1,s1,%lo(g_bl_ops_funcs)
	.loc 1 1373 5
	lw	a5,4(s1)
	.loc 1 1372 1
	mv	a1,a0
.LVL168:
	.loc 1 1373 5
	lui	a0,%hi(.LC2)
.LVL169:
	addi	a0,a0,%lo(.LC2)
	jalr	a5
.LVL170:
	.loc 1 1377 5 is_stmt 1
	lw	a5,4(s1)
	lui	a0,%hi(.LC30)
	addi	a0,a0,%lo(.LC30)
	jalr	a5
.LVL171:
	.loc 1 1378 5
	lui	a5,%hi(wifiMgmr+12)
	.loc 1 1379 1 is_stmt 0
	lw	s0,8(sp)
	.cfi_restore 8
	.cfi_def_cfa 2, 16
	lw	ra,12(sp)
	.cfi_restore 1
	lw	s1,4(sp)
	.cfi_restore 9
	.loc 1 1378 5
	lbu	a0,%lo(wifiMgmr+12)(a5)
	.loc 1 1379 1
	addi	sp,sp,16
	.cfi_def_cfa_offset 0
	.loc 1 1378 5
	tail	bl_main_if_remove
.LVL172:
	.cfi_endproc
.LFE111:
	.size	stateDisconnect_action_idle, .-stateDisconnect_action_idle
	.section	.text.stateDisconnect_action_reconnect,"ax",@progbits
	.align	1
	.type	stateDisconnect_action_reconnect, @function
stateDisconnect_action_reconnect:
.LFB110:
	.loc 1 1310 1 is_stmt 1
	.cfi_startproc
.LVL173:
	.loc 1 1311 5
	.loc 1 1312 5
	.loc 1 1313 5
	.loc 1 1314 5
	.loc 1 1315 5
	.loc 1 1316 5
	.loc 1 1310 1 is_stmt 0
	addi	sp,sp,-64
	.cfi_def_cfa_offset 64
	sw	s0,56(sp)
	sw	s1,52(sp)
	.cfi_offset 8, -8
	.cfi_offset 9, -12
	addi	s0,sp,64
	.cfi_def_cfa 8, 0
	sw	s2,48(sp)
	sw	ra,60(sp)
	.cfi_offset 18, -16
	.cfi_offset 1, -4
	.loc 1 1321 19
	lui	a5,%hi(g_bl_ops_funcs+4)
	.loc 1 1321 5
	lw	a5,%lo(g_bl_ops_funcs+4)(a5)
	.loc 1 1310 1
	mv	s1,a0
	.loc 1 1321 5
	mv	a1,a0
.LVL174:
	.loc 1 1320 17
	addi	s2,a0,37
	.loc 1 1321 5
	lui	a0,%hi(.LC2)
.LVL175:
	.loc 1 1316 13
	sw	zero,-24(s0)
	sh	zero,-20(s0)
	.loc 1 1319 5 is_stmt 1
	.loc 1 1320 5
.LVL176:
	.loc 1 1321 5
	addi	a0,a0,%lo(.LC2)
	jalr	a5
.LVL177:
	.loc 1 1326 5
	.loc 1 1326 20 is_stmt 0
	lbu	a4,222(s1)
	lbu	a5,221(s1)
	.loc 1 1326 8
	li	a3,-1
	.loc 1 1326 20
	slli	a4,a4,8
	or	a4,a4,a5
	lbu	a5,223(s1)
	slli	a5,a5,16
	or	a4,a5,a4
	lbu	a5,224(s1)
	slli	a5,a5,24
	or	a5,a5,a4
	.loc 1 1326 8
	beq	a5,a3,.L110
	.loc 1 1328 7 is_stmt 1
	.loc 1 1328 19 is_stmt 0
	lui	a4,%hi(wifiMgmr+4492)
	.loc 1 1328 10
	lw	a2,%lo(wifiMgmr+4492)(a4)
	lui	a4,%hi(wifiMgmr+4096)
	addi	a4,a4,%lo(wifiMgmr+4096)
	bne	a2,a3,.L111
	.loc 1 1329 9 is_stmt 1
	.loc 1 1329 35 is_stmt 0
	sw	a5,396(a4)
.L111:
	.loc 1 1332 7 is_stmt 1
	.loc 1 1332 19 is_stmt 0
	lw	a1,396(a4)
	.loc 1 1332 10
	beq	a1,zero,.L114
	.loc 1 1337 9 is_stmt 1
	.loc 1 1337 34 is_stmt 0
	addi	a1,a1,-1
	sw	a1,396(a4)
	.loc 1 1340 9 is_stmt 1
.L110:
	.loc 1 1345 7
	.loc 1 1345 12 is_stmt 0
	lbu	a7,218(s1)
.LVL178:
	.loc 1 1346 7 is_stmt 1
	.loc 1 1347 7
	.loc 1 1347 13 is_stmt 0
	addi	a3,s1,212
.LVL179:
	.loc 1 1351 5 is_stmt 1
	.loc 1 1354 5
	mv	a6,a3
	mv	a1,a7
.LVL180:
.L112:
	.loc 1 1354 5 is_stmt 0 discriminator 4
	mv	a0,s2
	li	a2,0
	sw	a6,-40(s0)
	sw	a7,-36(s0)
.LVL181:
	call	dump_connect_param
.LVL182:
	.loc 1 1359 5 is_stmt 1 discriminator 4
	.loc 1 1365 40 is_stmt 0 discriminator 4
	lbu	t3,227(s1)
	lbu	t1,226(s1)
	.loc 1 1361 59 discriminator 4
	lbu	a5,209(s1)
	.loc 1 1360 63 discriminator 4
	lbu	a3,205(s1)
	.loc 1 1359 68 discriminator 4
	lbu	a1,71(s1)
	.loc 1 1361 59 discriminator 4
	lbu	a4,208(s1)
	.loc 1 1360 63 discriminator 4
	lbu	a2,204(s1)
	.loc 1 1359 68 discriminator 4
	lbu	a0,70(s1)
	.loc 1 1365 40 discriminator 4
	slli	t3,t3,8
	or	t3,t3,t1
	.loc 1 1361 59 discriminator 4
	slli	a5,a5,8
	.loc 1 1365 40 discriminator 4
	lbu	t1,228(s1)
	.loc 1 1360 63 discriminator 4
	slli	a3,a3,8
	.loc 1 1359 68 discriminator 4
	slli	a1,a1,8
	.loc 1 1361 59 discriminator 4
	or	a5,a5,a4
	.loc 1 1360 63 discriminator 4
	or	a3,a3,a2
	.loc 1 1361 59 discriminator 4
	lbu	a4,210(s1)
	.loc 1 1360 63 discriminator 4
	lbu	a2,206(s1)
	.loc 1 1359 68 discriminator 4
	or	a1,a1,a0
	lbu	a0,72(s1)
	.loc 1 1365 40 discriminator 4
	slli	t1,t1,16
	or	t3,t1,t3
	.loc 1 1361 59 discriminator 4
	slli	a4,a4,16
	.loc 1 1365 40 discriminator 4
	lbu	t1,229(s1)
	.loc 1 1360 63 discriminator 4
	slli	a2,a2,16
	.loc 1 1359 68 discriminator 4
	slli	a0,a0,16
	.loc 1 1361 59 discriminator 4
	or	a4,a4,a5
	.loc 1 1360 63 discriminator 4
	or	a2,a2,a3
	.loc 1 1361 59 discriminator 4
	lbu	a5,211(s1)
	.loc 1 1360 63 discriminator 4
	lbu	a3,207(s1)
	.loc 1 1359 68 discriminator 4
	or	a0,a0,a1
	lbu	a1,73(s1)
	.loc 1 1359 5 discriminator 4
	lw	a7,-36(s0)
	lw	a6,-40(s0)
	.loc 1 1365 40 discriminator 4
	slli	t1,t1,24
	or	t1,t1,t3
	.loc 1 1361 59 discriminator 4
	slli	a5,a5,24
	.loc 1 1360 63 discriminator 4
	slli	a3,a3,24
	.loc 1 1359 68 discriminator 4
	slli	a1,a1,24
	.loc 1 1359 5 discriminator 4
	sw	t1,4(sp)
	or	a5,a5,a4
	or	a3,a3,a2
	addi	a4,s1,139
	addi	a2,s1,74
	or	a1,a1,a0
	sw	zero,0(sp)
	mv	a0,s2
	call	bl_main_connect
.LVL183:
	.loc 1 1367 5 is_stmt 1 discriminator 4
	li	a2,0
	li	a1,3
	li	a0,2
	call	aos_post_event
.LVL184:
	.loc 1 1368 1 is_stmt 0 discriminator 4
	lw	ra,60(sp)
	.cfi_remember_state
	.cfi_restore 1
	lw	s0,56(sp)
	.cfi_restore 8
	.cfi_def_cfa 2, 64
	lw	s1,52(sp)
	.cfi_restore 9
.LVL185:
	lw	s2,48(sp)
	.cfi_restore 18
.LVL186:
	addi	sp,sp,64
	.cfi_def_cfa_offset 0
	jr	ra
.LVL187:
.L114:
	.cfi_restore_state
	.loc 1 1335 15
	li	a6,0
	.loc 1 1333 14
	li	a7,0
	.loc 1 1354 5
	addi	a3,s0,-24
	j	.L112
	.cfi_endproc
.LFE110:
	.size	stateDisconnect_action_reconnect, .-stateDisconnect_action_reconnect
	.section	.text.stateGlobalAction_connect,"ax",@progbits
	.align	1
	.type	stateGlobalAction_connect, @function
stateGlobalAction_connect:
.LFB88:
	.loc 1 749 1 is_stmt 1
	.cfi_startproc
.LVL188:
	.loc 1 750 5
	.loc 1 751 5
	.loc 1 753 5
	.loc 1 749 1 is_stmt 0
	addi	sp,sp,-64
	.cfi_def_cfa_offset 64
	sw	ra,60(sp)
	sw	s0,56(sp)
	sw	s2,48(sp)
	sw	s3,44(sp)
	sw	s4,40(sp)
	sw	s5,36(sp)
	sw	s1,52(sp)
	.cfi_offset 1, -4
	.cfi_offset 8, -8
	.cfi_offset 18, -16
	.cfi_offset 19, -20
	.cfi_offset 20, -24
	.cfi_offset 21, -28
	.cfi_offset 9, -12
	addi	s0,sp,64
	.cfi_def_cfa 8, 0
	.loc 1 753 9
	lw	s1,4(a1)
.LVL189:
	.loc 1 754 5 is_stmt 1
	.loc 1 749 1 is_stmt 0
	mv	s5,a2
	mv	s4,a0
	.loc 1 757 67
	lbu	a5,199(s1)
	lbu	a2,198(s1)
.LVL190:
	.loc 1 757 5
	lbu	a1,197(s1)
.LVL191:
	.loc 1 757 86
	addi	a6,s1,191
	.loc 1 754 17
	addi	s3,s1,16
.LVL192:
	.loc 1 755 5 is_stmt 1
	.loc 1 757 67 is_stmt 0
	slli	a5,a5,8
	.loc 1 757 5
	mv	a3,a6
	or	a2,a5,a2
	mv	a0,s3
.LVL193:
	.loc 1 755 31
	sb	zero,48(s1)
	.loc 1 756 5 is_stmt 1
	.loc 1 756 30 is_stmt 0
	sb	zero,182(s1)
	.loc 1 757 5 is_stmt 1
	sw	a6,-36(s0)
	.loc 1 759 5 is_stmt 0
	lui	s2,%hi(wifiMgmr)
	.loc 1 757 5
	call	dump_connect_param
.LVL194:
	.loc 1 759 5 is_stmt 1
	li	a3,1
	mv	a1,s3
	li	a2,0
	addi	a0,s2,%lo(wifiMgmr)
	call	wifi_mgmr_profile_add_by_idx
.LVL195:
	.loc 1 761 5
	li	a2,0
	li	a1,1
	addi	a0,s2,%lo(wifiMgmr)
	call	wifi_mgmr_profile_set_active_by_idx
.LVL196:
	.loc 1 763 5
	.loc 1 763 19 is_stmt 0
	lui	a5,%hi(g_bl_ops_funcs+4)
	.loc 1 763 5
	lw	a5,%lo(g_bl_ops_funcs+4)(a5)
	lui	a0,%hi(.LC2)
	mv	a2,s5
	mv	a1,s4
	addi	a0,a0,%lo(.LC2)
	jalr	a5
.LVL197:
	.loc 1 768 5 is_stmt 1
	.loc 1 768 31 is_stmt 0
	li	a5,4096
	addi	s2,s2,%lo(wifiMgmr)
	add	s2,s2,a5
	li	a5,-1
	sw	a5,396(s2)
	.loc 1 771 5 is_stmt 1
	.loc 1 777 40 is_stmt 0
	lbu	t3,206(s1)
	lbu	t1,205(s1)
	.loc 1 773 59
	lbu	a5,188(s1)
	.loc 1 777 40
	slli	t3,t3,8
	or	t3,t3,t1
	lbu	t1,207(s1)
	.loc 1 772 63
	lbu	a3,184(s1)
	.loc 1 771 68
	lbu	a1,50(s1)
	.loc 1 773 59
	lbu	a4,187(s1)
	.loc 1 772 63
	lbu	a2,183(s1)
	.loc 1 771 68
	lbu	a0,49(s1)
	.loc 1 777 40
	slli	t1,t1,16
	or	t3,t1,t3
	.loc 1 773 59
	slli	a5,a5,8
	.loc 1 777 40
	lbu	t1,208(s1)
	.loc 1 772 63
	slli	a3,a3,8
	.loc 1 771 68
	slli	a1,a1,8
	.loc 1 773 59
	or	a5,a5,a4
	.loc 1 772 63
	or	a3,a3,a2
	.loc 1 773 59
	lbu	a4,189(s1)
	.loc 1 772 63
	lbu	a2,185(s1)
	.loc 1 771 68
	or	a1,a1,a0
	lbu	a0,51(s1)
	.loc 1 777 40
	slli	t1,t1,24
	or	t1,t1,t3
	.loc 1 773 59
	slli	a4,a4,16
	.loc 1 772 63
	slli	a2,a2,16
	.loc 1 771 68
	slli	a0,a0,16
	.loc 1 771 5
	lbu	a7,197(s1)
	.loc 1 773 59
	or	a4,a4,a5
	.loc 1 772 63
	or	a2,a2,a3
	.loc 1 773 59
	lbu	a5,190(s1)
	.loc 1 772 63
	lbu	a3,186(s1)
	.loc 1 771 68
	or	a0,a0,a1
	lbu	a1,52(s1)
	.loc 1 771 5
	sw	t1,4(sp)
	.loc 1 776 40
	lbu	t1,199(s1)
	lbu	t3,198(s1)
	.loc 1 771 5
	lw	a6,-36(s0)
	.loc 1 776 40
	slli	t1,t1,8
	.loc 1 771 5
	or	t1,t1,t3
	.loc 1 773 59
	slli	a5,a5,24
	.loc 1 772 63
	slli	a3,a3,24
	.loc 1 771 68
	slli	a1,a1,24
	.loc 1 771 5
	sw	t1,0(sp)
	or	a5,a5,a4
	or	a3,a3,a2
	addi	a4,s1,118
	addi	a2,s1,53
	or	a1,a1,a0
	mv	a0,s3
	call	bl_main_connect
.LVL198:
	.loc 1 779 1
	lw	ra,60(sp)
	.cfi_restore 1
	lw	s0,56(sp)
	.cfi_restore 8
	.cfi_def_cfa 2, 64
	lw	s1,52(sp)
	.cfi_restore 9
.LVL199:
	lw	s2,48(sp)
	.cfi_restore 18
	lw	s3,44(sp)
	.cfi_restore 19
.LVL200:
	lw	s4,40(sp)
	.cfi_restore 20
.LVL201:
	lw	s5,36(sp)
	.cfi_restore 21
.LVL202:
	addi	sp,sp,64
	.cfi_def_cfa_offset 0
	jr	ra
	.cfi_endproc
.LFE88:
	.size	stateGlobalAction_connect, .-stateGlobalAction_connect
	.section	.rodata.ip_obtaining_timeout.str1.4,"aMS",@progbits,1
	.align	2
.LC31:
	.string	"[WF][SM] IP obtaining timeout\r\n"
	.section	.text.ip_obtaining_timeout,"ax",@progbits
	.align	1
	.type	ip_obtaining_timeout, @function
ip_obtaining_timeout:
.LFB97:
	.loc 1 988 1 is_stmt 1
	.cfi_startproc
.LVL203:
	.loc 1 989 5
	.loc 1 991 5
	.loc 1 993 5
	.loc 1 988 1 is_stmt 0
	addi	sp,sp,-16
	.cfi_def_cfa_offset 16
	sw	s0,8(sp)
	sw	ra,12(sp)
	.cfi_offset 8, -8
	.cfi_offset 1, -4
	addi	s0,sp,16
	.cfi_def_cfa 8, 0
	.loc 1 993 19
	lui	a5,%hi(g_bl_ops_funcs+4)
	.loc 1 993 5
	lw	a5,%lo(g_bl_ops_funcs+4)(a5)
	lui	a0,%hi(.LC31)
.LVL204:
	addi	a0,a0,%lo(.LC31)
	jalr	a5
.LVL205:
	.loc 1 994 5 is_stmt 1
	.loc 1 995 1 is_stmt 0
	lw	s0,8(sp)
	.cfi_restore 8
	.cfi_def_cfa 2, 16
	lw	ra,12(sp)
	.cfi_restore 1
	addi	sp,sp,16
	.cfi_def_cfa_offset 0
	.loc 1 994 5
	tail	wifi_mgmr_api_fw_disconnect
.LVL206:
	.cfi_endproc
.LFE97:
	.size	ip_obtaining_timeout, .-ip_obtaining_timeout
	.section	.rodata.stateConnectedIPNoEnter.str1.4,"aMS",@progbits,1
	.align	2
.LC32:
	.string	"IPNO enter, disconnect\r\n"
	.align	2
.LC33:
	.string	"[WF][SM] Static IP Starting...%p\r\n"
	.align	2
.LC34:
	.string	"[WF][SM] DHCP Starting...%p\r\n"
	.section	.text.stateConnectedIPNoEnter,"ax",@progbits
	.align	1
	.type	stateConnectedIPNoEnter, @function
stateConnectedIPNoEnter:
.LFB101:
	.loc 1 1094 1 is_stmt 1
	.cfi_startproc
.LVL207:
	.loc 1 1095 5
	.loc 1 1096 5
	.loc 1 1094 1 is_stmt 0
	addi	sp,sp,-432
	.cfi_def_cfa_offset 432
	sw	s0,424(sp)
	sw	s1,420(sp)
	sw	s3,412(sp)
	.cfi_offset 8, -8
	.cfi_offset 9, -12
	.cfi_offset 19, -20
	addi	s0,sp,432
	.cfi_def_cfa 8, 0
	sw	ra,428(sp)
	sw	s2,416(sp)
	sw	s4,408(sp)
	sw	s5,404(sp)
	sw	s6,400(sp)
	sw	s7,396(sp)
	sw	s8,392(sp)
	sw	s9,388(sp)
	.cfi_offset 1, -4
	.cfi_offset 18, -16
	.cfi_offset 20, -24
	.cfi_offset 21, -28
	.cfi_offset 22, -32
	.cfi_offset 23, -36
	.cfi_offset 24, -40
	.cfi_offset 25, -44
	.loc 1 1094 1
	mv	s3,a0
	.loc 1 1096 29
	li	a2,193
	li	a1,0
.LVL208:
	addi	a0,s0,-244
.LVL209:
	call	memset
.LVL210:
	.loc 1 1097 5 is_stmt 1
	.loc 1 1099 5
.LBB80:
.LBB81:
	.loc 1 82 5
	.loc 1 82 34 is_stmt 0
	lui	a0,%hi(wifiMgmr)
	addi	a5,a0,%lo(wifiMgmr)
	li	a4,4096
	add	a5,a5,a4
	.loc 1 82 39
	lw	a5,400(a5)
	lui	s1,%hi(g_bl_ops_funcs)
	addi	s1,s1,%lo(g_bl_ops_funcs)
	andi	a5,a5,8
.LBE81:
.LBE80:
	.loc 1 1099 8
	beq	a5,zero,.L121
	.loc 1 1101 9 is_stmt 1
	lw	a5,4(s1)
	lui	a0,%hi(.LC32)
	addi	a0,a0,%lo(.LC32)
	jalr	a5
.LVL211:
	.loc 1 1102 9
	call	wifi_mgmr_sta_disconnect
.LVL212:
	.loc 1 1103 9
	lw	a5,28(s1)
	li	a0,1000
	jalr	a5
.LVL213:
	.loc 1 1104 9
.L120:
	.loc 1 1140 1 is_stmt 0
	lw	ra,428(sp)
	.cfi_remember_state
	.cfi_restore 1
	lw	s0,424(sp)
	.cfi_restore 8
	.cfi_def_cfa 2, 432
	lw	s1,420(sp)
	.cfi_restore 9
	lw	s2,416(sp)
	.cfi_restore 18
	lw	s3,412(sp)
	.cfi_restore 19
	lw	s4,408(sp)
	.cfi_restore 20
	lw	s5,404(sp)
	.cfi_restore 21
	lw	s6,400(sp)
	.cfi_restore 22
	lw	s7,396(sp)
	.cfi_restore 23
	lw	s8,392(sp)
	.cfi_restore 24
	lw	s9,388(sp)
	.cfi_restore 25
	addi	sp,sp,432
	.cfi_def_cfa_offset 0
	jr	ra
.LVL214:
.L121:
	.cfi_restore_state
	addi	s2,a0,%lo(wifiMgmr)
	.loc 1 1107 5 is_stmt 1
	.loc 1 1107 14 is_stmt 0
	lbu	a2,644(s2)
	addi	a1,s0,-244
	addi	a0,a0,%lo(wifiMgmr)
	call	wifi_mgmr_profile_get_by_idx
.LVL215:
	.loc 1 1097 13
	li	s4,1
	.loc 1 1107 8
	bne	a0,zero,.L123
	.loc 1 1108 9 is_stmt 1
	.loc 1 1108 18 is_stmt 0
	lbu	s4,-56(s0)
.LVL216:
.L123:
	.loc 1 1111 5 is_stmt 1
	.loc 1 1112 5
	lw	a5,4(s1)
	lui	a0,%hi(.LC18)
	mv	a1,s3
	addi	a0,a0,%lo(.LC18)
	jalr	a5
.LVL217:
	.loc 1 1119 5
	.loc 1 1119 8 is_stmt 0
	beq	s4,zero,.L124
	.loc 1 1120 9 is_stmt 1
	.loc 1 1120 42 is_stmt 0
	lw	a5,116(s1)
	lui	a0,%hi(ip_obtaining_timeout)
	mv	a1,s3
	addi	a0,a0,%lo(ip_obtaining_timeout)
	jalr	a5
.LVL218:
	.loc 1 1120 40
	sw	a0,32(s3)
	.loc 1 1121 9 is_stmt 1
	lw	a5,124(s1)
	li	a2,0
	li	a1,15
	jalr	a5
.LVL219:
.L125:
	.loc 1 1126 5
.LBB82:
.LBB83:
	.loc 1 1054 5
	.loc 1 1055 5
	.loc 1 1056 5
	.loc 1 1057 5
	.loc 1 1058 5
.LBB84:
	.loc 1 1060 7
	.loc 1 1060 29
	.loc 1 1060 43 is_stmt 0
	lw	a5,20(s1)
	jalr	a5
.LVL220:
	.loc 1 1060 76 is_stmt 1
	.loc 1 1061 5
	.loc 1 1066 5 is_stmt 0
	lw	a5,24(s1)
	.loc 1 1061 8
	lw	s5,20(s2)
.LVL221:
	.loc 1 1062 5 is_stmt 1
	.loc 1 1062 10 is_stmt 0
	lw	s9,24(s2)
.LVL222:
	.loc 1 1063 5 is_stmt 1
	.loc 1 1063 8 is_stmt 0
	lw	s8,28(s2)
.LVL223:
	.loc 1 1064 5 is_stmt 1
	.loc 1 1064 10 is_stmt 0
	lw	s7,32(s2)
.LVL224:
	.loc 1 1065 5 is_stmt 1
	.loc 1 1065 10 is_stmt 0
	lw	s6,36(s2)
.LVL225:
	.loc 1 1066 5 is_stmt 1
	jalr	a5
.LVL226:
.LBE84:
	.loc 1 1066 50
	.loc 1 1068 5
	.loc 1 1068 8 is_stmt 0
	beq	s5,zero,.L126
	.loc 1 1070 9 is_stmt 1
	lw	a5,4(s1)
	lui	s3,%hi(wifiMgmr+40)
.LVL227:
	lui	a0,%hi(.LC33)
	addi	a1,s3,%lo(wifiMgmr+40)
	addi	a0,a0,%lo(.LC33)
	jalr	a5
.LVL228:
	.loc 1 1072 9
	.loc 1 1074 9 is_stmt 0
	addi	a1,s0,-416
	li	a0,0
	.loc 1 1072 31
	sw	s7,-428(s0)
	.loc 1 1073 9 is_stmt 1
	.loc 1 1073 26 is_stmt 0
	sw	s7,-416(s0)
	.loc 1 1074 9 is_stmt 1
	call	dns_setserver
.LVL229:
	.loc 1 1075 9
	.loc 1 1077 9 is_stmt 0
	addi	a1,s0,-416
	li	a0,1
	.loc 1 1075 31
	sw	s6,-428(s0)
	.loc 1 1076 9 is_stmt 1
	.loc 1 1076 26 is_stmt 0
	sw	s6,-416(s0)
	.loc 1 1077 9 is_stmt 1
	call	dns_setserver
.LVL230:
	.loc 1 1079 9
	.loc 1 1082 9 is_stmt 0
	addi	a0,s3,%lo(wifiMgmr+40)
	.loc 1 1079 31
	sw	s5,-428(s0)
	.loc 1 1080 9 is_stmt 1
	.loc 1 1080 32 is_stmt 0
	sw	s9,-424(s0)
	.loc 1 1081 9 is_stmt 1
	.loc 1 1081 27 is_stmt 0
	sw	s8,-420(s0)
	.loc 1 1082 9 is_stmt 1
	call	wifi_netif_dhcp_stop
.LVL231:
	.loc 1 1083 9
	addi	a3,s0,-420
	addi	a2,s0,-424
	addi	a1,s0,-428
	addi	a0,s3,%lo(wifiMgmr+40)
	call	netifapi_netif_set_addr
.LVL232:
.L127:
.LBE83:
.LBE82:
	.loc 1 1127 5
	li	a2,0
	li	a1,4
	li	a0,2
	call	aos_post_event
.LVL233:
	.loc 1 1129 5
	.loc 1 1129 8 is_stmt 0
	lw	a5,4(s2)
	beq	a5,zero,.L120
.LBB86:
	.loc 1 1130 9 is_stmt 1
	.loc 1 1131 9
	.loc 1 1132 9
	addi	a0,s0,-416
	call	wifi_mgmr_sta_connect_ind_stat_get
.LVL234:
	.loc 1 1134 9
	.loc 1 1135 9
	.loc 1 1135 12 is_stmt 0
	lui	a4,%hi(.LANCHOR6)
	.loc 1 1134 17
	lbu	a5,-246(s0)
.LVL235:
	.loc 1 1135 12
	lw	a4,%lo(.LANCHOR6)(a4)
	beq	a4,a5,.L120
	.loc 1 1135 45 discriminator 1
	lui	s2,%hi(.LANCHOR7)
	addi	s2,s2,%lo(.LANCHOR7)
	.loc 1 1135 42 discriminator 1
	lw	a5,0(s2)
.LVL236:
	bne	a5,zero,.L120
	.loc 1 1136 13 is_stmt 1
	.loc 1 1136 39 is_stmt 0
	lw	a5,116(s1)
	lui	a0,%hi(ap_recover)
	li	a1,0
	addi	a0,a0,%lo(ap_recover)
	jalr	a5
.LVL237:
	.loc 1 1137 13
	lw	a5,124(s1)
	li	a2,0
	li	a1,3
	.loc 1 1136 37
	sw	a0,0(s2)
	.loc 1 1137 13 is_stmt 1
	jalr	a5
.LVL238:
	j	.L120
.LVL239:
.L124:
.LBE86:
	.loc 1 1123 9
	.loc 1 1123 40 is_stmt 0
	sw	zero,32(s3)
	j	.L125
.LVL240:
.L126:
.LBB87:
.LBB85:
	.loc 1 1086 9 is_stmt 1
	.loc 1 1086 12 is_stmt 0
	beq	s4,zero,.L127
	.loc 1 1087 13 is_stmt 1
	lw	a5,4(s1)
	lui	s3,%hi(wifiMgmr+40)
.LVL241:
	lui	a0,%hi(.LC34)
	addi	a1,s3,%lo(wifiMgmr+40)
	addi	a0,a0,%lo(.LC34)
	jalr	a5
.LVL242:
	.loc 1 1088 13
	addi	a0,s3,%lo(wifiMgmr+40)
	call	wifi_netif_dhcp_start
.LVL243:
	j	.L127
.LBE85:
.LBE87:
	.cfi_endproc
.LFE101:
	.size	stateConnectedIPNoEnter, .-stateConnectedIPNoEnter
	.section	.rodata.stateGlobalGuard_fw_powersaving.str1.4,"aMS",@progbits,1
	.align	2
.LC35:
	.string	"------>>>>>> Powersaving CMD, mode: %u\r\n"
	.section	.text.stateGlobalGuard_fw_powersaving,"ax",@progbits
	.align	1
	.type	stateGlobalGuard_fw_powersaving, @function
stateGlobalGuard_fw_powersaving:
.LFB70:
	.loc 1 337 1
	.cfi_startproc
.LVL244:
	.loc 1 338 5
	.loc 1 340 5
	.loc 1 337 1 is_stmt 0
	addi	sp,sp,-16
	.cfi_def_cfa_offset 16
	sw	s0,8(sp)
	sw	ra,12(sp)
	sw	s1,4(sp)
	.cfi_offset 8, -8
	.cfi_offset 1, -4
	.cfi_offset 9, -12
	addi	s0,sp,16
	.cfi_def_cfa 8, 0
	.loc 1 340 9
	lw	s1,4(a1)
.LVL245:
	.loc 1 341 5 is_stmt 1
	.loc 1 341 46 is_stmt 0
	lbu	a4,1(s1)
	lbu	a5,0(s1)
	slli	a4,a4,8
	or	a4,a4,a5
	lbu	a5,2(s1)
	slli	a5,a5,16
	or	a4,a5,a4
	lbu	a5,3(s1)
	slli	a5,a5,24
	or	a5,a5,a4
	.loc 1 341 8
	li	a4,17
	bne	a5,a4,.L139
	.loc 1 342 9 is_stmt 1
	.loc 1 342 95 is_stmt 0
	lbu	a1,5(s1)
.LVL246:
	lbu	a5,4(s1)
	.loc 1 342 23
	lui	a4,%hi(g_bl_ops_funcs+4)
	.loc 1 342 95
	slli	a1,a1,8
	or	a1,a1,a5
	lbu	a5,6(s1)
	.loc 1 342 9
	lw	a4,%lo(g_bl_ops_funcs+4)(a4)
	lui	a0,%hi(.LC35)
.LVL247:
	.loc 1 342 95
	slli	a5,a5,16
	or	a5,a5,a1
	lbu	a1,7(s1)
	.loc 1 342 9
	addi	a0,a0,%lo(.LC35)
	.loc 1 342 95
	slli	a1,a1,24
	.loc 1 342 9
	or	a1,a1,a5
	jalr	a4
.LVL248:
	.loc 1 344 9 is_stmt 1
	.loc 1 344 37 is_stmt 0
	lbu	a0,5(s1)
	lbu	a5,4(s1)
	slli	a0,a0,8
	or	a0,a0,a5
	lbu	a5,6(s1)
	slli	a5,a5,16
	or	a5,a5,a0
	lbu	a0,7(s1)
	slli	a0,a0,24
	.loc 1 344 9
	or	a0,a0,a5
	call	bl_main_powersaving
.LVL249:
.L139:
	.loc 1 347 5 is_stmt 1
	.loc 1 348 1 is_stmt 0
	lw	ra,12(sp)
	.cfi_restore 1
	lw	s0,8(sp)
	.cfi_restore 8
	.cfi_def_cfa 2, 16
	lw	s1,4(sp)
	.cfi_restore 9
.LVL250:
	li	a0,0
	addi	sp,sp,16
	.cfi_def_cfa_offset 0
	jr	ra
	.cfi_endproc
.LFE70:
	.size	stateGlobalGuard_fw_powersaving, .-stateGlobalGuard_fw_powersaving
	.section	.rodata.stateGlobalGuard_connect.str1.4,"aMS",@progbits,1
	.align	2
.LC36:
	.string	"[WF][SM] currentState is %s\r\n"
	.align	2
.LC37:
	.string	"[WF][SM] Connect CMD Pending\r\n"
	.align	2
.LC38:
	.string	"[WF][SM] connect abort status : %u\r\n"
	.align	2
.LC39:
	.string	"[WF][SM] %s: add STA iface failed\r\n"
	.section	.text.stateGlobalGuard_connect,"ax",@progbits
	.align	1
	.type	stateGlobalGuard_connect, @function
stateGlobalGuard_connect:
.LFB87:
	.loc 1 699 1 is_stmt 1
	.cfi_startproc
.LVL251:
	.loc 1 700 5
	.loc 1 701 5
	.loc 1 702 5
	.loc 1 704 5
	.loc 1 699 1 is_stmt 0
	addi	sp,sp,-48
	.cfi_def_cfa_offset 48
	sw	s0,40(sp)
	sw	ra,44(sp)
	sw	s1,36(sp)
	sw	s2,32(sp)
	sw	s3,28(sp)
	sw	s4,24(sp)
	sw	s5,20(sp)
	.cfi_offset 8, -8
	.cfi_offset 1, -4
	.cfi_offset 9, -12
	.cfi_offset 18, -16
	.cfi_offset 19, -20
	.cfi_offset 20, -24
	.cfi_offset 21, -28
	addi	s0,sp,48
	.cfi_def_cfa 8, 0
	.loc 1 704 9
	lw	s1,4(a1)
.LVL252:
	.loc 1 705 5 is_stmt 1
	.loc 1 705 25 is_stmt 0
	lbu	a4,1(s1)
	lbu	a5,0(s1)
	slli	a4,a4,8
	or	a4,a4,a5
	lbu	a5,2(s1)
	slli	a5,a5,16
	or	a4,a5,a4
	lbu	a5,3(s1)
	slli	a5,a5,24
	or	a5,a5,a4
	.loc 1 705 8
	beq	a0,a5,.L142
.LVL253:
.L156:
	.loc 1 742 9 is_stmt 1
	.loc 1 742 15 is_stmt 0
	li	a0,0
	j	.L143
.LVL254:
.L142:
	.loc 1 709 5 is_stmt 1
	.loc 1 709 83 is_stmt 0
	lui	s3,%hi(wifiMgmr)
	.loc 1 709 96
	li	a5,4096
	.loc 1 709 83
	addi	s4,s3,%lo(wifiMgmr)
	.loc 1 709 96
	add	s4,s4,a5
	lw	a4,232(s4)
	.loc 1 709 19
	lui	s2,%hi(g_bl_ops_funcs)
	addi	s5,s2,%lo(g_bl_ops_funcs)
	.loc 1 709 5
	lw	a5,4(s5)
	lw	a1,16(a4)
.LVL255:
	lui	a0,%hi(.LC36)
.LVL256:
	addi	a0,a0,%lo(.LC36)
	jalr	a5
.LVL257:
	.loc 1 712 5 is_stmt 1
	.loc 1 712 39 is_stmt 0
	lw	a5,232(s4)
	.loc 1 712 8
	lui	a4,%hi(.LANCHOR0)
	lui	s4,%hi(.LANCHOR1)
	addi	a4,a4,%lo(.LANCHOR0)
	addi	s2,s2,%lo(g_bl_ops_funcs)
	addi	s4,s4,%lo(.LANCHOR1)
	beq	a5,a4,.L144
	.loc 1 712 53 discriminator 1
	beq	a5,s4,.L144
	.loc 1 713 60
	lui	a4,%hi(.LANCHOR4)
	addi	a4,a4,%lo(.LANCHOR4)
	bne	a5,a4,.L145
.L144:
	.loc 1 715 9 is_stmt 1
	lw	a5,4(s2)
	lui	a0,%hi(.LC37)
	addi	a0,a0,%lo(.LC37)
	jalr	a5
.LVL258:
	.loc 1 717 9
	.loc 1 717 46 is_stmt 0
	lui	a5,%hi(wifiMgmr+4096)
	addi	a5,a5,%lo(wifiMgmr+4096)
	lw	a4,232(a5)
	.loc 1 717 12
	beq	a4,s4,.L146
	.loc 1 717 60 discriminator 1
	lui	a5,%hi(.LANCHOR4)
	addi	a5,a5,%lo(.LANCHOR4)
	bne	a4,a5,.L147
.L146:
	.loc 1 719 13 is_stmt 1
	call	wifi_mgmr_sta_disconnect
.LVL259:
.L148:
	.loc 1 724 9
	lw	a5,28(s2)
	li	a0,1000
	jalr	a5
.LVL260:
	.loc 1 726 9
	.loc 1 727 9
	.loc 1 730 9 is_stmt 0
	li	a3,0
	.loc 1 727 35
	sb	zero,48(s1)
	.loc 1 728 9 is_stmt 1
	.loc 1 728 34 is_stmt 0
	sb	zero,182(s1)
	.loc 1 730 9 is_stmt 1
	li	a2,1
	addi	a1,s1,16
	addi	a0,s3,%lo(wifiMgmr)
	call	wifi_mgmr_profile_add_by_idx
.LVL261:
	.loc 1 731 9
	li	a0,8
	call	_pending_task_set_safely
.LVL262:
	.loc 1 732 9
	j	.L156
.L147:
	.loc 1 721 13
	addi	a0,s0,-33
	call	bl_main_connect_abort
.LVL263:
	.loc 1 722 13
	lw	a5,4(s2)
	lbu	a1,-33(s0)
	lui	a0,%hi(.LC38)
	addi	a0,a0,%lo(.LC38)
	jalr	a5
.LVL264:
	j	.L148
.L145:
	.loc 1 733 12
	.loc 1 733 15 is_stmt 0
	lui	a4,%hi(.LANCHOR2)
	addi	a4,a4,%lo(.LANCHOR2)
	bne	a5,a4,.L149
.L151:
	.loc 1 735 15
	li	a0,1
.L143:
	.loc 1 745 1
	lw	ra,44(sp)
	.cfi_remember_state
	.cfi_restore 1
	lw	s0,40(sp)
	.cfi_restore 8
	.cfi_def_cfa 2, 48
	lw	s1,36(sp)
	.cfi_restore 9
.LVL265:
	lw	s2,32(sp)
	.cfi_restore 18
	lw	s3,28(sp)
	.cfi_restore 19
	lw	s4,24(sp)
	.cfi_restore 20
	lw	s5,20(sp)
	.cfi_restore 21
	addi	sp,sp,48
	.cfi_def_cfa_offset 0
	jr	ra
.LVL266:
.L149:
	.cfi_restore_state
	.loc 1 736 12 is_stmt 1
	.loc 1 736 15 is_stmt 0
	lui	a4,%hi(.LANCHOR3)
	addi	a4,a4,%lo(.LANCHOR3)
	bne	a5,a4,.L156
	.loc 1 740 5 is_stmt 1
	.loc 1 740 9 is_stmt 0
	lui	a2,%hi(wifiMgmr+12)
	lui	a1,%hi(wifiMgmr+40)
	addi	a2,a2,%lo(wifiMgmr+12)
	addi	a1,a1,%lo(wifiMgmr+40)
	li	a0,1
	call	bl_main_if_add
.LVL267:
	.loc 1 740 8
	beq	a0,zero,.L151
	.loc 1 741 9 is_stmt 1
	lw	a5,4(s5)
	lui	a1,%hi(.LANCHOR8)
	lui	a0,%hi(.LC39)
	addi	a1,a1,%lo(.LANCHOR8)
	addi	a0,a0,%lo(.LC39)
	jalr	a5
.LVL268:
	j	.L156
	.cfi_endproc
.LFE87:
	.size	stateGlobalGuard_connect, .-stateGlobalGuard_connect
	.section	.rodata.stateGlobalGuard_conf_max_sta.str1.4,"aMS",@progbits,1
	.align	2
.LC40:
	.string	"[WF][SM] Conf max sta supported %lu...\r\n"
	.section	.text.stateGlobalGuard_conf_max_sta,"ax",@progbits
	.align	1
	.type	stateGlobalGuard_conf_max_sta, @function
stateGlobalGuard_conf_max_sta:
.LFB84:
	.loc 1 639 1
	.cfi_startproc
.LVL269:
	.loc 1 640 5
	.loc 1 642 5
	.loc 1 639 1 is_stmt 0
	addi	sp,sp,-16
	.cfi_def_cfa_offset 16
	sw	s0,8(sp)
	sw	ra,12(sp)
	sw	s1,4(sp)
	.cfi_offset 8, -8
	.cfi_offset 1, -4
	.cfi_offset 9, -12
	addi	s0,sp,16
	.cfi_def_cfa 8, 0
	.loc 1 642 9
	lw	s1,4(a1)
.LVL270:
	.loc 1 643 5 is_stmt 1
	.loc 1 643 48 is_stmt 0
	lbu	a4,1(s1)
	lbu	a5,0(s1)
	slli	a4,a4,8
	or	a4,a4,a5
	lbu	a5,2(s1)
	slli	a5,a5,16
	or	a4,a5,a4
	lbu	a5,3(s1)
	slli	a5,a5,24
	or	a5,a5,a4
	.loc 1 643 8
	li	a4,11
	bne	a5,a4,.L158
	.loc 1 647 5 is_stmt 1
	.loc 1 647 90 is_stmt 0
	lbu	a1,5(s1)
.LVL271:
	lbu	a5,4(s1)
	.loc 1 647 19
	lui	a4,%hi(g_bl_ops_funcs+4)
	.loc 1 647 90
	slli	a1,a1,8
	or	a1,a1,a5
	lbu	a5,6(s1)
	.loc 1 647 5
	lw	a4,%lo(g_bl_ops_funcs+4)(a4)
	lui	a0,%hi(.LC40)
.LVL272:
	.loc 1 647 90
	slli	a5,a5,16
	or	a5,a5,a1
	lbu	a1,7(s1)
	.loc 1 647 5
	addi	a0,a0,%lo(.LC40)
	.loc 1 647 90
	slli	a1,a1,24
	.loc 1 647 5
	or	a1,a1,a5
	jalr	a4
.LVL273:
	.loc 1 648 5 is_stmt 1
	lbu	a0,4(s1)
	call	bl_main_conf_max_sta
.LVL274:
	.loc 1 650 5
.L158:
	.loc 1 651 1 is_stmt 0
	lw	ra,12(sp)
	.cfi_restore 1
	lw	s0,8(sp)
	.cfi_restore 8
	.cfi_def_cfa 2, 16
	lw	s1,4(sp)
	.cfi_restore 9
.LVL275:
	li	a0,0
	addi	sp,sp,16
	.cfi_def_cfa_offset 0
	jr	ra
	.cfi_endproc
.LFE84:
	.size	stateGlobalGuard_conf_max_sta, .-stateGlobalGuard_conf_max_sta
	.section	.text.stateGlobalGuard_ap_chan_switch,"ax",@progbits
	.align	1
	.type	stateGlobalGuard_ap_chan_switch, @function
stateGlobalGuard_ap_chan_switch:
.LFB83:
	.loc 1 621 1 is_stmt 1
	.cfi_startproc
.LVL276:
	.loc 1 622 5
	.loc 1 624 5
	.loc 1 624 9 is_stmt 0
	lw	a5,4(a1)
.LVL277:
	.loc 1 625 5 is_stmt 1
	.loc 1 625 26 is_stmt 0
	lbu	a3,1(a5)
	lbu	a4,0(a5)
	slli	a3,a3,8
	or	a3,a3,a4
	lbu	a4,2(a5)
	slli	a4,a4,16
	or	a3,a4,a3
	lbu	a4,3(a5)
	slli	a4,a4,24
	or	a4,a4,a3
	.loc 1 625 8
	bne	a0,a4,.L166
	.loc 1 629 5 is_stmt 1
	.loc 1 629 18 is_stmt 0
	lui	a3,%hi(wifiMgmr)
	addi	a3,a3,%lo(wifiMgmr)
	.loc 1 629 8
	lw	a4,4(a3)
	beq	a4,zero,.L166
	.loc 1 633 5 is_stmt 1
	.loc 1 621 1 is_stmt 0
	addi	sp,sp,-16
	.cfi_def_cfa_offset 16
	sw	s0,8(sp)
	sw	ra,12(sp)
	.cfi_offset 8, -8
	.cfi_offset 1, -4
	addi	s0,sp,16
	.cfi_def_cfa 8, 0
	.loc 1 633 75
	lbu	a1,5(a5)
.LVL278:
	lbu	a4,4(a5)
	.loc 1 633 5
	lbu	a2,8(a5)
	.loc 1 633 75
	slli	a1,a1,8
	or	a1,a1,a4
	lbu	a4,6(a5)
	.loc 1 633 5
	lbu	a0,132(a3)
.LVL279:
	.loc 1 633 75
	slli	a4,a4,16
	or	a4,a4,a1
	lbu	a1,7(a5)
	slli	a1,a1,24
	.loc 1 633 5
	or	a1,a1,a4
	call	bl_main_apm_chan_switch
.LVL280:
	.loc 1 635 5 is_stmt 1
	.loc 1 636 1 is_stmt 0
	lw	ra,12(sp)
	.cfi_restore 1
	lw	s0,8(sp)
	.cfi_restore 8
	.cfi_def_cfa 2, 16
	li	a0,0
	addi	sp,sp,16
	.cfi_def_cfa_offset 0
	jr	ra
.LVL281:
.L166:
	li	a0,0
.LVL282:
	ret
	.cfi_endproc
.LFE83:
	.size	stateGlobalGuard_ap_chan_switch, .-stateGlobalGuard_ap_chan_switch
	.section	.text.__reload_tsen,"ax",@progbits
	.align	1
	.type	__reload_tsen, @function
__reload_tsen:
.LFB98:
	.loc 1 998 1 is_stmt 1
	.cfi_startproc
.LVL283:
	.loc 1 999 5
	.loc 1 1001 5
	.loc 1 1003 5
	.loc 1 998 1 is_stmt 0
	addi	sp,sp,-16
	.cfi_def_cfa_offset 16
	sw	s0,12(sp)
	.cfi_offset 8, -4
	addi	s0,sp,16
	.cfi_def_cfa 8, 0
	.loc 1 1004 1
	lw	s0,12(sp)
	.cfi_restore 8
	.cfi_def_cfa 2, 16
	addi	sp,sp,16
	.cfi_def_cfa_offset 0
	.loc 1 1003 5
	tail	wifi_mgmr_api_fw_tsen_reload
.LVL284:
	.cfi_endproc
.LFE98:
	.size	__reload_tsen, .-__reload_tsen
	.section	.rodata.stateDisconnect_exit.str1.4,"aMS",@progbits,1
	.align	2
.LC41:
	.string	"Delete Timer.\r\n"
	.align	2
.LC42:
	.string	"Delete Timer Skipped\r\n"
	.section	.text.stateDisconnect_exit,"ax",@progbits
	.align	1
	.type	stateDisconnect_exit, @function
stateDisconnect_exit:
.LFB114:
	.loc 1 1470 1 is_stmt 1
	.cfi_startproc
.LVL285:
	.loc 1 1471 5
	.loc 1 1473 5
	.loc 1 1470 1 is_stmt 0
	addi	sp,sp,-16
	.cfi_def_cfa_offset 16
	sw	s0,8(sp)
	sw	s1,4(sp)
	sw	s2,0(sp)
	sw	ra,12(sp)
	.cfi_offset 8, -8
	.cfi_offset 9, -12
	.cfi_offset 18, -16
	.cfi_offset 1, -4
	addi	s0,sp,16
	.cfi_def_cfa 8, 0
	.loc 1 1473 19
	lui	s2,%hi(g_bl_ops_funcs)
	.loc 1 1470 1
	.loc 1 1473 19
	addi	s2,s2,%lo(g_bl_ops_funcs)
	.loc 1 1473 5
	lw	a5,4(s2)
	.loc 1 1470 1
	mv	s1,a0
	.loc 1 1473 5
	mv	a1,a0
.LVL286:
	lui	a0,%hi(.LC3)
.LVL287:
	addi	a0,a0,%lo(.LC3)
	jalr	a5
.LVL288:
	.loc 1 1474 5 is_stmt 1
	.loc 1 1474 8 is_stmt 0
	lbu	a4,36(s1)
	lw	a5,4(s2)
	beq	a4,zero,.L172
.LVL289:
.LBB90:
.LBB91:
	.loc 1 1475 9 is_stmt 1
	lui	a0,%hi(.LC41)
	addi	a0,a0,%lo(.LC41)
	jalr	a5
.LVL290:
	.loc 1 1476 9
	lw	a5,120(s2)
	lw	a0,32(s1)
	li	a1,0
	jalr	a5
.LVL291:
	.loc 1 1477 9
.LBE91:
.LBE90:
	.loc 1 1481 1 is_stmt 0
	lw	ra,12(sp)
	.cfi_remember_state
	.cfi_restore 1
	lw	s0,8(sp)
	.cfi_restore 8
	.cfi_def_cfa 2, 16
.LBB93:
.LBB92:
	.loc 1 1477 45
	sb	zero,36(s1)
.LBE92:
.LBE93:
	.loc 1 1481 1
	lw	s2,0(sp)
	.cfi_restore 18
	lw	s1,4(sp)
	.cfi_restore 9
.LVL292:
	addi	sp,sp,16
	.cfi_def_cfa_offset 0
	jr	ra
.LVL293:
.L172:
	.cfi_restore_state
	.loc 1 1479 9 is_stmt 1
	.loc 1 1481 1 is_stmt 0
	lw	s0,8(sp)
	.cfi_restore 8
	.cfi_def_cfa 2, 16
	lw	ra,12(sp)
	.cfi_restore 1
	lw	s1,4(sp)
	.cfi_restore 9
.LVL294:
	lw	s2,0(sp)
	.cfi_restore 18
	.loc 1 1479 9
	lui	a0,%hi(.LC42)
	.loc 1 1481 1
	.loc 1 1479 9
	addi	a0,a0,%lo(.LC42)
	.loc 1 1481 1
	addi	sp,sp,16
	.cfi_def_cfa_offset 0
	.loc 1 1479 9
	jr	a5
.LVL295:
	.cfi_endproc
.LFE114:
	.size	stateDisconnect_exit, .-stateDisconnect_exit
	.section	.text.event_cb_wifi_event_mgmr,"ax",@progbits
	.align	1
	.type	event_cb_wifi_event_mgmr, @function
event_cb_wifi_event_mgmr:
.LFB117:
	.loc 1 1534 1 is_stmt 1
	.cfi_startproc
.LVL296:
	.loc 1 1535 5
	.loc 1 1534 1 is_stmt 0
	addi	sp,sp,-16
	.cfi_def_cfa_offset 16
	sw	s0,12(sp)
	.cfi_offset 8, -4
	addi	s0,sp,16
	.cfi_def_cfa 8, 0
	.loc 1 1535 5
	lhu	a4,6(a0)
	li	a5,20
	bne	a4,a5,.L176
.LVL297:
.LBB96:
.LBB97:
	.loc 1 1538 13 is_stmt 1
.LBE97:
.LBE96:
	.loc 1 1546 1 is_stmt 0
	lw	s0,12(sp)
	.cfi_remember_state
	.cfi_restore 8
	.cfi_def_cfa 2, 16
.LBB101:
.LBB98:
	.loc 1 1538 13
	lui	a1,%hi(trigger_auto_denoise)
.LVL298:
	li	a2,0
.LBE98:
.LBE101:
	.loc 1 1546 1
.LBB102:
.LBB99:
	.loc 1 1538 13
	addi	a1,a1,%lo(trigger_auto_denoise)
	li	a0,85
.LVL299:
.LBE99:
.LBE102:
	.loc 1 1546 1
	addi	sp,sp,16
	.cfi_def_cfa_offset 0
.LBB103:
.LBB100:
	.loc 1 1538 13
	tail	aos_post_delayed_action
.LVL300:
.L176:
	.cfi_restore_state
.LBE100:
.LBE103:
	.loc 1 1546 1
	lw	s0,12(sp)
	.cfi_restore 8
	.cfi_def_cfa 2, 16
	addi	sp,sp,16
	.cfi_def_cfa_offset 0
	jr	ra
	.cfi_endproc
.LFE117:
	.size	event_cb_wifi_event_mgmr, .-event_cb_wifi_event_mgmr
	.section	.text.trigger_auto_denoise,"ax",@progbits
	.align	1
	.type	trigger_auto_denoise, @function
trigger_auto_denoise:
.LFB85:
	.loc 1 656 1 is_stmt 1
	.cfi_startproc
.LVL301:
	.loc 1 658 5
	.loc 1 658 8 is_stmt 0
	lui	a5,%hi(.LANCHOR9)
	lw	a5,%lo(.LANCHOR9)(a5)
	beq	a5,zero,.L179
.LVL302:
.LBB108:
.LBB109:
.LBB110:
	.loc 1 659 1 is_stmt 1
	.loc 1 660 9
.LBE110:
.LBE109:
.LBE108:
	.loc 1 656 1 is_stmt 0
	addi	sp,sp,-16
	.cfi_def_cfa_offset 16
	sw	s0,8(sp)
	sw	ra,12(sp)
	.cfi_offset 8, -8
	.cfi_offset 1, -4
	addi	s0,sp,16
	.cfi_def_cfa 8, 0
.LBB119:
.LBB115:
.LBB111:
	.loc 1 660 9
	call	wifi_mgmr_api_denoise_enable
.LVL303:
	.loc 1 661 9 is_stmt 1
.LBE111:
.LBE115:
.LBE119:
	.loc 1 663 1 is_stmt 0
	lw	s0,8(sp)
	.cfi_restore 8
	.cfi_def_cfa 2, 16
	lw	ra,12(sp)
	.cfi_restore 1
.LBB120:
.LBB116:
.LBB112:
	.loc 1 661 9
	lui	a1,%hi(trigger_auto_denoise)
.LBE112:
.LBE116:
.LBE120:
	.loc 1 663 1
.LBB121:
.LBB117:
.LBB113:
	.loc 1 661 9
	li	a2,0
	addi	a1,a1,%lo(trigger_auto_denoise)
	li	a0,85
.LBE113:
.LBE117:
.LBE121:
	.loc 1 663 1
	addi	sp,sp,16
	.cfi_def_cfa_offset 0
.LBB122:
.LBB118:
.LBB114:
	.loc 1 661 9
	tail	aos_post_delayed_action
.LVL304:
.L179:
	ret
.LBE114:
.LBE118:
.LBE122:
	.cfi_endproc
.LFE85:
	.size	trigger_auto_denoise, .-trigger_auto_denoise
	.section	.rodata.stateIfaceDownGuard_phyup.str1.4,"aMS",@progbits,1
	.align	2
.LC43:
	.string	"[WF][SM] state mismatch\r\n"
	.section	.text.stateIfaceDownGuard_phyup,"ax",@progbits
	.align	1
	.type	stateIfaceDownGuard_phyup, @function
stateIfaceDownGuard_phyup:
.LFB94:
	.loc 1 914 1 is_stmt 1
	.cfi_startproc
.LVL305:
	.loc 1 915 5
	.loc 1 916 5
	.loc 1 918 5
	.loc 1 919 5
	.loc 1 914 1 is_stmt 0
	addi	sp,sp,-16
	.cfi_def_cfa_offset 16
	sw	s0,8(sp)
.LVL306:
	sw	ra,12(sp)
	.cfi_offset 8, -8
	.cfi_offset 1, -4
	addi	s0,sp,16
	.cfi_def_cfa 8, 0
	.loc 1 919 25
	lw	a3,4(a1)
	lbu	a4,1(a3)
	lbu	a5,0(a3)
	slli	a4,a4,8
	or	a4,a4,a5
	lbu	a5,2(a3)
	slli	a5,a5,16
	or	a4,a5,a4
	lbu	a5,3(a3)
	slli	a5,a5,24
	or	a5,a5,a4
	.loc 1 919 8
	beq	a0,a5,.L185
	.loc 1 920 9 is_stmt 1
	.loc 1 920 23 is_stmt 0
	lui	a5,%hi(g_bl_ops_funcs+4)
	.loc 1 920 9
	lw	a5,%lo(g_bl_ops_funcs+4)(a5)
	lui	a0,%hi(.LC43)
.LVL307:
	addi	a0,a0,%lo(.LC43)
	jalr	a5
.LVL308:
	.loc 1 921 9 is_stmt 1
	.loc 1 921 15 is_stmt 0
	li	a0,0
.L186:
	.loc 1 930 1
	lw	ra,12(sp)
	.cfi_remember_state
	.cfi_restore 1
	lw	s0,8(sp)
	.cfi_restore 8
	.cfi_def_cfa 2, 16
	addi	sp,sp,16
	.cfi_def_cfa_offset 0
	jr	ra
.LVL309:
.L185:
	.cfi_restore_state
.LBB125:
.LBB126:
	.loc 1 925 5 is_stmt 1
	.loc 1 925 13 is_stmt 0
	call	bl_main_phy_up
.LVL310:
	.loc 1 926 5 is_stmt 1
	.loc 1 926 8 is_stmt 0
	seqz	a0,a0
.LVL311:
	j	.L186
.LBE126:
.LBE125:
	.cfi_endproc
.LFE94:
	.size	stateIfaceDownGuard_phyup, .-stateIfaceDownGuard_phyup
	.section	.text.stateConnectedIPYes_exit,"ax",@progbits
	.align	1
	.type	stateConnectedIPYes_exit, @function
stateConnectedIPYes_exit:
.LFB109:
	.loc 1 1269 1 is_stmt 1
	.cfi_startproc
.LVL312:
	.loc 1 1270 5
	.loc 1 1269 1 is_stmt 0
	addi	sp,sp,-16
	.cfi_def_cfa_offset 16
	sw	s0,8(sp)
	sw	ra,12(sp)
	.cfi_offset 8, -8
	.cfi_offset 1, -4
	addi	s0,sp,16
	.cfi_def_cfa 8, 0
	.loc 1 1270 19
	lui	a5,%hi(g_bl_ops_funcs+4)
	.loc 1 1270 5
	lw	a5,%lo(g_bl_ops_funcs+4)(a5)
	.loc 1 1269 1
	mv	a1,a0
.LVL313:
	.loc 1 1270 5
	lui	a0,%hi(.LC3)
.LVL314:
	addi	a0,a0,%lo(.LC3)
	jalr	a5
.LVL315:
	.loc 1 1274 5 is_stmt 1
	.loc 1 1274 9 is_stmt 0
	lui	a5,%hi(.LANCHOR9)
	addi	a5,a5,%lo(.LANCHOR9)
	.loc 1 1274 8
	lw	a4,0(a5)
	beq	a4,zero,.L188
.LVL316:
.LBB129:
.LBB130:
	.loc 1 1275 9 is_stmt 1
	.loc 1 1275 21 is_stmt 0
	sw	zero,0(a5)
	.loc 1 1276 9 is_stmt 1
.LBE130:
.LBE129:
	.loc 1 1278 1 is_stmt 0
	lw	s0,8(sp)
	.cfi_remember_state
	.cfi_restore 8
	.cfi_def_cfa 2, 16
	lw	ra,12(sp)
	.cfi_restore 1
.LBB133:
.LBB131:
	.loc 1 1276 9
	li	a0,0
.LBE131:
.LBE133:
	.loc 1 1278 1
	addi	sp,sp,16
	.cfi_def_cfa_offset 0
.LBB134:
.LBB132:
	.loc 1 1276 9
	tail	bl_main_denoise
.LVL317:
.L188:
	.cfi_restore_state
.LBE132:
.LBE134:
	.loc 1 1278 1
	lw	ra,12(sp)
	.cfi_restore 1
	lw	s0,8(sp)
	.cfi_restore 8
	.cfi_def_cfa 2, 16
	addi	sp,sp,16
	.cfi_def_cfa_offset 0
	jr	ra
	.cfi_endproc
.LFE109:
	.size	stateConnectedIPYes_exit, .-stateConnectedIPYes_exit
	.section	.text.stateGlobalGuard_denoise,"ax",@progbits
	.align	1
	.type	stateGlobalGuard_denoise, @function
stateGlobalGuard_denoise:
.LFB86:
	.loc 1 666 1 is_stmt 1
	.cfi_startproc
.LVL318:
	.loc 1 667 5
	.loc 1 669 5
	.loc 1 669 9 is_stmt 0
	lw	a5,4(a1)
.LVL319:
	.loc 1 670 5 is_stmt 1
	.loc 1 670 43 is_stmt 0
	lbu	a3,1(a5)
	lbu	a4,0(a5)
	slli	a3,a3,8
	or	a3,a3,a4
	lbu	a4,2(a5)
	slli	a4,a4,16
	or	a3,a4,a3
	lbu	a4,3(a5)
	slli	a4,a4,24
	or	a4,a4,a3
	.loc 1 670 8
	li	a3,13
	bne	a4,a3,.L196
	.loc 1 674 5 is_stmt 1
	.loc 1 666 1 is_stmt 0
	addi	sp,sp,-16
	.cfi_def_cfa_offset 16
	sw	s0,8(sp)
	sw	ra,12(sp)
	.cfi_offset 8, -8
	.cfi_offset 1, -4
	addi	s0,sp,16
	.cfi_def_cfa 8, 0
	.loc 1 674 12
	lbu	a4,5(a5)
	lbu	a3,4(a5)
	slli	a4,a4,8
	or	a3,a4,a3
	lbu	a4,6(a5)
	lbu	a5,7(a5)
.LVL320:
	slli	a4,a4,16
	or	a4,a4,a3
	slli	a5,a5,24
	or	a5,a5,a4
	.loc 1 674 8
	beq	a5,zero,.L193
	.loc 1 677 9 is_stmt 1
	.loc 1 677 12 is_stmt 0
	lui	a4,%hi(wifiMgmr+4328)
	lw	a4,%lo(wifiMgmr+4328)(a4)
	lui	a5,%hi(.LANCHOR4)
	addi	a5,a5,%lo(.LANCHOR4)
	bne	a4,a5,.L192
	.loc 1 679 13 is_stmt 1
	.loc 1 679 17 is_stmt 0
	lui	a5,%hi(.LANCHOR9)
	addi	a5,a5,%lo(.LANCHOR9)
	.loc 1 679 16
	lw	a4,0(a5)
	.loc 1 681 17
	li	a0,3
.LVL321:
	.loc 1 679 16
	bne	a4,zero,.L199
.LVL322:
.LBB137:
.LBB138:
	.loc 1 684 17 is_stmt 1
	.loc 1 684 29 is_stmt 0
	li	a4,1
	.loc 1 685 17
	li	a0,1
	.loc 1 684 29
	sw	a4,0(a5)
	.loc 1 685 17 is_stmt 1
	call	bl_main_denoise
.LVL323:
	.loc 1 686 17
	li	a2,0
	li	a1,20
	li	a0,2
	call	aos_post_event
.LVL324:
.L192:
.LBE138:
.LBE137:
	.loc 1 696 1 is_stmt 0
	lw	ra,12(sp)
	.cfi_remember_state
	.cfi_restore 1
	lw	s0,8(sp)
	.cfi_restore 8
	.cfi_def_cfa 2, 16
	li	a0,0
	addi	sp,sp,16
	.cfi_def_cfa_offset 0
	jr	ra
.LVL325:
.L193:
	.cfi_restore_state
	.loc 1 691 9 is_stmt 1
	.loc 1 691 21 is_stmt 0
	lui	a5,%hi(.LANCHOR9)
	sw	zero,%lo(.LANCHOR9)(a5)
	.loc 1 692 9 is_stmt 1
	li	a0,0
.LVL326:
.L199:
	call	bl_main_denoise
.LVL327:
	j	.L192
.LVL328:
.L196:
	.cfi_def_cfa_register 2
	.cfi_restore 1
	.cfi_restore 8
	.loc 1 696 1 is_stmt 0
	li	a0,0
.LVL329:
	ret
	.cfi_endproc
.LFE86:
	.size	stateGlobalGuard_denoise, .-stateGlobalGuard_denoise
	.section	.rodata.stateConnectedIPYes_enter.str1.4,"aMS",@progbits,1
	.align	2
.LC44:
	.string	"IPYES enter, disconnect\r\n"
	.section	.text.stateConnectedIPYes_enter,"ax",@progbits
	.align	1
	.type	stateConnectedIPYes_enter, @function
stateConnectedIPYes_enter:
.LFB108:
	.loc 1 1246 1 is_stmt 1
	.cfi_startproc
.LVL330:
	.loc 1 1247 5
.LBB147:
.LBB148:
	.loc 1 82 5
.LBE148:
.LBE147:
	.loc 1 1246 1 is_stmt 0
	addi	sp,sp,-16
	.cfi_def_cfa_offset 16
	sw	s0,8(sp)
	sw	s1,4(sp)
	sw	s2,0(sp)
	sw	ra,12(sp)
	.cfi_offset 8, -8
	.cfi_offset 9, -12
	.cfi_offset 18, -16
	.cfi_offset 1, -4
	addi	s0,sp,16
	.cfi_def_cfa 8, 0
.LBB152:
.LBB149:
	.loc 1 82 34
	lui	s2,%hi(wifiMgmr+4096)
.LBE149:
.LBE152:
	.loc 1 1246 1
.LBB153:
.LBB150:
	.loc 1 82 34
	addi	s2,s2,%lo(wifiMgmr+4096)
	.loc 1 82 39
	lw	a5,400(s2)
.LBE150:
.LBE153:
	.loc 1 1249 23
	lui	s1,%hi(g_bl_ops_funcs)
	addi	s1,s1,%lo(g_bl_ops_funcs)
.LBB154:
.LBB151:
	.loc 1 82 39
	andi	a5,a5,8
.LBE151:
.LBE154:
	.loc 1 1249 23
	lw	a4,4(s1)
	.loc 1 1247 8
	beq	a5,zero,.L201
	.loc 1 1249 9 is_stmt 1
	lui	a0,%hi(.LC44)
.LVL331:
	addi	a0,a0,%lo(.LC44)
	jalr	a4
.LVL332:
	.loc 1 1250 9
	call	wifi_mgmr_sta_disconnect
.LVL333:
	.loc 1 1251 9
	.loc 1 1266 1 is_stmt 0
	lw	s0,8(sp)
	.cfi_remember_state
	.cfi_restore 8
	.cfi_def_cfa 2, 16
	.loc 1 1251 9
	lw	a5,28(s1)
	.loc 1 1266 1
	lw	ra,12(sp)
	.cfi_restore 1
	lw	s1,4(sp)
	.cfi_restore 9
	lw	s2,0(sp)
	.cfi_restore 18
	.loc 1 1251 9
	li	a0,1000
	.loc 1 1266 1
	addi	sp,sp,16
	.cfi_def_cfa_offset 0
	.loc 1 1251 9
	jr	a5
.LVL334:
.L201:
	.cfi_restore_state
	mv	a1,a0
.LVL335:
.LBB155:
.LBB156:
	.loc 1 1255 5 is_stmt 1
	lui	a0,%hi(.LC18)
.LVL336:
	addi	a0,a0,%lo(.LC18)
	jalr	a4
.LVL337:
	.loc 1 1260 5
	li	a2,0
	li	a1,7
	li	a0,2
	call	aos_post_event
.LVL338:
	.loc 1 1261 5
.LBB157:
.LBB158:
	.loc 1 82 5
	.loc 1 82 39 is_stmt 0
	lw	a5,400(s2)
	andi	a5,a5,1
.LBE158:
.LBE157:
	.loc 1 1261 8
	beq	a5,zero,.L200
	.loc 1 1262 9 is_stmt 1
	lw	a5,4(s1)
	lui	a0,%hi(.LC19)
	addi	a0,a0,%lo(.LC19)
	jalr	a5
.LVL339:
	.loc 1 1263 9
	lui	a3,%hi(mac_addr_bcst)
	lui	a0,%hi(wifiMgmr+40)
	li	a6,0
	li	a5,0
	li	a4,0
	addi	a3,a3,%lo(mac_addr_bcst)
	li	a2,0
	li	a1,0
	addi	a0,a0,%lo(wifiMgmr+40)
	call	bl_main_scan
.LVL340:
	.loc 1 1264 9
.LBE156:
.LBE155:
	.loc 1 1266 1 is_stmt 0
	lw	s0,8(sp)
	.cfi_remember_state
	.cfi_restore 8
	.cfi_def_cfa 2, 16
	lw	ra,12(sp)
	.cfi_restore 1
	lw	s1,4(sp)
	.cfi_restore 9
	lw	s2,0(sp)
	.cfi_restore 18
.LBB161:
.LBB159:
	.loc 1 1264 9
	li	a0,1
.LBE159:
.LBE161:
	.loc 1 1266 1
	addi	sp,sp,16
	.cfi_def_cfa_offset 0
.LBB162:
.LBB160:
	.loc 1 1264 9
	tail	_pending_task_clr_safely
.LVL341:
.L200:
	.cfi_restore_state
.LBE160:
.LBE162:
	.loc 1 1266 1
	lw	ra,12(sp)
	.cfi_restore 1
	lw	s0,8(sp)
	.cfi_restore 8
	.cfi_def_cfa 2, 16
	lw	s1,4(sp)
	.cfi_restore 9
	lw	s2,0(sp)
	.cfi_restore 18
	addi	sp,sp,16
	.cfi_def_cfa_offset 0
	jr	ra
	.cfi_endproc
.LFE108:
	.size	stateConnectedIPYes_enter, .-stateConnectedIPYes_enter
	.section	.rodata.stateGlobalGuard_fw_disconnect.str1.4,"aMS",@progbits,1
	.align	2
.LC45:
	.string	"Disconnect CMD\r\n"
	.section	.text.stateGlobalGuard_fw_disconnect,"ax",@progbits
	.align	1
	.type	stateGlobalGuard_fw_disconnect, @function
stateGlobalGuard_fw_disconnect:
.LFB69:
	.loc 1 324 1 is_stmt 1
	.cfi_startproc
.LVL342:
	.loc 1 325 5
	.loc 1 327 5
	.loc 1 328 5
	.loc 1 328 45 is_stmt 0
	lw	a3,4(a1)
	lbu	a4,1(a3)
	lbu	a5,0(a3)
	slli	a4,a4,8
	or	a4,a4,a5
	lbu	a5,2(a3)
	slli	a5,a5,16
	or	a4,a5,a4
	lbu	a5,3(a3)
	slli	a5,a5,24
	or	a5,a5,a4
	.loc 1 328 8
	li	a4,16
	bne	a5,a4,.L207
.LVL343:
.LBB165:
.LBB166:
	.loc 1 329 9 is_stmt 1
.LBE166:
.LBE165:
	.loc 1 324 1 is_stmt 0
	addi	sp,sp,-16
	.cfi_def_cfa_offset 16
	sw	ra,12(sp)
.LVL344:
	sw	s0,8(sp)
	.cfi_offset 1, -4
	.cfi_offset 8, -8
	addi	s0,sp,16
	.cfi_def_cfa 8, 0
.LBB168:
.LBB167:
	.loc 1 329 23
	lui	a5,%hi(g_bl_ops_funcs+4)
	.loc 1 329 9
	lw	a5,%lo(g_bl_ops_funcs+4)(a5)
	lui	a0,%hi(.LC45)
.LVL345:
	addi	a0,a0,%lo(.LC45)
	jalr	a5
.LVL346:
	.loc 1 330 9 is_stmt 1
	call	bl_main_disconnect
.LVL347:
.LBE167:
.LBE168:
	.loc 1 333 5
	.loc 1 334 1 is_stmt 0
	lw	ra,12(sp)
	.cfi_restore 1
	lw	s0,8(sp)
	.cfi_restore 8
	.cfi_def_cfa 2, 16
	li	a0,0
	addi	sp,sp,16
	.cfi_def_cfa_offset 0
	jr	ra
.LVL348:
.L207:
	.loc 1 333 5 is_stmt 1
	.loc 1 334 1 is_stmt 0
	li	a0,0
.LVL349:
	ret
	.cfi_endproc
.LFE69:
	.size	stateGlobalGuard_fw_disconnect, .-stateGlobalGuard_fw_disconnect
	.section	.rodata.ap_recover.str1.4,"aMS",@progbits,1
	.align	2
.LC46:
	.string	"Stoping AP to recover...\r\n"
	.align	2
.LC47:
	.string	"Starting AP to recover...\r\n"
	.section	.text.ap_recover,"ax",@progbits
	.align	1
	.type	ap_recover, @function
ap_recover:
.LFB81:
	.loc 1 573 1 is_stmt 1
	.cfi_startproc
.LVL350:
	.loc 1 574 5
	.loc 1 573 1 is_stmt 0
	addi	sp,sp,-16
	.cfi_def_cfa_offset 16
	sw	s0,8(sp)
	sw	s1,4(sp)
	sw	ra,12(sp)
	sw	s2,0(sp)
	.cfi_offset 8, -8
	.cfi_offset 9, -12
	.cfi_offset 1, -4
	.cfi_offset 18, -16
	addi	s0,sp,16
	.cfi_def_cfa 8, 0
	.loc 1 574 17
	lui	a5,%hi(wifiMgmr+4)
	.loc 1 574 8
	lw	a5,%lo(wifiMgmr+4)(a5)
	lui	s1,%hi(g_bl_ops_funcs)
	addi	s1,s1,%lo(g_bl_ops_funcs)
	beq	a5,zero,.L211
	.loc 1 575 9 is_stmt 1
	li	a0,0
.LVL351:
	call	wifi_mgmr_ap_stop
.LVL352:
	.loc 1 576 9
	lw	a5,4(s1)
	lui	a0,%hi(.LC46)
	addi	a0,a0,%lo(.LC46)
.L213:
	.loc 1 585 1 is_stmt 0
	lw	s0,8(sp)
	.cfi_remember_state
	.cfi_restore 8
	.cfi_def_cfa 2, 16
	lw	ra,12(sp)
	.cfi_restore 1
	lw	s1,4(sp)
	.cfi_restore 9
	lw	s2,0(sp)
	.cfi_restore 18
	addi	sp,sp,16
	.cfi_def_cfa_offset 0
.LBB171:
.LBB172:
	.loc 1 583 9
	jr	a5
.LVL353:
.L211:
	.cfi_restore_state
	.loc 1 579 9 is_stmt 1
	lui	s2,%hi(.LANCHOR7)
	addi	s2,s2,%lo(.LANCHOR7)
	lw	a5,120(s1)
	lw	a0,0(s2)
.LVL354:
	li	a1,0
	jalr	a5
.LVL355:
	.loc 1 580 9
	.loc 1 580 33 is_stmt 0
	sw	zero,0(s2)
	.loc 1 581 9 is_stmt 1
	call	wifi_mgmr_ap_enable
.LVL356:
	.loc 1 582 9
	lui	a5,%hi(.LANCHOR6)
	lw	a4,%lo(.LANCHOR6)(a5)
	lui	a5,%hi(.LANCHOR11)
	lbu	a2,%lo(.LANCHOR11)(a5)
	lui	a3,%hi(.LANCHOR10)
	lui	a1,%hi(.LANCHOR12)
	addi	a3,a3,%lo(.LANCHOR10)
	addi	a1,a1,%lo(.LANCHOR12)
	li	a0,0
	call	wifi_mgmr_ap_start
.LVL357:
	.loc 1 583 9
	lui	a0,%hi(.LC47)
	lw	a5,4(s1)
	addi	a0,a0,%lo(.LC47)
	j	.L213
.LBE172:
.LBE171:
	.cfi_endproc
.LFE81:
	.size	ap_recover, .-ap_recover
	.section	.text.stateConnectingGuard_disconnect,"ax",@progbits
	.align	1
	.type	stateConnectingGuard_disconnect, @function
stateConnectingGuard_disconnect:
.LFB91:
	.loc 1 838 1
	.cfi_startproc
.LVL358:
	.loc 1 839 5
	.loc 1 840 5
	.loc 1 842 5
	.loc 1 843 5
	.loc 1 843 25 is_stmt 0
	lw	a3,4(a1)
	lbu	a4,1(a3)
	lbu	a5,0(a3)
	slli	a4,a4,8
	or	a4,a4,a5
	lbu	a5,2(a3)
	slli	a5,a5,16
	or	a4,a5,a4
	lbu	a5,3(a3)
	slli	a5,a5,24
	or	a5,a5,a4
	.loc 1 843 8
	bne	a0,a5,.L217
.LVL359:
.LBB175:
.LBB176:
	.loc 1 847 5 is_stmt 1
.LBE176:
.LBE175:
	.loc 1 838 1 is_stmt 0
	addi	sp,sp,-32
	.cfi_def_cfa_offset 32
	sw	ra,28(sp)
.LVL360:
	sw	s0,24(sp)
	.cfi_offset 1, -4
	.cfi_offset 8, -8
	addi	s0,sp,32
	.cfi_def_cfa 8, 0
.LBB178:
.LBB177:
	.loc 1 847 5
	addi	a0,s0,-17
.LVL361:
	call	bl_main_connect_abort
.LVL362:
	.loc 1 848 5 is_stmt 1
	.loc 1 848 19 is_stmt 0
	lui	a5,%hi(g_bl_ops_funcs+28)
	.loc 1 848 5
	lw	a5,%lo(g_bl_ops_funcs+28)(a5)
	li	a0,1000
	jalr	a5
.LVL363:
	.loc 1 849 5 is_stmt 1
.LBE177:
.LBE178:
	.loc 1 850 1 is_stmt 0
	lw	ra,28(sp)
	.cfi_restore 1
	lw	s0,24(sp)
	.cfi_restore 8
	.cfi_def_cfa 2, 32
	li	a0,0
	addi	sp,sp,32
	.cfi_def_cfa_offset 0
	jr	ra
.LVL364:
.L217:
	li	a0,0
.LVL365:
	ret
	.cfi_endproc
.LFE91:
	.size	stateConnectingGuard_disconnect, .-stateConnectingGuard_disconnect
	.section	.rodata.stateGlobalGuard_stop.str1.4,"aMS",@progbits,1
	.align	2
.LC48:
	.string	"[WF][SM] Removing and deauth all sta client...\r\n"
	.align	2
.LC49:
	.string	"[WF][SM] Stoping AP interface...\r\n"
	.align	2
.LC50:
	.string	"[WF][SM] Removing AP interface...\r\n"
	.align	2
.LC51:
	.string	"[WF][SM] Stopping DHCP on AP interface...\r\n"
	.section	.text.stateGlobalGuard_stop,"ax",@progbits
	.align	1
	.type	stateGlobalGuard_stop, @function
stateGlobalGuard_stop:
.LFB82:
	.loc 1 588 1 is_stmt 1
	.cfi_startproc
.LVL366:
	.loc 1 589 5
	.loc 1 591 5
	.loc 1 592 5
	.loc 1 592 43 is_stmt 0
	lw	a3,4(a1)
	lbu	a4,1(a3)
	lbu	a5,0(a3)
	slli	a4,a4,8
	or	a4,a4,a5
	lbu	a5,2(a3)
	slli	a5,a5,16
	or	a4,a5,a4
	lbu	a5,3(a3)
	slli	a5,a5,24
	or	a5,a5,a4
	.loc 1 592 8
	li	a4,9
	bne	a5,a4,.L228
.LVL367:
.LBB181:
.LBB182:
	.loc 1 596 5 is_stmt 1
.LBE182:
.LBE181:
	.loc 1 588 1 is_stmt 0
	addi	sp,sp,-32
	.cfi_def_cfa_offset 32
	sw	s2,16(sp)
.LVL368:
	.cfi_offset 18, -16
.LBB186:
.LBB183:
	.loc 1 596 5
	lui	s2,%hi(wifiMgmr)
.LBE183:
.LBE186:
	.loc 1 588 1
	sw	ra,28(sp)
	sw	s0,24(sp)
	sw	s1,20(sp)
	.cfi_offset 1, -4
	.cfi_offset 8, -8
	.cfi_offset 9, -12
	addi	s0,sp,32
	.cfi_def_cfa 8, 0
	sw	s3,12(sp)
.LBB187:
.LBB184:
	.loc 1 596 5
	addi	s2,s2,%lo(wifiMgmr)
	li	s1,4096
	add	s1,s2,s1
.LBE184:
.LBE187:
	.loc 1 588 1
	.cfi_offset 19, -20
.LBB188:
.LBB185:
	.loc 1 596 5
	lw	a0,444(s1)
.LVL369:
	.loc 1 607 5
	lui	s3,%hi(wifiMgmr+160)
	.loc 1 596 5
	call	dns_server_deinit
.LVL370:
	.loc 1 597 5 is_stmt 1
	.loc 1 597 25 is_stmt 0
	sw	zero,444(s1)
	.loc 1 599 5 is_stmt 1
	.loc 1 599 19 is_stmt 0
	lui	s1,%hi(g_bl_ops_funcs)
	addi	s1,s1,%lo(g_bl_ops_funcs)
	.loc 1 599 5
	lw	a5,4(s1)
	lui	a0,%hi(.LC48)
	addi	a0,a0,%lo(.LC48)
	jalr	a5
.LVL371:
	.loc 1 600 5 is_stmt 1
	call	bl_main_apm_remove_all_sta
.LVL372:
	.loc 1 601 5
	lw	a5,4(s1)
	lui	a0,%hi(.LC49)
	addi	a0,a0,%lo(.LC49)
	jalr	a5
.LVL373:
	.loc 1 602 5
	lbu	a0,132(s2)
	call	bl_main_apm_stop
.LVL374:
	.loc 1 603 5
	lw	a5,4(s1)
	lui	a0,%hi(.LC50)
	addi	a0,a0,%lo(.LC50)
	jalr	a5
.LVL375:
	.loc 1 604 5
	lbu	a0,132(s2)
	call	bl_main_if_remove
.LVL376:
	.loc 1 605 5
	lw	a5,4(s1)
	lui	a0,%hi(.LC51)
	addi	a0,a0,%lo(.LC51)
	jalr	a5
.LVL377:
	.loc 1 606 1
	.loc 1 607 5
	lui	a2,%hi(dhcp_server_stop)
	addi	a2,a2,%lo(dhcp_server_stop)
	li	a1,0
	addi	a0,s3,%lo(wifiMgmr+160)
	call	netifapi_netif_common
.LVL378:
	.loc 1 608 5
	lui	a1,%hi(netif_set_link_down)
	li	a2,0
	addi	a1,a1,%lo(netif_set_link_down)
	addi	a0,s3,%lo(wifiMgmr+160)
	call	netifapi_netif_common
.LVL379:
	.loc 1 611 5
	.loc 1 612 5 is_stmt 0
	li	a2,0
	li	a1,12
	li	a0,2
	.loc 1 611 29
	sw	zero,4(s2)
	.loc 1 612 5 is_stmt 1
	call	aos_post_event
.LVL380:
	.loc 1 614 5
	.loc 1 614 9 is_stmt 0
	lui	a5,%hi(.LANCHOR7)
	lw	a0,%lo(.LANCHOR7)(a5)
	.loc 1 614 8
	beq	a0,zero,.L222
	.loc 1 615 9 is_stmt 1
	lw	a5,124(s1)
	li	a2,0
	li	a1,2
	jalr	a5
.LVL381:
.L222:
.LBE185:
.LBE188:
	.loc 1 618 1 is_stmt 0
	lw	ra,28(sp)
	.cfi_restore 1
	lw	s0,24(sp)
	.cfi_restore 8
	.cfi_def_cfa 2, 32
	lw	s1,20(sp)
	.cfi_restore 9
	lw	s2,16(sp)
	.cfi_restore 18
	lw	s3,12(sp)
	.cfi_restore 19
	li	a0,0
	addi	sp,sp,32
	.cfi_def_cfa_offset 0
	jr	ra
.LVL382:
.L228:
	li	a0,0
.LVL383:
	ret
	.cfi_endproc
.LFE82:
	.size	stateGlobalGuard_stop, .-stateGlobalGuard_stop
	.section	.rodata.stateGlobalGuard_enable_autoreconnect.str1.4,"aMS",@progbits,1
	.align	2
.LC52:
	.string	"Enable Auto Reconnect\r\n"
	.section	.text.stateGlobalGuard_enable_autoreconnect,"ax",@progbits
	.align	1
	.type	stateGlobalGuard_enable_autoreconnect, @function
stateGlobalGuard_enable_autoreconnect:
.LFB68:
	.loc 1 307 1 is_stmt 1
	.cfi_startproc
.LVL384:
	.loc 1 308 5
	.loc 1 310 5
	.loc 1 311 5
	.loc 1 311 25 is_stmt 0
	lw	a3,4(a1)
	lbu	a4,1(a3)
	lbu	a5,0(a3)
	slli	a4,a4,8
	or	a4,a4,a5
	lbu	a5,2(a3)
	slli	a5,a5,16
	or	a4,a5,a4
	lbu	a5,3(a3)
	slli	a5,a5,24
	or	a5,a5,a4
	.loc 1 311 8
	bne	a0,a5,.L234
.LVL385:
.LBB191:
.LBB192:
	.loc 1 316 5 is_stmt 1
.LBE192:
.LBE191:
	.loc 1 307 1 is_stmt 0
	addi	sp,sp,-16
	.cfi_def_cfa_offset 16
	sw	ra,12(sp)
.LVL386:
	sw	s0,8(sp)
	.cfi_offset 1, -4
	.cfi_offset 8, -8
	addi	s0,sp,16
	.cfi_def_cfa 8, 0
.LBB194:
.LBB193:
	.loc 1 316 19
	lui	a5,%hi(g_bl_ops_funcs+4)
	.loc 1 316 5
	lw	a5,%lo(g_bl_ops_funcs+4)(a5)
	lui	a0,%hi(.LC52)
.LVL387:
	addi	a0,a0,%lo(.LC52)
	jalr	a5
.LVL388:
	.loc 1 317 5 is_stmt 1
	lui	a0,%hi(wifiMgmr)
	li	a1,-1
	addi	a0,a0,%lo(wifiMgmr)
	call	wifi_mgmr_profile_autoreconnect_enable
.LVL389:
	.loc 1 320 5
.LBE193:
.LBE194:
	.loc 1 321 1 is_stmt 0
	lw	ra,12(sp)
	.cfi_restore 1
	lw	s0,8(sp)
	.cfi_restore 8
	.cfi_def_cfa 2, 16
	li	a0,0
	addi	sp,sp,16
	.cfi_def_cfa_offset 0
	jr	ra
.LVL390:
.L234:
	li	a0,0
.LVL391:
	ret
	.cfi_endproc
.LFE68:
	.size	stateGlobalGuard_enable_autoreconnect, .-stateGlobalGuard_enable_autoreconnect
	.section	.rodata.stateGlobalGuard_disable_autoreconnect.str1.4,"aMS",@progbits,1
	.align	2
.LC53:
	.string	"Disable Autoreconnect in Disconnec State\r\n"
	.align	2
.LC54:
	.string	"Disable Auto Reconnect\r\n"
	.section	.text.stateGlobalGuard_disable_autoreconnect,"ax",@progbits
	.align	1
	.type	stateGlobalGuard_disable_autoreconnect, @function
stateGlobalGuard_disable_autoreconnect:
.LFB67:
	.loc 1 284 1 is_stmt 1
	.cfi_startproc
.LVL392:
	.loc 1 285 5
	.loc 1 287 5
	.loc 1 288 5
	.loc 1 288 25 is_stmt 0
	lw	a3,4(a1)
	lbu	a4,1(a3)
	lbu	a5,0(a3)
	slli	a4,a4,8
	or	a4,a4,a5
	lbu	a5,2(a3)
	slli	a5,a5,16
	or	a4,a5,a4
	lbu	a5,3(a3)
	slli	a5,a5,24
	or	a5,a5,a4
	.loc 1 288 8
	bne	a0,a5,.L240
	.loc 1 292 5 is_stmt 1
	.loc 1 284 1 is_stmt 0
	addi	sp,sp,-32
	.cfi_def_cfa_offset 32
	sw	s2,16(sp)
.LVL393:
	.cfi_offset 18, -16
	.loc 1 292 39
	lui	s2,%hi(wifiMgmr)
	.loc 1 284 1
	sw	s0,24(sp)
	sw	s1,20(sp)
	sw	s3,12(sp)
	sw	ra,28(sp)
	.cfi_offset 8, -8
	.cfi_offset 9, -12
	.cfi_offset 19, -20
	.cfi_offset 1, -4
	addi	s0,sp,32
	.cfi_def_cfa 8, 0
	.loc 1 292 39
	addi	s3,s2,%lo(wifiMgmr)
	li	a4,4096
	.loc 1 284 1
	.loc 1 292 39
	add	a4,s3,a4
	.loc 1 292 8
	lw	a4,232(a4)
.LBB197:
.LBB198:
	.loc 1 293 23
	lui	s1,%hi(g_bl_ops_funcs)
.LBE198:
.LBE197:
	.loc 1 292 8
	lui	a5,%hi(.LANCHOR2)
.LBB202:
.LBB199:
	.loc 1 293 23
	addi	s1,s1,%lo(g_bl_ops_funcs)
.LBE199:
.LBE202:
	.loc 1 292 8
	addi	a5,a5,%lo(.LANCHOR2)
.LBB203:
.LBB200:
	.loc 1 293 23
	lw	a3,4(s1)
.LBE200:
.LBE203:
	.loc 1 292 8
	bne	a4,a5,.L239
.LVL394:
.LBB204:
.LBB201:
	.loc 1 293 9 is_stmt 1
	lui	a0,%hi(.LC53)
.LVL395:
	addi	a0,a0,%lo(.LC53)
	jalr	a3
.LVL396:
	.loc 1 294 9
	lw	a5,4(s1)
	lui	a0,%hi(.LC30)
	addi	a0,a0,%lo(.LC30)
	jalr	a5
.LVL397:
	.loc 1 295 9
	lbu	a0,12(s3)
	call	bl_main_if_remove
.LVL398:
	.loc 1 296 9
	.loc 1 295 9 is_stmt 0
	li	a0,1
.L238:
.LBE201:
.LBE204:
	.loc 1 304 1
	lw	ra,28(sp)
	.cfi_remember_state
	.cfi_restore 1
	lw	s0,24(sp)
	.cfi_restore 8
	.cfi_def_cfa 2, 32
	lw	s1,20(sp)
	.cfi_restore 9
	lw	s2,16(sp)
	.cfi_restore 18
	lw	s3,12(sp)
	.cfi_restore 19
	addi	sp,sp,32
	.cfi_def_cfa_offset 0
	jr	ra
.LVL399:
.L239:
	.cfi_restore_state
	.loc 1 299 5 is_stmt 1
	lui	a0,%hi(.LC54)
.LVL400:
	addi	a0,a0,%lo(.LC54)
	jalr	a3
.LVL401:
	.loc 1 300 5
	li	a1,-1
	addi	a0,s2,%lo(wifiMgmr)
	call	wifi_mgmr_profile_autoreconnect_disable
.LVL402:
	.loc 1 303 5
	.loc 1 303 11 is_stmt 0
	li	a0,0
	j	.L238
.LVL403:
.L240:
	.cfi_def_cfa_register 2
	.cfi_restore 1
	.cfi_restore 8
	.cfi_restore 9
	.cfi_restore 18
	.cfi_restore 19
	.loc 1 289 15
	li	a0,0
.LVL404:
	.loc 1 304 1
	ret
	.cfi_endproc
.LFE67:
	.size	stateGlobalGuard_disable_autoreconnect, .-stateGlobalGuard_disable_autoreconnect
	.section	.rodata.stateGlobalGuard_AP.str1.4,"aMS",@progbits,1
	.align	2
.LC55:
	.string	"[WF][SM] %s: AP iface has started!\r\n"
	.align	2
.LC56:
	.string	"[WF][SM] %s: add AP iface failed\r\n"
	.align	2
.LC57:
	.string	"[WF][SM] Conf max sta supported %d;\r\n"
	.align	2
.LC58:
	.string	"[WF][SM] start AP with ssid %s;\r\n"
	.align	2
.LC59:
	.string	"[WF][SM]               pwd  %s;\r\n"
	.align	2
.LC60:
	.string	"[WF][SM]               channel  %ld;\r\n"
	.section	.text.stateGlobalGuard_AP,"ax",@progbits
	.align	1
	.type	stateGlobalGuard_AP, @function
stateGlobalGuard_AP:
.LFB80:
	.loc 1 520 1 is_stmt 1
	.cfi_startproc
.LVL405:
	.loc 1 521 5
	.loc 1 522 5
	.loc 1 523 5
	.loc 1 525 5
	.loc 1 520 1 is_stmt 0
	addi	sp,sp,-48
	.cfi_def_cfa_offset 48
	sw	s0,40(sp)
	sw	s3,28(sp)
	sw	ra,44(sp)
	sw	s1,36(sp)
	sw	s2,32(sp)
	sw	s4,24(sp)
	sw	s5,20(sp)
	.cfi_offset 8, -8
	.cfi_offset 19, -20
	.cfi_offset 1, -4
	.cfi_offset 9, -12
	.cfi_offset 18, -16
	.cfi_offset 20, -24
	.cfi_offset 21, -28
	addi	s0,sp,48
	.cfi_def_cfa 8, 0
	.loc 1 525 17
	lui	s3,%hi(wifiMgmr)
	.loc 1 520 1
	.loc 1 525 17
	addi	a5,s3,%lo(wifiMgmr)
	.loc 1 525 8
	lw	a5,4(a5)
	beq	a5,zero,.L246
	.loc 1 526 9 is_stmt 1
	.loc 1 526 23 is_stmt 0
	lui	a5,%hi(g_bl_ops_funcs+4)
	.loc 1 526 9
	lw	a5,%lo(g_bl_ops_funcs+4)(a5)
	lui	a1,%hi(.LANCHOR13)
.LVL406:
	lui	a0,%hi(.LC55)
.LVL407:
	addi	a1,a1,%lo(.LANCHOR13)
	addi	a0,a0,%lo(.LC55)
.L262:
.LBB209:
.LBB210:
	.loc 1 536 9
	jalr	a5
.LVL408:
	.loc 1 537 9 is_stmt 1
.L247:
.LBE210:
.LBE209:
	.loc 1 570 1 is_stmt 0
	lw	ra,44(sp)
	.cfi_remember_state
	.cfi_restore 1
	lw	s0,40(sp)
	.cfi_restore 8
	.cfi_def_cfa 2, 48
	lw	s1,36(sp)
	.cfi_restore 9
	lw	s2,32(sp)
	.cfi_restore 18
	lw	s3,28(sp)
	.cfi_restore 19
	lw	s4,24(sp)
	.cfi_restore 20
	lw	s5,20(sp)
	.cfi_restore 21
	li	a0,0
	addi	sp,sp,48
	.cfi_def_cfa_offset 0
	jr	ra
.LVL409:
.L246:
	.cfi_restore_state
	lw	s1,4(a1)
.LVL410:
.LBB213:
.LBB212:
	.loc 1 530 5 is_stmt 1
	.loc 1 531 5
	.loc 1 531 44 is_stmt 0
	lbu	a4,1(s1)
	lbu	a5,0(s1)
	slli	a4,a4,8
	or	a4,a4,a5
	lbu	a5,2(s1)
	slli	a5,a5,16
	or	a4,a5,a4
	lbu	a5,3(s1)
	slli	a5,a5,24
	or	a5,a5,a4
	.loc 1 531 8
	li	a4,8
	bne	a5,a4,.L247
	.loc 1 535 5 is_stmt 1
	.loc 1 535 9 is_stmt 0
	lui	a2,%hi(wifiMgmr+132)
	lui	s4,%hi(wifiMgmr+160)
	addi	a2,a2,%lo(wifiMgmr+132)
	addi	a1,s4,%lo(wifiMgmr+160)
.LVL411:
	li	a0,0
.LVL412:
	lui	s2,%hi(g_bl_ops_funcs)
	call	bl_main_if_add
.LVL413:
	addi	s2,s2,%lo(g_bl_ops_funcs)
	.loc 1 535 8
	beq	a0,zero,.L248
	.loc 1 536 9 is_stmt 1
	lui	a1,%hi(.LANCHOR13)
	lui	a0,%hi(.LC56)
	lw	a5,4(s2)
	addi	a1,a1,%lo(.LANCHOR13)
	addi	a0,a0,%lo(.LC56)
	j	.L262
.L248:
	.loc 1 541 5 is_stmt 0
	lui	a1,%hi(netif_set_link_up)
	li	a2,0
	addi	a1,a1,%lo(netif_set_link_up)
	addi	a0,s4,%lo(wifiMgmr+160)
	call	netifapi_netif_common
.LVL414:
	.loc 1 542 5
	addi	a0,s0,-36
	call	wifi_mgmr_ap_dhcp_get
.LVL415:
	.loc 1 543 8
	lw	a5,-36(s0)
	addi	s3,s3,%lo(wifiMgmr)
	.loc 1 539 5 is_stmt 1
.LVL416:
	.loc 1 541 5
	.loc 1 542 5
	.loc 1 543 5
	.loc 1 543 8 is_stmt 0
	beq	a5,zero,.L249
.LBB211:
	.loc 1 544 9 is_stmt 1
	.loc 1 545 9
	.loc 1 545 12 is_stmt 0
	lbu	a5,123(s1)
	beq	a5,zero,.L249
	.loc 1 546 13 is_stmt 1
	lui	a1,%hi(dhcpd_start)
	li	a2,0
	addi	a1,a1,%lo(dhcpd_start)
	addi	a0,s4,%lo(wifiMgmr+160)
	call	netifapi_netif_common
.LVL417:
.L249:
.LBE211:
	.loc 1 550 5
	.loc 1 550 11 is_stmt 0
	lb	a1,128(s1)
	.loc 1 550 8
	blt	a1,zero,.L250
	.loc 1 551 9 is_stmt 1
	lw	a5,4(s2)
	lui	a0,%hi(.LC57)
	addi	a0,a0,%lo(.LC57)
	jalr	a5
.LVL418:
	.loc 1 552 9
	lbu	a0,128(s1)
	call	bl_main_conf_max_sta
.LVL419:
.L250:
	.loc 1 555 5
	lw	a5,4(s2)
	.loc 1 555 72 is_stmt 0
	addi	s4,s1,20
	.loc 1 555 5
	lui	a0,%hi(.LC58)
	mv	a1,s4
	addi	a0,a0,%lo(.LC58)
	jalr	a5
.LVL420:
	.loc 1 556 5 is_stmt 1
	lw	a5,4(s2)
	.loc 1 556 72 is_stmt 0
	addi	s5,s1,58
	.loc 1 556 5
	lui	a0,%hi(.LC59)
	mv	a1,s5
	addi	a0,a0,%lo(.LC59)
	jalr	a5
.LVL421:
	.loc 1 557 5 is_stmt 1
	lbu	a1,17(s1)
	lbu	a5,16(s1)
	lw	a4,4(s2)
	slli	a1,a1,8
	or	a1,a1,a5
	lbu	a5,18(s1)
	lui	a0,%hi(.LC60)
	addi	a0,a0,%lo(.LC60)
	slli	a5,a5,16
	or	a5,a5,a1
	lbu	a1,19(s1)
	.loc 1 562 5 is_stmt 0
	li	s2,4096
	add	s2,s3,s2
	.loc 1 557 5
	slli	a1,a1,24
	or	a1,a1,a5
	jalr	a4
.LVL422:
	.loc 1 558 5 is_stmt 1
	lui	a0,%hi(.LANCHOR12)
	mv	a1,s4
	addi	a0,a0,%lo(.LANCHOR12)
	call	strcpy
.LVL423:
	.loc 1 559 5
	lui	a0,%hi(.LANCHOR10)
	mv	a1,s5
	addi	a0,a0,%lo(.LANCHOR10)
	call	strcpy
.LVL424:
	.loc 1 560 5
	.loc 1 560 27 is_stmt 0
	lbu	a5,17(s1)
	lbu	a2,16(s1)
	.loc 1 561 31
	lbu	a4,53(s1)
	.loc 1 560 27
	slli	a5,a5,8
	or	a5,a5,a2
	lbu	a2,18(s1)
	.loc 1 562 5
	lbu	a3,132(s3)
	mv	a1,s5
	.loc 1 560 27
	slli	a2,a2,16
	or	a5,a2,a5
	lbu	a2,19(s1)
	.loc 1 562 5
	mv	a0,s4
	.loc 1 560 27
	slli	a2,a2,24
	or	a2,a2,a5
	.loc 1 560 23
	lui	a5,%hi(.LANCHOR6)
	sw	a2,%lo(.LANCHOR6)(a5)
	.loc 1 561 5 is_stmt 1
	.loc 1 561 27 is_stmt 0
	lui	a5,%hi(.LANCHOR11)
	sb	a4,%lo(.LANCHOR11)(a5)
	.loc 1 562 5 is_stmt 1
	lhu	a5,388(s2)
	call	bl_main_apm_start
.LVL425:
	.loc 1 563 5
	.loc 1 563 29 is_stmt 0
	li	a5,1
	sw	a5,4(s3)
	.loc 1 564 5 is_stmt 1
	.loc 1 564 8 is_stmt 0
	lbu	a5,123(s1)
	beq	a5,zero,.L251
	.loc 1 565 9 is_stmt 1
	.loc 1 565 31 is_stmt 0
	call	dns_server_init
.LVL426:
	.loc 1 565 29
	sw	a0,444(s2)
.L251:
	.loc 1 567 5 is_stmt 1
	li	a2,0
	li	a1,11
	li	a0,2
	call	aos_post_event
.LVL427:
	.loc 1 569 5
	.loc 1 569 11 is_stmt 0
	j	.L247
.LBE212:
.LBE213:
	.cfi_endproc
.LFE80:
	.size	stateGlobalGuard_AP, .-stateGlobalGuard_AP
	.section	.rodata.stateSnifferGuard_raw_send.str1.4,"aMS",@progbits,1
	.align	2
.LC61:
	.string	"------>>>>>> RAW Send CMD, pkt %p, len %d\r\n"
	.align	2
.LC62:
	.string	"wifi_mgmr.c"
	.section	.text.stateSnifferGuard_raw_send,"ax",@progbits
	.align	1
	.type	stateSnifferGuard_raw_send, @function
stateSnifferGuard_raw_send:
.LFB77:
	.loc 1 474 1 is_stmt 1
	.cfi_startproc
.LVL428:
	.loc 1 475 5
	.loc 1 476 5
	.loc 1 477 5
	.loc 1 479 5
	.loc 1 479 35 is_stmt 0
	lui	a5,%hi(wifiMgmr+4328)
	lw	a4,%lo(wifiMgmr+4328)(a5)
	.loc 1 479 8
	lui	a5,%hi(.LANCHOR3)
	addi	a5,a5,%lo(.LANCHOR3)
	beq	a4,a5,.L266
	.loc 1 479 49 discriminator 1
	lui	a5,%hi(.LANCHOR14)
	addi	a5,a5,%lo(.LANCHOR14)
	beq	a4,a5,.L266
	lw	a4,4(a1)
.LVL429:
.LBB216:
.LBB217:
	.loc 1 484 5 is_stmt 1
	.loc 1 485 5
	.loc 1 485 48 is_stmt 0
	lbu	a3,1(a4)
	lbu	a5,0(a4)
	slli	a3,a3,8
	or	a3,a3,a5
	lbu	a5,2(a4)
	slli	a5,a5,16
	or	a3,a5,a3
	lbu	a5,3(a4)
	slli	a5,a5,24
	or	a5,a5,a3
	.loc 1 485 8
	li	a3,22
	bne	a5,a3,.L266
	.loc 1 486 9 is_stmt 1
.LBE217:
.LBE216:
	.loc 1 474 1 is_stmt 0
	addi	sp,sp,-16
	.cfi_def_cfa_offset 16
	sw	ra,12(sp)
	sw	s0,8(sp)
	sw	s1,4(sp)
	sw	s2,0(sp)
	.cfi_offset 1, -4
	.cfi_offset 8, -8
	.cfi_offset 9, -12
	.cfi_offset 18, -16
	addi	s0,sp,16
	.cfi_def_cfa 8, 0
.LBB219:
.LBB218:
	.loc 1 486 13
	lbu	s1,5(a4)
	lbu	a5,4(a4)
	.loc 1 487 23
	lbu	s2,9(a4)
	lbu	a6,8(a4)
	.loc 1 486 13
	slli	s1,s1,8
	or	s1,s1,a5
	lbu	a5,6(a4)
	.loc 1 487 23
	slli	s2,s2,8
	or	s2,s2,a6
	lbu	a6,10(a4)
	.loc 1 486 13
	slli	a5,a5,16
	or	a5,a5,s1
	lbu	s1,7(a4)
	.loc 1 487 23
	slli	a6,a6,16
	or	a6,a6,s2
	lbu	s2,11(a4)
	.loc 1 486 13
	slli	s1,s1,24
	or	s1,s1,a5
.LVL430:
	.loc 1 487 9 is_stmt 1
	.loc 1 488 23 is_stmt 0
	lui	a5,%hi(g_bl_ops_funcs+204)
	.loc 1 488 9
	lw	a7,%lo(g_bl_ops_funcs+204)(a5)
	.loc 1 487 23
	slli	s2,s2,24
	or	s2,s2,a6
.LVL431:
	.loc 1 488 9 is_stmt 1
	lui	a4,%hi(.LC61)
.LVL432:
	lui	a2,%hi(.LC62)
	mv	a6,s2
	mv	a5,s1
	addi	a4,a4,%lo(.LC61)
	li	a3,488
	addi	a2,a2,%lo(.LC62)
	li	a1,0
.LVL433:
	li	a0,2
.LVL434:
	jalr	a7
.LVL435:
	.loc 1 488 89
	.loc 1 489 9
	mv	a1,s2
	mv	a0,s1
	call	bl_main_raw_send
.LVL436:
.LBE218:
.LBE219:
	.loc 1 497 1 is_stmt 0
	lw	ra,12(sp)
	.cfi_restore 1
	lw	s0,8(sp)
	.cfi_restore 8
	.cfi_def_cfa 2, 16
	lw	s1,4(sp)
	.cfi_restore 9
	lw	s2,0(sp)
	.cfi_restore 18
	li	a0,0
	addi	sp,sp,16
	.cfi_def_cfa_offset 0
	jr	ra
.LVL437:
.L266:
	li	a0,0
.LVL438:
	ret
	.cfi_endproc
.LFE77:
	.size	stateSnifferGuard_raw_send, .-stateSnifferGuard_raw_send
	.section	.rodata.wifi_mgmr_mode_to_str.str1.4,"aMS",@progbits,1
	.align	2
.LC63:
	.string	"Unknown"
	.section	.text.wifi_mgmr_mode_to_str,"ax",@progbits
	.align	1
	.globl	wifi_mgmr_mode_to_str
	.type	wifi_mgmr_mode_to_str, @function
wifi_mgmr_mode_to_str:
.LFB63:
	.loc 1 91 1 is_stmt 1
	.cfi_startproc
.LVL439:
	.loc 1 92 5
	.loc 1 91 1 is_stmt 0
	addi	sp,sp,-16
	.cfi_def_cfa_offset 16
	sw	s0,12(sp)
	.cfi_offset 8, -4
	addi	s0,sp,16
	.cfi_def_cfa 8, 0
	addi	a0,a0,-1
.LVL440:
	li	a5,12
	bgtu	a0,a5,.L271
	lui	a5,%hi(.LANCHOR15)
	slli	a0,a0,2
.LVL441:
	addi	a5,a5,%lo(.LANCHOR15)
	add	a0,a5,a0
	lw	a0,0(a0)
.L269:
	.loc 1 103 1
	lw	s0,12(sp)
	.cfi_remember_state
	.cfi_restore 8
	.cfi_def_cfa 2, 16
	addi	sp,sp,16
	.cfi_def_cfa_offset 0
	jr	ra
.L271:
	.cfi_restore_state
	.loc 1 91 1
	lui	a0,%hi(.LC63)
	addi	a0,a0,%lo(.LC63)
	j	.L269
	.cfi_endproc
.LFE63:
	.size	wifi_mgmr_mode_to_str, .-wifi_mgmr_mode_to_str
	.section	.rodata.wifi_mgmr_auth_to_str.str1.4,"aMS",@progbits,1
	.align	2
.LC64:
	.string	"WPA3-SAE"
	.align	2
.LC65:
	.string	"Open"
	.align	2
.LC66:
	.string	"WEP"
	.align	2
.LC67:
	.string	"WPA-PSK"
	.align	2
.LC68:
	.string	"WPA2-PSK"
	.align	2
.LC69:
	.string	"WPA2-PSK/WPA-PSK"
	.align	2
.LC70:
	.string	"WPA/WPA2-Enterprise"
	.align	2
.LC71:
	.string	"WPA2-PSK/WPA3-SAE"
	.section	.text.wifi_mgmr_auth_to_str,"ax",@progbits
	.align	1
	.globl	wifi_mgmr_auth_to_str
	.type	wifi_mgmr_auth_to_str, @function
wifi_mgmr_auth_to_str:
.LFB64:
	.loc 1 106 1 is_stmt 1
	.cfi_startproc
.LVL442:
	.loc 1 107 5
	.loc 1 106 1 is_stmt 0
	addi	sp,sp,-16
	.cfi_def_cfa_offset 16
	sw	s0,12(sp)
	.cfi_offset 8, -4
	addi	s0,sp,16
	.cfi_def_cfa 8, 0
	li	a5,7
	bgtu	a0,a5,.L274
	lui	a5,%hi(.L276)
	addi	a5,a5,%lo(.L276)
	slli	a0,a0,2
.LVL443:
	add	a0,a0,a5
	lw	a5,0(a0)
	jr	a5
	.section	.rodata.wifi_mgmr_auth_to_str,"a",@progbits
	.align	2
	.align	2
.L276:
	.word	.L283
	.word	.L282
	.word	.L281
	.word	.L280
	.word	.L279
	.word	.L278
	.word	.L284
	.word	.L275
	.section	.text.wifi_mgmr_auth_to_str
.L275:
	.loc 1 145 20
	lui	a0,%hi(.LC71)
	addi	a0,a0,%lo(.LC71)
.L273:
	.loc 1 158 1
	lw	s0,12(sp)
	.cfi_remember_state
	.cfi_restore 8
	.cfi_def_cfa 2, 16
	addi	sp,sp,16
	.cfi_def_cfa_offset 0
	jr	ra
.L283:
	.cfi_restore_state
	.loc 1 117 9 is_stmt 1
	.loc 1 120 13
	.loc 1 120 20 is_stmt 0
	lui	a0,%hi(.LC65)
	addi	a0,a0,%lo(.LC65)
	j	.L273
.L282:
	.loc 1 122 9 is_stmt 1
	.loc 1 125 13
	.loc 1 125 20 is_stmt 0
	lui	a0,%hi(.LC66)
	addi	a0,a0,%lo(.LC66)
	j	.L273
.L281:
	.loc 1 127 9 is_stmt 1
	.loc 1 130 13
	.loc 1 130 20 is_stmt 0
	lui	a0,%hi(.LC67)
	addi	a0,a0,%lo(.LC67)
	j	.L273
.L280:
	.loc 1 132 9 is_stmt 1
	.loc 1 135 13
	.loc 1 135 20 is_stmt 0
	lui	a0,%hi(.LC68)
	addi	a0,a0,%lo(.LC68)
	j	.L273
.L279:
	.loc 1 137 9 is_stmt 1
	.loc 1 140 13
	.loc 1 140 20 is_stmt 0
	lui	a0,%hi(.LC69)
	addi	a0,a0,%lo(.LC69)
	j	.L273
.L278:
	.loc 1 142 9 is_stmt 1
	.loc 1 145 13
	.loc 1 145 20 is_stmt 0
	lui	a0,%hi(.LC70)
	addi	a0,a0,%lo(.LC70)
	j	.L273
.LVL444:
.L274:
	.loc 1 147 9 is_stmt 1
	.loc 1 150 13
	.loc 1 150 20 is_stmt 0
	lui	a0,%hi(.LC63)
.LVL445:
	addi	a0,a0,%lo(.LC63)
	j	.L273
.L284:
	.loc 1 110 20
	lui	a0,%hi(.LC64)
	addi	a0,a0,%lo(.LC64)
	j	.L273
	.cfi_endproc
.LFE64:
	.size	wifi_mgmr_auth_to_str, .-wifi_mgmr_auth_to_str
	.section	.rodata.wifi_mgmr_cipher_to_str.str1.4,"aMS",@progbits,1
	.align	2
.LC72:
	.string	"TKIP"
	.align	2
.LC73:
	.string	"TKIP/AES"
	.align	2
.LC74:
	.string	"NONE"
	.align	2
.LC75:
	.string	"AES"
	.section	.text.wifi_mgmr_cipher_to_str,"ax",@progbits
	.align	1
	.globl	wifi_mgmr_cipher_to_str
	.type	wifi_mgmr_cipher_to_str, @function
wifi_mgmr_cipher_to_str:
.LFB65:
	.loc 1 161 1 is_stmt 1
	.cfi_startproc
.LVL446:
	.loc 1 162 5
	.loc 1 161 1 is_stmt 0
	addi	sp,sp,-16
	.cfi_def_cfa_offset 16
	sw	s0,12(sp)
	.cfi_offset 8, -4
	addi	s0,sp,16
	.cfi_def_cfa 8, 0
	.loc 1 162 8
	beq	a0,zero,.L288
	.loc 1 164 12 is_stmt 1
	.loc 1 164 15 is_stmt 0
	li	a5,1
	beq	a0,a5,.L289
	.loc 1 166 12 is_stmt 1
	.loc 1 166 15 is_stmt 0
	li	a5,2
	beq	a0,a5,.L290
	.loc 1 168 12 is_stmt 1
	.loc 1 168 15 is_stmt 0
	li	a5,3
	beq	a0,a5,.L291
	.loc 1 170 12 is_stmt 1
	.loc 1 170 15 is_stmt 0
	li	a5,4
	beq	a0,a5,.L292
	.loc 1 173 16
	lui	a0,%hi(.LC63)
.LVL447:
	addi	a0,a0,%lo(.LC63)
.L286:
	.loc 1 175 1
	lw	s0,12(sp)
	.cfi_remember_state
	.cfi_restore 8
	.cfi_def_cfa 2, 16
	addi	sp,sp,16
	.cfi_def_cfa_offset 0
	jr	ra
.LVL448:
.L288:
	.cfi_restore_state
	.loc 1 163 16
	lui	a0,%hi(.LC74)
.LVL449:
	addi	a0,a0,%lo(.LC74)
	j	.L286
.LVL450:
.L289:
	.loc 1 165 16
	lui	a0,%hi(.LC66)
.LVL451:
	addi	a0,a0,%lo(.LC66)
	j	.L286
.LVL452:
.L290:
	.loc 1 167 16
	lui	a0,%hi(.LC75)
.LVL453:
	addi	a0,a0,%lo(.LC75)
	j	.L286
.LVL454:
.L291:
	.loc 1 169 16
	lui	a0,%hi(.LC72)
.LVL455:
	addi	a0,a0,%lo(.LC72)
	j	.L286
.LVL456:
.L292:
	.loc 1 171 16
	lui	a0,%hi(.LC73)
.LVL457:
	addi	a0,a0,%lo(.LC73)
	j	.L286
	.cfi_endproc
.LFE65:
	.size	wifi_mgmr_cipher_to_str, .-wifi_mgmr_cipher_to_str
	.section	.rodata.wifi_mgmr_scan_beacon_save.str1.4,"aMS",@progbits,1
	.align	2
.LC76:
	.string	"skip update %s with rssi %d\r\n"
	.section	.text.wifi_mgmr_scan_beacon_save,"ax",@progbits
	.align	1
	.globl	wifi_mgmr_scan_beacon_save
	.type	wifi_mgmr_scan_beacon_save, @function
wifi_mgmr_scan_beacon_save:
.LFB66:
	.loc 1 178 1 is_stmt 1
	.cfi_startproc
.LVL458:
	.loc 1 181 5
	.loc 1 182 5
	.loc 1 183 5
	.loc 1 184 5
	.loc 1 200 5
	.loc 1 178 1 is_stmt 0
	addi	sp,sp,-80
	.cfi_def_cfa_offset 80
	sw	s0,72(sp)
	sw	s1,68(sp)
	sw	s2,64(sp)
	sw	s3,60(sp)
	sw	s4,56(sp)
	sw	ra,76(sp)
	sw	s5,52(sp)
	sw	s6,48(sp)
	sw	s7,44(sp)
	sw	s8,40(sp)
	sw	s9,36(sp)
	sw	s10,32(sp)
	sw	s11,28(sp)
	.cfi_offset 8, -8
	.cfi_offset 9, -12
	.cfi_offset 18, -16
	.cfi_offset 19, -20
	.cfi_offset 20, -24
	.cfi_offset 1, -4
	.cfi_offset 21, -28
	.cfi_offset 22, -32
	.cfi_offset 23, -36
	.cfi_offset 24, -40
	.cfi_offset 25, -44
	.cfi_offset 26, -48
	.cfi_offset 27, -52
	addi	s0,sp,80
	.cfi_def_cfa 8, 0
	.loc 1 200 5
	lui	s2,%hi(wifiMgmr)
	.loc 1 200 19
	lui	s4,%hi(g_bl_ops_funcs)
	.loc 1 200 5
	addi	s3,s2,%lo(wifiMgmr)
	.loc 1 178 1
	.loc 1 200 19
	addi	a5,s4,%lo(g_bl_ops_funcs)
	.loc 1 200 5
	lw	a5,156(a5)
	.loc 1 178 1
	mv	s1,a0
	.loc 1 200 5
	lw	a0,648(s3)
.LVL459:
	addi	s2,s2,%lo(wifiMgmr)
	addi	s4,s4,%lo(g_bl_ops_funcs)
	jalr	a5
.LVL460:
	.loc 1 201 5 is_stmt 1
	.loc 1 201 33 is_stmt 0
	li	a5,4096
	add	a5,s3,a5
	.loc 1 201 13
	lbu	a4,10(s1)
	.loc 1 201 8
	lw	a3,392(a5)
	.loc 1 202 13
	li	s3,-1
	.loc 1 201 8
	bgt	a4,a3,.L295
	.loc 1 201 47 discriminator 1
	beq	a4,zero,.L295
	.loc 1 205 8
	lbu	a4,12(s1)
	lui	s7,%hi(wifiMgmr+4096)
	addi	s7,s7,%lo(wifiMgmr+4096)
	.loc 1 205 5 is_stmt 1
	.loc 1 205 8 is_stmt 0
	bne	a4,zero,.L296
.LVL461:
.LBB220:
.LBB221:
	.loc 1 87 5 is_stmt 1
	.loc 1 87 31 is_stmt 0
	lw	a5,404(a5)
	andi	a5,a5,1
.LBE221:
.LBE220:
	.loc 1 205 28
	beq	a5,zero,.L295
.L296:
	.loc 1 211 5 is_stmt 1
	.loc 1 211 15 is_stmt 0
	lw	a5,196(s4)
	mv	s8,s2
	.loc 1 182 14
	li	s6,-1
	.loc 1 211 15
	jalr	a5
.LVL462:
	.loc 1 228 63
	addi	a5,s1,45
	.loc 1 211 15
	sw	a0,-72(s0)
.LVL463:
	.loc 1 212 5 is_stmt 1
	.loc 1 212 17
	.loc 1 184 14 is_stmt 0
	sw	zero,-68(s0)
	.loc 1 181 24
	li	s10,-1
	.loc 1 181 12
	li	s11,-1
	.loc 1 212 12
	li	s5,0
	.loc 1 228 63
	sw	a5,-76(s0)
	.loc 1 229 37
	addi	s9,s1,12
.LVL464:
.L301:
	.loc 1 213 9 is_stmt 1
	.loc 1 213 34 is_stmt 0
	lbu	a1,662(s8)
	.loc 1 213 11
	lw	a2,392(s7)
	ble	a1,a2,.L297
	.loc 1 214 13 is_stmt 1
	li	a2,60
	li	a1,0
	addi	a0,s8,652
	call	memset
.LVL465:
	.loc 1 215 13
	.loc 1 215 44 is_stmt 0
	sb	zero,707(s8)
	.loc 1 218 9 is_stmt 1
.L308:
	mv	s11,s5
.LVL466:
.L298:
	.loc 1 212 81 discriminator 2
	.loc 1 212 82 is_stmt 0 discriminator 2
	addi	s5,s5,1
.LVL467:
	.loc 1 212 17 is_stmt 1 discriminator 2
	.loc 1 212 5 is_stmt 0 discriminator 2
	li	a5,50
	addi	s8,s8,60
	bne	s5,a5,.L301
	.loc 1 256 5 is_stmt 1
	.loc 1 258 9
	.loc 1 258 35 is_stmt 0
	li	a5,-1
	bne	s11,a5,.L314
.LVL468:
	.loc 1 259 9 is_stmt 1 discriminator 4
	.loc 1 181 37 is_stmt 0 discriminator 4
	li	s3,0
	.loc 1 259 12 discriminator 4
	beq	s10,s11,.L295
.LVL469:
.L303:
	.loc 1 260 13 is_stmt 1
	li	s6,60
.LVL470:
	mul	s6,s10,s6
	li	a2,60
	li	a1,0
	.loc 1 260 20 is_stmt 0
	addi	a0,s6,652
	.loc 1 260 13
	add	a0,s2,a0
	.loc 1 261 43
	addi	s7,s6,664
	.loc 1 260 13
	call	memset
.LVL471:
	.loc 1 261 13 is_stmt 1
	.loc 1 261 43 is_stmt 0
	add	s7,s2,s7
	.loc 1 261 13
	li	a2,32
	addi	a1,s1,12
	mv	a0,s7
	.loc 1 262 49
	add	s3,s2,s6
	.loc 1 261 13
	call	strncpy
.LVL472:
	.loc 1 262 13 is_stmt 1
	.loc 1 263 47 is_stmt 0
	mv	a0,s7
	.loc 1 262 49
	sb	zero,696(s3)
	.loc 1 263 13 is_stmt 1
	.loc 1 263 47 is_stmt 0
	call	strlen
.LVL473:
	.loc 1 263 45
	sh	a0,660(s3)
	.loc 1 264 13 is_stmt 1
	.loc 1 264 42 is_stmt 0
	addi	a0,s6,697
	.loc 1 264 13
	li	a2,6
	addi	a1,s1,45
	add	a0,s2,a0
	call	memcpy
.LVL474:
	.loc 1 265 13 is_stmt 1
	.loc 1 265 50 is_stmt 0
	lbu	a5,10(s1)
	.loc 1 265 44
	sb	a5,662(s3)
	.loc 1 266 13 is_stmt 1
	.loc 1 266 47 is_stmt 0
	lb	a5,11(s1)
	.loc 1 266 41
	sb	a5,663(s3)
	.loc 1 267 13 is_stmt 1
	.loc 1 267 55 is_stmt 0
	lw	a5,-72(s0)
	sw	a5,656(s3)
	.loc 1 268 13 is_stmt 1
	.loc 1 268 47 is_stmt 0
	lbu	a5,53(s1)
	.loc 1 268 41
	sb	a5,705(s3)
	.loc 1 269 13 is_stmt 1
	.loc 1 269 49 is_stmt 0
	lbu	a5,54(s1)
	.loc 1 269 43
	sb	a5,706(s3)
	.loc 1 270 13 is_stmt 1
	.loc 1 270 46 is_stmt 0
	lbu	a5,56(s1)
	.loc 1 270 40
	sb	a5,708(s3)
	.loc 1 271 13 is_stmt 1
	.loc 1 271 47 is_stmt 0
	lw	a5,0(s1)
	.loc 1 271 41
	sw	a5,652(s3)
	.loc 1 272 13 is_stmt 1
	.loc 1 272 55 is_stmt 0
	lbu	a5,57(s1)
	.loc 1 272 49
	sb	a5,709(s3)
	.loc 1 273 13 is_stmt 1
	.loc 1 273 44 is_stmt 0
	li	a5,1
	sb	a5,707(s3)
	.loc 1 181 37
	li	s3,0
	j	.L295
.LVL475:
.L297:
	.loc 1 218 9 is_stmt 1
	.loc 1 218 12 is_stmt 0
	lbu	a2,707(s8)
	beq	a2,zero,.L308
	.loc 1 220 13 is_stmt 1
	.loc 1 220 16 is_stmt 0
	lw	a5,-68(s0)
	.loc 1 221 49
	lw	a2,656(s8)
	.loc 1 220 16
	beq	a5,zero,.L310
	.loc 1 221 69 discriminator 1
	sub	a1,a2,s6
	.loc 1 220 39 discriminator 1
	bge	a1,zero,.L299
.L310:
	.loc 1 223 26
	mv	s6,a2
.LVL476:
	mv	s10,s5
.LVL477:
.L299:
	.loc 1 228 13 is_stmt 1
	.loc 1 228 22 is_stmt 0
	lw	a1,-76(s0)
	li	a2,6
	addi	a0,s8,697
	call	memcmp
.LVL478:
	li	a5,1
	sw	a5,-68(s0)
	.loc 1 228 16
	bne	a0,zero,.L298
	.loc 1 229 26 discriminator 1
	addi	a1,s8,664
	mv	a0,s9
	call	strcmp
.LVL479:
	mv	s3,a0
	.loc 1 228 93 discriminator 1
	bne	a0,zero,.L298
	.loc 1 232 17 is_stmt 1
	.loc 1 232 57 is_stmt 0
	li	s6,60
.LVL480:
	mul	s6,s5,s6
	.loc 1 232 20
	lb	a3,11(s1)
	.loc 1 232 57
	add	s6,s2,s6
	.loc 1 232 20
	lb	a5,663(s6)
	bge	a3,a5,.L300
	.loc 1 233 31 discriminator 1
	lw	a5,196(s4)
	jalr	a5
.LVL481:
	.loc 1 233 61 discriminator 1
	lw	a5,656(s6)
	sub	a0,a0,a5
	.loc 1 232 64 discriminator 1
	li	a5,4096
	addi	a5,a5,-1097
	bgt	a0,a5,.L300
	.loc 1 235 21 is_stmt 1
	lw	a7,204(s4)
	lb	a6,11(s1)
	lui	a4,%hi(.LC76)
	lui	a2,%hi(.LC62)
	mv	a5,s9
	addi	a4,a4,%lo(.LC76)
	li	a3,235
	addi	a2,a2,%lo(.LC62)
	li	a1,0
	li	a0,1
	jalr	a7
.LVL482:
	.loc 1 235 101
.L295:
	.loc 1 278 5
	lw	a5,160(s4)
	lw	a0,648(s2)
	jalr	a5
.LVL483:
	.loc 1 280 5
	.loc 1 281 1 is_stmt 0
	lw	ra,76(sp)
	.cfi_remember_state
	.cfi_restore 1
	lw	s0,72(sp)
	.cfi_restore 8
	.cfi_def_cfa 2, 80
	lw	s1,68(sp)
	.cfi_restore 9
.LVL484:
	lw	s2,64(sp)
	.cfi_restore 18
	lw	s4,56(sp)
	.cfi_restore 20
	lw	s5,52(sp)
	.cfi_restore 21
	lw	s6,48(sp)
	.cfi_restore 22
	lw	s7,44(sp)
	.cfi_restore 23
	lw	s8,40(sp)
	.cfi_restore 24
	lw	s9,36(sp)
	.cfi_restore 25
	lw	s10,32(sp)
	.cfi_restore 26
	lw	s11,28(sp)
	.cfi_restore 27
	mv	a0,s3
	lw	s3,60(sp)
	.cfi_restore 19
.LVL485:
	addi	sp,sp,80
	.cfi_def_cfa_offset 0
	jr	ra
.LVL486:
.L300:
	.cfi_restore_state
	.loc 1 239 21 is_stmt 1
	.loc 1 239 52 is_stmt 0
	li	a5,60
	mul	a5,s5,a5
	.loc 1 239 58
	lbu	a3,10(s1)
	.loc 1 239 52
	add	a5,s2,a5
	sb	a3,662(a5)
	.loc 1 240 21 is_stmt 1
	.loc 1 240 55 is_stmt 0
	lb	a4,11(s1)
	.loc 1 240 49
	sb	a4,663(a5)
	.loc 1 241 21 is_stmt 1
	.loc 1 241 58 is_stmt 0
	lb	a4,51(s1)
	.loc 1 241 52
	sb	a4,703(a5)
	.loc 1 242 21 is_stmt 1
	.loc 1 242 58 is_stmt 0
	lb	a4,52(s1)
	.loc 1 242 52
	sb	a4,704(a5)
	.loc 1 243 21 is_stmt 1
	.loc 1 243 63 is_stmt 0
	lw	a4,-72(s0)
	sw	a4,656(a5)
	.loc 1 244 21 is_stmt 1
	.loc 1 244 55 is_stmt 0
	lbu	a4,53(s1)
	.loc 1 244 49
	sb	a4,705(a5)
	.loc 1 245 21 is_stmt 1
	.loc 1 245 57 is_stmt 0
	lbu	a4,54(s1)
	.loc 1 245 51
	sb	a4,706(a5)
	.loc 1 246 21 is_stmt 1
	.loc 1 246 54 is_stmt 0
	lbu	a4,56(s1)
	.loc 1 246 48
	sb	a4,708(a5)
	.loc 1 247 21 is_stmt 1
	.loc 1 247 55 is_stmt 0
	lw	a4,0(s1)
	.loc 1 247 49
	sw	a4,652(a5)
	.loc 1 248 21 is_stmt 1
	.loc 1 248 63 is_stmt 0
	lbu	a4,57(s1)
	.loc 1 248 57
	sb	a4,709(a5)
	j	.L295
.LVL487:
.L314:
	mv	s10,s11
.LVL488:
	j	.L303
	.cfi_endproc
.LFE66:
	.size	wifi_mgmr_scan_beacon_save, .-wifi_mgmr_scan_beacon_save
	.section	.text.wifi_mgmr_pending_task_set,"ax",@progbits
	.align	1
	.globl	wifi_mgmr_pending_task_set
	.type	wifi_mgmr_pending_task_set, @function
wifi_mgmr_pending_task_set:
.LFB115:
	.loc 1 1504 1 is_stmt 1
	.cfi_startproc
.LVL489:
	.loc 1 1505 5
	.loc 1 1504 1 is_stmt 0
	addi	sp,sp,-16
	.cfi_def_cfa_offset 16
	sw	s0,8(sp)
	sw	ra,12(sp)
	.cfi_offset 8, -8
	.cfi_offset 1, -4
	addi	s0,sp,16
	.cfi_def_cfa 8, 0
	.loc 1 1505 5
	call	_pending_task_set_safely
.LVL490:
	.loc 1 1506 5 is_stmt 1
	.loc 1 1507 1 is_stmt 0
	lw	ra,12(sp)
	.cfi_restore 1
	lw	s0,8(sp)
	.cfi_restore 8
	.cfi_def_cfa 2, 16
	li	a0,0
	addi	sp,sp,16
	.cfi_def_cfa_offset 0
	jr	ra
	.cfi_endproc
.LFE115:
	.size	wifi_mgmr_pending_task_set, .-wifi_mgmr_pending_task_set
	.section	.rodata.wifi_mgmr_event_notify.str1.4,"aMS",@progbits,1
	.align	2
.LC77:
	.string	"Waiting Wi-Fi Mgmr Start up...\r\n"
	.align	2
.LC78:
	.string	"Wi-Fi Mgmr NOT Start up! Start it first!\r\n"
	.align	2
.LC79:
	.string	"Failed when send msg 0x%p, len dec:%u\r\n"
	.section	.text.wifi_mgmr_event_notify,"ax",@progbits
	.align	1
	.globl	wifi_mgmr_event_notify
	.type	wifi_mgmr_event_notify, @function
wifi_mgmr_event_notify:
.LFB116:
	.loc 1 1510 1 is_stmt 1
	.cfi_startproc
.LVL491:
	.loc 1 1511 5
	.loc 1 1512 5
	.loc 1 1514 5
	.loc 1 1510 1 is_stmt 0
	addi	sp,sp,-32
	.cfi_def_cfa_offset 32
	sw	s0,24(sp)
	sw	s1,20(sp)
	sw	s2,16(sp)
	sw	s3,12(sp)
	sw	s4,8(sp)
	sw	s5,4(sp)
	sw	s6,0(sp)
	sw	ra,28(sp)
	.cfi_offset 8, -8
	.cfi_offset 9, -12
	.cfi_offset 18, -16
	.cfi_offset 19, -20
	.cfi_offset 20, -24
	.cfi_offset 21, -28
	.cfi_offset 22, -32
	.cfi_offset 1, -4
	addi	s0,sp,32
	.cfi_def_cfa 8, 0
	.loc 1 1514 25
	lui	s4,%hi(wifiMgmr+4096)
	lui	s2,%hi(g_bl_ops_funcs)
	.loc 1 1510 1
	.loc 1 1510 1
	mv	s1,a0
	mv	s5,a1
	.loc 1 1514 11
	li	s3,51
	.loc 1 1514 25
	addi	s4,s4,%lo(wifiMgmr+4096)
	addi	s2,s2,%lo(g_bl_ops_funcs)
	.loc 1 1515 9
	lui	s6,%hi(.LC77)
.LVL492:
.L323:
	.loc 1 1514 11 is_stmt 1
	lbu	a5,376(s4)
	beq	a5,zero,.L325
	.loc 1 1524 5
	.loc 1 1524 23 is_stmt 0
	lbu	a5,13(s1)
	lbu	a2,12(s1)
	lw	a0,-444(s4)
	slli	a5,a5,8
	or	a5,a5,a2
	lbu	a2,14(s1)
	slli	a2,a2,16
	or	a5,a2,a5
	lbu	a2,15(s1)
	slli	a2,a2,24
	or	a2,a2,a5
	.loc 1 1524 102
	beq	s5,zero,.L326
	.loc 1 1524 23 discriminator 1
	lw	a5,172(s2)
	li	a4,0
	li	a3,-1
	mv	a1,s1
	jalr	a5
.LVL493:
.L327:
	.loc 1 1526 5 is_stmt 1 discriminator 2
	.loc 1 1526 8 is_stmt 0 discriminator 2
	beq	a0,zero,.L322
	.loc 1 1527 9 is_stmt 1
	.loc 1 1527 99 is_stmt 0
	lbu	a2,13(s1)
	lbu	a5,12(s1)
	.loc 1 1527 9
	lw	a4,4(s2)
	.loc 1 1527 99
	slli	a2,a2,8
	or	a2,a2,a5
	lbu	a5,14(s1)
	.loc 1 1527 9
	lui	a0,%hi(.LC79)
.LVL494:
	mv	a1,s1
	.loc 1 1527 99
	slli	a5,a5,16
	or	a5,a5,a2
	lbu	a2,15(s1)
	.loc 1 1527 9
	addi	a0,a0,%lo(.LC79)
	.loc 1 1527 99
	slli	a2,a2,24
	.loc 1 1527 9
	or	a2,a2,a5
	jalr	a4
.LVL495:
	j	.L333
.L325:
	.loc 1 1515 9 is_stmt 1
	lw	a5,4(s2)
	addi	a0,s6,%lo(.LC77)
	.loc 1 1518 12 is_stmt 0
	addi	s3,s3,-1
.LVL496:
	.loc 1 1515 9
	jalr	a5
.LVL497:
	.loc 1 1516 9 is_stmt 1
	lw	a5,28(s2)
	li	a0,20
	.loc 1 1518 12 is_stmt 0
	andi	s3,s3,0xff
	.loc 1 1516 9
	jalr	a5
.LVL498:
	.loc 1 1518 9 is_stmt 1
	.loc 1 1518 12 is_stmt 0
	bne	s3,zero,.L323
	.loc 1 1520 13 is_stmt 1
	lw	a5,4(s2)
	lui	a0,%hi(.LC78)
	addi	a0,a0,%lo(.LC78)
	jalr	a5
.LVL499:
	.loc 1 1521 13
.L333:
	.loc 1 1528 9
	.loc 1 1528 16 is_stmt 0
	li	a0,-1
.L322:
	.loc 1 1531 1
	lw	ra,28(sp)
	.cfi_remember_state
	.cfi_restore 1
	lw	s0,24(sp)
	.cfi_restore 8
	.cfi_def_cfa 2, 32
	lw	s1,20(sp)
	.cfi_restore 9
.LVL500:
	lw	s2,16(sp)
	.cfi_restore 18
	lw	s3,12(sp)
	.cfi_restore 19
	lw	s4,8(sp)
	.cfi_restore 20
	lw	s5,4(sp)
	.cfi_restore 21
.LVL501:
	lw	s6,0(sp)
	.cfi_restore 22
	addi	sp,sp,32
	.cfi_def_cfa_offset 0
	jr	ra
.LVL502:
.L326:
	.cfi_restore_state
	.loc 1 1525 23
	lw	a5,176(s2)
	mv	a1,s1
	jalr	a5
.LVL503:
	j	.L327
	.cfi_endproc
.LFE116:
	.size	wifi_mgmr_event_notify, .-wifi_mgmr_event_notify
	.section	.rodata.wifi_mgmr_start.str1.4,"aMS",@progbits,1
	.align	2
.LC80:
	.string	"[WF][SM] reload tsen \r\n"
	.align	2
.LC81:
	.string	"please init tsen\r\n"
	.align	2
.LC82:
	.string	"temp is %u\r\n"
	.section	.text.wifi_mgmr_start,"ax",@progbits
	.align	1
	.globl	wifi_mgmr_start
	.type	wifi_mgmr_start, @function
wifi_mgmr_start:
.LFB119:
	.loc 1 1579 1 is_stmt 1
	.cfi_startproc
	.loc 1 1580 5
	.loc 1 1581 5
	.loc 1 1582 5
	.loc 1 1584 5
	.loc 1 1579 1 is_stmt 0
	addi	sp,sp,-288
	.cfi_def_cfa_offset 288
	sw	ra,284(sp)
	sw	s0,280(sp)
	sw	s1,276(sp)
	.cfi_offset 1, -4
	.cfi_offset 8, -8
	.cfi_offset 9, -12
	addi	s0,sp,288
	.cfi_def_cfa 8, 0
.LVL504:
	.loc 1 1585 5 is_stmt 1
	.loc 1 1579 1 is_stmt 0
	sw	s2,272(sp)
	sw	s3,268(sp)
	sw	s4,264(sp)
	sw	s5,260(sp)
	sw	s6,256(sp)
	sw	s7,252(sp)
	sw	s8,248(sp)
	sw	s9,244(sp)
	sw	s10,240(sp)
	.loc 1 1587 5
	lui	a2,%hi(.LANCHOR16)
	lui	a1,%hi(.LANCHOR14)
	.cfi_offset 18, -16
	.cfi_offset 19, -20
	.cfi_offset 20, -24
	.cfi_offset 21, -28
	.cfi_offset 22, -32
	.cfi_offset 23, -36
	.cfi_offset 24, -40
	.cfi_offset 25, -44
	.cfi_offset 26, -48
	lui	s3,%hi(wifiMgmr+4328)
	addi	a2,a2,%lo(.LANCHOR16)
	addi	a1,a1,%lo(.LANCHOR14)
	.loc 1 1579 1
	.loc 1 1585 13
	li	a5,1
	.loc 1 1589 46
	lui	s6,%hi(g_bl_ops_funcs)
	.loc 1 1587 5
	addi	a0,s3,%lo(wifiMgmr+4328)
	.loc 1 1586 13
	addi	s5,s0,-279
.LVL505:
	.loc 1 1589 46
	addi	s4,s6,%lo(g_bl_ops_funcs)
	.loc 1 1585 13
	sw	a5,-288(s0)
	.loc 1 1586 5 is_stmt 1
	.loc 1 1586 13 is_stmt 0
	sw	s5,-284(s0)
	.loc 1 1587 5 is_stmt 1
	call	stateM_init
.LVL506:
	.loc 1 1589 5
	.loc 1 1589 32 is_stmt 0
	lw	a5,148(s4)
	.loc 1 1589 30
	lui	s1,%hi(wifiMgmr)
	addi	s1,s1,%lo(wifiMgmr)
	.loc 1 1589 32
	jalr	a5
.LVL507:
	.loc 1 1590 50
	lw	a5,148(s4)
	.loc 1 1589 30
	sw	a0,648(s1)
	.loc 1 1590 5 is_stmt 1
	lui	s2,%hi(wifiMgmr+4096)
	.loc 1 1590 50 is_stmt 0
	jalr	a5
.LVL508:
	.loc 1 1590 48
	li	a5,4096
	add	s1,s1,a5
	.loc 1 1591 54
	lw	a5,148(s4)
	.loc 1 1590 48
	sw	a0,360(s1)
	.loc 1 1591 5 is_stmt 1
.LBB235:
.LBB236:
	.loc 1 1022 100 is_stmt 0
	lui	s7,%hi(.LANCHOR4)
.LBE236:
.LBE235:
	.loc 1 1591 54
	jalr	a5
.LVL509:
	.loc 1 1591 52
	sw	a0,364(s1)
	.loc 1 1593 5 is_stmt 1
	call	wifi_mgmr_event_init
.LVL510:
	.loc 1 1596 5
	lui	a1,%hi(event_cb_wifi_event_mgmr)
	li	a2,0
	addi	a1,a1,%lo(event_cb_wifi_event_mgmr)
	li	a0,2
	call	aos_register_event_filter
.LVL511:
	.loc 1 1598 5
	li	a2,0
	li	a1,2
	li	a0,2
	call	aos_post_event
.LVL512:
	.loc 1 1601 5
	li	a1,255
	li	a0,255
	call	hal_sys_capcode_update
.LVL513:
	.loc 1 1604 5
.LBB244:
.LBB245:
	.loc 1 1144 5
	.loc 1 1146 5
	.loc 1 1147 5
	lw	a5,4(s4)
	lui	a0,%hi(.LC80)
	addi	a0,a0,%lo(.LC80)
	jalr	a5
.LVL514:
	.loc 1 1149 5
	.loc 1 1149 30 is_stmt 0
	lw	a5,116(s4)
	lui	a1,%hi(.LANCHOR17)
	lui	a0,%hi(__reload_tsen)
	addi	s1,a1,%lo(.LANCHOR17)
	addi	a0,a0,%lo(__reload_tsen)
	addi	a1,a1,%lo(.LANCHOR17)
	jalr	a5
.LVL515:
	.loc 1 1152 5
	lw	a5,128(s4)
	li	a2,0
	li	a1,10
	.loc 1 1149 28
	sw	a0,32(s1)
	.loc 1 1152 5 is_stmt 1
	jalr	a5
.LVL516:
.LBE245:
.LBE244:
	.loc 1 1607 5
	call	wifi_mgmr_pm_ops_register
.LVL517:
	.loc 1 1608 5
	addi	s1,s6,%lo(g_bl_ops_funcs)
.LBB246:
.LBB239:
	.loc 1 1022 8 is_stmt 0
	lui	s4,%hi(.LANCHOR0)
	.loc 1 1022 53
	lui	s6,%hi(.LANCHOR2)
.LBE239:
.LBE246:
	.loc 1 1608 5
	call	wifi_mgmr_fw_affair_ops
.LVL518:
	addi	s2,s2,%lo(wifiMgmr+4096)
.LBB247:
.LBB240:
	.loc 1 1022 8
	addi	s4,s4,%lo(.LANCHOR0)
	.loc 1 1022 53
	addi	s6,s6,%lo(.LANCHOR2)
	.loc 1 1022 100
	addi	s7,s7,%lo(.LANCHOR4)
.L337:
.LBE240:
.LBE247:
	.loc 1 1611 5 is_stmt 1
	.loc 1 1612 9
	.loc 1 1612 18 is_stmt 0
	lw	a5,180(s1)
	lw	a0,-444(s2)
	li	a3,-1
	li	a2,224
	mv	a1,s5
	jalr	a5
.LVL519:
	.loc 1 1612 12
	bne	a0,zero,.L337
.LBB248:
.LBB241:
	.loc 1 1022 151
	lui	s8,%hi(.LANCHOR5)
	addi	s8,s8,%lo(.LANCHOR5)
.L336:
.LBE241:
.LBE248:
	.loc 1 1615 13 is_stmt 1
	.loc 1 1615 26 is_stmt 0
	lw	a5,-280(s0)
	.loc 1 1615 80
	li	a3,14
	.loc 1 1615 26
	srli	a4,a5,8
	lbu	a5,-276(s0)
	slli	a5,a5,24
	or	a5,a5,a4
	.loc 1 1615 80
	li	a4,1
	bleu	a5,a3,.L339
	.loc 1 1616 78
	li	a4,23
	sgtu	a4,a5,a4
	slli	a4,a4,1
.L339:
	.loc 1 1615 21 discriminator 3
	sw	a4,-288(s0)
	.loc 1 1617 13 is_stmt 1 discriminator 3
	.loc 1 1617 16 is_stmt 0 discriminator 3
	li	a4,14
	bne	a5,a4,.L340
	.loc 1 1618 17 is_stmt 1
.LBB249:
.LBB242:
	.loc 1 1018 5
	.loc 1 1019 5
.LVL520:
	.loc 1 1020 5
	.loc 1 1022 5
	.loc 1 1022 39 is_stmt 0
	lw	a5,232(s2)
	.loc 1 1022 8
	beq	a5,s4,.L341
	.loc 1 1022 53
	beq	a5,s6,.L341
	.loc 1 1022 100
	beq	a5,s7,.L341
	.loc 1 1022 151
	beq	a5,s8,.L341
	.loc 1 1023 54
	lui	a4,%hi(.LANCHOR1)
	addi	a4,a4,%lo(.LANCHOR1)
	bne	a5,a4,.L342
.L341:
	.loc 1 1025 9 is_stmt 1
	.loc 1 1025 23 is_stmt 0
	lui	a5,%hi(tcal_param)
	lw	a5,%lo(tcal_param)(a5)
	lbu	a5,32(a5)
	andi	a5,a5,0xff
	.loc 1 1025 12
	beq	a5,zero,.L343
.LBB237:
	.loc 1 1028 13 is_stmt 1
	.loc 1 1029 13
	.loc 1 1029 19 is_stmt 0
	call	wifi_hosal_adc_device_get
.LVL521:
	.loc 1 1030 13 is_stmt 1
	lui	s10,%hi(.LC62)
	.loc 1 1030 16 is_stmt 0
	bne	a0,zero,.L344
	.loc 1 1031 17 is_stmt 1
	lw	a5,204(s1)
	lui	a4,%hi(.LC81)
	addi	a4,a4,%lo(.LC81)
	li	a3,1031
	addi	a2,s10,%lo(.LC62)
	li	a1,0
	li	a0,3
.LVL522:
	jalr	a5
.LVL523:
	.loc 1 1031 63
	.loc 1 1032 17
.L342:
.LBE237:
.LBE242:
.LBE249:
	.loc 1 1623 13
.LBB250:
.LBB251:
	.loc 1 1550 5
.LBB252:
.LBB253:
	.loc 1 82 5
	.loc 1 82 34 is_stmt 0
	lw	a5,400(s2)
.LVL524:
	.loc 1 82 39
	andi	a4,a5,8
.LBE253:
.LBE252:
	.loc 1 1550 8
	beq	a4,zero,.L345
	.loc 1 1552 13 is_stmt 1
	li	a0,2
	call	_pending_task_clr_safely
.LVL525:
	.loc 1 1553 13
	li	a0,4
	call	_pending_task_clr_safely
.LVL526:
	.loc 1 1554 13
	j	.L337
.LVL527:
.L344:
.LBE251:
.LBE250:
.LBB259:
.LBB243:
.LBB238:
	.loc 1 1034 13
	.loc 1 1034 20 is_stmt 0
	call	wifi_hosal_adc_tsen_value_get
.LVL528:
	.loc 1 1036 13
	lw	a6,204(s1)
	.loc 1 1034 18
	slli	s9,a0,16
	srai	s9,s9,16
.LVL529:
	.loc 1 1036 13 is_stmt 1
	lui	a4,%hi(.LC82)
	mv	a5,s9
	addi	a4,a4,%lo(.LC82)
	li	a3,1036
	addi	a2,s10,%lo(.LC62)
	li	a1,0
	li	a0,1
	jalr	a6
.LVL530:
	.loc 1 1036 59
	.loc 1 1037 13
	mv	a0,s9
	call	phy_tcal_callback
.LVL531:
.LBE238:
	j	.L342
.LVL532:
.L343:
	.loc 1 1039 13
	.loc 1 1039 19 is_stmt 0
	lui	s9,%hi(.LANCHOR18)
	addi	s9,s9,%lo(.LANCHOR18)
	.loc 1 1039 16
	lw	a5,0(s9)
	bne	a5,zero,.L342
	.loc 1 1040 17 is_stmt 1
	li	a0,35
	call	phy_tcal_callback
.LVL533:
	.loc 1 1041 17
	.loc 1 1041 32 is_stmt 0
	li	a5,1
	sw	a5,0(s9)
	j	.L342
.LVL534:
.L340:
.LBE243:
.LBE259:
	.loc 1 1620 17 is_stmt 1
	addi	a1,s0,-288
	addi	a0,s3,%lo(wifiMgmr+4328)
	call	stateM_handleEvent
.LVL535:
	j	.L342
.LVL536:
.L345:
.LBB260:
.LBB258:
	.loc 1 1557 5
.LBB254:
.LBB255:
	.loc 1 82 5
	.loc 1 82 39 is_stmt 0
	andi	a4,a5,2
.LBE255:
.LBE254:
	.loc 1 1557 8
	beq	a4,zero,.L347
	.loc 1 1558 9 is_stmt 1
	li	a0,2
	call	_pending_task_clr_safely
.LVL537:
	.loc 1 1559 9
	.loc 1 1559 17 is_stmt 0
	li	a5,31
.L355:
.L338:
	.loc 1 1568 17
	sb	a5,-279(s0)
	.loc 1 1569 20
	li	a5,1
	sb	a5,-275(s0)
	.loc 1 1570 20
	li	a5,2
	sb	a5,-271(s0)
	.loc 1 1571 18
	li	a5,16
	.loc 1 1568 17
	sb	zero,-278(s0)
	sb	zero,-277(s0)
	sb	zero,-276(s0)
	.loc 1 1569 9 is_stmt 1
	.loc 1 1569 20 is_stmt 0
	sb	zero,-274(s0)
	sb	zero,-273(s0)
	sb	zero,-272(s0)
	.loc 1 1570 9 is_stmt 1
	.loc 1 1570 20 is_stmt 0
	sb	zero,-270(s0)
	sb	zero,-269(s0)
	sb	zero,-268(s0)
	.loc 1 1571 9 is_stmt 1
	.loc 1 1571 18 is_stmt 0
	sb	a5,-267(s0)
	sb	zero,-266(s0)
	sb	zero,-265(s0)
	sb	zero,-264(s0)
	.loc 1 1572 9 is_stmt 1
.LVL538:
	j	.L336
.LVL539:
.L347:
	.loc 1 1566 5
.LBB256:
.LBB257:
	.loc 1 82 5
	.loc 1 82 39 is_stmt 0
	andi	a5,a5,4
.LBE257:
.LBE256:
	.loc 1 1566 8
	beq	a5,zero,.L337
	.loc 1 1567 9 is_stmt 1
	li	a0,4
	call	_pending_task_clr_safely
.LVL540:
	.loc 1 1568 9
	.loc 1 1568 17 is_stmt 0
	li	a5,4
	j	.L355
.LBE258:
.LBE260:
	.cfi_endproc
.LFE119:
	.size	wifi_mgmr_start, .-wifi_mgmr_start
	.section	.text._wifi_mgmr_entry,"ax",@progbits
	.align	1
	.type	_wifi_mgmr_entry, @function
_wifi_mgmr_entry:
.LFB120:
	.loc 1 1631 1 is_stmt 1
	.cfi_startproc
.LVL541:
	.loc 1 1632 5
	.loc 1 1631 1 is_stmt 0
	addi	sp,sp,-16
	.cfi_def_cfa_offset 16
	sw	s0,8(sp)
	sw	ra,12(sp)
	.cfi_offset 8, -8
	.cfi_offset 1, -4
	addi	s0,sp,16
	.cfi_def_cfa 8, 0
	.loc 1 1632 5
	call	wifi_mgmr_start
.LVL542:
	.cfi_endproc
.LFE120:
	.size	_wifi_mgmr_entry, .-_wifi_mgmr_entry
	.section	.rodata.wifi_mgmr_start_background.str1.4,"aMS",@progbits,1
	.align	2
.LC83:
	.string	"wifi_mgmr"
	.section	.text.wifi_mgmr_start_background,"ax",@progbits
	.align	1
	.globl	wifi_mgmr_start_background
	.type	wifi_mgmr_start_background, @function
wifi_mgmr_start_background:
.LFB121:
	.loc 1 1636 1 is_stmt 1
	.cfi_startproc
.LVL543:
	.loc 1 1637 5
	.loc 1 1636 1 is_stmt 0
	addi	sp,sp,-16
	.cfi_def_cfa_offset 16
	sw	s0,8(sp)
	sw	ra,12(sp)
	.cfi_offset 8, -8
	.cfi_offset 1, -4
	addi	s0,sp,16
	.cfi_def_cfa 8, 0
	.loc 1 1637 5
	call	wifi_mgmr_drv_init
.LVL544:
	.loc 1 1638 5 is_stmt 1
	.loc 1 1638 19 is_stmt 0
	lui	a5,%hi(g_bl_ops_funcs+60)
	.loc 1 1639 1
	lw	s0,8(sp)
	.cfi_restore 8
	.cfi_def_cfa 2, 16
	.loc 1 1638 5
	lw	a6,%lo(g_bl_ops_funcs+60)(a5)
	.loc 1 1639 1
	lw	ra,12(sp)
	.cfi_restore 1
	.loc 1 1638 5
	li	a2,4096
	lui	a1,%hi(_wifi_mgmr_entry)
	lui	a0,%hi(.LC83)
	.loc 1 1639 1
	.loc 1 1638 5
	li	a5,0
	li	a4,28
	li	a3,0
	addi	a2,a2,-1024
	addi	a1,a1,%lo(_wifi_mgmr_entry)
	addi	a0,a0,%lo(.LC83)
	.loc 1 1639 1
	addi	sp,sp,16
	.cfi_def_cfa_offset 0
	.loc 1 1638 5
	jr	a6
.LVL545:
	.cfi_endproc
.LFE121:
	.size	wifi_mgmr_start_background, .-wifi_mgmr_start_background
	.section	.rodata.wifi_mgmr_init.str1.4,"aMS",@progbits,1
	.align	2
.LC84:
	.string	"(ret = (NULL != wifiMgmr.mq))"
	.align	2
.LC85:
	.string	"/home/dinhquangha/intern/Ai-Thinker-WB2/components/network/wifi_manager/bl60x_wifi_driver/wifi_mgmr.c"
	.section	.text.wifi_mgmr_init,"ax",@progbits
	.align	1
	.globl	wifi_mgmr_init
	.type	wifi_mgmr_init, @function
wifi_mgmr_init:
.LFB122:
	.loc 1 1642 1 is_stmt 1
	.cfi_startproc
	.loc 1 1643 5
	.loc 1 1645 5
	.loc 1 1642 1 is_stmt 0
	addi	sp,sp,-32
	.cfi_def_cfa_offset 32
	sw	s0,24(sp)
	sw	s1,20(sp)
	sw	s2,16(sp)
	sw	s3,12(sp)
	sw	s4,8(sp)
	sw	ra,28(sp)
	.cfi_offset 8, -8
	.cfi_offset 9, -12
	.cfi_offset 18, -16
	.cfi_offset 19, -20
	.cfi_offset 20, -24
	.cfi_offset 1, -4
	addi	s0,sp,32
	.cfi_def_cfa 8, 0
	.loc 1 1645 33
	lui	s3,%hi(g_bl_ops_funcs)
	.loc 1 1642 1
	.loc 1 1645 33
	addi	s3,s3,%lo(g_bl_ops_funcs)
	.loc 1 1645 19
	lw	a5,164(s3)
	li	a1,224
	li	a0,3
	jalr	a5
.LVL546:
	.loc 1 1645 17
	lui	s2,%hi(wifiMgmr)
	addi	a5,s2,%lo(wifiMgmr)
	li	a4,4096
	add	a5,a5,a4
	lui	s1,%hi(wifiMgmr+4096)
	sw	a0,-444(a5)
	.loc 1 1646 5 is_stmt 1
	.loc 1 1646 10
	.loc 1 1646 4 is_stmt 0
	snez	s4,a0
.LVL547:
	addi	s2,s2,%lo(wifiMgmr)
	addi	s1,s1,%lo(wifiMgmr+4096)
	.loc 1 1646 13
	bne	a0,zero,.L361
	.loc 1 1646 25 is_stmt 1 discriminator 1
	lw	a5,12(s3)
	lui	a3,%hi(.LC84)
	lui	a2,%hi(.LANCHOR19)
	lui	a0,%hi(.LC85)
	addi	a3,a3,%lo(.LC84)
	addi	a2,a2,%lo(.LANCHOR19)
	li	a1,1646
	addi	a0,a0,%lo(.LC85)
	jalr	a5
.LVL548:
.L361:
	.loc 1 1646 217 discriminator 3
	.loc 1 1648 5 discriminator 3
	.loc 1 1648 20 is_stmt 0 discriminator 3
	li	a5,1
	sb	a5,376(s1)
	.loc 1 1649 5 is_stmt 1 discriminator 3
	.loc 1 1650 5 discriminator 3
	.loc 1 1650 31 is_stmt 0 discriminator 3
	li	a5,-1
	sw	a5,396(s1)
	.loc 1 1651 5 is_stmt 1 discriminator 3
	.loc 1 1651 32 is_stmt 0 discriminator 3
	li	a5,16384
	addi	a5,a5,-1384
	sw	a5,408(s1)
	.loc 1 1653 5 is_stmt 1 discriminator 3
	.loc 1 1654 5 discriminator 3
	.loc 1 1655 5 discriminator 3
	.loc 1 1649 25 is_stmt 0 discriminator 3
	li	a5,100
	sh	a5,388(s1)
	.loc 1 1656 5 is_stmt 1 discriminator 3
	.loc 1 1656 30 is_stmt 0 discriminator 3
	li	a5,17543168
	addi	a5,a5,-1856
	sw	a5,140(s2)
	.loc 1 1657 5 is_stmt 1 discriminator 3
	.loc 1 1660 1 is_stmt 0 discriminator 3
	lw	ra,28(sp)
	.cfi_restore 1
	lw	s0,24(sp)
	.cfi_restore 8
	.cfi_def_cfa 2, 32
	.loc 1 1657 32 discriminator 3
	li	a5,16777216
	addi	a5,a5,-1
	.loc 1 1653 32 discriminator 3
	sh	zero,382(s1)
	.loc 1 1654 37 discriminator 3
	sw	zero,384(s1)
	.loc 1 1657 32 discriminator 3
	sw	a5,144(s2)
	.loc 1 1658 5 is_stmt 1 discriminator 3
	.loc 1 1658 30 is_stmt 0 discriminator 3
	sw	zero,148(s2)
	.loc 1 1659 5 is_stmt 1 discriminator 3
	.loc 1 1660 1 is_stmt 0 discriminator 3
	lw	s1,20(sp)
	.cfi_restore 9
	lw	s2,16(sp)
	.cfi_restore 18
	lw	s3,12(sp)
	.cfi_restore 19
	mv	a0,s4
	lw	s4,8(sp)
	.cfi_restore 20
.LVL549:
	addi	sp,sp,32
	.cfi_def_cfa_offset 0
	jr	ra
	.cfi_endproc
.LFE122:
	.size	wifi_mgmr_init, .-wifi_mgmr_init
	.section	.text.wifi_mgmr_status_code_get_internal,"ax",@progbits
	.align	1
	.globl	wifi_mgmr_status_code_get_internal
	.type	wifi_mgmr_status_code_get_internal, @function
wifi_mgmr_status_code_get_internal:
.LFB123:
	.loc 1 1663 1 is_stmt 1
	.cfi_startproc
.LVL550:
	.loc 1 1664 5
	.loc 1 1663 1 is_stmt 0
	addi	sp,sp,-16
	.cfi_def_cfa_offset 16
	sw	s0,12(sp)
	.cfi_offset 8, -4
	addi	s0,sp,16
	.cfi_def_cfa 8, 0
	.loc 1 1664 45
	lui	a5,%hi(wifiMgmr+4344)
	lhu	a5,%lo(wifiMgmr+4344)(a5)
	sw	a5,0(a0)
	.loc 1 1665 5 is_stmt 1
	.loc 1 1666 1 is_stmt 0
	lw	s0,12(sp)
	.cfi_restore 8
	.cfi_def_cfa 2, 16
	li	a0,0
.LVL551:
	addi	sp,sp,16
	.cfi_def_cfa_offset 0
	jr	ra
	.cfi_endproc
.LFE123:
	.size	wifi_mgmr_status_code_get_internal, .-wifi_mgmr_status_code_get_internal
	.section	.text.wifi_mgmr_status_code_clean_internal,"ax",@progbits
	.align	1
	.globl	wifi_mgmr_status_code_clean_internal
	.type	wifi_mgmr_status_code_clean_internal, @function
wifi_mgmr_status_code_clean_internal:
.LFB124:
	.loc 1 1669 1 is_stmt 1
	.cfi_startproc
	.loc 1 1670 5
	.loc 1 1669 1 is_stmt 0
	addi	sp,sp,-16
	.cfi_def_cfa_offset 16
	sw	s0,12(sp)
	.cfi_offset 8, -4
	addi	s0,sp,16
	.cfi_def_cfa 8, 0
	.loc 1 1672 1
	lw	s0,12(sp)
	.cfi_restore 8
	.cfi_def_cfa 2, 16
	.loc 1 1670 46
	lui	a5,%hi(wifiMgmr+4344)
	sh	zero,%lo(wifiMgmr+4344)(a5)
	.loc 1 1671 5 is_stmt 1
	.loc 1 1672 1 is_stmt 0
	li	a0,0
	addi	sp,sp,16
	.cfi_def_cfa_offset 0
	jr	ra
	.cfi_endproc
.LFE124:
	.size	wifi_mgmr_status_code_clean_internal, .-wifi_mgmr_status_code_clean_internal
	.section	.text.wifi_mgmr_detailed_state_get_internal,"ax",@progbits
	.align	1
	.globl	wifi_mgmr_detailed_state_get_internal
	.type	wifi_mgmr_detailed_state_get_internal, @function
wifi_mgmr_detailed_state_get_internal:
.LFB125:
	.loc 1 1675 1 is_stmt 1
	.cfi_startproc
.LVL552:
	.loc 1 1676 5
	.loc 1 1677 5
	.loc 1 1679 5
	.loc 1 1675 1 is_stmt 0
	addi	sp,sp,-16
	.cfi_def_cfa_offset 16
	.loc 1 1679 13
	lui	a5,%hi(wifiMgmr)
	.loc 1 1675 1
	sw	s0,12(sp)
	.loc 1 1679 13
	addi	a5,a5,%lo(wifiMgmr)
	.cfi_offset 8, -4
	.loc 1 1675 1
	addi	s0,sp,16
	.cfi_def_cfa 8, 0
	.loc 1 1679 13
	li	a3,4096
	.loc 1 1675 1
	.loc 1 1679 13
	add	a3,a5,a3
	lw	a4,232(a3)
.LVL553:
	.loc 1 1680 5 is_stmt 1
.LBB261:
.LBB262:
	.loc 1 1664 5
.LBE262:
.LBE261:
	.loc 1 1682 8 is_stmt 0
	lui	a2,%hi(.LANCHOR3)
	addi	a2,a2,%lo(.LANCHOR3)
.LBB264:
.LBB263:
	.loc 1 1664 45
	lhu	a3,248(a3)
.LVL554:
	.loc 1 1665 5 is_stmt 1
.LBE263:
.LBE264:
	.loc 1 1682 5
	.loc 1 1682 8 is_stmt 0
	bne	a4,a2,.L368
	.loc 1 1683 9 is_stmt 1
	.loc 1 1683 12 is_stmt 0
	lw	a5,4(a5)
	beq	a5,zero,.L369
	.loc 1 1684 13 is_stmt 1
	.loc 1 1684 20 is_stmt 0
	li	a5,17
.L388:
	.loc 1 1714 20
	sw	a5,0(a0)
	j	.L370
.L369:
	.loc 1 1686 13 is_stmt 1
	.loc 1 1686 20 is_stmt 0
	li	a5,1
.L392:
	sw	a5,0(a0)
	.loc 1 1687 13 is_stmt 1
	.loc 1 1687 16 is_stmt 0
	li	a5,8
	bne	a3,a5,.L371
	.loc 1 1688 17 is_stmt 1
	.loc 1 1688 33 is_stmt 0
	li	a5,8
.L389:
	.loc 1 1690 33
	sw	a5,0(a1)
.L370:
	.loc 1 1735 5 is_stmt 1
.LVL555:
	.loc 1 1736 1 is_stmt 0
	lw	s0,12(sp)
	.cfi_remember_state
	.cfi_restore 8
	.cfi_def_cfa 2, 16
	li	a0,0
.LVL556:
	addi	sp,sp,16
	.cfi_def_cfa_offset 0
	jr	ra
.LVL557:
.L371:
	.cfi_restore_state
	.loc 1 1689 20 is_stmt 1
	.loc 1 1689 23 is_stmt 0
	li	a5,12
	bne	a3,a5,.L370
	.loc 1 1690 17 is_stmt 1
	.loc 1 1690 33 is_stmt 0
	li	a5,9
	j	.L389
.L368:
	.loc 1 1693 12 is_stmt 1
	.loc 1 1693 15 is_stmt 0
	lui	a2,%hi(.LANCHOR0)
	addi	a2,a2,%lo(.LANCHOR0)
	bne	a4,a2,.L373
	.loc 1 1694 9 is_stmt 1
	.loc 1 1694 12 is_stmt 0
	lw	a5,4(a5)
	beq	a5,zero,.L374
	.loc 1 1695 13 is_stmt 1
	.loc 1 1695 20 is_stmt 0
	li	a5,18
	j	.L388
.L374:
	.loc 1 1697 13 is_stmt 1
	.loc 1 1697 20 is_stmt 0
	li	a5,2
	j	.L392
.L373:
	.loc 1 1704 12 is_stmt 1
	.loc 1 1704 15 is_stmt 0
	lui	a2,%hi(.LANCHOR1)
	addi	a2,a2,%lo(.LANCHOR1)
	bne	a4,a2,.L377
	.loc 1 1705 9 is_stmt 1
	.loc 1 1705 12 is_stmt 0
	lw	a5,4(a5)
	beq	a5,zero,.L378
	.loc 1 1706 13 is_stmt 1
	.loc 1 1706 20 is_stmt 0
	li	a5,19
	j	.L388
.L378:
	.loc 1 1708 13 is_stmt 1
	.loc 1 1708 20 is_stmt 0
	li	a5,3
	j	.L388
.L377:
	.loc 1 1710 12 is_stmt 1
	.loc 1 1710 15 is_stmt 0
	lui	a2,%hi(.LANCHOR4)
	addi	a2,a2,%lo(.LANCHOR4)
	bne	a4,a2,.L379
	.loc 1 1711 9 is_stmt 1
	.loc 1 1711 12 is_stmt 0
	lw	a5,4(a5)
	beq	a5,zero,.L380
	.loc 1 1712 13 is_stmt 1
	.loc 1 1712 20 is_stmt 0
	li	a5,20
	j	.L388
.L380:
	.loc 1 1714 13 is_stmt 1
	.loc 1 1714 20 is_stmt 0
	li	a5,4
	j	.L388
.L379:
	.loc 1 1716 12 is_stmt 1
	.loc 1 1716 15 is_stmt 0
	lui	a2,%hi(.LANCHOR2)
	addi	a2,a2,%lo(.LANCHOR2)
	bne	a4,a2,.L381
	.loc 1 1717 9 is_stmt 1
	.loc 1 1717 12 is_stmt 0
	lw	a5,4(a5)
	beq	a5,zero,.L382
	.loc 1 1718 13 is_stmt 1
	.loc 1 1718 20 is_stmt 0
	li	a5,21
	j	.L388
.L382:
	.loc 1 1720 13 is_stmt 1
	.loc 1 1720 20 is_stmt 0
	li	a5,5
	j	.L392
.L381:
	.loc 1 1727 12 is_stmt 1
	.loc 1 1727 15 is_stmt 0
	lui	a5,%hi(.LANCHOR14)
	addi	a5,a5,%lo(.LANCHOR14)
	bne	a4,a5,.L383
	.loc 1 1728 9 is_stmt 1
	.loc 1 1728 16 is_stmt 0
	li	a5,6
	j	.L388
.L383:
	.loc 1 1729 12 is_stmt 1
	.loc 1 1729 15 is_stmt 0
	lui	a5,%hi(.LANCHOR5)
	addi	a5,a5,%lo(.LANCHOR5)
	bne	a4,a5,.L384
	.loc 1 1730 9 is_stmt 1
	.loc 1 1730 16 is_stmt 0
	li	a5,7
	j	.L388
.L384:
	.loc 1 1732 9 is_stmt 1
	.loc 1 1732 16 is_stmt 0
	sw	zero,0(a0)
	j	.L370
	.cfi_endproc
.LFE125:
	.size	wifi_mgmr_detailed_state_get_internal, .-wifi_mgmr_detailed_state_get_internal
	.section	.text.wifi_mgmr_state_get_internal,"ax",@progbits
	.align	1
	.globl	wifi_mgmr_state_get_internal
	.type	wifi_mgmr_state_get_internal, @function
wifi_mgmr_state_get_internal:
.LFB126:
	.loc 1 1739 1 is_stmt 1
	.cfi_startproc
.LVL558:
	.loc 1 1740 5
	.loc 1 1739 1 is_stmt 0
	addi	sp,sp,-16
	.cfi_def_cfa_offset 16
	sw	s0,12(sp)
	.cfi_offset 8, -4
	addi	s0,sp,16
	.cfi_def_cfa 8, 0
	.loc 1 1741 1
	lw	s0,12(sp)
	.cfi_restore 8
	.cfi_def_cfa 2, 16
	.loc 1 1739 1
	mv	a1,a0
	.loc 1 1741 1
	addi	sp,sp,16
	.cfi_def_cfa_offset 0
	.loc 1 1740 12
	tail	wifi_mgmr_detailed_state_get_internal
.LVL559:
	.cfi_endproc
.LFE126:
	.size	wifi_mgmr_state_get_internal, .-wifi_mgmr_state_get_internal
	.section	.rodata.wifi_mgmr_set_connect_stat_info.str1.4,"aMS",@progbits,1
	.align	2
.LC86:
	.string	"err: chan is invalid\r\n"
	.align	2
.LC87:
	.string	"[RX] wifi_mgmr_set_connect_stat_info, wifiMgmr.wifi_mgmr_stat_info:\r\n"
	.align	2
.LC88:
	.string	"[RX]   status_code %u\r\n"
	.align	2
.LC89:
	.string	"[RX]   reason_code %u\r\n"
	.align	2
.LC90:
	.string	"[RX]   MAC %02X:%02X:%02X:%02X:%02X:%02X\r\n"
	.align	2
.LC91:
	.string	"[RX]   band %u\r\n"
	.align	2
.LC92:
	.string	"[RX]   center_freq %u\r\n"
	.align	2
.LC93:
	.string	"[RX]   type_ind %u\r\n"
	.section	.text.wifi_mgmr_set_connect_stat_info,"ax",@progbits
	.align	1
	.globl	wifi_mgmr_set_connect_stat_info
	.type	wifi_mgmr_set_connect_stat_info, @function
wifi_mgmr_set_connect_stat_info:
.LFB127:
	.loc 1 1744 1 is_stmt 1
	.cfi_startproc
.LVL560:
	.loc 1 1745 5
	.loc 1 1746 5
	.loc 1 1744 1 is_stmt 0
	addi	sp,sp,-48
	.cfi_def_cfa_offset 48
	sw	s0,40(sp)
	sw	s1,36(sp)
	sw	s4,24(sp)
	sw	ra,44(sp)
	sw	s2,32(sp)
	sw	s3,28(sp)
	.cfi_offset 8, -8
	.cfi_offset 9, -12
	.cfi_offset 20, -24
	.cfi_offset 1, -4
	.cfi_offset 18, -16
	.cfi_offset 19, -20
	addi	s0,sp,48
	.cfi_def_cfa 8, 0
	.loc 1 1746 51
	lhu	a4,0(a0)
	.loc 1 1746 46
	lui	s4,%hi(wifiMgmr)
	addi	a5,s4,%lo(wifiMgmr)
	li	a3,4096
	add	a5,a5,a3
	sh	a4,248(a5)
	.loc 1 1747 5 is_stmt 1
	.loc 1 1747 51 is_stmt 0
	lhu	a4,2(a0)
	lui	s1,%hi(wifiMgmr+4096)
	addi	a3,a0,10
	.loc 1 1747 46
	sh	a4,250(a5)
	.loc 1 1748 5 is_stmt 1
.LVL561:
	.loc 1 1748 15
	lui	a5,%hi(wifiMgmr+4447)
	addi	a4,a0,4
	addi	a5,a5,%lo(wifiMgmr+4447)
	addi	s4,s4,%lo(wifiMgmr)
	addi	s1,s1,%lo(wifiMgmr+4096)
.LVL562:
.L396:
	.loc 1 1749 9 discriminator 3
	.loc 1 1749 59 is_stmt 0 discriminator 3
	lbu	a2,0(a4)
	.loc 1 1748 5 discriminator 3
	addi	a4,a4,1
.LVL563:
	addi	a5,a5,1
	.loc 1 1749 47 discriminator 3
	sb	a2,-1(a5)
	.loc 1 1748 22 is_stmt 1 discriminator 3
.LVL564:
	.loc 1 1748 15 discriminator 3
	.loc 1 1748 5 is_stmt 0 discriminator 3
	bne	a4,a3,.L396
	.loc 1 1750 5 is_stmt 1
	.loc 1 1750 49 is_stmt 0
	lhu	a5,24(a0)
	.loc 1 1762 31
	lui	s2,%hi(g_bl_ops_funcs)
	addi	a4,s2,%lo(g_bl_ops_funcs)
	.loc 1 1750 44
	sh	a5,252(s1)
	.loc 1 1751 5 is_stmt 1
	.loc 1 1751 49 is_stmt 0
	lbu	a5,22(a0)
	.loc 1 1752 43
	sb	a1,357(s1)
	.loc 1 1762 31
	lw	a6,204(a4)
	.loc 1 1751 44
	sb	a5,358(s1)
	.loc 1 1752 5 is_stmt 1
	.loc 1 1754 5
	.loc 1 1754 16 is_stmt 0
	lbu	a5,22(a0)
	addi	s2,s2,%lo(g_bl_ops_funcs)
	lui	s3,%hi(.LC62)
	.loc 1 1754 5
	beq	a5,zero,.L397
	li	a4,1
	beq	a5,a4,.L398
	.loc 1 1770 13 is_stmt 1
	lui	a4,%hi(.LC86)
	addi	a4,a4,%lo(.LC86)
	li	a3,1770
	addi	a2,s3,%lo(.LC62)
	li	a1,0
.LVL565:
	li	a0,2
.LVL566:
	jalr	a6
.LVL567:
	j	.L398
.LVL568:
.L397:
	.loc 1 1757 13
	.loc 1 1757 20 is_stmt 0
	lhu	a5,24(a0)
	.loc 1 1757 16
	li	a4,4096
	addi	a4,a4,-1612
	bne	a5,a4,.L400
	.loc 1 1758 17 is_stmt 1
	.loc 1 1758 34 is_stmt 0
	li	a5,14
.L405:
	.loc 1 1760 34
	sw	a5,0(s4)
.LVL569:
.L398:
	.loc 1 1770 63 is_stmt 1 discriminator 1
	.loc 1 1773 5 discriminator 1
	lw	a5,204(s2)
	lui	a4,%hi(.LC87)
	addi	a2,s3,%lo(.LC62)
	addi	a4,a4,%lo(.LC87)
	li	a3,1773
	li	a1,0
	li	a0,2
	jalr	a5
.LVL570:
	.loc 1 1773 102 discriminator 1
	.loc 1 1774 5 discriminator 1
	lhu	a5,248(s1)
	lw	a6,204(s2)
	lui	a4,%hi(.LC88)
	addi	a2,s3,%lo(.LC62)
	addi	a4,a4,%lo(.LC88)
	li	a3,1774
	li	a1,0
	li	a0,2
	jalr	a6
.LVL571:
	.loc 1 1774 98 discriminator 1
	.loc 1 1775 5 discriminator 1
	lhu	a5,250(s1)
	lw	a6,204(s2)
	lui	a4,%hi(.LC89)
	addi	a2,s3,%lo(.LC62)
	addi	a4,a4,%lo(.LC89)
	li	a3,1775
	li	a1,0
	li	a0,2
	jalr	a6
.LVL572:
	.loc 1 1775 98 discriminator 1
	.loc 1 1776 5 discriminator 1
	lbu	a5,356(s1)
	lbu	a7,353(s1)
	lbu	a6,352(s1)
	sw	a5,8(sp)
	lbu	a5,355(s1)
	lui	a4,%hi(.LC90)
	addi	a2,s3,%lo(.LC62)
	sw	a5,4(sp)
	lbu	a5,354(s1)
	addi	a4,a4,%lo(.LC90)
	li	a3,1776
	sw	a5,0(sp)
	lw	t1,204(s2)
	lbu	a5,351(s1)
	li	a1,0
	li	a0,2
	jalr	t1
.LVL573:
	.loc 1 1783 6 discriminator 1
	.loc 1 1784 5 discriminator 1
	lbu	a5,358(s1)
	lw	a6,204(s2)
	lui	a4,%hi(.LC91)
	addi	a2,s3,%lo(.LC62)
	addi	a4,a4,%lo(.LC91)
	li	a3,1784
	li	a1,0
	li	a0,2
	jalr	a6
.LVL574:
	.loc 1 1784 89 discriminator 1
	.loc 1 1785 5 discriminator 1
	lhu	a5,252(s1)
	lw	a6,204(s2)
	lui	a4,%hi(.LC92)
	addi	a2,s3,%lo(.LC62)
	addi	a4,a4,%lo(.LC92)
	li	a3,1785
	li	a1,0
	li	a0,2
	jalr	a6
.LVL575:
	.loc 1 1785 96 discriminator 1
	.loc 1 1786 5 discriminator 1
	.loc 1 1773 5 is_stmt 0 discriminator 1
	addi	s2,s2,128
	.loc 1 1787 1 discriminator 1
	lw	s0,40(sp)
	.cfi_remember_state
	.cfi_restore 8
	.cfi_def_cfa 2, 48
	.loc 1 1786 5 discriminator 1
	lbu	a5,357(s1)
	.loc 1 1787 1 discriminator 1
	lw	ra,44(sp)
	.cfi_restore 1
	lw	s1,36(sp)
	.cfi_restore 9
	lw	s4,24(sp)
	.cfi_restore 20
	.loc 1 1786 5 discriminator 1
	lw	a6,76(s2)
	addi	a2,s3,%lo(.LC62)
	.loc 1 1787 1 discriminator 1
	lw	s2,32(sp)
	.cfi_restore 18
	lw	s3,28(sp)
	.cfi_restore 19
	.loc 1 1786 5 discriminator 1
	lui	a4,%hi(.LC93)
	.loc 1 1787 1 discriminator 1
	.loc 1 1786 5 discriminator 1
	addi	a4,a4,%lo(.LC93)
	li	a3,1786
	li	a1,0
	li	a0,2
	.loc 1 1787 1 discriminator 1
	addi	sp,sp,48
	.cfi_def_cfa_offset 0
	.loc 1 1786 5 discriminator 1
	jr	a6
.LVL576:
.L400:
	.cfi_restore_state
	.loc 1 1759 20 is_stmt 1
	.loc 1 1759 49 is_stmt 0
	li	a4,-4096
	addi	a4,a4,1684
	add	a5,a5,a4
	.loc 1 1759 23
	slli	a3,a5,16
	srli	a3,a3,16
	li	a4,60
	bgtu	a3,a4,.L401
	.loc 1 1760 17 is_stmt 1
	.loc 1 1760 61 is_stmt 0
	li	a4,5
	div	a5,a5,a4
	.loc 1 1760 64
	addi	a5,a5,1
	j	.L405
.L401:
	.loc 1 1762 17 is_stmt 1
	lui	a4,%hi(.LC86)
	addi	a4,a4,%lo(.LC86)
	li	a3,1762
	addi	a2,s3,%lo(.LC62)
	li	a1,0
.LVL577:
	li	a0,2
.LVL578:
	jalr	a6
.LVL579:
	.loc 1 1762 67
	.loc 1 1763 17
	.loc 1 1763 34 is_stmt 0
	sw	zero,0(s4)
	j	.L398
	.cfi_endproc
.LFE127:
	.size	wifi_mgmr_set_connect_stat_info, .-wifi_mgmr_set_connect_stat_info
	.section	.rodata.wifi_mgmr_set_country_code_internal.str1.4,"aMS",@progbits,1
	.align	2
.LC94:
	.string	"country code:%s, support channel nums:%d\r\n"
	.section	.text.wifi_mgmr_set_country_code_internal,"ax",@progbits
	.align	1
	.globl	wifi_mgmr_set_country_code_internal
	.type	wifi_mgmr_set_country_code_internal, @function
wifi_mgmr_set_country_code_internal:
.LFB128:
	.loc 1 1790 1 is_stmt 1
	.cfi_startproc
.LVL580:
	.loc 1 1791 5
	.loc 1 1790 1 is_stmt 0
	addi	sp,sp,-32
	.cfi_def_cfa_offset 32
	sw	ra,28(sp)
	sw	s0,24(sp)
	sw	s1,20(sp)
	.cfi_offset 1, -4
	.cfi_offset 8, -8
	.cfi_offset 9, -12
	addi	s0,sp,32
	.cfi_def_cfa 8, 0
	sw	s2,16(sp)
	.cfi_offset 18, -16
	.loc 1 1790 1
	sw	a0,-20(s0)
	.loc 1 1791 5
	call	bl_main_set_country_code
.LVL581:
	.loc 1 1792 5 is_stmt 1
	lw	a1,-20(s0)
	lui	s2,%hi(wifiMgmr+4473)
	li	a2,3
	addi	a0,s2,%lo(wifiMgmr+4473)
	.loc 1 1793 30 is_stmt 0
	lui	s1,%hi(wifiMgmr+4096)
	.loc 1 1792 5
	call	strncpy
.LVL582:
	.loc 1 1793 5 is_stmt 1
	.loc 1 1793 30 is_stmt 0
	addi	s1,s1,%lo(wifiMgmr+4096)
	sb	zero,379(s1)
	.loc 1 1794 5 is_stmt 1
	.loc 1 1794 29 is_stmt 0
	call	bl_main_get_channel_nums
.LVL583:
	.loc 1 1795 19
	lui	a5,%hi(g_bl_ops_funcs+204)
	.loc 1 1795 5
	lw	a7,%lo(g_bl_ops_funcs+204)(a5)
	lui	a4,%hi(.LC94)
	lui	a2,%hi(.LC62)
	.loc 1 1794 27
	sw	a0,392(s1)
	.loc 1 1795 5 is_stmt 1
	.loc 1 1794 29 is_stmt 0
	mv	a6,a0
	.loc 1 1795 5
	addi	a5,s2,%lo(wifiMgmr+4473)
	li	a0,2
	addi	a4,a4,%lo(.LC94)
	li	a3,1795
	addi	a2,a2,%lo(.LC62)
	li	a1,0
	jalr	a7
.LVL584:
	.loc 1 1795 121 is_stmt 1
	.loc 1 1797 5
	.loc 1 1798 1 is_stmt 0
	lw	ra,28(sp)
	.cfi_restore 1
	lw	s0,24(sp)
	.cfi_restore 8
	.cfi_def_cfa 2, 32
.LVL585:
	lw	s1,20(sp)
	.cfi_restore 9
	lw	s2,16(sp)
	.cfi_restore 18
	li	a0,0
	addi	sp,sp,32
	.cfi_def_cfa_offset 0
	jr	ra
	.cfi_endproc
.LFE128:
	.size	wifi_mgmr_set_country_code_internal, .-wifi_mgmr_set_country_code_internal
	.section	.text.wifi_mgmr_ap_sta_cnt_get_internal,"ax",@progbits
	.align	1
	.globl	wifi_mgmr_ap_sta_cnt_get_internal
	.type	wifi_mgmr_ap_sta_cnt_get_internal, @function
wifi_mgmr_ap_sta_cnt_get_internal:
.LFB129:
	.loc 1 1801 1 is_stmt 1
	.cfi_startproc
.LVL586:
	.loc 1 1802 5
	.loc 1 1801 1 is_stmt 0
	addi	sp,sp,-16
	.cfi_def_cfa_offset 16
	sw	s0,8(sp)
	sw	ra,12(sp)
	.cfi_offset 8, -8
	.cfi_offset 1, -4
	addi	s0,sp,16
	.cfi_def_cfa 8, 0
	.loc 1 1802 5
	call	bl_main_apm_sta_cnt_get
.LVL587:
	.loc 1 1803 5 is_stmt 1
	.loc 1 1804 1 is_stmt 0
	lw	ra,12(sp)
	.cfi_restore 1
	lw	s0,8(sp)
	.cfi_restore 8
	.cfi_def_cfa 2, 16
	li	a0,0
	addi	sp,sp,16
	.cfi_def_cfa_offset 0
	jr	ra
	.cfi_endproc
.LFE129:
	.size	wifi_mgmr_ap_sta_cnt_get_internal, .-wifi_mgmr_ap_sta_cnt_get_internal
	.section	.text.wifi_mgmr_ap_sta_info_get_internal,"ax",@progbits
	.align	1
	.globl	wifi_mgmr_ap_sta_info_get_internal
	.type	wifi_mgmr_ap_sta_info_get_internal, @function
wifi_mgmr_ap_sta_info_get_internal:
.LFB130:
	.loc 1 1807 1 is_stmt 1
	.cfi_startproc
.LVL588:
	.loc 1 1808 5
	.loc 1 1809 5
	.loc 1 1807 1 is_stmt 0
	addi	sp,sp,-48
	.cfi_def_cfa_offset 48
	sw	ra,44(sp)
	sw	s0,40(sp)
	sw	s1,36(sp)
	.cfi_offset 1, -4
	.cfi_offset 8, -8
	.cfi_offset 9, -12
	addi	s0,sp,48
	.cfi_def_cfa 8, 0
	sw	s2,32(sp)
	mv	s1,a0
	.cfi_offset 18, -16
	.loc 1 1807 1
	mv	s2,a1
	.loc 1 1809 5
	li	a2,24
	li	a1,0
.LVL589:
	addi	a0,s0,-40
.LVL590:
	call	memset
.LVL591:
	.loc 1 1810 5 is_stmt 1
	mv	a1,s2
	addi	a0,s0,-40
	call	bl_main_apm_sta_info_get
.LVL592:
	.loc 1 1811 5
	.loc 1 1812 5
	.loc 1 1811 32 is_stmt 0
	lhu	a5,-40(s0)
	.loc 1 1817 5
	addi	a1,s0,-38
	addi	a0,s1,2
	.loc 1 1811 32
	sh	a5,0(s1)
	.loc 1 1813 5 is_stmt 1
	.loc 1 1813 29 is_stmt 0
	lw	a5,-24(s0)
	.loc 1 1817 5
	li	a2,6
	.loc 1 1813 29
	sw	a5,16(s1)
	.loc 1 1814 5 is_stmt 1
	.loc 1 1814 30 is_stmt 0
	lw	a5,-28(s0)
	sw	a5,12(s1)
	.loc 1 1815 5 is_stmt 1
	.loc 1 1815 30 is_stmt 0
	lw	a5,-32(s0)
	sw	a5,8(s1)
	.loc 1 1816 5 is_stmt 1
	.loc 1 1816 34 is_stmt 0
	lbu	a5,-20(s0)
	sb	a5,20(s1)
	.loc 1 1817 5 is_stmt 1
	call	memcpy
.LVL593:
	.loc 1 1818 5
	.loc 1 1819 1 is_stmt 0
	lw	ra,44(sp)
	.cfi_restore 1
	lw	s0,40(sp)
	.cfi_restore 8
	.cfi_def_cfa 2, 48
	lw	s1,36(sp)
	.cfi_restore 9
.LVL594:
	lw	s2,32(sp)
	.cfi_restore 18
	li	a0,0
	addi	sp,sp,48
	.cfi_def_cfa_offset 0
	jr	ra
	.cfi_endproc
.LFE130:
	.size	wifi_mgmr_ap_sta_info_get_internal, .-wifi_mgmr_ap_sta_info_get_internal
	.section	.text.wifi_mgmr_ap_sta_delete_internal,"ax",@progbits
	.align	1
	.globl	wifi_mgmr_ap_sta_delete_internal
	.type	wifi_mgmr_ap_sta_delete_internal, @function
wifi_mgmr_ap_sta_delete_internal:
.LFB131:
	.loc 1 1822 1 is_stmt 1
	.cfi_startproc
.LVL595:
	.loc 1 1823 5
	.loc 1 1822 1 is_stmt 0
	addi	sp,sp,-16
	.cfi_def_cfa_offset 16
	sw	s0,8(sp)
	sw	ra,12(sp)
	.cfi_offset 8, -8
	.cfi_offset 1, -4
	addi	s0,sp,16
	.cfi_def_cfa 8, 0
	.loc 1 1823 5
	call	bl_main_apm_sta_delete
.LVL596:
	.loc 1 1824 5 is_stmt 1
	.loc 1 1825 1 is_stmt 0
	lw	ra,12(sp)
	.cfi_restore 1
	lw	s0,8(sp)
	.cfi_restore 8
	.cfi_def_cfa 2, 16
	li	a0,0
	addi	sp,sp,16
	.cfi_def_cfa_offset 0
	jr	ra
	.cfi_endproc
.LFE131:
	.size	wifi_mgmr_ap_sta_delete_internal, .-wifi_mgmr_ap_sta_delete_internal
	.section	.text.wifi_mgmr_scan_complete_notify,"ax",@progbits
	.align	1
	.globl	wifi_mgmr_scan_complete_notify
	.type	wifi_mgmr_scan_complete_notify, @function
wifi_mgmr_scan_complete_notify:
.LFB132:
	.loc 1 1828 1 is_stmt 1
	.cfi_startproc
	.loc 1 1829 5
	.loc 1 1828 1 is_stmt 0
	addi	sp,sp,-16
	.cfi_def_cfa_offset 16
	sw	s0,8(sp)
	sw	ra,12(sp)
	.cfi_offset 8, -8
	.cfi_offset 1, -4
	addi	s0,sp,16
	.cfi_def_cfa 8, 0
	.loc 1 1829 5
	call	wifi_mgmr_scan_complete_callback
.LVL597:
	.loc 1 1830 5 is_stmt 1
	.loc 1 1831 1 is_stmt 0
	lw	ra,12(sp)
	.cfi_restore 1
	lw	s0,8(sp)
	.cfi_restore 8
	.cfi_def_cfa 2, 16
	li	a0,0
	addi	sp,sp,16
	.cfi_def_cfa_offset 0
	jr	ra
	.cfi_endproc
.LFE132:
	.size	wifi_mgmr_scan_complete_notify, .-wifi_mgmr_scan_complete_notify
	.section	.text.wifi_mgmr_sta_state_get_internal,"ax",@progbits
	.align	1
	.globl	wifi_mgmr_sta_state_get_internal
	.type	wifi_mgmr_sta_state_get_internal, @function
wifi_mgmr_sta_state_get_internal:
.LFB133:
	.loc 1 1834 1 is_stmt 1
	.cfi_startproc
.LVL598:
	.loc 1 1835 5
	.loc 1 1834 1 is_stmt 0
	addi	sp,sp,-16
	.cfi_def_cfa_offset 16
	sw	s0,12(sp)
	.cfi_offset 8, -4
	addi	s0,sp,16
	.cfi_def_cfa 8, 0
	.loc 1 1835 33
	lui	a5,%hi(wifiMgmr+4328)
	lw	a5,%lo(wifiMgmr+4328)(a5)
	.loc 1 1835 8
	lui	a4,%hi(.LANCHOR3)
	addi	a4,a4,%lo(.LANCHOR3)
	bne	a5,a4,.L417
	.loc 1 1836 9 is_stmt 1
	.loc 1 1836 16 is_stmt 0
	li	a5,1
.L426:
	.loc 1 1839 16
	sw	a5,0(a0)
.L418:
	.loc 1 1860 5 is_stmt 1
	.loc 1 1861 1 is_stmt 0
	lw	s0,12(sp)
	.cfi_remember_state
	.cfi_restore 8
	.cfi_def_cfa 2, 16
	li	a0,0
.LVL599:
	addi	sp,sp,16
	.cfi_def_cfa_offset 0
	jr	ra
.LVL600:
.L417:
	.cfi_restore_state
	.loc 1 1838 10 is_stmt 1
	.loc 1 1838 13 is_stmt 0
	lui	a4,%hi(.LANCHOR0)
	addi	a4,a4,%lo(.LANCHOR0)
	bne	a5,a4,.L419
	.loc 1 1839 9 is_stmt 1
	.loc 1 1839 16 is_stmt 0
	li	a5,2
	j	.L426
.L419:
	.loc 1 1841 10 is_stmt 1
	.loc 1 1841 13 is_stmt 0
	lui	a4,%hi(.LANCHOR1)
	addi	a4,a4,%lo(.LANCHOR1)
	bne	a5,a4,.L420
	.loc 1 1842 9 is_stmt 1
	.loc 1 1842 16 is_stmt 0
	li	a5,3
	j	.L426
.L420:
	.loc 1 1844 10 is_stmt 1
	.loc 1 1844 13 is_stmt 0
	lui	a4,%hi(.LANCHOR4)
	addi	a4,a4,%lo(.LANCHOR4)
	bne	a5,a4,.L421
	.loc 1 1845 9 is_stmt 1
	.loc 1 1845 16 is_stmt 0
	li	a5,4
	j	.L426
.L421:
	.loc 1 1847 10 is_stmt 1
	.loc 1 1847 13 is_stmt 0
	lui	a4,%hi(.LANCHOR2)
	addi	a4,a4,%lo(.LANCHOR2)
	bne	a5,a4,.L422
	.loc 1 1848 9 is_stmt 1
	.loc 1 1848 16 is_stmt 0
	li	a5,5
	j	.L426
.L422:
	.loc 1 1850 10 is_stmt 1
	.loc 1 1850 13 is_stmt 0
	lui	a4,%hi(.LANCHOR14)
	addi	a4,a4,%lo(.LANCHOR14)
	bne	a5,a4,.L423
	.loc 1 1851 9 is_stmt 1
	.loc 1 1851 16 is_stmt 0
	li	a5,6
	j	.L426
.L423:
	.loc 1 1853 10 is_stmt 1
	.loc 1 1853 13 is_stmt 0
	lui	a4,%hi(.LANCHOR5)
	addi	a4,a4,%lo(.LANCHOR5)
	bne	a5,a4,.L424
	.loc 1 1854 9 is_stmt 1
	.loc 1 1854 16 is_stmt 0
	li	a5,7
	j	.L426
.L424:
	.loc 1 1857 9 is_stmt 1
	.loc 1 1857 16 is_stmt 0
	sw	zero,0(a0)
	j	.L418
	.cfi_endproc
.LFE133:
	.size	wifi_mgmr_sta_state_get_internal, .-wifi_mgmr_sta_state_get_internal
	.section	.rodata.str1.4,"aMS",@progbits,1
	.align	2
.LC95:
	.string	"B"
	.align	2
.LC96:
	.string	"BG"
	.align	2
.LC97:
	.string	"BGN"
	.align	2
.LC98:
	.string	"sniffer"
	.align	2
.LC99:
	.string	"ifaceDown"
	.align	2
.LC100:
	.string	"wifiConnected_IPOK"
	.align	2
.LC101:
	.string	"connecting"
	.align	2
.LC102:
	.string	"idle"
	.align	2
.LC103:
	.string	"group"
	.comm	wifiMgmr,4544,4
	.comm	cfg_start_req_u_tlv_t,12,4
	.section	.bss.g_wifi_ap_psk,"aw",@nobits
	.align	2
	.set	.LANCHOR10,. + 0
	.type	g_wifi_ap_psk, @object
	.size	g_wifi_ap_psk, 65
g_wifi_ap_psk:
	.zero	65
	.section	.bss.g_wifi_ap_ssid,"aw",@nobits
	.align	2
	.set	.LANCHOR12,. + 0
	.type	g_wifi_ap_ssid, @object
	.size	g_wifi_ap_ssid, 33
g_wifi_ap_ssid:
	.zero	33
	.section	.data.__compound_literal.0,"aw"
	.align	2
	.type	__compound_literal.0, @object
	.size	__compound_literal.0, 260
__compound_literal.0:
	.word	2
	.word	29
	.word	stateGlobalGuard_disable_autoreconnect
	.word	stateGlobalAction
	.word	stateIdle
	.word	2
	.word	30
	.word	stateGlobalGuard_enable_autoreconnect
	.word	stateGlobalAction
	.word	stateIdle
	.word	1
	.word	8
	.word	stateGlobalGuard_AP
	.word	stateGlobalAction
	.word	stateIdle
	.word	1
	.word	9
	.word	stateGlobalGuard_stop
	.word	stateGlobalAction
	.word	stateIdle
	.word	1
	.word	10
	.word	stateGlobalGuard_ap_chan_switch
	.word	stateGlobalAction
	.word	stateIdle
	.word	1
	.word	11
	.word	stateGlobalGuard_conf_max_sta
	.word	stateGlobalAction
	.word	stateIdle
	.word	1
	.word	13
	.word	stateGlobalGuard_denoise
	.word	stateGlobalAction
	.word	stateIdle
	.word	1
	.word	1
	.word	stateGlobalGuard_connect
	.word	stateGlobalAction_connect
	.word	stateConnecting
	.word	0
	.word	16
	.word	stateGlobalGuard_fw_disconnect
	.word	stateGlobalAction
	.word	stateIdle
	.word	0
	.word	17
	.word	stateGlobalGuard_fw_powersaving
	.word	stateGlobalAction
	.word	stateIdle
	.word	0
	.word	19
	.word	stateGlobalGuard_fw_scan
	.word	stateGlobalAction
	.word	stateIdle
	.word	0
	.word	22
	.word	stateSnifferGuard_raw_send
	.word	stateGlobalAction
	.word	stateIdle
	.word	0
	.word	23
	.word	stateGlobal_cfg_req
	.word	stateGlobalAction
	.word	stateIdle
	.section	.data.__compound_literal.1,"aw"
	.align	2
	.type	__compound_literal.1, @object
	.size	__compound_literal.1, 40
__compound_literal.1:
	.word	1
	.word	0
	.word	stateSnifferGuard_idle
	.word	stateAction
	.word	stateIdle
	.word	0
	.word	18
	.word	stateSnifferGuard_ChannelSet
	.word	stateAction
	.word	stateIdle
	.section	.data.__compound_literal.2,"aw"
	.align	2
	.type	__compound_literal.2, @object
	.size	__compound_literal.2, 60
__compound_literal.2:
	.word	0
	.word	21
	.word	stateGuard
	.word	stateAction
	.word	stateConnectedIPNo
	.word	0
	.word	20
	.word	stateGuard
	.word	stateAction
	.word	stateDisconnect
	.word	1
	.word	5
	.word	stateConnectingGuard_disconnect
	.word	stateAction
	.word	stateDisconnect
	.section	.data.__compound_literal.3,"aw"
	.align	2
	.type	__compound_literal.3, @object
	.size	__compound_literal.3, 20
__compound_literal.3:
	.word	1
	.word	2
	.word	stateIdleGuard_sniffer
	.word	stateAction
	.word	stateSniffer
	.section	.data.__compound_literal.4,"aw"
	.align	2
	.type	__compound_literal.4, @object
	.size	__compound_literal.4, 20
__compound_literal.4:
	.word	1
	.word	7
	.word	stateIfaceDownGuard_phyup
	.word	stateAction
	.word	stateIdle
	.section	.data.__compound_literal.5,"aw"
	.align	2
	.type	__compound_literal.5, @object
	.size	__compound_literal.5, 60
__compound_literal.5:
	.word	1
	.word	4
	.word	stateGuard
	.word	stateConnectedIPNoAction_ipgot
	.word	stateConnectedIPYes
	.word	1
	.word	5
	.word	stateConnectedIPNoGuard_disconnect
	.word	stateAction
	.word	stateDisconnect
	.word	0
	.word	20
	.word	stateGuard
	.word	stateAction
	.word	stateDisconnect
	.section	.data.__compound_literal.6,"aw"
	.align	2
	.type	__compound_literal.6, @object
	.size	__compound_literal.6, 80
__compound_literal.6:
	.word	2
	.word	31
	.word	stateConnectedIPYesGuard_ip_update
	.word	stateAction
	.word	stateConnectedIPNo
	.word	1
	.word	5
	.word	stateConnectedIPYesGuard_disconnect
	.word	stateConnectedIPYes_action
	.word	stateDisconnect
	.word	1
	.word	12
	.word	stateConnectedIPYesGuard_rcconfig
	.word	stateConnectedIPYes_action
	.word	stateDisconnect
	.word	0
	.word	20
	.word	stateGuard
	.word	stateConnectedIPYes_action
	.word	stateDisconnect
	.section	.data.__compound_literal.7,"aw"
	.align	2
	.type	__compound_literal.7, @object
	.size	__compound_literal.7, 40
__compound_literal.7:
	.word	1
	.word	6
	.word	stateGuard
	.word	stateDisconnect_action_reconnect
	.word	stateConnecting
	.word	1
	.word	0
	.word	stateGuard
	.word	stateDisconnect_action_idle
	.word	stateIdle
	.section	.data.stateConnectedIPNo_data,"aw"
	.align	2
	.type	stateConnectedIPNo_data, @object
	.size	stateConnectedIPNo_data, 36
stateConnectedIPNo_data:
	.string	"wifiConnected_ipObtaining"
	.zero	6
	.zero	4
	.section	.data.stateDisconnect_data,"aw"
	.align	2
	.type	stateDisconnect_data, @object
	.size	stateDisconnect_data, 232
stateDisconnect_data:
	.string	"disconnect"
	.zero	21
	.zero	200
	.section	.data.state_tsen_reload_data,"aw"
	.align	2
	.set	.LANCHOR17,. + 0
	.type	state_tsen_reload_data, @object
	.size	state_tsen_reload_data, 36
state_tsen_reload_data:
	.string	"wifi tsen reload"
	.zero	15
	.zero	4
	.section	.rodata.CSWTCH.87,"a"
	.align	2
	.set	.LANCHOR15,. + 0
	.type	CSWTCH.87, @object
	.size	CSWTCH.87, 52
CSWTCH.87:
	.word	.LC95
	.word	.LC63
	.word	.LC63
	.word	.LC63
	.word	.LC96
	.word	.LC63
	.word	.LC63
	.word	.LC63
	.word	.LC63
	.word	.LC63
	.word	.LC63
	.word	.LC63
	.word	.LC97
	.section	.rodata.__FUNCTION__.0,"a"
	.align	2
	.set	.LANCHOR19,. + 0
	.type	__FUNCTION__.0, @object
	.size	__FUNCTION__.0, 15
__FUNCTION__.0:
	.string	"wifi_mgmr_init"
	.section	.rodata.__func__.2,"a"
	.align	2
	.set	.LANCHOR13,. + 0
	.type	__func__.2, @object
	.size	__func__.2, 20
__func__.2:
	.string	"stateGlobalGuard_AP"
	.section	.rodata.__func__.3,"a"
	.align	2
	.set	.LANCHOR8,. + 0
	.type	__func__.3, @object
	.size	__func__.3, 25
__func__.3:
	.string	"stateGlobalGuard_connect"
	.section	.rodata.stateConnectedIPNo,"a"
	.align	2
	.set	.LANCHOR1,. + 0
	.type	stateConnectedIPNo, @object
	.size	stateConnectedIPNo, 28
stateConnectedIPNo:
	.word	stateGlobal
	.word	0
	.word	__compound_literal.5
	.word	3
	.word	stateConnectedIPNo_data
	.word	stateConnectedIPNoEnter
	.word	stateConnectedIPNoExit
	.section	.rodata.stateConnectedIPYes,"a"
	.align	2
	.set	.LANCHOR4,. + 0
	.type	stateConnectedIPYes, @object
	.size	stateConnectedIPYes, 28
stateConnectedIPYes:
	.word	stateGlobal
	.word	0
	.word	__compound_literal.6
	.word	4
	.word	.LC100
	.word	stateConnectedIPYes_enter
	.word	stateConnectedIPYes_exit
	.section	.rodata.stateConnecting,"a"
	.align	2
	.set	.LANCHOR0,. + 0
	.type	stateConnecting, @object
	.size	stateConnecting, 28
stateConnecting:
	.word	stateGlobal
	.word	0
	.word	__compound_literal.2
	.word	3
	.word	.LC101
	.word	stateConnectingEnter
	.word	stateExit
	.section	.rodata.stateDisconnect,"a"
	.align	2
	.set	.LANCHOR2,. + 0
	.type	stateDisconnect, @object
	.size	stateDisconnect, 28
stateDisconnect:
	.word	stateGlobal
	.word	0
	.word	__compound_literal.7
	.word	2
	.word	stateDisconnect_data
	.word	stateDisconnect_enter
	.word	stateDisconnect_exit
	.section	.rodata.stateError,"a"
	.align	2
	.set	.LANCHOR16,. + 0
	.type	stateError, @object
	.size	stateError, 28
stateError:
	.zero	20
	.word	printErrMsg
	.zero	4
	.section	.rodata.stateGlobal,"a"
	.align	2
	.type	stateGlobal, @object
	.size	stateGlobal, 28
stateGlobal:
	.word	0
	.word	0
	.word	__compound_literal.0
	.word	13
	.word	.LC103
	.word	stateEnter
	.word	stateExit
	.section	.rodata.stateIdle,"a"
	.align	2
	.set	.LANCHOR3,. + 0
	.type	stateIdle, @object
	.size	stateIdle, 28
stateIdle:
	.word	stateGlobal
	.word	0
	.word	__compound_literal.3
	.word	1
	.word	.LC102
	.word	stateEnter
	.word	stateExit
	.section	.rodata.stateIfaceDown,"a"
	.align	2
	.set	.LANCHOR14,. + 0
	.type	stateIfaceDown, @object
	.size	stateIfaceDown, 28
stateIfaceDown:
	.word	stateGlobal
	.word	0
	.word	__compound_literal.4
	.word	1
	.word	.LC99
	.word	stateEnter
	.word	stateExit
	.section	.rodata.stateSniffer,"a"
	.align	2
	.set	.LANCHOR5,. + 0
	.type	stateSniffer, @object
	.size	stateSniffer, 28
stateSniffer:
	.word	stateGlobal
	.word	0
	.word	__compound_literal.1
	.word	2
	.word	.LC98
	.word	stateEnter
	.word	stateExit
	.section	.sbss.auto_repeat,"aw",@nobits
	.align	2
	.set	.LANCHOR9,. + 0
	.type	auto_repeat, @object
	.size	auto_repeat, 4
auto_repeat:
	.zero	4
	.section	.sbss.call_tcal_once.1,"aw",@nobits
	.align	2
	.set	.LANCHOR18,. + 0
	.type	call_tcal_once.1, @object
	.size	call_tcal_once.1, 4
call_tcal_once.1:
	.zero	4
	.section	.sbss.g_wifi_ap_channel,"aw",@nobits
	.align	2
	.set	.LANCHOR6,. + 0
	.type	g_wifi_ap_channel, @object
	.size	g_wifi_ap_channel, 4
g_wifi_ap_channel:
	.zero	4
	.section	.sbss.g_wifi_ap_hidden_ssid,"aw",@nobits
	.set	.LANCHOR11,. + 0
	.type	g_wifi_ap_hidden_ssid, @object
	.size	g_wifi_ap_hidden_ssid, 1
g_wifi_ap_hidden_ssid:
	.zero	1
	.section	.sbss.g_wifi_ap_recover_timer,"aw",@nobits
	.align	2
	.set	.LANCHOR7,. + 0
	.type	g_wifi_ap_recover_timer, @object
	.size	g_wifi_ap_recover_timer, 4
g_wifi_ap_recover_timer:
	.zero	4
	.text
.Letext0:
	.file 2 "/home/dinhquangha/intern/Ai-Thinker-WB2/toolchain/riscv/Linux/lib/gcc/riscv64-unknown-elf/10.2.0/include/stdint-gcc.h"
	.file 3 "/home/dinhquangha/intern/Ai-Thinker-WB2/toolchain/riscv/Linux/lib/gcc/riscv64-unknown-elf/10.2.0/include/stddef.h"
	.file 4 "/home/dinhquangha/intern/Ai-Thinker-WB2/components/network/lwip/src/include/lwip/arch.h"
	.file 5 "/home/dinhquangha/intern/Ai-Thinker-WB2/components/network/lwip/src/include/lwip/err.h"
	.file 6 "/home/dinhquangha/intern/Ai-Thinker-WB2/components/network/lwip/src/include/lwip/ip4_addr.h"
	.file 7 "/home/dinhquangha/intern/Ai-Thinker-WB2/components/network/lwip/src/include/lwip/ip_addr.h"
	.file 8 "/home/dinhquangha/intern/Ai-Thinker-WB2/components/network/lwip/src/include/lwip/pbuf.h"
	.file 9 "/home/dinhquangha/intern/Ai-Thinker-WB2/components/network/lwip/src/include/lwip/netif.h"
	.file 10 "/home/dinhquangha/intern/Ai-Thinker-WB2/components/stage/yloop/include/aos/yloop.h"
	.file 11 "/home/dinhquangha/intern/Ai-Thinker-WB2/components/os/bl_os_adapter/bl_os_adapter/include/bl_os_adapter/bl_os_type.h"
	.file 12 "/home/dinhquangha/intern/Ai-Thinker-WB2/components/os/bl_os_adapter/bl_os_adapter/include/bl_os_adapter/bl_os_adapter.h"
	.file 13 "/home/dinhquangha/intern/Ai-Thinker-WB2/components/os/bl_os_adapter/bl_os_adapter/include/bl_os_adapter/bl_os_log.h"
	.file 14 "/home/dinhquangha/intern/Ai-Thinker-WB2/components/network/wifi/include/bl60x_fw_api.h"
	.file 15 "/home/dinhquangha/intern/Ai-Thinker-WB2/components/network/wifi_manager/bl60x_wifi_driver/lmac_types.h"
	.file 16 "/home/dinhquangha/intern/Ai-Thinker-WB2/components/network/wifi_manager/bl60x_wifi_driver/lmac_mac.h"
	.file 17 "/home/dinhquangha/intern/Ai-Thinker-WB2/components/network/lwip/src/include/lwip/memp.h"
	.file 18 "/home/dinhquangha/intern/Ai-Thinker-WB2/components/platform/hosal/include/hosal_dma.h"
	.file 19 "/home/dinhquangha/intern/Ai-Thinker-WB2/components/platform/hosal/include/hosal_adc.h"
	.file 20 "/home/dinhquangha/intern/Ai-Thinker-WB2/components/platform/hosal/bl602_hal/bl_pm.h"
	.file 21 "/home/dinhquangha/intern/Ai-Thinker-WB2/components/network/wifi_manager/bl60x_wifi_driver/include/wifi_mgmr_ext.h"
	.file 22 "/home/dinhquangha/intern/Ai-Thinker-WB2/components/network/wifi_manager/bl60x_wifi_driver/bl_main.h"
	.file 23 "/home/dinhquangha/intern/Ai-Thinker-WB2/components/network/wifi_manager/bl60x_wifi_driver/stateMachine.h"
	.file 24 "/home/dinhquangha/intern/Ai-Thinker-WB2/components/network/wifi_manager/bl60x_wifi_driver/wifi_mgmr.h"
	.file 25 "/home/dinhquangha/intern/Ai-Thinker-WB2/components/network/wifi_manager/bl60x_wifi_driver/ipc_shared.h"
	.file 26 "/home/dinhquangha/intern/Ai-Thinker-WB2/components/network/wifi_manager/bl60x_wifi_driver/ipc_host.h"
	.file 27 "/home/dinhquangha/intern/Ai-Thinker-WB2/components/network/wifi_manager/bl60x_wifi_driver/list.h"
	.file 28 "/home/dinhquangha/intern/Ai-Thinker-WB2/components/network/wifi_manager/bl60x_wifi_driver/lmac_msg.h"
	.file 29 "/home/dinhquangha/intern/Ai-Thinker-WB2/components/network/wifi_manager/bl60x_wifi_driver/bl_cmds.h"
	.file 30 "/home/dinhquangha/intern/Ai-Thinker-WB2/components/network/wifi_manager/bl60x_wifi_driver/bl_defs.h"
	.file 31 "/home/dinhquangha/intern/Ai-Thinker-WB2/components/network/wifi_manager/bl60x_wifi_driver/ieee80211.h"
	.file 32 "/home/dinhquangha/intern/Ai-Thinker-WB2/components/network/wifi_manager/bl60x_wifi_driver/cfg80211.h"
	.file 33 "/home/dinhquangha/intern/Ai-Thinker-WB2/components/network/wifi_manager/bl60x_wifi_driver/bl_mod_params.h"
	.file 34 "/home/dinhquangha/intern/Ai-Thinker-WB2/toolchain/riscv/Linux/riscv64-unknown-elf/include/string.h"
	.file 35 "/home/dinhquangha/intern/Ai-Thinker-WB2/components/network/wifi_hosal/include/wifi_hosal.h"
	.file 36 "/home/dinhquangha/intern/Ai-Thinker-WB2/components/network/wifi_manager/bl60x_wifi_driver/wifi_mgmr_event.h"
	.file 37 "/home/dinhquangha/intern/Ai-Thinker-WB2/components/platform/hosal/bl602_hal/hal_sys.h"
	.file 38 "/home/dinhquangha/intern/Ai-Thinker-WB2/components/network/wifi_manager/bl60x_wifi_driver/wifi_mgmr_profile.h"
	.file 39 "/home/dinhquangha/intern/Ai-Thinker-WB2/components/network/wifi_manager/bl60x_wifi_driver/wifi_mgmr_api.h"
	.file 40 "/home/dinhquangha/intern/Ai-Thinker-WB2/components/network/wifi_manager/bl60x_wifi_driver/wifi_netif.h"
	.file 41 "/home/dinhquangha/intern/Ai-Thinker-WB2/components/network/lwip/src/include/lwip/netifapi.h"
	.file 42 "/home/dinhquangha/intern/Ai-Thinker-WB2/components/network/lwip/src/include/lwip/dns.h"
	.file 43 "/home/dinhquangha/intern/Ai-Thinker-WB2/components/network/dns_server/include/dns_server.h"
	.file 44 "<built-in>"