	.file	"ecp_curves_alt.c"
	.option nopic
	.attribute arch, "rv32i2p0_m2p0_f2p0_c2p0"
	.attribute unaligned_access, 0
	.attribute stack_align, 16
	.text
.Ltext0:
	.cfi_sections	.debug_frame
	.section	.text.mbedtls_ecp_group_load,"ax",@progbits
	.align	1
	.globl	mbedtls_ecp_group_load
	.type	mbedtls_ecp_group_load, @function
mbedtls_ecp_group_load:
.LFB8:
	.file 1 "/home/dinhquangha/intern/Ai-Thinker-WB2/components/security/mbedtls_lts/port/hw_acc/ecp_curves_alt.c"
	.loc 1 754 1
	.cfi_startproc
.LVL0:
	.loc 1 755 5
	.loc 1 755 10
	.loc 1 755 17
	.loc 1 756 5
	.loc 1 754 1 is_stmt 0
	addi	sp,sp,-16
	.cfi_def_cfa_offset 16
	sw	ra,12(sp)
	sw	s0,8(sp)
	sw	s1,4(sp)
	sw	s2,0(sp)
	.cfi_offset 1, -4
	.cfi_offset 8, -8
	.cfi_offset 9, -12
	.cfi_offset 18, -16
	addi	s0,sp,16
	.cfi_def_cfa 8, 0
	.loc 1 754 1
	mv	s1,a0
	mv	s2,a1
	.loc 1 756 5
	call	mbedtls_ecp_group_free
.LVL1:
	.loc 1 758 5 is_stmt 1
	mv	a0,s1
	call	mbedtls_ecp_group_init
.LVL2:
	.loc 1 760 5
	.loc 1 762 5 is_stmt 0
	li	a5,3
	.loc 1 760 13
	sw	s2,0(s1)
	.loc 1 762 5 is_stmt 1
	bne	s2,a5,.L2
	.loc 1 778 13
	.loc 1 779 13
.LVL3:
.LBB46:
.LBB47:
	.loc 1 570 5
.LBB48:
.LBB49:
	.loc 1 543 5
	.loc 1 545 10 is_stmt 0
	lui	a4,%hi(.LANCHOR0)
	addi	a4,a4,%lo(.LANCHOR0)
	sw	a4,12(s1)
.LBE49:
.LBE48:
.LBB54:
.LBB55:
	lui	a4,%hi(.LANCHOR1)
.LBE55:
.LBE54:
.LBB59:
.LBB50:
	.loc 1 544 10
	li	a5,8
.LBE50:
.LBE59:
.LBB60:
.LBB56:
	.loc 1 545 10
	addi	a4,a4,%lo(.LANCHOR1)
.LBE56:
.LBE60:
.LBB61:
.LBB51:
	.loc 1 544 10
	sw	a5,8(s1)
.LBE51:
.LBE61:
.LBB62:
.LBB57:
	sw	a5,32(s1)
	.loc 1 545 10
	sw	a4,36(s1)
.LBE57:
.LBE62:
.LBB63:
.LBB64:
	.loc 1 544 10
	sw	a5,80(s1)
.LBE64:
.LBE63:
.LBB69:
.LBB70:
	sw	a5,44(s1)
.LBE70:
.LBE69:
.LBB75:
.LBB76:
	sw	a5,56(s1)
.LBE76:
.LBE75:
.LBB81:
.LBB65:
	.loc 1 545 10
	lui	a4,%hi(.LANCHOR2)
.LBE65:
.LBE81:
.LBB82:
.LBB77:
	lui	a5,%hi(.LANCHOR4)
.LBE77:
.LBE82:
.LBB83:
.LBB66:
	addi	a4,a4,%lo(.LANCHOR2)
.LBE66:
.LBE83:
.LBB84:
.LBB78:
	addi	a5,a5,%lo(.LANCHOR4)
.LBE78:
.LBE84:
.LBB85:
.LBB67:
	sw	a4,84(s1)
.LBE67:
.LBE85:
.LBB86:
.LBB79:
	sw	a5,60(s1)
.LBE79:
.LBE86:
.LBB87:
.LBB71:
	lui	a4,%hi(.LANCHOR3)
.LBE71:
.LBE87:
.LBB88:
.LBB89:
	.loc 1 556 10
	lui	a5,%hi(.LANCHOR5)
.LBE89:
.LBE88:
.LBB93:
.LBB52:
	.loc 1 543 10
	li	s2,1
.LVL4:
.LBE52:
.LBE93:
.LBB94:
.LBB72:
	.loc 1 545 10
	addi	a4,a4,%lo(.LANCHOR3)
.LBE72:
.LBE94:
.LBB95:
.LBB90:
	.loc 1 556 10
	addi	a5,a5,%lo(.LANCHOR5)
.LBE90:
.LBE95:
.LBB96:
.LBB73:
	.loc 1 545 10
	sw	a4,48(s1)
.LBE73:
.LBE96:
.LBB97:
.LBB91:
	.loc 1 556 10
	sw	a5,72(s1)
.LBE91:
.LBE97:
.LBB98:
.LBB53:
	.loc 1 543 10
	sw	s2,4(s1)
	.loc 1 544 5 is_stmt 1
	.loc 1 545 5
.LVL5:
.LBE53:
.LBE98:
	.loc 1 571 5
	.loc 1 573 5
.LBB99:
.LBB58:
	.loc 1 543 5
	.loc 1 543 10 is_stmt 0
	sw	s2,28(s1)
	.loc 1 544 5 is_stmt 1
	.loc 1 545 5
.LVL6:
.LBE58:
.LBE99:
	.loc 1 574 5
.LBB100:
.LBB68:
	.loc 1 543 5
	.loc 1 543 10 is_stmt 0
	sw	s2,76(s1)
	.loc 1 544 5 is_stmt 1
	.loc 1 545 5
.LVL7:
.LBE68:
.LBE100:
	.loc 1 576 5
.LBB101:
.LBB74:
	.loc 1 543 5
	.loc 1 543 10 is_stmt 0
	sw	s2,40(s1)
	.loc 1 544 5 is_stmt 1
	.loc 1 545 5
.LVL8:
.LBE74:
.LBE101:
	.loc 1 577 5
.LBB102:
.LBB80:
	.loc 1 543 5
	.loc 1 543 10 is_stmt 0
	sw	s2,52(s1)
	.loc 1 544 5 is_stmt 1
	.loc 1 545 5
.LVL9:
.LBE80:
.LBE102:
	.loc 1 578 5
.LBB103:
.LBB92:
	.loc 1 553 5
	.loc 1 554 5
	.loc 1 554 10 is_stmt 0
	sw	s2,64(s1)
	.loc 1 555 5 is_stmt 1
	.loc 1 555 10 is_stmt 0
	sw	s2,68(s1)
	.loc 1 556 5 is_stmt 1
.LVL10:
.LBE92:
.LBE103:
	.loc 1 580 5
	.loc 1 580 18 is_stmt 0
	addi	a0,s1,4
	call	mbedtls_mpi_bitlen
.LVL11:
	.loc 1 580 16
	sw	a0,88(s1)
	.loc 1 581 5 is_stmt 1
	.loc 1 581 18 is_stmt 0
	addi	a0,s1,76
	call	mbedtls_mpi_bitlen
.LVL12:
	.loc 1 581 16
	sw	a0,92(s1)
	.loc 1 583 5 is_stmt 1
	.loc 1 583 12 is_stmt 0
	sw	s2,96(s1)
	.loc 1 585 5 is_stmt 1
.LVL13:
.LBE47:
.LBE46:
	.loc 1 779 21 is_stmt 0
	li	a0,0
.L1:
	.loc 1 853 1
	lw	ra,12(sp)
	.cfi_remember_state
	.cfi_restore 1
	lw	s0,8(sp)
	.cfi_restore 8
	.cfi_def_cfa 2, 16
	lw	s1,4(sp)
	.cfi_restore 9
.LVL14:
	lw	s2,0(sp)
	.cfi_restore 18
	addi	sp,sp,16
	.cfi_def_cfa_offset 0
	jr	ra
.LVL15:
.L2:
	.cfi_restore_state
	.loc 1 850 13 is_stmt 1
	.loc 1 851 19 is_stmt 0
	li	a0,-20480
	.loc 1 850 21
	sw	zero,0(s1)
	.loc 1 851 13 is_stmt 1
	.loc 1 851 19 is_stmt 0
	addi	a0,a0,384
	j	.L1
	.cfi_endproc
.LFE8:
	.size	mbedtls_ecp_group_load, .-mbedtls_ecp_group_load
	.section	.rodata.secp256r1_b,"a"
	.align	2
	.set	.LANCHOR1,. + 0
	.type	secp256r1_b, @object
	.size	secp256r1_b, 32
secp256r1_b:
	.word	668098635
	.word	1003371582
	.word	-866930442
	.word	1696401072
	.word	1989707452
	.word	-1276396203
	.word	-1439001625
	.word	1522939352
	.section	.rodata.secp256r1_gx,"a"
	.align	2
	.set	.LANCHOR3,. + 0
	.type	secp256r1_gx, @object
	.size	secp256r1_gx, 32
secp256r1_gx:
	.word	-661077354
	.word	-190760635
	.word	770388896
	.word	1996717441
	.word	1671708914
	.word	-121837851
	.word	-517193145
	.word	1796723186
	.section	.rodata.secp256r1_gy,"a"
	.align	2
	.set	.LANCHOR4,. + 0
	.type	secp256r1_gy, @object
	.size	secp256r1_gy, 32
secp256r1_gy:
	.word	935285237
	.word	-877248408
	.word	1798397646
	.word	734933847
	.word	2081398294
	.word	-1897403574
	.word	-31817829
	.word	1340293858
	.section	.rodata.secp256r1_n,"a"
	.align	2
	.set	.LANCHOR2,. + 0
	.type	secp256r1_n, @object
	.size	secp256r1_n, 32
secp256r1_n:
	.word	-60611247
	.word	-205927742
	.word	-1491624316
	.word	-1125713235
	.word	-1
	.word	-1
	.word	0
	.word	-1
	.section	.rodata.secp256r1_p,"a"
	.align	2
	.set	.LANCHOR0,. + 0
	.type	secp256r1_p, @object
	.size	secp256r1_p, 32
secp256r1_p:
	.word	-1
	.word	-1
	.word	-1
	.word	0
	.word	0
	.word	0
	.word	1
	.word	-1
	.section	.sdata.one.0,"aw"
	.align	2
	.set	.LANCHOR5,. + 0
	.type	one.0, @object
	.size	one.0, 4
one.0:
	.word	1
	.text
.Letext0:
	.file 2 "/home/dinhquangha/intern/Ai-Thinker-WB2/toolchain/riscv/Linux/lib/gcc/riscv64-unknown-elf/10.2.0/include/stddef.h"
	.file 3 "/home/dinhquangha/intern/Ai-Thinker-WB2/toolchain/riscv/Linux/lib/gcc/riscv64-unknown-elf/10.2.0/include/stdint-gcc.h"
	.file 4 "/home/dinhquangha/intern/Ai-Thinker-WB2/components/security/mbedtls_lts/mbedtls/include/mbedtls/bignum.h"
	.file 5 "/home/dinhquangha/intern/Ai-Thinker-WB2/components/security/mbedtls_lts/mbedtls/include/mbedtls/ecp.h"
	.file 6 "/home/dinhquangha/intern/Ai-Thinker-WB2/components/security/mbedtls_lts/port/ecp_alt.h"