	.file	"sha1_alt.c"
	.option nopic
	.attribute arch, "rv32i2p0_m2p0_f2p0_c2p0"
	.attribute unaligned_access, 0
	.attribute stack_align, 16
	.text
.Ltext0:
	.cfi_sections	.debug_frame
	.section	.text.mbedtls_sha1_init,"ax",@progbits
	.align	1
	.globl	mbedtls_sha1_init
	.type	mbedtls_sha1_init, @function
mbedtls_sha1_init:
.LFB2:
	.file 1 "/home/quanghaictu/intern/Ai-Thinker-WB2/components/security/mbedtls_lts/port/hw_acc/sha1_alt.c"
	.loc 1 26 1
	.cfi_startproc
.LVL0:
	.loc 1 27 5
	.loc 1 27 10
	.loc 1 27 17
	.loc 1 29 5
	.loc 1 26 1 is_stmt 0
	addi	sp,sp,-16
	.cfi_def_cfa_offset 16
	sw	s0,12(sp)
	.cfi_offset 8, -4
	addi	s0,sp,16
	.cfi_def_cfa 8, 0
	.loc 1 30 1
	lw	s0,12(sp)
	.cfi_restore 8
	.cfi_def_cfa 2, 16
	.loc 1 29 5
	li	a2,192
	li	a1,0
	.loc 1 30 1
	addi	sp,sp,16
	.cfi_def_cfa_offset 0
	.loc 1 29 5
	tail	memset
.LVL1:
	.cfi_endproc
.LFE2:
	.size	mbedtls_sha1_init, .-mbedtls_sha1_init
	.section	.text.mbedtls_sha1_free,"ax",@progbits
	.align	1
	.globl	mbedtls_sha1_free
	.type	mbedtls_sha1_free, @function
mbedtls_sha1_free:
.LFB3:
	.loc 1 33 1 is_stmt 1
	.cfi_startproc
.LVL2:
	.loc 1 34 5
	.loc 1 33 1 is_stmt 0
	addi	sp,sp,-16
	.cfi_def_cfa_offset 16
	sw	s0,12(sp)
	.cfi_offset 8, -4
	addi	s0,sp,16
	.cfi_def_cfa 8, 0
	.loc 1 34 7
	beq	a0,zero,.L3
	.loc 1 37 5 is_stmt 1
	.loc 1 38 1 is_stmt 0
	lw	s0,12(sp)
	.cfi_remember_state
	.cfi_restore 8
	.cfi_def_cfa 2, 16
	.loc 1 37 5
	li	a1,192
	.loc 1 38 1
	addi	sp,sp,16
	.cfi_def_cfa_offset 0
	.loc 1 37 5
	tail	mbedtls_platform_zeroize
.LVL3:
.L3:
	.cfi_restore_state
	.loc 1 38 1
	lw	s0,12(sp)
	.cfi_restore 8
	.cfi_def_cfa 2, 16
	addi	sp,sp,16
	.cfi_def_cfa_offset 0
	jr	ra
	.cfi_endproc
.LFE3:
	.size	mbedtls_sha1_free, .-mbedtls_sha1_free
	.section	.text.mbedtls_sha1_clone,"ax",@progbits
	.align	1
	.globl	mbedtls_sha1_clone
	.type	mbedtls_sha1_clone, @function
mbedtls_sha1_clone:
.LFB4:
	.loc 1 42 1 is_stmt 1
	.cfi_startproc
.LVL4:
	.loc 1 43 5
	.loc 1 43 10
	.loc 1 43 17
	.loc 1 44 5
	.loc 1 44 10
	.loc 1 44 17
	.loc 1 46 5
	.loc 1 42 1 is_stmt 0
	addi	sp,sp,-16
	.cfi_def_cfa_offset 16
	sw	s0,12(sp)
	.cfi_offset 8, -4
	addi	s0,sp,16
	.cfi_def_cfa 8, 0
	.loc 1 47 1
	lw	s0,12(sp)
	.cfi_restore 8
	.cfi_def_cfa 2, 16
	addi	sp,sp,16
	.cfi_def_cfa_offset 0
	.loc 1 46 5
	tail	bl_sha_clone
.LVL5:
	.cfi_endproc
.LFE4:
	.size	mbedtls_sha1_clone, .-mbedtls_sha1_clone
	.section	.text.mbedtls_sha1_starts_ret,"ax",@progbits
	.align	1
	.globl	mbedtls_sha1_starts_ret
	.type	mbedtls_sha1_starts_ret, @function
mbedtls_sha1_starts_ret:
.LFB5:
	.loc 1 53 1 is_stmt 1
	.cfi_startproc
.LVL6:
	.loc 1 54 5
	.loc 1 54 10
	.loc 1 54 17
	.loc 1 56 5
	.loc 1 53 1 is_stmt 0
	addi	sp,sp,-16
	.cfi_def_cfa_offset 16
	sw	s0,12(sp)
	.cfi_offset 8, -4
	addi	s0,sp,16
	.cfi_def_cfa 8, 0
	.loc 1 57 1
	lw	s0,12(sp)
	.cfi_restore 8
	.cfi_def_cfa 2, 16
	.loc 1 56 12
	li	a1,0
	.loc 1 57 1
	addi	sp,sp,16
	.cfi_def_cfa_offset 0
	.loc 1 56 12
	tail	bl_sha_init
.LVL7:
	.cfi_endproc
.LFE5:
	.size	mbedtls_sha1_starts_ret, .-mbedtls_sha1_starts_ret
	.section	.text.mbedtls_sha1_starts,"ax",@progbits
	.align	1
	.globl	mbedtls_sha1_starts
	.type	mbedtls_sha1_starts, @function
mbedtls_sha1_starts:
.LFB6:
	.loc 1 61 1 is_stmt 1
	.cfi_startproc
.LVL8:
	.loc 1 62 5
	.loc 1 61 1 is_stmt 0
	addi	sp,sp,-16
	.cfi_def_cfa_offset 16
	sw	s0,12(sp)
	.cfi_offset 8, -4
	addi	s0,sp,16
	.cfi_def_cfa 8, 0
	.loc 1 63 1
	lw	s0,12(sp)
	.cfi_restore 8
	.cfi_def_cfa 2, 16
	addi	sp,sp,16
	.cfi_def_cfa_offset 0
	.loc 1 62 5
	tail	mbedtls_sha1_starts_ret
.LVL9:
	.cfi_endproc
.LFE6:
	.size	mbedtls_sha1_starts, .-mbedtls_sha1_starts
	.section	.text.mbedtls_sha1_update_ret,"ax",@progbits
	.align	1
	.globl	mbedtls_sha1_update_ret
	.type	mbedtls_sha1_update_ret, @function
mbedtls_sha1_update_ret:
.LFB7:
	.loc 1 69 1 is_stmt 1
	.cfi_startproc
.LVL10:
	.loc 1 70 5
	.loc 1 71 5
	.loc 1 69 1 is_stmt 0
	addi	sp,sp,-32
	.cfi_def_cfa_offset 32
	sw	ra,28(sp)
	sw	s0,24(sp)
	sw	s1,20(sp)
	.cfi_offset 1, -4
	.cfi_offset 8, -8
	.cfi_offset 9, -12
	addi	s0,sp,32
	.cfi_def_cfa 8, 0
	.loc 1 69 1
	mv	s1,a0
	sw	a1,-24(s0)
	sw	a2,-20(s0)
	.loc 1 71 5
	call	bl_sha_mutex_take
.LVL11:
	.loc 1 72 5 is_stmt 1
	.loc 1 72 11 is_stmt 0
	lw	a2,-20(s0)
	lw	a1,-24(s0)
	mv	a0,s1
	call	bl_sha_update
.LVL12:
	mv	s1,a0
.LVL13:
	.loc 1 73 5 is_stmt 1
	call	bl_sha_mutex_give
.LVL14:
	.loc 1 74 5
	.loc 1 75 1 is_stmt 0
	lw	ra,28(sp)
	.cfi_restore 1
	lw	s0,24(sp)
	.cfi_restore 8
	.cfi_def_cfa 2, 32
.LVL15:
	mv	a0,s1
	lw	s1,20(sp)
	.cfi_restore 9
.LVL16:
	addi	sp,sp,32
	.cfi_def_cfa_offset 0
	jr	ra
	.cfi_endproc
.LFE7:
	.size	mbedtls_sha1_update_ret, .-mbedtls_sha1_update_ret
	.section	.text.mbedtls_sha1_update,"ax",@progbits
	.align	1
	.globl	mbedtls_sha1_update
	.type	mbedtls_sha1_update, @function
mbedtls_sha1_update:
.LFB8:
	.loc 1 81 1 is_stmt 1
	.cfi_startproc
.LVL17:
	.loc 1 82 5
	.loc 1 81 1 is_stmt 0
	addi	sp,sp,-16
	.cfi_def_cfa_offset 16
	sw	s0,12(sp)
	.cfi_offset 8, -4
	addi	s0,sp,16
	.cfi_def_cfa 8, 0
	.loc 1 83 1
	lw	s0,12(sp)
	.cfi_restore 8
	.cfi_def_cfa 2, 16
	addi	sp,sp,16
	.cfi_def_cfa_offset 0
	.loc 1 82 5
	tail	mbedtls_sha1_update_ret
.LVL18:
	.cfi_endproc
.LFE8:
	.size	mbedtls_sha1_update, .-mbedtls_sha1_update
	.section	.text.mbedtls_sha1_finish_ret,"ax",@progbits
	.align	1
	.globl	mbedtls_sha1_finish_ret
	.type	mbedtls_sha1_finish_ret, @function
mbedtls_sha1_finish_ret:
.LFB9:
	.loc 1 88 1 is_stmt 1
	.cfi_startproc
.LVL19:
	.loc 1 89 5
	.loc 1 90 5
	.loc 1 88 1 is_stmt 0
	addi	sp,sp,-32
	.cfi_def_cfa_offset 32
	sw	ra,28(sp)
	sw	s0,24(sp)
	sw	s1,20(sp)
	.cfi_offset 1, -4
	.cfi_offset 8, -8
	.cfi_offset 9, -12
	addi	s0,sp,32
	.cfi_def_cfa 8, 0
	.loc 1 88 1
	mv	s1,a0
	sw	a1,-20(s0)
	.loc 1 90 5
	call	bl_sha_mutex_take
.LVL20:
	.loc 1 91 5 is_stmt 1
	.loc 1 91 11 is_stmt 0
	lw	a1,-20(s0)
	mv	a0,s1
	call	bl_sha_finish
.LVL21:
	mv	s1,a0
.LVL22:
	.loc 1 92 5 is_stmt 1
	call	bl_sha_mutex_give
.LVL23:
	.loc 1 93 5
	.loc 1 94 1 is_stmt 0
	lw	ra,28(sp)
	.cfi_restore 1
	lw	s0,24(sp)
	.cfi_restore 8
	.cfi_def_cfa 2, 32
.LVL24:
	mv	a0,s1
	lw	s1,20(sp)
	.cfi_restore 9
.LVL25:
	addi	sp,sp,32
	.cfi_def_cfa_offset 0
	jr	ra
	.cfi_endproc
.LFE9:
	.size	mbedtls_sha1_finish_ret, .-mbedtls_sha1_finish_ret
	.section	.text.mbedtls_sha1_finish,"ax",@progbits
	.align	1
	.globl	mbedtls_sha1_finish
	.type	mbedtls_sha1_finish, @function
mbedtls_sha1_finish:
.LFB10:
	.loc 1 99 1 is_stmt 1
	.cfi_startproc
.LVL26:
	.loc 1 100 5
	.loc 1 99 1 is_stmt 0
	addi	sp,sp,-16
	.cfi_def_cfa_offset 16
	sw	s0,12(sp)
	.cfi_offset 8, -4
	addi	s0,sp,16
	.cfi_def_cfa 8, 0
	.loc 1 101 1
	lw	s0,12(sp)
	.cfi_restore 8
	.cfi_def_cfa 2, 16
	addi	sp,sp,16
	.cfi_def_cfa_offset 0
	.loc 1 100 5
	tail	mbedtls_sha1_finish_ret
.LVL27:
	.cfi_endproc
.LFE10:
	.size	mbedtls_sha1_finish, .-mbedtls_sha1_finish
	.text
.Letext0:
	.file 2 "/home/quanghaictu/intern/Ai-Thinker-WB2/toolchain/riscv/Linux/lib/gcc/riscv64-unknown-elf/10.2.0/include/stddef.h"
	.file 3 "/home/quanghaictu/intern/Ai-Thinker-WB2/toolchain/riscv/Linux/lib/gcc/riscv64-unknown-elf/10.2.0/include/stdint-gcc.h"
	.file 4 "/home/quanghaictu/intern/Ai-Thinker-WB2/components/platform/hosal/sec_common/bl_sec_common.h"
	.file 5 "/home/quanghaictu/intern/Ai-Thinker-WB2/components/security/mbedtls_lts/port/sha1_alt.h"
	.file 6 "/home/quanghaictu/intern/Ai-Thinker-WB2/components/platform/hosal/bl602_hal/bl_sec.h"
	.file 7 "/home/quanghaictu/intern/Ai-Thinker-WB2/components/security/mbedtls_lts/mbedtls/include/mbedtls/platform_util.h"
	.file 8 "/home/quanghaictu/intern/Ai-Thinker-WB2/toolchain/riscv/Linux/riscv64-unknown-elf/include/string.h"