	.file	"sha256_alt.c"
	.option nopic
	.attribute arch, "rv32i2p0_m2p0_f2p0_c2p0"
	.attribute unaligned_access, 0
	.attribute stack_align, 16
	.text
.Ltext0:
	.cfi_sections	.debug_frame
	.section	.text.mbedtls_sha256_init,"ax",@progbits
	.align	1
	.globl	mbedtls_sha256_init
	.type	mbedtls_sha256_init, @function
mbedtls_sha256_init:
.LFB2:
	.file 1 "/home/dinhquangha/intern/Ai-Thinker-WB2/components/security/mbedtls_lts/port/hw_acc/sha256_alt.c"
	.loc 1 28 1
	.cfi_startproc
.LVL0:
	.loc 1 29 5
	.loc 1 29 10
	.loc 1 29 17
	.loc 1 31 5
	.loc 1 28 1 is_stmt 0
	addi	sp,sp,-16
	.cfi_def_cfa_offset 16
	sw	s0,12(sp)
	.cfi_offset 8, -4
	addi	s0,sp,16
	.cfi_def_cfa 8, 0
	.loc 1 32 1
	lw	s0,12(sp)
	.cfi_restore 8
	.cfi_def_cfa 2, 16
	.loc 1 31 5
	li	a2,192
	li	a1,0
	.loc 1 32 1
	addi	sp,sp,16
	.cfi_def_cfa_offset 0
	.loc 1 31 5
	tail	memset
.LVL1:
	.cfi_endproc
.LFE2:
	.size	mbedtls_sha256_init, .-mbedtls_sha256_init
	.section	.text.mbedtls_sha256_free,"ax",@progbits
	.align	1
	.globl	mbedtls_sha256_free
	.type	mbedtls_sha256_free, @function
mbedtls_sha256_free:
.LFB3:
	.loc 1 35 1 is_stmt 1
	.cfi_startproc
.LVL2:
	.loc 1 36 5
	.loc 1 35 1 is_stmt 0
	addi	sp,sp,-16
	.cfi_def_cfa_offset 16
	sw	s0,12(sp)
	.cfi_offset 8, -4
	addi	s0,sp,16
	.cfi_def_cfa 8, 0
	.loc 1 36 7
	beq	a0,zero,.L3
	.loc 1 39 5 is_stmt 1
	.loc 1 40 1 is_stmt 0
	lw	s0,12(sp)
	.cfi_remember_state
	.cfi_restore 8
	.cfi_def_cfa 2, 16
	.loc 1 39 5
	li	a1,192
	.loc 1 40 1
	addi	sp,sp,16
	.cfi_def_cfa_offset 0
	.loc 1 39 5
	tail	mbedtls_platform_zeroize
.LVL3:
.L3:
	.cfi_restore_state
	.loc 1 40 1
	lw	s0,12(sp)
	.cfi_restore 8
	.cfi_def_cfa 2, 16
	addi	sp,sp,16
	.cfi_def_cfa_offset 0
	jr	ra
	.cfi_endproc
.LFE3:
	.size	mbedtls_sha256_free, .-mbedtls_sha256_free
	.section	.text.mbedtls_sha256_clone,"ax",@progbits
	.align	1
	.globl	mbedtls_sha256_clone
	.type	mbedtls_sha256_clone, @function
mbedtls_sha256_clone:
.LFB4:
	.loc 1 44 1 is_stmt 1
	.cfi_startproc
.LVL4:
	.loc 1 45 5
	.loc 1 45 10
	.loc 1 45 17
	.loc 1 46 5
	.loc 1 46 10
	.loc 1 46 17
	.loc 1 48 5
	.loc 1 44 1 is_stmt 0
	addi	sp,sp,-16
	.cfi_def_cfa_offset 16
	sw	s0,12(sp)
	.cfi_offset 8, -4
	addi	s0,sp,16
	.cfi_def_cfa 8, 0
	.loc 1 49 1
	lw	s0,12(sp)
	.cfi_restore 8
	.cfi_def_cfa 2, 16
	addi	sp,sp,16
	.cfi_def_cfa_offset 0
	.loc 1 48 5
	tail	bl_sha_clone
.LVL5:
	.cfi_endproc
.LFE4:
	.size	mbedtls_sha256_clone, .-mbedtls_sha256_clone
	.section	.text.mbedtls_sha256_starts_ret,"ax",@progbits
	.align	1
	.globl	mbedtls_sha256_starts_ret
	.type	mbedtls_sha256_starts_ret, @function
mbedtls_sha256_starts_ret:
.LFB5:
	.loc 1 55 1 is_stmt 1
	.cfi_startproc
.LVL6:
	.loc 1 56 5
	.loc 1 56 10
	.loc 1 56 17
	.loc 1 57 5
	.loc 1 57 10
	.loc 1 57 17
	.loc 1 58 5
	.loc 1 55 1 is_stmt 0
	addi	sp,sp,-16
	.cfi_def_cfa_offset 16
	sw	s0,12(sp)
	.cfi_offset 8, -4
	addi	s0,sp,16
	.cfi_def_cfa 8, 0
	.loc 1 59 1
	lw	s0,12(sp)
	.cfi_restore 8
	.cfi_def_cfa 2, 16
	.loc 1 58 12
	seqz	a1,a1
.LVL7:
	addi	a1,a1,1
	.loc 1 59 1
	addi	sp,sp,16
	.cfi_def_cfa_offset 0
	.loc 1 58 12
	tail	bl_sha_init
.LVL8:
	.cfi_endproc
.LFE5:
	.size	mbedtls_sha256_starts_ret, .-mbedtls_sha256_starts_ret
	.section	.text.mbedtls_sha256_starts,"ax",@progbits
	.align	1
	.globl	mbedtls_sha256_starts
	.type	mbedtls_sha256_starts, @function
mbedtls_sha256_starts:
.LFB6:
	.loc 1 64 1 is_stmt 1
	.cfi_startproc
.LVL9:
	.loc 1 65 5
	.loc 1 64 1 is_stmt 0
	addi	sp,sp,-16
	.cfi_def_cfa_offset 16
	sw	s0,12(sp)
	.cfi_offset 8, -4
	addi	s0,sp,16
	.cfi_def_cfa 8, 0
	.loc 1 66 1
	lw	s0,12(sp)
	.cfi_restore 8
	.cfi_def_cfa 2, 16
	addi	sp,sp,16
	.cfi_def_cfa_offset 0
	.loc 1 65 5
	tail	mbedtls_sha256_starts_ret
.LVL10:
	.cfi_endproc
.LFE6:
	.size	mbedtls_sha256_starts, .-mbedtls_sha256_starts
	.section	.text.mbedtls_sha256_update_ret,"ax",@progbits
	.align	1
	.globl	mbedtls_sha256_update_ret
	.type	mbedtls_sha256_update_ret, @function
mbedtls_sha256_update_ret:
.LFB7:
	.loc 1 72 1 is_stmt 1
	.cfi_startproc
.LVL11:
	.loc 1 73 5
	.loc 1 74 5
	.loc 1 74 10
	.loc 1 74 17
	.loc 1 75 5
	.loc 1 75 10
	.loc 1 75 17
	.loc 1 77 5
	.loc 1 72 1 is_stmt 0
	addi	sp,sp,-32
	.cfi_def_cfa_offset 32
	sw	s0,24(sp)
	sw	s1,20(sp)
	.cfi_offset 8, -8
	.cfi_offset 9, -12
	addi	s0,sp,32
	.cfi_def_cfa 8, 0
	sw	ra,28(sp)
	.cfi_offset 1, -4
	.loc 1 72 1
	sw	a1,-24(s0)
	.loc 1 77 7
	sw	a2,-20(s0)
	.loc 1 78 15
	li	s1,0
	.loc 1 77 7
	beq	a2,zero,.L14
	mv	s1,a0
.LVL12:
.LBB4:
.LBB5:
	.loc 1 79 5 is_stmt 1
	call	bl_sha_mutex_take
.LVL13:
	.loc 1 80 5
	.loc 1 80 11 is_stmt 0
	lw	a2,-20(s0)
	lw	a1,-24(s0)
	mv	a0,s1
	call	bl_sha_update
.LVL14:
	mv	s1,a0
.LVL15:
	.loc 1 81 5 is_stmt 1
	call	bl_sha_mutex_give
.LVL16:
	.loc 1 83 5
.L14:
.LBE5:
.LBE4:
	.loc 1 84 1 is_stmt 0
	lw	ra,28(sp)
	.cfi_restore 1
	lw	s0,24(sp)
	.cfi_restore 8
	.cfi_def_cfa 2, 32
.LVL17:
	mv	a0,s1
	lw	s1,20(sp)
	.cfi_restore 9
	addi	sp,sp,32
	.cfi_def_cfa_offset 0
	jr	ra
	.cfi_endproc
.LFE7:
	.size	mbedtls_sha256_update_ret, .-mbedtls_sha256_update_ret
	.section	.text.mbedtls_sha256_update,"ax",@progbits
	.align	1
	.globl	mbedtls_sha256_update
	.type	mbedtls_sha256_update, @function
mbedtls_sha256_update:
.LFB8:
	.loc 1 90 1 is_stmt 1
	.cfi_startproc
.LVL18:
	.loc 1 91 5
	.loc 1 90 1 is_stmt 0
	addi	sp,sp,-16
	.cfi_def_cfa_offset 16
	sw	s0,12(sp)
	.cfi_offset 8, -4
	addi	s0,sp,16
	.cfi_def_cfa 8, 0
	.loc 1 92 1
	lw	s0,12(sp)
	.cfi_restore 8
	.cfi_def_cfa 2, 16
	addi	sp,sp,16
	.cfi_def_cfa_offset 0
	.loc 1 91 5
	tail	mbedtls_sha256_update_ret
.LVL19:
	.cfi_endproc
.LFE8:
	.size	mbedtls_sha256_update, .-mbedtls_sha256_update
	.section	.text.mbedtls_sha256_finish_ret,"ax",@progbits
	.align	1
	.globl	mbedtls_sha256_finish_ret
	.type	mbedtls_sha256_finish_ret, @function
mbedtls_sha256_finish_ret:
.LFB9:
	.loc 1 100 1 is_stmt 1
	.cfi_startproc
.LVL20:
	.loc 1 101 5
	.loc 1 103 5
	.loc 1 103 10
	.loc 1 103 17
	.loc 1 104 5
	.loc 1 104 10
	.loc 1 104 17
	.loc 1 106 5
	.loc 1 100 1 is_stmt 0
	addi	sp,sp,-32
	.cfi_def_cfa_offset 32
	sw	ra,28(sp)
	sw	s0,24(sp)
	sw	s1,20(sp)
	.cfi_offset 1, -4
	.cfi_offset 8, -8
	.cfi_offset 9, -12
	addi	s0,sp,32
	.cfi_def_cfa 8, 0
	.loc 1 100 1
	mv	s1,a0
	sw	a1,-20(s0)
	.loc 1 106 5
	call	bl_sha_mutex_take
.LVL21:
	.loc 1 107 5 is_stmt 1
	.loc 1 107 11 is_stmt 0
	lw	a1,-20(s0)
	mv	a0,s1
	call	bl_sha_finish
.LVL22:
	mv	s1,a0
.LVL23:
	.loc 1 108 5 is_stmt 1
	call	bl_sha_mutex_give
.LVL24:
	.loc 1 109 5
	.loc 1 110 1 is_stmt 0
	lw	ra,28(sp)
	.cfi_restore 1
	lw	s0,24(sp)
	.cfi_restore 8
	.cfi_def_cfa 2, 32
.LVL25:
	mv	a0,s1
	lw	s1,20(sp)
	.cfi_restore 9
.LVL26:
	addi	sp,sp,32
	.cfi_def_cfa_offset 0
	jr	ra
	.cfi_endproc
.LFE9:
	.size	mbedtls_sha256_finish_ret, .-mbedtls_sha256_finish_ret
	.section	.text.mbedtls_sha256_finish,"ax",@progbits
	.align	1
	.globl	mbedtls_sha256_finish
	.type	mbedtls_sha256_finish, @function
mbedtls_sha256_finish:
.LFB10:
	.loc 1 115 1 is_stmt 1
	.cfi_startproc
.LVL27:
	.loc 1 116 5
	.loc 1 115 1 is_stmt 0
	addi	sp,sp,-16
	.cfi_def_cfa_offset 16
	sw	s0,12(sp)
	.cfi_offset 8, -4
	addi	s0,sp,16
	.cfi_def_cfa 8, 0
	.loc 1 117 1
	lw	s0,12(sp)
	.cfi_restore 8
	.cfi_def_cfa 2, 16
	addi	sp,sp,16
	.cfi_def_cfa_offset 0
	.loc 1 116 5
	tail	mbedtls_sha256_finish_ret
.LVL28:
	.cfi_endproc
.LFE10:
	.size	mbedtls_sha256_finish, .-mbedtls_sha256_finish
	.text
.Letext0:
	.file 2 "/home/dinhquangha/intern/Ai-Thinker-WB2/toolchain/riscv/Linux/lib/gcc/riscv64-unknown-elf/10.2.0/include/stddef.h"
	.file 3 "/home/dinhquangha/intern/Ai-Thinker-WB2/toolchain/riscv/Linux/lib/gcc/riscv64-unknown-elf/10.2.0/include/stdint-gcc.h"
	.file 4 "/home/dinhquangha/intern/Ai-Thinker-WB2/components/platform/hosal/sec_common/bl_sec_common.h"
	.file 5 "/home/dinhquangha/intern/Ai-Thinker-WB2/components/security/mbedtls_lts/port/sha256_alt.h"
	.file 6 "/home/dinhquangha/intern/Ai-Thinker-WB2/components/platform/hosal/bl602_hal/bl_sec.h"
	.file 7 "/home/dinhquangha/intern/Ai-Thinker-WB2/components/security/mbedtls_lts/mbedtls/include/mbedtls/platform_util.h"
	.file 8 "/home/dinhquangha/intern/Ai-Thinker-WB2/toolchain/riscv/Linux/riscv64-unknown-elf/include/string.h"