	.file	"hci_driver.c"
	.option nopic
	.attribute arch, "rv32i2p0_m2p0_f2p0_c2p0"
	.attribute unaligned_access, 0
	.attribute stack_align, 16
	.text
.Ltext0:
	.cfi_sections	.debug_frame
	.section	.rodata.hci_driver_open.str1.4,"aMS",@progbits,1
	.align	2
.LC0:
	.string	"recv_thread"
	.section	.text.hci_driver_open,"ax",@progbits
	.align	1
	.type	hci_driver_open, @function
hci_driver_open:
.LFB89:
	.file 1 "/home/quanghaictu/intern/Ai-Thinker-WB2/components/network/ble/blestack/src/hci_onchip/hci_driver.c"
	.loc 1 446 1
	.cfi_startproc
	.loc 1 469 5
	.loc 1 446 1 is_stmt 0
	addi	sp,sp,-16
	.cfi_def_cfa_offset 16
	sw	ra,12(sp)
	sw	s0,8(sp)
	.loc 1 469 5
	lui	a0,%hi(.LANCHOR0)
	.cfi_offset 1, -4
	.cfi_offset 8, -8
	.loc 1 446 1
	addi	s0,sp,16
	.cfi_def_cfa 8, 0
	.loc 1 469 5
	li	a1,20
	addi	a0,a0,%lo(.LANCHOR0)
	call	k_queue_init
.LVL0:
	.loc 1 473 5 is_stmt 1
	lui	a3,%hi(recv_thread)
	li	a2,4096
	lui	a1,%hi(.LC0)
	lui	a0,%hi(recv_thread_data)
	li	a4,28
	addi	a3,a3,%lo(recv_thread)
	addi	a2,a2,-2048
	addi	a1,a1,%lo(.LC0)
	addi	a0,a0,%lo(recv_thread_data)
	call	k_thread_create
.LVL1:
	.loc 1 485 2
	.loc 1 487 2
	.loc 1 488 1 is_stmt 0
	lw	ra,12(sp)
	.cfi_restore 1
	lw	s0,8(sp)
	.cfi_restore 8
	.cfi_def_cfa 2, 16
	li	a0,0
	addi	sp,sp,16
	.cfi_def_cfa_offset 0
	jr	ra
	.cfi_endproc
.LFE89:
	.size	hci_driver_open, .-hci_driver_open
	.section	.text.recv_thread,"ax",@progbits
	.align	1
	.type	recv_thread, @function
recv_thread:
.LFB87:
	.loc 1 291 1 is_stmt 1
	.cfi_startproc
.LVL2:
	addi	sp,sp,-16
	.cfi_def_cfa_offset 16
	sw	s0,8(sp)
	sw	s1,4(sp)
	sw	ra,12(sp)
	.cfi_offset 8, -8
	.cfi_offset 9, -12
	.cfi_offset 1, -4
	addi	s0,sp,16
	.cfi_def_cfa 8, 0
.LBB2:
	.loc 1 308 16 is_stmt 0
	lui	s1,%hi(.LANCHOR0)
.LVL3:
.L5:
.LBE2:
	.loc 1 292 5 is_stmt 1
	.loc 1 305 2
.LBB3:
	.loc 1 307 10
	.loc 1 308 10
	.loc 1 308 16 is_stmt 0
	li	a1,-1
	addi	a0,s1,%lo(.LANCHOR0)
	call	net_buf_get
.LVL4:
	.loc 1 309 10 is_stmt 1
	.loc 1 309 12 is_stmt 0
	beq	a0,zero,.L4
	.loc 1 310 13 is_stmt 1
	.loc 1 311 13
	call	bt_recv
.LVL5:
.L4:
	.loc 1 356 9
	call	k_yield
.LVL6:
.LBE3:
	.loc 1 305 8
	.loc 1 305 12 is_stmt 0
	j	.L5
	.cfi_endproc
.LFE87:
	.size	recv_thread, .-recv_thread
	.section	.rodata.hci_driver_send.str1.4,"aMS",@progbits,1
	.align	2
.LC1:
	.string	"Empty HCI packet, %s\r\n"
	.section	.text.hci_driver_send,"ax",@progbits
	.align	1
	.type	hci_driver_send, @function
hci_driver_send:
.LFB88:
	.loc 1 398 1 is_stmt 1
	.cfi_startproc
.LVL7:
	.loc 1 402 2
	.loc 1 404 2
	.loc 1 406 2
	.loc 1 398 1 is_stmt 0
	addi	sp,sp,-16
	.cfi_def_cfa_offset 16
	sw	s0,8(sp)
	sw	ra,12(sp)
	sw	s1,4(sp)
	sw	s2,0(sp)
	.cfi_offset 8, -8
	.cfi_offset 1, -4
	.cfi_offset 9, -12
	.cfi_offset 18, -16
	addi	s0,sp,16
	.cfi_def_cfa 8, 0
	.loc 1 406 5
	lhu	a5,12(a0)
	bne	a5,zero,.L11
.LVL8:
.LBB6:
.LBB7:
	.loc 1 407 3 is_stmt 1
	lui	a1,%hi(.LANCHOR1)
	lui	a0,%hi(.LC1)
.LVL9:
	addi	a1,a1,%lo(.LANCHOR1)
	addi	a0,a0,%lo(.LC1)
	call	printf
.LVL10:
	.loc 1 408 3
	.loc 1 407 3 is_stmt 0
	li	s1,-22
.L10:
.LBE7:
.LBE6:
	.loc 1 443 1
	lw	ra,12(sp)
	.cfi_remember_state
	.cfi_restore 1
	lw	s0,8(sp)
	.cfi_restore 8
	.cfi_def_cfa 2, 16
	lw	s2,0(sp)
	.cfi_restore 18
	mv	a0,s1
	lw	s1,4(sp)
	.cfi_restore 9
	addi	sp,sp,16
	.cfi_def_cfa_offset 0
	jr	ra
.LVL11:
.L11:
	.cfi_restore_state
	mv	s2,a0
	.loc 1 412 5 is_stmt 1
	.loc 1 412 11 is_stmt 0
	call	bl_onchiphci_send_2_controller
.LVL12:
	mv	s1,a0
.LVL13:
	.loc 1 413 5 is_stmt 1
	mv	a0,s2
	call	net_buf_unref
.LVL14:
	.loc 1 414 5
	.loc 1 414 12 is_stmt 0
	j	.L10
	.cfi_endproc
.LFE88:
	.size	hci_driver_send, .-hci_driver_send
	.section	.text.hci_driver_enque_recvq,"ax",@progbits
	.align	1
	.globl	hci_driver_enque_recvq
	.type	hci_driver_enque_recvq, @function
hci_driver_enque_recvq:
.LFB90:
	.loc 1 491 1 is_stmt 1
	.cfi_startproc
.LVL15:
	.loc 1 492 5
	.loc 1 491 1 is_stmt 0
	addi	sp,sp,-16
	.cfi_def_cfa_offset 16
	sw	s0,12(sp)
	.cfi_offset 8, -4
	addi	s0,sp,16
	.cfi_def_cfa 8, 0
	.loc 1 497 1
	lw	s0,12(sp)
	.cfi_restore 8
	.cfi_def_cfa 2, 16
	.loc 1 491 1
	mv	a1,a0
	.loc 1 492 5
	lui	a0,%hi(.LANCHOR0)
.LVL16:
	.loc 1 497 1
	.loc 1 492 5
	addi	a0,a0,%lo(.LANCHOR0)
	.loc 1 497 1
	addi	sp,sp,16
	.cfi_def_cfa_offset 0
	.loc 1 492 5
	tail	net_buf_put
.LVL17:
	.cfi_endproc
.LFE90:
	.size	hci_driver_enque_recvq, .-hci_driver_enque_recvq
	.section	.text.hci_driver_init,"ax",@progbits
	.align	1
	.globl	hci_driver_init
	.type	hci_driver_init, @function
hci_driver_init:
.LFB91:
	.loc 1 508 1 is_stmt 1
	.cfi_startproc
	.loc 1 510 2
	.loc 1 508 1 is_stmt 0
	addi	sp,sp,-16
	.cfi_def_cfa_offset 16
	sw	s0,8(sp)
	sw	ra,12(sp)
	.cfi_offset 8, -8
	.cfi_offset 1, -4
	addi	s0,sp,16
	.cfi_def_cfa 8, 0
	.loc 1 510 2
	lui	a0,%hi(.LANCHOR2)
	.loc 1 508 1
	.loc 1 510 2
	addi	a0,a0,%lo(.LANCHOR2)
	call	bt_hci_driver_register
.LVL18:
	.loc 1 512 2 is_stmt 1
	.loc 1 513 1 is_stmt 0
	lw	ra,12(sp)
	.cfi_restore 1
	lw	s0,8(sp)
	.cfi_restore 8
	.cfi_def_cfa 2, 16
	li	a0,0
	addi	sp,sp,16
	.cfi_def_cfa_offset 0
	jr	ra
	.cfi_endproc
.LFE91:
	.size	hci_driver_init, .-hci_driver_init
	.section	.rodata.str1.4,"aMS",@progbits,1
	.align	2
.LC2:
	.string	"Controller"
	.comm	recv_thread_data,4,4
	.globl	recv_fifo
	.section	._k_queue.static.recv_fifo,"aw"
	.align	2
	.set	.LANCHOR0,. + 0
	.type	recv_fifo, @object
	.size	recv_fifo, 12
recv_fifo:
	.zero	12
	.section	.rodata.__func__.0,"a"
	.align	2
	.set	.LANCHOR1,. + 0
	.type	__func__.0, @object
	.size	__func__.0, 16
__func__.0:
	.string	"hci_driver_send"
	.section	.rodata.drv,"a"
	.align	2
	.set	.LANCHOR2,. + 0
	.type	drv, @object
	.size	drv, 20
drv:
	.word	.LC2
	.word	0
	.zero	4
	.word	hci_driver_open
	.word	hci_driver_send
	.text
.Letext0:
	.file 2 "/home/quanghaictu/intern/Ai-Thinker-WB2/toolchain/riscv/Linux/lib/gcc/riscv64-unknown-elf/10.2.0/include/stdint-gcc.h"
	.file 3 "/home/quanghaictu/intern/Ai-Thinker-WB2/components/network/ble/blestack/src/common/include/zephyr/types.h"
	.file 4 "/home/quanghaictu/intern/Ai-Thinker-WB2/components/network/ble/blestack/src/common/include/misc/slist.h"
	.file 5 "/home/quanghaictu/intern/Ai-Thinker-WB2/components/network/ble/blestack/src/common/include/misc/dlist.h"
	.file 6 "/home/quanghaictu/intern/Ai-Thinker-WB2/components/network/ble/blestack/src/port/include/bl_port.h"
	.file 7 "/home/quanghaictu/intern/Ai-Thinker-WB2/components/network/ble/blestack/src/port/include/zephyr.h"
	.file 8 "/home/quanghaictu/intern/Ai-Thinker-WB2/components/network/ble/blestack/src/common/include/net/buf.h"
	.file 9 "/home/quanghaictu/intern/Ai-Thinker-WB2/components/network/ble/blestack/src/include/drivers/bluetooth/hci_driver.h"
	.file 10 "/home/quanghaictu/intern/Ai-Thinker-WB2/toolchain/riscv/Linux/riscv64-unknown-elf/include/stdio.h"
	.file 11 "/home/quanghaictu/intern/Ai-Thinker-WB2/components/network/ble/blestack/src/bl_hci_wrapper/bl_hci_wrapper.h"