	.file	"ble_adv.c"
	.option nopic
	.attribute arch, "rv32i2p0_m2p0_f2p0_c2p0"
	.attribute unaligned_access, 0
	.attribute stack_align, 16
	.text
.Ltext0:
	.cfi_sections	.debug_frame
	.section	.rodata.ble_adv_start.str1.4,"aMS",@progbits,1
	.align	2
.LC0:
	.string	">>>> have err %d\r\n"
	.align	2
.LC1:
	.string	">>> start done \r\n"
	.section	.text.ble_adv_start,"ax",@progbits
	.align	1
	.globl	ble_adv_start
	.type	ble_adv_start, @function
ble_adv_start:
.LFB67:
	.file 1 "/home/quanghaictu/intern/Ai-Thinker-WB2/datic/components/middle/ble/ble_adv.c"
	.loc 1 16 24
	.cfi_startproc
	.loc 1 17 5
	.loc 1 16 24 is_stmt 0
	addi	sp,sp,-48
	.cfi_def_cfa_offset 48
	sw	s0,40(sp)
	sw	ra,44(sp)
	.cfi_offset 8, -8
	.cfi_offset 1, -4
	addi	s0,sp,48
	.cfi_def_cfa 8, 0
	.loc 1 17 58
	li	a5,10485760
	.loc 1 16 24
	.loc 1 17 58
	addi	a5,a5,256
	.loc 1 17 14
	lui	a1,%hi(.LANCHOR0)
	.loc 1 17 58
	sw	a5,-24(s0)
	.loc 1 17 14
	addi	a1,a1,%lo(.LANCHOR0)
	.loc 1 17 58
	li	a5,240
	.loc 1 17 14
	li	a4,0
	li	a3,0
	li	a2,2
	addi	a0,s0,-24
	.loc 1 17 58
	sh	a5,-20(s0)
	.loc 1 17 14
	call	bt_le_adv_start
.LVL0:
	mv	a1,a0
.LVL1:
	.loc 1 18 5 is_stmt 1
	.loc 1 18 8 is_stmt 0
	beq	a0,zero,.L2
	.loc 1 19 9 is_stmt 1
	lui	a0,%hi(.LC0)
.LVL2:
	addi	a0,a0,%lo(.LC0)
	call	printf
.LVL3:
	.loc 1 20 9
	.loc 1 20 16 is_stmt 0
	li	a1,-1
.L1:
	.loc 1 24 1
	lw	ra,44(sp)
	.cfi_remember_state
	.cfi_restore 1
	lw	s0,40(sp)
	.cfi_restore 8
	.cfi_def_cfa 2, 48
	mv	a0,a1
	addi	sp,sp,48
	.cfi_def_cfa_offset 0
	jr	ra
.LVL4:
.L2:
	.cfi_restore_state
	sw	a0,-36(s0)
	.loc 1 22 5 is_stmt 1
	lui	a0,%hi(.LC1)
.LVL5:
	addi	a0,a0,%lo(.LC1)
	call	printf
.LVL6:
	lw	a1,-36(s0)
	.loc 1 23 5
	.loc 1 23 12 is_stmt 0
	j	.L1
	.cfi_endproc
.LFE67:
	.size	ble_adv_start, .-ble_adv_start
	.section	.rodata.ble_adv_stop.str1.4,"aMS",@progbits,1
	.align	2
.LC2:
	.string	">>> stop done\r\n"
	.section	.text.ble_adv_stop,"ax",@progbits
	.align	1
	.globl	ble_adv_stop
	.type	ble_adv_stop, @function
ble_adv_stop:
.LFB68:
	.loc 1 26 23 is_stmt 1
	.cfi_startproc
	.loc 1 27 5
	.loc 1 26 23 is_stmt 0
	addi	sp,sp,-16
	.cfi_def_cfa_offset 16
	sw	s0,8(sp)
	sw	ra,12(sp)
	.cfi_offset 8, -8
	.cfi_offset 1, -4
	addi	s0,sp,16
	.cfi_def_cfa 8, 0
	.loc 1 27 5
	lui	a0,%hi(.LC2)
	.loc 1 26 23
	.loc 1 27 5
	addi	a0,a0,%lo(.LC2)
	call	printf
.LVL7:
	.loc 1 28 5 is_stmt 1
	.loc 1 29 1 is_stmt 0
	lw	s0,8(sp)
	.cfi_restore 8
	.cfi_def_cfa 2, 16
	lw	ra,12(sp)
	.cfi_restore 1
	addi	sp,sp,16
	.cfi_def_cfa_offset 0
	.loc 1 28 12
	tail	bt_le_adv_stop
.LVL8:
	.cfi_endproc
.LFE68:
	.size	ble_adv_stop, .-ble_adv_stop
	.section	.rodata.str1.4,"aMS",@progbits,1
	.align	2
.LC3:
	.string	"HNN_intern"
	.section	.rodata.adv_data,"a"
	.align	2
	.set	.LANCHOR0,. + 0
	.type	adv_data, @object
	.size	adv_data, 16
adv_data:
	.byte	1
	.byte	1
	.zero	2
	.word	__compound_literal.1
	.byte	9
	.byte	10
	.zero	2
	.word	.LC3
	.section	.sdata.__compound_literal.1,"aw"
	.align	2
	.type	__compound_literal.1, @object
	.size	__compound_literal.1, 1
__compound_literal.1:
	.byte	6
	.text
.Letext0:
	.file 2 "/home/quanghaictu/intern/Ai-Thinker-WB2/components/network/ble/blestack/src/common/include/zephyr/types.h"
	.file 3 "/home/quanghaictu/intern/Ai-Thinker-WB2/components/network/ble/blestack/src/port/include/zephyr.h"
	.file 4 "/home/quanghaictu/intern/Ai-Thinker-WB2/components/network/ble/blestack/src/include/bluetooth/bluetooth.h"
	.file 5 "/home/quanghaictu/intern/Ai-Thinker-WB2/toolchain/riscv/Linux/riscv64-unknown-elf/include/stdio.h"