	.file	"ble_gatt.c"
	.option nopic
	.attribute arch, "rv32i2p0_m2p0_f2p0_c2p0"
	.attribute unaligned_access, 0
	.attribute stack_align, 16
	.text
.Ltext0:
	.cfi_sections	.debug_frame
	.section	.rodata.ble_wifi_init.str1.4,"aMS",@progbits,1
	.align	2
.LC0:
	.string	">>> init gatt done\r\n"
	.section	.text.ble_wifi_init,"ax",@progbits
	.align	1
	.globl	ble_wifi_init
	.type	ble_wifi_init, @function
ble_wifi_init:
.LFB73:
	.file 1 "/home/quanghaictu/intern/Ai-Thinker-WB2/datic/components/middle/ble/ble_gatt.c"
	.loc 1 44 25
	.cfi_startproc
	.loc 1 46 5
	.loc 1 44 25 is_stmt 0
	addi	sp,sp,-16
	.cfi_def_cfa_offset 16
	sw	ra,12(sp)
	sw	s0,8(sp)
	.loc 1 46 5
	lui	a0,%hi(.LANCHOR0)
	.cfi_offset 1, -4
	.cfi_offset 8, -8
	.loc 1 44 25
	addi	s0,sp,16
	.cfi_def_cfa 8, 0
	.loc 1 46 5
	li	a2,33
	li	a1,0
	addi	a0,a0,%lo(.LANCHOR0)
	call	memset
.LVL0:
	.loc 1 47 5 is_stmt 1
	lui	a0,%hi(.LANCHOR1)
	li	a2,65
	li	a1,0
	addi	a0,a0,%lo(.LANCHOR1)
	call	memset
.LVL1:
	.loc 1 48 5
	.loc 1 48 19 is_stmt 0
	lui	a5,%hi(.LANCHOR2)
	.loc 1 50 5
	lui	a0,%hi(.LANCHOR4)
	.loc 1 48 19
	sb	zero,%lo(.LANCHOR2)(a5)
	.loc 1 49 5 is_stmt 1
	.loc 1 50 5 is_stmt 0
	addi	a0,a0,%lo(.LANCHOR4)
	.loc 1 49 19
	lui	a5,%hi(.LANCHOR3)
	sb	zero,%lo(.LANCHOR3)(a5)
	.loc 1 50 5 is_stmt 1
	call	bt_gatt_service_register
.LVL2:
	.loc 1 51 5
	.loc 1 52 1 is_stmt 0
	lw	s0,8(sp)
	.cfi_restore 8
	.cfi_def_cfa 2, 16
	lw	ra,12(sp)
	.cfi_restore 1
	.loc 1 51 5
	lui	a0,%hi(.LC0)
	.loc 1 52 1
	.loc 1 51 5
	addi	a0,a0,%lo(.LC0)
	.loc 1 52 1
	addi	sp,sp,16
	.cfi_def_cfa_offset 0
	.loc 1 51 5
	tail	printf
.LVL3:
	.cfi_endproc
.LFE73:
	.size	ble_wifi_init, .-ble_wifi_init
	.section	.text.ble_wifi_notify_status,"ax",@progbits
	.align	1
	.globl	ble_wifi_notify_status
	.type	ble_wifi_notify_status, @function
ble_wifi_notify_status:
.LFB77:
	.loc 1 103 50 is_stmt 1
	.cfi_startproc
.LVL4:
	.loc 1 104 5
	.loc 1 103 50 is_stmt 0
	addi	sp,sp,-16
	.cfi_def_cfa_offset 16
	sw	s0,12(sp)
	.cfi_offset 8, -4
	addi	s0,sp,16
	.cfi_def_cfa 8, 0
	.loc 1 108 1
	lw	s0,12(sp)
	.cfi_restore 8
	.cfi_def_cfa 2, 16
	addi	sp,sp,16
	.cfi_def_cfa_offset 0
	jr	ra
	.cfi_endproc
.LFE77:
	.size	ble_wifi_notify_status, .-ble_wifi_notify_status
	.section	.rodata.wifi_status_ccc_changed.str1.4,"aMS",@progbits,1
	.align	2
.LC1:
	.string	"[BLE] Notify enabled\r\n"
	.section	.text.wifi_status_ccc_changed,"ax",@progbits
	.align	1
	.type	wifi_status_ccc_changed, @function
wifi_status_ccc_changed:
.LFB74:
	.loc 1 57 1 is_stmt 1
	.cfi_startproc
.LVL5:
	.loc 1 58 5
	.loc 1 57 1 is_stmt 0
	addi	sp,sp,-16
	.cfi_def_cfa_offset 16
	sw	s0,12(sp)
	.cfi_offset 8, -4
	addi	s0,sp,16
	.cfi_def_cfa 8, 0
	.loc 1 58 8
	li	a5,1
	bne	a1,a5,.L5
.LVL6:
.LBB6:
.LBB7:
	.loc 1 59 9 is_stmt 1
.LBE7:
.LBE6:
	.loc 1 62 1 is_stmt 0
	lw	s0,12(sp)
	.cfi_remember_state
	.cfi_restore 8
	.cfi_def_cfa 2, 16
.LBB10:
.LBB8:
	.loc 1 59 9
	lui	a0,%hi(.LC1)
.LVL7:
	addi	a0,a0,%lo(.LC1)
.LBE8:
.LBE10:
	.loc 1 62 1
	addi	sp,sp,16
	.cfi_def_cfa_offset 0
.LBB11:
.LBB9:
	.loc 1 59 9
	tail	printf
.LVL8:
.L5:
	.cfi_restore_state
.LBE9:
.LBE11:
	.loc 1 62 1
	lw	s0,12(sp)
	.cfi_restore 8
	.cfi_def_cfa 2, 16
	addi	sp,sp,16
	.cfi_def_cfa_offset 0
	jr	ra
	.cfi_endproc
.LFE74:
	.size	wifi_status_ccc_changed, .-wifi_status_ccc_changed
	.section	.rodata.wifi_pass_write_cb.str1.4,"aMS",@progbits,1
	.align	2
.LC2:
	.string	"[DATA] %s , len: %d\r\n"
	.section	.text.wifi_pass_write_cb,"ax",@progbits
	.align	1
	.type	wifi_pass_write_cb, @function
wifi_pass_write_cb:
.LFB76:
	.loc 1 87 1 is_stmt 1
	.cfi_startproc
.LVL9:
	.loc 1 88 5
	.loc 1 87 1 is_stmt 0
	addi	sp,sp,-32
	.cfi_def_cfa_offset 32
	sw	s0,24(sp)
	sw	s1,20(sp)
	sw	ra,28(sp)
	sw	s2,16(sp)
	sw	s3,12(sp)
	.cfi_offset 8, -8
	.cfi_offset 9, -12
	.cfi_offset 1, -4
	.cfi_offset 18, -16
	.cfi_offset 19, -20
	addi	s0,sp,32
	.cfi_def_cfa 8, 0
	.loc 1 88 7
	li	a5,64
.LVL10:
	.loc 1 87 1
	mv	s1,a3
	.loc 1 88 7
	bgtu	a3,a5,.L8
	.loc 1 92 9
	lui	s2,%hi(.LANCHOR1)
	mv	a1,a2
.LVL11:
	.loc 1 92 9 is_stmt 1
	addi	a0,s2,%lo(.LANCHOR1)
.LVL12:
	mv	a2,a3
.LVL13:
	call	memcpy
.LVL14:
	.loc 1 93 9
	.loc 1 92 9 is_stmt 0
	addi	s3,s2,%lo(.LANCHOR1)
	.loc 1 93 24
	add	s3,s3,s1
	.loc 1 95 9
	lui	a0,%hi(.LC2)
	.loc 1 94 23
	lui	a5,%hi(.LANCHOR2)
	li	a4,1
	.loc 1 93 24
	sb	zero,0(s3)
	.loc 1 94 9 is_stmt 1
	.loc 1 95 9 is_stmt 0
	mv	a2,s1
	addi	a1,s2,%lo(.LANCHOR1)
	addi	a0,a0,%lo(.LC2)
	.loc 1 94 23
	sb	a4,%lo(.LANCHOR2)(a5)
	.loc 1 95 9 is_stmt 1
	call	printf
.LVL15:
	.loc 1 98 5
.L8:
	.loc 1 100 1 is_stmt 0
	lw	ra,28(sp)
	.cfi_restore 1
	lw	s0,24(sp)
	.cfi_restore 8
	.cfi_def_cfa 2, 32
	lw	s2,16(sp)
	.cfi_restore 18
	lw	s3,12(sp)
	.cfi_restore 19
	mv	a0,s1
	lw	s1,20(sp)
	.cfi_restore 9
	addi	sp,sp,32
	.cfi_def_cfa_offset 0
	jr	ra
	.cfi_endproc
.LFE76:
	.size	wifi_pass_write_cb, .-wifi_pass_write_cb
	.section	.text.wifi_ssid_write_cb,"ax",@progbits
	.align	1
	.type	wifi_ssid_write_cb, @function
wifi_ssid_write_cb:
.LFB75:
	.loc 1 68 1 is_stmt 1
	.cfi_startproc
.LVL16:
	.loc 1 69 5
	.loc 1 68 1 is_stmt 0
	addi	sp,sp,-32
	.cfi_def_cfa_offset 32
	sw	s0,24(sp)
	sw	s1,20(sp)
	sw	ra,28(sp)
	sw	s2,16(sp)
	sw	s3,12(sp)
	.cfi_offset 8, -8
	.cfi_offset 9, -12
	.cfi_offset 1, -4
	.cfi_offset 18, -16
	.cfi_offset 19, -20
	addi	s0,sp,32
	.cfi_def_cfa 8, 0
	.loc 1 69 7
	li	a5,32
.LVL17:
	.loc 1 68 1
	mv	s1,a3
	.loc 1 69 7
	bgtu	a3,a5,.L11
	.loc 1 73 9
	lui	s2,%hi(.LANCHOR0)
	mv	a1,a2
.LVL18:
	.loc 1 73 9 is_stmt 1
	addi	a0,s2,%lo(.LANCHOR0)
.LVL19:
	mv	a2,a3
.LVL20:
	call	memcpy
.LVL21:
	.loc 1 74 9
	.loc 1 73 9 is_stmt 0
	addi	s3,s2,%lo(.LANCHOR0)
	.loc 1 74 24
	add	s3,s3,s1
	.loc 1 76 9
	lui	a0,%hi(.LC2)
	.loc 1 75 23
	lui	a5,%hi(.LANCHOR2)
	li	a4,1
	.loc 1 74 24
	sb	zero,0(s3)
	.loc 1 75 9 is_stmt 1
	.loc 1 76 9 is_stmt 0
	mv	a2,s1
	addi	a1,s2,%lo(.LANCHOR0)
	addi	a0,a0,%lo(.LC2)
	.loc 1 75 23
	sb	a4,%lo(.LANCHOR2)(a5)
	.loc 1 76 9 is_stmt 1
	call	printf
.LVL22:
	.loc 1 79 5
.L11:
	.loc 1 81 1 is_stmt 0
	lw	ra,28(sp)
	.cfi_restore 1
	lw	s0,24(sp)
	.cfi_restore 8
	.cfi_def_cfa 2, 32
	lw	s2,16(sp)
	.cfi_restore 18
	lw	s3,12(sp)
	.cfi_restore 19
	mv	a0,s1
	lw	s1,20(sp)
	.cfi_restore 9
	addi	sp,sp,32
	.cfi_def_cfa_offset 0
	jr	ra
	.cfi_endproc
.LFE75:
	.size	wifi_ssid_write_cb, .-wifi_ssid_write_cb
	.section	.rodata.ble_wifi_is_config_ready.str1.4,"aMS",@progbits,1
	.align	2
.LC3:
	.string	">>> wifi connected\r\n"
	.align	2
.LC4:
	.string	">>> please check ssid and password \r\n"
	.section	.text.ble_wifi_is_config_ready,"ax",@progbits
	.align	1
	.globl	ble_wifi_is_config_ready
	.type	ble_wifi_is_config_ready, @function
ble_wifi_is_config_ready:
.LFB78:
	.loc 1 110 35 is_stmt 1
	.cfi_startproc
	.loc 1 111 5
	.loc 1 110 35 is_stmt 0
	addi	sp,sp,-16
	.cfi_def_cfa_offset 16
	sw	s0,8(sp)
	sw	ra,12(sp)
	sw	s1,4(sp)
	.cfi_offset 8, -8
	.cfi_offset 1, -4
	.cfi_offset 9, -12
	addi	s0,sp,16
	.cfi_def_cfa 8, 0
	.loc 1 111 7
	lui	a5,%hi(.LANCHOR2)
	lbu	a5,%lo(.LANCHOR2)(a5)
	beq	a5,zero,.L15
	.loc 1 111 22 discriminator 1
	lui	a5,%hi(.LANCHOR3)
	lbu	s1,%lo(.LANCHOR3)(a5)
	beq	s1,zero,.L15
	.loc 1 112 9 is_stmt 1
	lui	a0,%hi(.LC3)
	addi	a0,a0,%lo(.LC3)
	call	printf
.LVL23:
	.loc 1 113 9
	.loc 1 114 9
.L16:
	.loc 1 121 1 is_stmt 0
	lw	ra,12(sp)
	.cfi_remember_state
	.cfi_restore 1
	lw	s0,8(sp)
	.cfi_restore 8
	.cfi_def_cfa 2, 16
	mv	a0,s1
	lw	s1,4(sp)
	.cfi_restore 9
	addi	sp,sp,16
	.cfi_def_cfa_offset 0
	jr	ra
.L15:
	.cfi_restore_state
	.loc 1 117 9 is_stmt 1
	lui	a0,%hi(.LC4)
	addi	a0,a0,%lo(.LC4)
	call	printf
.LVL24:
	.loc 1 118 9
	.loc 1 119 9
	.loc 1 119 15 is_stmt 0
	li	s1,0
	j	.L16
	.cfi_endproc
.LFE78:
	.size	ble_wifi_is_config_ready, .-ble_wifi_is_config_ready
	.section	.text.ble_wifi_get_ssid,"ax",@progbits
	.align	1
	.globl	ble_wifi_get_ssid
	.type	ble_wifi_get_ssid, @function
ble_wifi_get_ssid:
.LFB79:
	.loc 1 123 36 is_stmt 1
	.cfi_startproc
	.loc 1 124 5
	.loc 1 123 36 is_stmt 0
	addi	sp,sp,-16
	.cfi_def_cfa_offset 16
	sw	s0,12(sp)
	.cfi_offset 8, -4
	addi	s0,sp,16
	.cfi_def_cfa 8, 0
	.loc 1 126 1
	lw	s0,12(sp)
	.cfi_restore 8
	.cfi_def_cfa 2, 16
	.loc 1 124 12
	lui	a0,%hi(.LANCHOR0)
	.loc 1 126 1
	addi	a0,a0,%lo(.LANCHOR0)
	addi	sp,sp,16
	.cfi_def_cfa_offset 0
	jr	ra
	.cfi_endproc
.LFE79:
	.size	ble_wifi_get_ssid, .-ble_wifi_get_ssid
	.section	.text.ble_wifi_get_pass,"ax",@progbits
	.align	1
	.globl	ble_wifi_get_pass
	.type	ble_wifi_get_pass, @function
ble_wifi_get_pass:
.LFB80:
	.loc 1 128 36 is_stmt 1
	.cfi_startproc
	.loc 1 129 9
	.loc 1 128 36 is_stmt 0
	addi	sp,sp,-16
	.cfi_def_cfa_offset 16
	sw	s0,12(sp)
	.cfi_offset 8, -4
	addi	s0,sp,16
	.cfi_def_cfa 8, 0
	.loc 1 130 1
	lw	s0,12(sp)
	.cfi_restore 8
	.cfi_def_cfa 2, 16
	.loc 1 129 16
	lui	a0,%hi(.LANCHOR1)
	.loc 1 130 1
	addi	a0,a0,%lo(.LANCHOR1)
	addi	sp,sp,16
	.cfi_def_cfa_offset 0
	jr	ra
	.cfi_endproc
.LFE80:
	.size	ble_wifi_get_pass, .-ble_wifi_get_pass
	.section	.bss.wifi_pass,"aw",@nobits
	.align	2
	.set	.LANCHOR1,. + 0
	.type	wifi_pass, @object
	.size	wifi_pass, 65
wifi_pass:
	.zero	65
	.section	.bss.wifi_ssid,"aw",@nobits
	.align	2
	.set	.LANCHOR0,. + 0
	.type	wifi_ssid, @object
	.size	wifi_ssid, 33
wifi_ssid:
	.zero	33
	.section	.data.__compound_literal.1,"aw"
	.align	2
	.type	__compound_literal.1, @object
	.size	__compound_literal.1, 17
__compound_literal.1:
	.byte	2
	.byte	85
	.byte	-28
	.byte	5
	.byte	-46
	.byte	-81
	.byte	-97
	.byte	-87
	.byte	-113
	.byte	-27
	.byte	74
	.byte	0
	.byte	16
	.byte	87
	.byte	70
	.byte	83
	.byte	85
	.section	.data.__compound_literal.11,"aw"
	.align	2
	.type	__compound_literal.11, @object
	.size	__compound_literal.11, 17
__compound_literal.11:
	.byte	2
	.byte	85
	.byte	-28
	.byte	5
	.byte	-46
	.byte	-81
	.byte	-97
	.byte	-87
	.byte	-113
	.byte	-27
	.byte	74
	.byte	3
	.byte	16
	.byte	87
	.byte	70
	.byte	83
	.byte	85
	.section	.data.__compound_literal.13,"aw"
	.align	2
	.type	__compound_literal.13, @object
	.size	__compound_literal.13, 17
__compound_literal.13:
	.byte	2
	.byte	85
	.byte	-28
	.byte	5
	.byte	-46
	.byte	-81
	.byte	-97
	.byte	-87
	.byte	-113
	.byte	-27
	.byte	74
	.byte	3
	.byte	16
	.byte	87
	.byte	70
	.byte	83
	.byte	85
	.section	.data.__compound_literal.15,"aw"
	.align	2
	.type	__compound_literal.15, @object
	.size	__compound_literal.15, 24
__compound_literal.15:
	.zero	10
	.zero	2
	.word	wifi_status_ccc_changed
	.word	0
	.word	0
	.section	.data.__compound_literal.3,"aw"
	.align	2
	.type	__compound_literal.3, @object
	.size	__compound_literal.3, 17
__compound_literal.3:
	.byte	2
	.byte	85
	.byte	-28
	.byte	5
	.byte	-46
	.byte	-81
	.byte	-97
	.byte	-87
	.byte	-113
	.byte	-27
	.byte	74
	.byte	1
	.byte	16
	.byte	87
	.byte	70
	.byte	83
	.byte	85
	.section	.data.__compound_literal.5,"aw"
	.align	2
	.type	__compound_literal.5, @object
	.size	__compound_literal.5, 17
__compound_literal.5:
	.byte	2
	.byte	85
	.byte	-28
	.byte	5
	.byte	-46
	.byte	-81
	.byte	-97
	.byte	-87
	.byte	-113
	.byte	-27
	.byte	74
	.byte	1
	.byte	16
	.byte	87
	.byte	70
	.byte	83
	.byte	85
	.section	.data.__compound_literal.7,"aw"
	.align	2
	.type	__compound_literal.7, @object
	.size	__compound_literal.7, 17
__compound_literal.7:
	.byte	2
	.byte	85
	.byte	-28
	.byte	5
	.byte	-46
	.byte	-81
	.byte	-97
	.byte	-87
	.byte	-113
	.byte	-27
	.byte	74
	.byte	2
	.byte	16
	.byte	87
	.byte	70
	.byte	83
	.byte	85
	.section	.data.__compound_literal.9,"aw"
	.align	2
	.type	__compound_literal.9, @object
	.size	__compound_literal.9, 17
__compound_literal.9:
	.byte	2
	.byte	85
	.byte	-28
	.byte	5
	.byte	-46
	.byte	-81
	.byte	-97
	.byte	-87
	.byte	-113
	.byte	-27
	.byte	74
	.byte	2
	.byte	16
	.byte	87
	.byte	70
	.byte	83
	.byte	85
	.section	.data.ble_gatt_attrs,"aw"
	.align	2
	.type	ble_gatt_attrs, @object
	.size	ble_gatt_attrs, 160
ble_gatt_attrs:
	.word	__compound_literal.0
	.word	bt_gatt_attr_read_service
	.word	0
	.word	__compound_literal.1
	.half	0
	.byte	1
	.zero	1
	.word	__compound_literal.2
	.word	bt_gatt_attr_read_chrc
	.word	0
	.word	__compound_literal.4
	.half	0
	.byte	1
	.zero	1
	.word	__compound_literal.5
	.word	0
	.word	wifi_ssid_write_cb
	.word	0
	.half	0
	.byte	2
	.zero	1
	.word	__compound_literal.6
	.word	bt_gatt_attr_read_chrc
	.word	0
	.word	__compound_literal.8
	.half	0
	.byte	1
	.zero	1
	.word	__compound_literal.9
	.word	0
	.word	wifi_pass_write_cb
	.word	0
	.half	0
	.byte	2
	.zero	1
	.word	__compound_literal.10
	.word	bt_gatt_attr_read_chrc
	.word	0
	.word	__compound_literal.12
	.half	0
	.byte	1
	.zero	1
	.word	__compound_literal.13
	.word	0
	.word	0
	.word	0
	.half	0
	.byte	0
	.zero	1
	.word	__compound_literal.14
	.word	bt_gatt_attr_read_ccc
	.word	bt_gatt_attr_write_ccc
	.word	__compound_literal.15
	.half	0
	.byte	3
	.zero	1
	.section	.data.ble_wifi_service,"aw"
	.align	2
	.set	.LANCHOR4,. + 0
	.type	ble_wifi_service, @object
	.size	ble_wifi_service, 12
ble_wifi_service:
	.word	ble_gatt_attrs
	.word	8
	.zero	4
	.section	.sbss.pass_received,"aw",@nobits
	.set	.LANCHOR3,. + 0
	.type	pass_received, @object
	.size	pass_received, 1
pass_received:
	.zero	1
	.section	.sbss.ssid_received,"aw",@nobits
	.set	.LANCHOR2,. + 0
	.type	ssid_received, @object
	.size	ssid_received, 1
ssid_received:
	.zero	1
	.section	.sdata.__compound_literal.0,"aw"
	.align	2
	.type	__compound_literal.0, @object
	.size	__compound_literal.0, 4
__compound_literal.0:
	.byte	0
	.zero	1
	.half	10240
	.section	.sdata.__compound_literal.10,"aw"
	.align	2
	.type	__compound_literal.10, @object
	.size	__compound_literal.10, 4
__compound_literal.10:
	.byte	0
	.zero	1
	.half	10243
	.section	.sdata.__compound_literal.12,"aw"
	.align	2
	.type	__compound_literal.12, @object
	.size	__compound_literal.12, 8
__compound_literal.12:
	.word	__compound_literal.11
	.half	0
	.byte	16
	.zero	1
	.section	.sdata.__compound_literal.14,"aw"
	.align	2
	.type	__compound_literal.14, @object
	.size	__compound_literal.14, 4
__compound_literal.14:
	.byte	0
	.zero	1
	.half	10498
	.section	.sdata.__compound_literal.2,"aw"
	.align	2
	.type	__compound_literal.2, @object
	.size	__compound_literal.2, 4
__compound_literal.2:
	.byte	0
	.zero	1
	.half	10243
	.section	.sdata.__compound_literal.4,"aw"
	.align	2
	.type	__compound_literal.4, @object
	.size	__compound_literal.4, 8
__compound_literal.4:
	.word	__compound_literal.3
	.half	0
	.byte	8
	.zero	1
	.section	.sdata.__compound_literal.6,"aw"
	.align	2
	.type	__compound_literal.6, @object
	.size	__compound_literal.6, 4
__compound_literal.6:
	.byte	0
	.zero	1
	.half	10243
	.section	.sdata.__compound_literal.8,"aw"
	.align	2
	.type	__compound_literal.8, @object
	.size	__compound_literal.8, 8
__compound_literal.8:
	.word	__compound_literal.7
	.half	0
	.byte	8
	.zero	1
	.text
.Letext0:
	.file 2 "/home/quanghaictu/intern/Ai-Thinker-WB2/datic/components/middle/ble/ble_gatt.h"
	.file 3 "/home/quanghaictu/intern/Ai-Thinker-WB2/toolchain/riscv/Linux/lib/gcc/riscv64-unknown-elf/10.2.0/include/stddef.h"
	.file 4 "/home/quanghaictu/intern/Ai-Thinker-WB2/toolchain/riscv/Linux/riscv64-unknown-elf/include/sys/_types.h"
	.file 5 "/home/quanghaictu/intern/Ai-Thinker-WB2/toolchain/riscv/Linux/riscv64-unknown-elf/include/sys/types.h"
	.file 6 "/home/quanghaictu/intern/Ai-Thinker-WB2/components/network/ble/blestack/src/common/include/zephyr/types.h"
	.file 7 "/home/quanghaictu/intern/Ai-Thinker-WB2/components/network/ble/blestack/src/common/include/misc/slist.h"
	.file 8 "/home/quanghaictu/intern/Ai-Thinker-WB2/components/network/ble/blestack/src/port/include/zephyr.h"
	.file 9 "/home/quanghaictu/intern/Ai-Thinker-WB2/components/network/ble/blestack/src/include/bluetooth/addr.h"
	.file 10 "/home/quanghaictu/intern/Ai-Thinker-WB2/components/network/ble/blestack/src/include/bluetooth/uuid.h"
	.file 11 "/home/quanghaictu/intern/Ai-Thinker-WB2/components/network/ble/blestack/src/include/bluetooth/gatt.h"
	.file 12 "/home/quanghaictu/intern/Ai-Thinker-WB2/toolchain/riscv/Linux/riscv64-unknown-elf/include/stdio.h"
	.file 13 "/home/quanghaictu/intern/Ai-Thinker-WB2/toolchain/riscv/Linux/riscv64-unknown-elf/include/string.h"