	.file	"ble_central_api.c"
	.option nopic
	.attribute arch, "rv32i2p0_m2p0_f2p0_c2p0"
	.attribute unaligned_access, 0
	.attribute stack_align, 16
	.text
.Ltext0:
	.cfi_sections	.debug_frame
	.section	.text.ble_master_disconn_cb,"ax",@progbits
	.align	1
	.type	ble_master_disconn_cb, @function
ble_master_disconn_cb:
.LFB77:
	.file 1 "/home/dinhquangha/intern/Ai-Thinker-WB2/datic/components/middle/ble/ble_central_api.c"
	.loc 1 245 1
	.cfi_startproc
.LVL0:
	.loc 1 246 5
	.loc 1 245 1 is_stmt 0
	addi	sp,sp,-16
	.cfi_def_cfa_offset 16
	sw	s0,8(sp)
	sw	ra,12(sp)
	.cfi_offset 8, -8
	.cfi_offset 1, -4
	addi	s0,sp,16
	.cfi_def_cfa 8, 0
	.loc 1 246 11
	lui	a5,%hi(pconn)
	.loc 1 245 1
	mv	a2,a0
	.loc 1 246 11
	sw	a0,%lo(pconn)(a5)
	.loc 1 247 2 is_stmt 1
	li	a1,2
.LVL1:
	li	a0,4096
.LVL2:
	call	aos_post_event
.LVL3:
	.loc 1 249 5
	.loc 1 250 1 is_stmt 0
	lw	ra,12(sp)
	.cfi_restore 1
	lw	s0,8(sp)
	.cfi_restore 8
	.cfi_def_cfa 2, 16
	li	a0,0
	addi	sp,sp,16
	.cfi_def_cfa_offset 0
	jr	ra
	.cfi_endproc
.LFE77:
	.size	ble_master_disconn_cb, .-ble_master_disconn_cb
	.section	.rodata._ble_autoconn_task.str1.4,"aMS",@progbits,1
	.align	2
.LC0:
	.string	"[BLE] autoconn take Semaphore fail\r\n"
	.align	2
.LC1:
	.string	"send ok\r\n"
	.align	2
.LC2:
	.string	"Connection failed\r\n"
	.align	2
.LC3:
	.string	"Connection pending\r\n"
	.section	.text._ble_autoconn_task,"ax",@progbits
	.align	1
	.type	_ble_autoconn_task, @function
_ble_autoconn_task:
.LFB80:
	.loc 1 349 1 is_stmt 1
	.cfi_startproc
	addi	sp,sp,-64
	.cfi_def_cfa_offset 64
	sw	s2,48(sp)
	.cfi_offset 18, -16
.LBB6:
.LBB7:
	.loc 1 194 9 is_stmt 0
	lui	s2,%hi(.LANCHOR1)
.LBE7:
.LBE6:
	.loc 1 349 1
	sw	s0,56(sp)
	sw	s3,44(sp)
	sw	s4,40(sp)
	sw	s5,36(sp)
	sw	s6,32(sp)
	sw	s7,28(sp)
	sw	ra,60(sp)
	sw	s1,52(sp)
	.cfi_offset 8, -8
	.cfi_offset 19, -20
	.cfi_offset 20, -24
	.cfi_offset 21, -28
	.cfi_offset 22, -32
	.cfi_offset 23, -36
	.cfi_offset 1, -4
	.cfi_offset 9, -12
	addi	s0,sp,64
	.cfi_def_cfa 8, 0
.LBB11:
.LBB8:
	.loc 1 174 29
	li	s3,2621440
	.loc 1 194 9
	addi	s2,s2,%lo(.LANCHOR1)
.LBE8:
.LBE11:
	.loc 1 349 1
	.loc 1 352 41
	lui	s4,%hi(.LANCHOR0)
	.loc 1 356 9
	lui	s5,%hi(.LC1)
.LBB12:
.LBB9:
	.loc 1 174 29
	addi	s3,s3,24
	.loc 1 194 9
	addi	s6,s2,2
	lui	s7,%hi(.LANCHOR2)
.L9:
.LBE9:
.LBE12:
	.loc 1 350 5 is_stmt 1
	.loc 1 352 9
	.loc 1 352 41 is_stmt 0
	lw	a0,%lo(.LANCHOR0)(s4)
	li	a1,-1
	call	xQueueSemaphoreTake
.LVL4:
	.loc 1 352 12
	bne	a0,zero,.L4
	.loc 1 353 13 is_stmt 1
	lui	a0,%hi(.LC0)
	addi	a0,a0,%lo(.LC0)
	call	printf
.LVL5:
	.loc 1 354 13
	.loc 1 360 5
	.loc 1 361 1 is_stmt 0
	lw	s0,56(sp)
	.cfi_remember_state
	.cfi_restore 8
	.cfi_def_cfa 2, 64
	lw	ra,60(sp)
	.cfi_restore 1
	lw	s1,52(sp)
	.cfi_restore 9
	lw	s2,48(sp)
	.cfi_restore 18
	lw	s3,44(sp)
	.cfi_restore 19
	lw	s4,40(sp)
	.cfi_restore 20
	lw	s5,36(sp)
	.cfi_restore 21
	lw	s6,32(sp)
	.cfi_restore 22
	lw	s7,28(sp)
	.cfi_restore 23
	.loc 1 360 5
	li	a0,0
	.loc 1 361 1
	addi	sp,sp,64
	.cfi_def_cfa_offset 0
	.loc 1 360 5
	tail	vTaskDelete
.LVL6:
.L4:
	.cfi_restore_state
	.loc 1 356 9 is_stmt 1
	addi	a0,s5,%lo(.LC1)
	call	bleuart_printf
.LVL7:
	.loc 1 357 9
.LBB13:
.LBB10:
	.loc 1 168 5
	.loc 1 169 5
	.loc 1 170 5
	.loc 1 171 5
	.loc 1 172 5
	.loc 1 173 5
	.loc 1 174 5
	.loc 1 175 5
	.loc 1 176 5
	.loc 1 194 9 is_stmt 0
	li	a0,200704
	.loc 1 176 24
	li	a5,26214400
	.loc 1 194 9
	addi	a3,s0,-64
	mv	a2,s2
	mv	a1,s6
	addi	a0,a0,-704
	.loc 1 174 29
	sw	s3,-56(s0)
	.loc 1 176 24
	sw	a5,-52(s0)
	.loc 1 179 5 is_stmt 1
.LVL8:
	.loc 1 183 5
	.loc 1 188 5
	.loc 1 194 5
	.loc 1 194 9 is_stmt 0
	call	ble_master_find_target
.LVL9:
	addi	s1,s7,%lo(.LANCHOR2)
	.loc 1 194 8
	beq	a0,zero,.L5
	.loc 1 196 9 is_stmt 1
	lw	a0,0(s1)
	call	vTaskDelay
.LVL10:
	.loc 1 197 9
	.loc 1 197 31 is_stmt 0
	lw	a5,0(s1)
	.loc 1 197 12
	li	a4,28672
	addi	a4,a4,1327
	bgtu	a5,a4,.L11
	.loc 1 199 13 is_stmt 1
	.loc 1 199 31 is_stmt 0
	addi	a5,a5,1000
	sw	a5,0(s1)
	.loc 1 201 9 is_stmt 1
.L11:
	.loc 1 211 9
	li	a2,0
	li	a1,16
	li	a0,4096
	call	aos_post_event
.LVL11:
	.loc 1 212 9
	j	.L9
.L5:
	.loc 1 206 5
	.loc 1 206 23 is_stmt 0
	li	a5,1000
	.loc 1 207 12
	addi	a1,s0,-56
	addi	a0,s0,-64
	.loc 1 206 23
	sw	a5,0(s1)
	.loc 1 207 5 is_stmt 1
	.loc 1 207 12 is_stmt 0
	call	bt_conn_create_le
.LVL12:
	mv	s1,a0
.LVL13:
	.loc 1 208 5 is_stmt 1
	.loc 1 208 8 is_stmt 0
	bne	a0,zero,.L8
	.loc 1 210 9 is_stmt 1
	lui	a0,%hi(.LC2)
	addi	a0,a0,%lo(.LC2)
	call	printf
.LVL14:
	j	.L11
.L8:
	.loc 1 216 9
	lui	a0,%hi(.LC3)
	addi	a0,a0,%lo(.LC3)
	call	printf
.LVL15:
	.loc 1 219 5
	.loc 1 219 33 is_stmt 0
	lui	a5,%hi(.LANCHOR3)
	lw	a0,%lo(.LANCHOR3)(a5)
	li	a1,4096
	addi	a1,a1,-1096
	call	xQueueSemaphoreTake
.LVL16:
	.loc 1 219 8
	bne	a0,zero,.L9
	.loc 1 221 9 is_stmt 1
	li	a1,19
	mv	a0,s1
	call	bt_conn_disconnect
.LVL17:
	j	.L9
.LBE10:
.LBE13:
	.cfi_endproc
.LFE80:
	.size	_ble_autoconn_task, .-_ble_autoconn_task
	.section	.rodata.ble_master_conn_cb.str1.4,"aMS",@progbits,1
	.align	2
.LC4:
	.string	"[BLE] connect fail(%u)\r\n"
	.section	.text.ble_master_conn_cb,"ax",@progbits
	.align	1
	.type	ble_master_conn_cb, @function
ble_master_conn_cb:
.LFB76:
	.loc 1 226 1
	.cfi_startproc
.LVL18:
	.loc 1 227 5
	.loc 1 226 1 is_stmt 0
	addi	sp,sp,-16
	.cfi_def_cfa_offset 16
	sw	s0,8(sp)
	sw	s1,4(sp)
	sw	ra,12(sp)
	.cfi_offset 8, -8
	.cfi_offset 9, -12
	.cfi_offset 1, -4
	addi	s0,sp,16
	.cfi_def_cfa 8, 0
	.loc 1 226 1
	mv	s1,a0
	.loc 1 227 8
	beq	a1,zero,.L13
.LVL19:
.LBB16:
.LBB17:
	.loc 1 229 3 is_stmt 1
	lui	a0,%hi(.LC4)
.LVL20:
	addi	a0,a0,%lo(.LC4)
	call	printf
.LVL21:
	.loc 1 230 3
	mv	a0,s1
	call	bt_conn_unref
.LVL22:
	.loc 1 231 3
	.loc 1 230 3 is_stmt 0
	li	a0,-1
.L12:
.LBE17:
.LBE16:
	.loc 1 242 1
	lw	ra,12(sp)
	.cfi_remember_state
	.cfi_restore 1
	lw	s0,8(sp)
	.cfi_restore 8
	.cfi_def_cfa 2, 16
	lw	s1,4(sp)
	.cfi_restore 9
.LVL23:
	addi	sp,sp,16
	.cfi_def_cfa_offset 0
	jr	ra
.LVL24:
.L13:
	.cfi_restore_state
	.loc 1 233 5 is_stmt 1
	.loc 1 233 9 is_stmt 0
	lui	a5,%hi(.LANCHOR3)
	lw	a0,%lo(.LANCHOR3)(a5)
	.loc 1 233 8
	beq	a0,zero,.L15
	.loc 1 235 9 is_stmt 1
	li	a3,0
	li	a2,0
	call	xQueueGenericSend
.LVL25:
.L15:
	.loc 1 237 5
	.loc 1 237 11 is_stmt 0
	lui	a5,%hi(pconn)
	.loc 1 238 5
	mv	a0,s1
	.loc 1 237 11
	sw	s1,%lo(pconn)(a5)
	.loc 1 238 5 is_stmt 1
	call	bt_conn_ref
.LVL26:
	.loc 1 239 5
	mv	a2,s1
	li	a1,1
	li	a0,4096
	call	aos_post_event
.LVL27:
	.loc 1 241 5
	.loc 1 241 12 is_stmt 0
	li	a0,0
	j	.L12
	.cfi_endproc
.LFE76:
	.size	ble_master_conn_cb, .-ble_master_conn_cb
	.section	.rodata.notify_func.str1.4,"aMS",@progbits,1
	.align	2
.LC5:
	.string	"[BLE] notify(%d):%d\r\n"
	.section	.text.notify_func,"ax",@progbits
	.align	1
	.type	notify_func, @function
notify_func:
.LFB72:
	.loc 1 59 1 is_stmt 1
	.cfi_startproc
.LVL28:
	.loc 1 60 5
	.loc 1 60 11 is_stmt 0
	lui	a5,%hi(pconn)
	sw	a0,%lo(pconn)(a5)
	.loc 1 61 5 is_stmt 1
	.loc 1 61 8 is_stmt 0
	beq	a3,zero,.L26
	.loc 1 59 1
	addi	sp,sp,-32
	.cfi_def_cfa_offset 32
	sw	ra,28(sp)
	sw	s0,24(sp)
	sw	s1,20(sp)
	.cfi_offset 1, -4
	.cfi_offset 8, -8
	.cfi_offset 9, -12
	addi	s0,sp,32
	.cfi_def_cfa 8, 0
.LBB20:
.LBB21:
	.loc 1 63 9
	lhu	a1,36(a1)
.LVL29:
	lui	a0,%hi(.LC5)
.LVL30:
	mv	s1,a2
	addi	a0,a0,%lo(.LC5)
	mv	a2,a3
.LVL31:
	.loc 1 63 9 is_stmt 1
	sw	a3,-20(s0)
	call	printf
.LVL32:
	.loc 1 64 9
	lw	a2,-20(s0)
	lui	a0,%hi(ble_uart_dev)
	mv	a1,s1
	addi	a0,a0,%lo(ble_uart_dev)
	call	hosal_uart_send
.LVL33:
.LBE21:
.LBE20:
	.loc 1 66 5
	.loc 1 67 1 is_stmt 0
	lw	ra,28(sp)
	.cfi_restore 1
	lw	s0,24(sp)
	.cfi_restore 8
	.cfi_def_cfa 2, 32
	lw	s1,20(sp)
	.cfi_restore 9
.LVL34:
	li	a0,1
	addi	sp,sp,32
	.cfi_def_cfa_offset 0
	jr	ra
.LVL35:
.L26:
	.loc 1 66 5 is_stmt 1
	.loc 1 67 1 is_stmt 0
	li	a0,1
.LVL36:
	ret
	.cfi_endproc
.LFE72:
	.size	notify_func, .-notify_func
	.section	.rodata.event_cb_user_event.str1.4,"aMS",@progbits,1
	.align	2
.LC6:
	.string	"[BLE] master event init\r\n"
	.align	2
.LC7:
	.string	"[BLE] CONN event but conn is NULL!\r\n"
	.align	2
.LC8:
	.string	"+BLE_CONNECTED\r\n"
	.align	2
.LC9:
	.string	"[BLE] touchpad Subscribe failed (%d)\r\n"
	.align	2
.LC10:
	.string	"[BLE] touchpad SUBSCRIBED (value=0x000E, ccc=0x000F)\r\n"
	.align	2
.LC11:
	.string	"[BLE] write CCC(0x000F) failed (%d)\r\n"
	.align	2
.LC12:
	.string	"[BLE] CCC(0x000F) set to 0x0001\r\n"
	.align	2
.LC13:
	.string	"[BLE] Connection ready for notify + LED write\r\n"
	.align	2
.LC14:
	.string	"+BLE_DISCONNECTED\r\n"
	.align	2
.LC15:
	.string	"[BLE] Disconnect reason: conn=%p\r\n"
	.align	2
.LC16:
	.string	"+BLE_AUTOCONNECTED\r\n"
	.align	2
.LC17:
	.string	"[BLE] master event unknown code\r\n"
	.section	.text.event_cb_user_event,"ax",@progbits
	.align	1
	.type	event_cb_user_event, @function
event_cb_user_event:
.LFB79:
	.loc 1 261 1 is_stmt 1
	.cfi_startproc
.LVL37:
	.loc 1 262 5
	.loc 1 261 1 is_stmt 0
	addi	sp,sp,-128
	.cfi_def_cfa_offset 128
	sw	s0,120(sp)
	sw	ra,124(sp)
	sw	s1,116(sp)
	sw	s2,112(sp)
	sw	s3,108(sp)
	sw	s4,104(sp)
	.cfi_offset 8, -8
	.cfi_offset 1, -4
	.cfi_offset 9, -12
	.cfi_offset 18, -16
	.cfi_offset 19, -20
	.cfi_offset 20, -24
	addi	s0,sp,128
	.cfi_def_cfa 8, 0
	.loc 1 262 18
	lhu	a1,6(a0)
.LVL38:
	.loc 1 262 5
	li	a5,2
	beq	a1,a5,.L30
	bgtu	a1,a5,.L31
	bne	a1,zero,.L54
	.loc 1 265 13 is_stmt 1
	lui	a0,%hi(.LC6)
.LVL39:
	addi	a0,a0,%lo(.LC6)
.L59:
	.loc 1 346 1 is_stmt 0
	lw	s0,120(sp)
	.cfi_remember_state
	.cfi_restore 8
	.cfi_def_cfa 2, 128
	lw	ra,124(sp)
	.cfi_restore 1
	lw	s1,116(sp)
	.cfi_restore 9
	lw	s2,112(sp)
	.cfi_restore 18
	lw	s3,108(sp)
	.cfi_restore 19
	lw	s4,104(sp)
	.cfi_restore 20
	addi	sp,sp,128
	.cfi_def_cfa_offset 0
.LBB26:
	.loc 1 274 17
	tail	bleuart_printf
.LVL40:
.L31:
	.cfi_restore_state
.LBE26:
	.loc 1 262 5
	li	a5,16
	beq	a1,a5,.L34
	.loc 1 343 13 is_stmt 1
	.loc 1 346 1 is_stmt 0
	lw	s0,120(sp)
	.cfi_remember_state
	.cfi_restore 8
	.cfi_def_cfa 2, 128
	lw	ra,124(sp)
	.cfi_restore 1
	lw	s1,116(sp)
	.cfi_restore 9
	lw	s2,112(sp)
	.cfi_restore 18
	lw	s3,108(sp)
	.cfi_restore 19
	lw	s4,104(sp)
	.cfi_restore 20
	.loc 1 343 13
	lui	a0,%hi(.LC17)
.LVL41:
	.loc 1 346 1
	.loc 1 343 13
	addi	a0,a0,%lo(.LC17)
	.loc 1 346 1
	addi	sp,sp,128
	.cfi_def_cfa_offset 0
	.loc 1 343 13
	tail	printf
.LVL42:
.L54:
	.cfi_restore_state
.LBB29:
	.loc 1 269 13 is_stmt 1
	.loc 1 269 59 is_stmt 0
	lw	s1,8(a0)
.LVL43:
	.loc 1 270 13 is_stmt 1
	.loc 1 271 13
	.loc 1 273 13
	.loc 1 273 16 is_stmt 0
	bne	s1,zero,.L36
	.loc 1 274 17 is_stmt 1
	lui	a0,%hi(.LC7)
.LVL44:
	addi	a0,a0,%lo(.LC7)
	j	.L59
.LVL45:
.L36:
	.loc 1 278 13
	.loc 1 279 13 is_stmt 0
	lui	a0,%hi(.LC8)
.LVL46:
	.loc 1 278 19
	lui	a5,%hi(pconn)
	.loc 1 279 13
	addi	a0,a0,%lo(.LC8)
	.loc 1 278 19
	sw	s1,%lo(pconn)(a5)
	.loc 1 279 13 is_stmt 1
	call	bleuart_printf
.LVL47:
	.loc 1 280 13
	.loc 1 280 28 is_stmt 0
	lui	a5,%hi(.LANCHOR4)
	li	s4,1
	.loc 1 282 13
	li	a0,200
	.loc 1 280 28
	sb	s4,%lo(.LANCHOR4)(a5)
	.loc 1 282 13 is_stmt 1
	.loc 1 285 13 is_stmt 0
	lui	s2,%hi(.LANCHOR5)
	.loc 1 282 13
	call	aos_msleep
.LVL48:
	.loc 1 285 13 is_stmt 1
	li	a2,52
	li	a1,0
	addi	a0,s2,%lo(.LANCHOR5)
	call	memset
.LVL49:
	.loc 1 286 13
	.loc 1 286 33 is_stmt 0
	lui	a5,%hi(notify_func)
	.loc 1 285 13
	addi	s3,s2,%lo(.LANCHOR5)
	.loc 1 286 33
	addi	a5,a5,%lo(notify_func)
	sw	a5,32(s3)
	.loc 1 287 13 is_stmt 1
	.loc 1 288 13
	.loc 1 289 13
	.loc 1 288 39 is_stmt 0
	li	a5,983040
	addi	a5,a5,14
	sw	a5,36(s3)
	.loc 1 291 19
	addi	a1,s2,%lo(.LANCHOR5)
	mv	a0,s1
	.loc 1 287 32
	sh	s4,40(s3)
	.loc 1 291 13 is_stmt 1
	.loc 1 291 19 is_stmt 0
	call	bt_gatt_subscribe
.LVL50:
	mv	a2,a0
.LVL51:
	.loc 1 292 13 is_stmt 1
	.loc 1 292 16 is_stmt 0
	beq	a0,zero,.L37
	.loc 1 292 21 discriminator 1
	li	a5,-120
	beq	a0,a5,.L37
	.loc 1 293 17 is_stmt 1
	lui	a1,%hi(.LC9)
	addi	a1,a1,%lo(.LC9)
	addi	a0,s0,-112
.LVL52:
	call	sprintf
.LVL53:
	.loc 1 294 17
.L57:
	.loc 1 297 17
	addi	a0,s0,-112
	call	bleuart_printf
.LVL54:
	.loc 1 301 13
	.loc 1 301 21 is_stmt 0
	li	a5,1
	sh	a5,-116(s0)
	.loc 1 302 13 is_stmt 1
.LVL55:
.LBB27:
.LBB28:
	.file 2 "/home/dinhquangha/intern/Ai-Thinker-WB2/components/network/ble/blestack/src/include/bluetooth/gatt.h"
	.loc 2 1274 2
	.loc 2 1274 9 is_stmt 0
	addi	a2,s0,-116
.LVL56:
	li	a6,0
	li	a5,0
	li	a4,0
	li	a3,2
	li	a1,15
	mv	a0,s1
	call	bt_gatt_write_without_response_cb
.LVL57:
	mv	a2,a0
.LVL58:
.LBE28:
.LBE27:
	.loc 1 303 13 is_stmt 1
	.loc 1 303 16 is_stmt 0
	beq	a0,zero,.L39
	.loc 1 304 17 is_stmt 1
	lui	a1,%hi(.LC11)
	addi	a1,a1,%lo(.LC11)
	addi	a0,s0,-112
.LVL59:
	call	sprintf
.LVL60:
	.loc 1 305 17
	addi	a0,s0,-112
.L58:
	.loc 1 307 17 is_stmt 0
	call	bleuart_printf
.LVL61:
	.loc 1 311 13 is_stmt 1
	.loc 1 312 13 is_stmt 0
	lui	a0,%hi(.LC13)
	.loc 1 311 36
	lui	a5,%hi(.LANCHOR6)
	li	a4,1
	.loc 1 312 13
	addi	a0,a0,%lo(.LC13)
	.loc 1 311 36
	sb	a4,%lo(.LANCHOR6)(a5)
	.loc 1 312 13 is_stmt 1
	call	bleuart_printf
.LVL62:
	.loc 1 313 13
.L29:
.LBE29:
	.loc 1 346 1 is_stmt 0
	lw	ra,124(sp)
	.cfi_remember_state
	.cfi_restore 1
	lw	s0,120(sp)
	.cfi_restore 8
	.cfi_def_cfa 2, 128
	lw	s1,116(sp)
	.cfi_restore 9
	lw	s2,112(sp)
	.cfi_restore 18
	lw	s3,108(sp)
	.cfi_restore 19
	lw	s4,104(sp)
	.cfi_restore 20
	addi	sp,sp,128
	.cfi_def_cfa_offset 0
	jr	ra
.LVL63:
.L37:
	.cfi_restore_state
.LBB30:
	.loc 1 296 17 is_stmt 1
	lui	a1,%hi(.LC10)
	addi	a1,a1,%lo(.LC10)
	addi	a0,s0,-112
.LVL64:
	call	sprintf
.LVL65:
	j	.L57
.LVL66:
.L39:
	.loc 1 307 17
	lui	a0,%hi(.LC12)
.LVL67:
	addi	a0,a0,%lo(.LC12)
	j	.L58
.LVL68:
.L30:
.LBE30:
.LBB31:
	.loc 1 317 13
	.loc 1 317 59 is_stmt 0
	lw	s1,8(a0)
.LVL69:
	.loc 1 318 13 is_stmt 1
	.loc 1 319 13
	lui	a0,%hi(.LC14)
.LVL70:
	addi	a0,a0,%lo(.LC14)
	call	bleuart_printf
.LVL71:
	.loc 1 320 13
	lui	a1,%hi(.LC15)
	mv	a2,s1
	addi	a1,a1,%lo(.LC15)
	addi	a0,s0,-112
	call	sprintf
.LVL72:
	.loc 1 321 13
	addi	a0,s0,-112
	call	bleuart_printf
.LVL73:
	.loc 1 322 13
	.loc 1 322 36 is_stmt 0
	lui	a5,%hi(.LANCHOR6)
	sb	zero,%lo(.LANCHOR6)(a5)
	.loc 1 323 13 is_stmt 1
	.loc 1 323 19 is_stmt 0
	lui	a5,%hi(pconn)
	sw	zero,%lo(pconn)(a5)
	.loc 1 324 13 is_stmt 1
	.loc 1 324 16 is_stmt 0
	beq	s1,zero,.L42
	.loc 1 325 17 is_stmt 1
	mv	a0,s1
	call	bt_conn_unref
.LVL74:
.L42:
	.loc 1 327 13
	li	a2,0
	li	a1,16
	li	a0,4096
	.loc 1 330 17 is_stmt 0
	li	s1,20480
.LVL75:
	.loc 1 327 13
	call	aos_post_event
.LVL76:
	.loc 1 328 13 is_stmt 1
	.loc 1 328 35 is_stmt 0
	lui	s3,%hi(.LANCHOR4)
	.loc 1 328 19
	li	s2,1
	.loc 1 330 17
	addi	s1,s1,-480
.L43:
	.loc 1 328 19 is_stmt 1
	lbu	a5,%lo(.LANCHOR4)(s3)
	bne	a5,s2,.L29
	.loc 1 330 17
	mv	a0,s1
	call	ble_master_scan
.LVL77:
	j	.L43
.LVL78:
.L34:
.LBE31:
	.loc 1 337 13
	.loc 1 337 16 is_stmt 0
	lui	a5,%hi(.LANCHOR7)
	lw	a5,%lo(.LANCHOR7)(a5)
	beq	a5,zero,.L29
	.loc 1 338 17 is_stmt 1
	lui	a0,%hi(.LC16)
.LVL79:
	addi	a0,a0,%lo(.LC16)
	call	bleuart_printf
.LVL80:
	.loc 1 339 17
	lui	a5,%hi(.LANCHOR0)
	.loc 1 346 1 is_stmt 0
	lw	s0,120(sp)
	.cfi_restore 8
	.cfi_def_cfa 2, 128
	lw	ra,124(sp)
	.cfi_restore 1
	lw	s1,116(sp)
	.cfi_restore 9
	lw	s2,112(sp)
	.cfi_restore 18
	lw	s3,108(sp)
	.cfi_restore 19
	lw	s4,104(sp)
	.cfi_restore 20
	.loc 1 339 17
	lw	a0,%lo(.LANCHOR0)(a5)
	li	a3,0
	.loc 1 346 1
	.loc 1 339 17
	li	a2,0
	li	a1,0
	.loc 1 346 1
	addi	sp,sp,128
	.cfi_def_cfa_offset 0
	.loc 1 339 17
	tail	xQueueGenericSend
.LVL81:
	.cfi_endproc
.LFE79:
	.size	event_cb_user_event, .-event_cb_user_event
	.section	.rodata.ble_master_write_data.str1.4,"aMS",@progbits,1
	.align	2
.LC18:
	.string	"[BLE] write len:%d \r\n"
	.section	.text.ble_master_write_data,"ax",@progbits
	.align	1
	.globl	ble_master_write_data
	.type	ble_master_write_data, @function
ble_master_write_data:
.LFB81:
	.loc 1 364 1 is_stmt 1
	.cfi_startproc
.LVL82:
	.loc 1 365 5
	.loc 1 366 5
	.loc 1 367 5
	.loc 1 368 5
	.loc 1 369 5
	.loc 1 370 5
	.loc 1 364 1 is_stmt 0
	addi	sp,sp,-48
	.cfi_def_cfa_offset 48
	sw	s0,40(sp)
	sw	s1,36(sp)
	sw	s3,28(sp)
	sw	s4,24(sp)
	sw	s5,20(sp)
	sw	s6,16(sp)
	sw	s8,8(sp)
	sw	s9,4(sp)
	sw	s10,0(sp)
	sw	ra,44(sp)
	sw	s2,32(sp)
	sw	s7,12(sp)
	.cfi_offset 8, -8
	.cfi_offset 9, -12
	.cfi_offset 19, -20
	.cfi_offset 20, -24
	.cfi_offset 21, -28
	.cfi_offset 22, -32
	.cfi_offset 24, -40
	.cfi_offset 25, -44
	.cfi_offset 26, -48
	.cfi_offset 1, -4
	.cfi_offset 18, -16
	.cfi_offset 23, -36
	addi	s0,sp,48
	.cfi_def_cfa 8, 0
	.loc 1 364 1
	mv	s4,a0
	mv	s5,a1
	mv	s6,a2
	mv	s1,a3
	.loc 1 370 11
	call	bt_gatt_get_mtu
.LVL83:
	.loc 1 370 9
	addi	s3,a0,-3
	slli	s3,s3,16
	srli	s3,s3,16
.LVL84:
	.loc 1 371 5 is_stmt 1
	.loc 1 369 12 is_stmt 0
	li	s9,0
	.loc 1 373 18
	mv	s10,s3
	.loc 1 379 9
	lui	s8,%hi(.LC18)
.LVL85:
.L61:
	.loc 1 371 11 is_stmt 1
	bne	s1,zero,.L64
	li	s7,0
	.loc 1 385 5
	.loc 1 385 12 is_stmt 0
	j	.L60
.L64:
	.loc 1 373 9 is_stmt 1
	.loc 1 373 18 is_stmt 0
	mv	s2,s1
	bleu	s1,s3,.L62
	mv	s2,s10
.L62:
	slli	s2,s2,16
	srli	s2,s2,16
.LVL86:
	.loc 1 375 9 is_stmt 1
.LBB34:
.LBB35:
	.loc 2 1274 2
	.loc 2 1274 9 is_stmt 0
	add	a2,s6,s9
	mv	a1,s5
	li	a6,0
	li	a5,0
	li	a4,0
	mv	a3,s2
	mv	a0,s4
	call	bt_gatt_write_without_response_cb
.LVL87:
.LBE35:
.LBE34:
	.loc 1 377 16
	add	s9,s9,s2
.LVL88:
	.loc 1 378 16
	sub	s1,s1,s2
.LVL89:
.LBB37:
.LBB36:
	.loc 2 1274 9
	mv	s7,a0
.LVL90:
.LBE36:
.LBE37:
	.loc 1 377 9 is_stmt 1
	.loc 1 377 16 is_stmt 0
	slli	s9,s9,16
	.loc 1 378 16
	slli	s1,s1,16
	.loc 1 379 9
	mv	a1,s2
	addi	a0,s8,%lo(.LC18)
.LVL91:
	.loc 1 377 16
	srli	s9,s9,16
.LVL92:
	.loc 1 378 9 is_stmt 1
	.loc 1 378 16 is_stmt 0
	srli	s1,s1,16
.LVL93:
	.loc 1 379 9 is_stmt 1
	call	printf
.LVL94:
	.loc 1 381 9
	.loc 1 381 12 is_stmt 0
	beq	s7,zero,.L61
.LVL95:
.L60:
	.loc 1 386 1
	lw	ra,44(sp)
	.cfi_restore 1
	lw	s0,40(sp)
	.cfi_restore 8
	.cfi_def_cfa 2, 48
	lw	s1,36(sp)
	.cfi_restore 9
.LVL96:
	lw	s2,32(sp)
	.cfi_restore 18
	lw	s3,28(sp)
	.cfi_restore 19
.LVL97:
	lw	s4,24(sp)
	.cfi_restore 20
.LVL98:
	lw	s5,20(sp)
	.cfi_restore 21
	lw	s6,16(sp)
	.cfi_restore 22
.LVL99:
	lw	s8,8(sp)
	.cfi_restore 24
	lw	s9,4(sp)
	.cfi_restore 25
.LVL100:
	lw	s10,0(sp)
	.cfi_restore 26
.LVL101:
	mv	a0,s7
	lw	s7,12(sp)
	.cfi_restore 23
	addi	sp,sp,48
	.cfi_def_cfa_offset 0
	jr	ra
	.cfi_endproc
.LFE81:
	.size	ble_master_write_data, .-ble_master_write_data
	.section	.text.ble_master_get_led_handle,"ax",@progbits
	.align	1
	.globl	ble_master_get_led_handle
	.type	ble_master_get_led_handle, @function
ble_master_get_led_handle:
.LFB82:
	.loc 1 390 1 is_stmt 1
	.cfi_startproc
	.loc 1 392 5
	.loc 1 390 1 is_stmt 0
	addi	sp,sp,-16
	.cfi_def_cfa_offset 16
	sw	s0,12(sp)
	.cfi_offset 8, -4
	addi	s0,sp,16
	.cfi_def_cfa 8, 0
	.loc 1 393 1
	lw	s0,12(sp)
	.cfi_restore 8
	.cfi_def_cfa 2, 16
	li	a0,17
	addi	sp,sp,16
	.cfi_def_cfa_offset 0
	jr	ra
	.cfi_endproc
.LFE82:
	.size	ble_master_get_led_handle, .-ble_master_get_led_handle
	.section	.rodata.ble_master_write_led_cmd.str1.4,"aMS",@progbits,1
	.align	2
.LC19:
	.string	"[BLE] write LED: pconn is NULL\r\n"
	.align	2
.LC20:
	.string	"[BLE] write LED: handle=0x%04X, cmd=\"%s\", len=%d\r\n"
	.align	2
.LC21:
	.string	"[BLE] write LED failed: ret=%d\r\n"
	.align	2
.LC22:
	.string	"[BLE] write LED OK\r\n"
	.section	.text.ble_master_write_led_cmd,"ax",@progbits
	.align	1
	.globl	ble_master_write_led_cmd
	.type	ble_master_write_led_cmd, @function
ble_master_write_led_cmd:
.LFB83:
	.loc 1 397 1 is_stmt 1
	.cfi_startproc
.LVL102:
	.loc 1 398 5
	.loc 1 399 5
	.loc 1 400 5
	.loc 1 402 5
	.loc 1 397 1 is_stmt 0
	addi	sp,sp,-144
	.cfi_def_cfa_offset 144
	sw	s0,136(sp)
	sw	ra,140(sp)
	sw	s1,132(sp)
	sw	s2,128(sp)
	sw	s3,124(sp)
	sw	s4,120(sp)
	.cfi_offset 8, -8
	.cfi_offset 1, -4
	.cfi_offset 9, -12
	.cfi_offset 18, -16
	.cfi_offset 19, -20
	.cfi_offset 20, -24
	addi	s0,sp,144
	.cfi_def_cfa 8, 0
	.loc 1 402 15
	lui	a5,%hi(pconn)
	.loc 1 402 8
	lw	a4,%lo(pconn)(a5)
	bne	a4,zero,.L69
	.loc 1 403 9 is_stmt 1
	lui	a0,%hi(.LC19)
.LVL103:
	addi	a0,a0,%lo(.LC19)
	call	bleuart_printf
.LVL104:
	.loc 1 404 9
	.loc 1 404 16 is_stmt 0
	li	s1,-1
.LVL105:
.L68:
	.loc 1 426 1
	lw	ra,140(sp)
	.cfi_remember_state
	.cfi_restore 1
	lw	s0,136(sp)
	.cfi_restore 8
	.cfi_def_cfa 2, 144
	lw	s2,128(sp)
	.cfi_restore 18
	lw	s3,124(sp)
	.cfi_restore 19
	lw	s4,120(sp)
	.cfi_restore 20
	mv	a0,s1
	lw	s1,132(sp)
	.cfi_restore 9
	addi	sp,sp,144
	.cfi_def_cfa_offset 0
	jr	ra
.LVL106:
.L69:
	.cfi_restore_state
	mv	s2,a0
	mv	s1,a1
	mv	s3,a5
	.loc 1 408 5 is_stmt 1
	.loc 1 408 8 is_stmt 0
	bne	a1,zero,.L71
	.loc 1 409 18
	li	s1,17
.L71:
.LVL107:
	.loc 1 412 5 is_stmt 1
	.loc 1 412 11 is_stmt 0
	mv	a0,s2
.LVL108:
	call	strlen
.LVL109:
	.loc 1 413 5
	slli	a4,a0,16
	lui	a1,%hi(.LC20)
	mv	a2,s1
	srli	a4,a4,16
	mv	a3,s2
	addi	a1,a1,%lo(.LC20)
	.loc 1 412 11
	mv	s4,a0
.LVL110:
	.loc 1 413 5 is_stmt 1
	addi	a0,s0,-132
.LVL111:
	call	sprintf
.LVL112:
	.loc 1 414 5
	addi	a0,s0,-132
	call	bleuart_printf
.LVL113:
	.loc 1 416 5
.LBB40:
.LBB41:
	.loc 2 1274 2
	.loc 2 1274 9 is_stmt 0
	lw	a0,%lo(pconn)(s3)
	slli	a3,s4,16
	mv	a1,s1
	li	a6,0
	li	a5,0
	li	a4,0
	srli	a3,a3,16
	mv	a2,s2
	call	bt_gatt_write_without_response_cb
.LVL114:
	mv	s1,a0
.LVL115:
.LBE41:
.LBE40:
	.loc 1 418 5 is_stmt 1
	.loc 1 418 8 is_stmt 0
	beq	a0,zero,.L72
	.loc 1 419 9 is_stmt 1
	lui	a1,%hi(.LC21)
	mv	a2,a0
	addi	a1,a1,%lo(.LC21)
	addi	a0,s0,-132
	call	sprintf
.LVL116:
	.loc 1 420 9
	addi	a0,s0,-132
.L74:
	.loc 1 422 9 is_stmt 0
	call	bleuart_printf
.LVL117:
	j	.L68
.L72:
	.loc 1 422 9 is_stmt 1
	lui	a0,%hi(.LC22)
	addi	a0,a0,%lo(.LC22)
	j	.L74
	.cfi_endproc
.LFE83:
	.size	ble_master_write_led_cmd, .-ble_master_write_led_cmd
	.section	.rodata.axk_HalBleCentralConnect.str1.4,"aMS",@progbits,1
	.align	2
.LC23:
	.string	"connect timeout\r\n"
	.section	.text.axk_HalBleCentralConnect,"ax",@progbits
	.align	1
	.globl	axk_HalBleCentralConnect
	.type	axk_HalBleCentralConnect, @function
axk_HalBleCentralConnect:
.LFB84:
	.loc 1 445 1
	.cfi_startproc
.LVL118:
	.loc 1 446 5
	.loc 1 447 5
	.loc 1 448 5
	.loc 1 449 5
	.loc 1 449 8 is_stmt 0
	li	a5,2
	bgtu	a2,a5,.L85
	.loc 1 445 1
	addi	sp,sp,-48
	.cfi_def_cfa_offset 48
	sw	s0,40(sp)
	sw	s1,36(sp)
	sw	s2,32(sp)
	sw	s3,28(sp)
	sw	s4,24(sp)
	sw	s5,20(sp)
	sw	ra,44(sp)
	.cfi_offset 8, -8
	.cfi_offset 9, -12
	.cfi_offset 18, -16
	.cfi_offset 19, -20
	.cfi_offset 20, -24
	.cfi_offset 21, -28
	.cfi_offset 1, -4
	addi	s0,sp,48
	.cfi_def_cfa 8, 0
	.loc 1 453 5
	lui	s5,%hi(.LANCHOR1)
	.loc 1 445 1
	mv	s4,a0
	mv	s2,a1
	.loc 1 453 5
	addi	a0,s5,%lo(.LANCHOR1)
.LVL119:
	mv	s3,a2
	.loc 1 453 5 is_stmt 1
	li	a1,0
.LVL120:
	li	a2,8
.LVL121:
	lui	s1,%hi(.LANCHOR7)
	call	memset
.LVL122:
	.loc 1 455 5
	addi	s5,s5,%lo(.LANCHOR1)
	addi	s1,s1,%lo(.LANCHOR7)
	.loc 1 455 8 is_stmt 0
	bne	s4,zero,.L77
	.loc 1 455 20 discriminator 1
	beq	s2,zero,.L78
.L80:
.LBB44:
.LBB45:
	.loc 1 465 9 is_stmt 1
	.loc 1 465 36 is_stmt 0
	lhu	a5,0(s2)
	.loc 1 465 34
	sh	a5,0(s5)
.L79:
	.loc 1 468 5 is_stmt 1
	.loc 1 470 29 is_stmt 0
	li	a5,2621440
	addi	a5,a5,24
	sw	a5,-40(s0)
	.loc 1 475 9
	addi	a3,s0,-48
	.loc 1 472 24
	li	a5,26214400
	.loc 1 475 9
	mv	a2,s2
	mv	a1,s4
	li	a0,2000
	.loc 1 468 25
	sw	zero,0(s1)
	.loc 1 470 5 is_stmt 1
	.loc 1 471 5
	.loc 1 472 5
	.loc 1 472 24 is_stmt 0
	sw	a5,-36(s0)
	.loc 1 475 5 is_stmt 1
	.loc 1 475 9 is_stmt 0
	call	ble_master_find_target
.LVL123:
	.loc 1 475 8
	beq	a0,zero,.L81
	.loc 1 476 9 is_stmt 1
	.loc 1 480 16 is_stmt 0
	li	a0,2
	.loc 1 476 12
	bne	s3,a0,.L76
	.loc 1 477 13 is_stmt 1
	.loc 1 477 33 is_stmt 0
	sw	a0,0(s1)
	.loc 1 478 13 is_stmt 1
	.loc 1 478 20 is_stmt 0
	li	a0,1
.LVL124:
.L76:
.LBE45:
.LBE44:
	.loc 1 499 1
	lw	ra,44(sp)
	.cfi_remember_state
	.cfi_restore 1
	lw	s0,40(sp)
	.cfi_restore 8
	.cfi_def_cfa 2, 48
	lw	s1,36(sp)
	.cfi_restore 9
	lw	s2,32(sp)
	.cfi_restore 18
	lw	s3,28(sp)
	.cfi_restore 19
	lw	s4,24(sp)
	.cfi_restore 20
.LVL125:
	lw	s5,20(sp)
	.cfi_restore 21
	addi	sp,sp,48
	.cfi_def_cfa_offset 0
	jr	ra
.LVL126:
.L78:
	.cfi_restore_state
	.loc 1 457 9 is_stmt 1
	.loc 1 457 29 is_stmt 0
	sw	zero,0(s1)
	.loc 1 458 9 is_stmt 1
.LVL127:
.L91:
.LBB47:
.LBB46:
	.loc 1 498 5
	.loc 1 498 12 is_stmt 0
	li	a0,0
	j	.L76
.LVL128:
.L77:
	.loc 1 461 5 is_stmt 1
	.loc 1 462 9
	li	a2,6
	mv	a1,s4
	addi	a0,s5,2
	call	memcpy
.LVL129:
	.loc 1 464 5
	.loc 1 464 8 is_stmt 0
	bne	s2,zero,.L80
	j	.L79
.L81:
	.loc 1 483 5 is_stmt 1
	lui	a0,%hi(.LANCHOR8)
	li	a2,6
	li	a1,0
	addi	a0,a0,%lo(.LANCHOR8)
	call	memset
.LVL130:
	.loc 1 484 5
	.loc 1 484 12 is_stmt 0
	addi	a1,s0,-40
	addi	a0,s0,-48
	call	bt_conn_create_le
.LVL131:
	.loc 1 485 11
	lui	a5,%hi(pconn)
	sw	a0,%lo(pconn)(a5)
	.loc 1 484 12
	mv	s2,a0
.LVL132:
	.loc 1 485 5 is_stmt 1
	.loc 1 486 5
	.loc 1 486 8 is_stmt 0
	bne	a0,zero,.L83
	.loc 1 487 8 is_stmt 1
	lui	a0,%hi(.LC2)
.LVL133:
	addi	a0,a0,%lo(.LC2)
	call	bleuart_printf
.LVL134:
	.loc 1 488 9
	.loc 1 488 16 is_stmt 0
	li	a0,2
	j	.L76
.LVL135:
.L83:
	.loc 1 490 8 is_stmt 1
	lui	a0,%hi(.LC3)
.LVL136:
	addi	a0,a0,%lo(.LC3)
	call	bleuart_printf
.LVL137:
	.loc 1 493 5
	.loc 1 493 37 is_stmt 0
	lui	a5,%hi(.LANCHOR3)
	lw	a0,%lo(.LANCHOR3)(a5)
	li	a1,4096
	addi	a1,a1,-1096
	call	xQueueSemaphoreTake
.LVL138:
	.loc 1 493 8
	bne	a0,zero,.L84
	.loc 1 494 9 is_stmt 1
	lui	a0,%hi(.LC23)
	addi	a0,a0,%lo(.LC23)
	call	bleuart_printf
.LVL139:
	.loc 1 495 9
	li	a1,19
	mv	a0,s2
	call	bt_conn_disconnect
.LVL140:
.L84:
	.loc 1 497 5
	.loc 1 497 25 is_stmt 0
	sw	s3,0(s1)
	j	.L91
.LVL141:
.L85:
	.cfi_def_cfa_register 2
	.cfi_restore 1
	.cfi_restore 8
	.cfi_restore 9
	.cfi_restore 18
	.cfi_restore 19
	.cfi_restore 20
	.cfi_restore 21
.LBE46:
.LBE47:
	.loc 1 450 16
	li	a0,2
.LVL142:
	.loc 1 499 1
	ret
	.cfi_endproc
.LFE84:
	.size	axk_HalBleCentralConnect, .-axk_HalBleCentralConnect
	.section	.text.axk_HalBleCentralStartScan,"ax",@progbits
	.align	1
	.globl	axk_HalBleCentralStartScan
	.type	axk_HalBleCentralStartScan, @function
axk_HalBleCentralStartScan:
.LFB85:
	.loc 1 507 1 is_stmt 1
	.cfi_startproc
	.loc 1 508 5
	.loc 1 509 5
	.loc 1 507 1 is_stmt 0
	addi	sp,sp,-16
	.cfi_def_cfa_offset 16
	sw	s0,8(sp)
	sw	ra,12(sp)
	.cfi_offset 8, -8
	.cfi_offset 1, -4
	addi	s0,sp,16
	.cfi_def_cfa 8, 0
	.loc 1 509 11
	li	a0,1000
	call	ble_master_scan
.LVL143:
	.loc 1 510 5 is_stmt 1
	.loc 1 516 1 is_stmt 0
	lw	ra,12(sp)
	.cfi_restore 1
	lw	s0,8(sp)
	.cfi_restore 8
	.cfi_def_cfa 2, 16
	snez	a0,a0
.LVL144:
	addi	sp,sp,16
	.cfi_def_cfa_offset 0
	jr	ra
	.cfi_endproc
.LFE85:
	.size	axk_HalBleCentralStartScan, .-axk_HalBleCentralStartScan
	.section	.text.axk_HalBleCentralTTWrite,"ax",@progbits
	.align	1
	.globl	axk_HalBleCentralTTWrite
	.type	axk_HalBleCentralTTWrite, @function
axk_HalBleCentralTTWrite:
.LFB86:
	.loc 1 531 1 is_stmt 1
	.cfi_startproc
.LVL145:
	.loc 1 532 5
	.loc 1 533 5
	.loc 1 531 1 is_stmt 0
	addi	sp,sp,-16
	.cfi_def_cfa_offset 16
	sw	s0,12(sp)
	.cfi_offset 8, -4
	addi	s0,sp,16
	.cfi_def_cfa 8, 0
	.loc 1 533 15
	lui	a5,%hi(pconn)
	.loc 1 531 1
	mv	a3,a0
	.loc 1 533 15
	lw	a0,%lo(pconn)(a5)
.LVL146:
	.loc 1 533 8
	beq	a0,zero,.L94
	.loc 1 537 24
	lui	a5,%hi(.LANCHOR8)
	mv	a2,a1
	.loc 1 537 5 is_stmt 1
	.loc 1 537 24 is_stmt 0
	lhu	a1,%lo(.LANCHOR8)(a5)
.LVL147:
	.loc 1 537 8
	beq	a1,zero,.L94
	.loc 1 540 5 is_stmt 1
	.loc 1 542 1 is_stmt 0
	lw	s0,12(sp)
	.cfi_remember_state
	.cfi_restore 8
	.cfi_def_cfa 2, 16
	addi	sp,sp,16
	.cfi_def_cfa_offset 0
	.loc 1 540 11
	tail	ble_master_write_data
.LVL148:
.L94:
	.cfi_restore_state
	.loc 1 542 1
	lw	s0,12(sp)
	.cfi_restore 8
	.cfi_def_cfa 2, 16
	li	a0,-1
	addi	sp,sp,16
	.cfi_def_cfa_offset 0
	jr	ra
	.cfi_endproc
.LFE86:
	.size	axk_HalBleCentralTTWrite, .-axk_HalBleCentralTTWrite
	.section	.text.axk_HalBleCentralDisconnect,"ax",@progbits
	.align	1
	.globl	axk_HalBleCentralDisconnect
	.type	axk_HalBleCentralDisconnect, @function
axk_HalBleCentralDisconnect:
.LFB87:
	.loc 1 550 1 is_stmt 1
	.cfi_startproc
	.loc 1 551 5
	.loc 1 554 5
	.loc 1 554 15 is_stmt 0
	lui	a5,%hi(pconn)
	lw	a0,%lo(pconn)(a5)
	.loc 1 554 8
	beq	a0,zero,.L104
	.loc 1 557 5 is_stmt 1
	.loc 1 550 1 is_stmt 0
	addi	sp,sp,-64
	.cfi_def_cfa_offset 64
	sw	ra,60(sp)
	sw	s0,56(sp)
	.cfi_offset 1, -4
	.cfi_offset 8, -8
	addi	s0,sp,64
	.cfi_def_cfa 8, 0
	.loc 1 557 5
	li	a1,19
	call	bt_conn_disconnect
.LVL149:
	.loc 1 558 5 is_stmt 1
	addi	a0,s0,-55
	li	a2,1
	li	a1,0
	call	axk_HalBleCentralConnect
.LVL150:
	.loc 1 559 5
	.loc 1 560 1 is_stmt 0
	lw	ra,60(sp)
	.cfi_restore 1
	lw	s0,56(sp)
	.cfi_restore 8
	.cfi_def_cfa 2, 64
	.loc 1 559 12
	li	a5,0
	.loc 1 560 1
	mv	a0,a5
	addi	sp,sp,64
	.cfi_def_cfa_offset 0
	jr	ra
.L104:
	li	a5,1
	mv	a0,a5
	ret
	.cfi_endproc
.LFE87:
	.size	axk_HalBleCentralDisconnect, .-axk_HalBleCentralDisconnect
	.section	.rodata.ble_master_init.str1.4,"aMS",@progbits,1
	.align	2
.LC24:
	.string	"[BLE] create sem fail\r\n"
	.align	2
.LC25:
	.string	"autoconn"
	.align	2
.LC26:
	.string	"[BLE] task create fail\r\n"
	.section	.text.ble_master_init,"ax",@progbits
	.align	1
	.globl	ble_master_init
	.type	ble_master_init, @function
ble_master_init:
.LFB88:
	.loc 1 564 1 is_stmt 1
	.cfi_startproc
	.loc 1 565 5
	.loc 1 567 5
	.loc 1 564 1 is_stmt 0
	addi	sp,sp,-16
	.cfi_def_cfa_offset 16
	sw	s0,8(sp)
	sw	s1,4(sp)
	sw	ra,12(sp)
	sw	s2,0(sp)
	.cfi_offset 8, -8
	.cfi_offset 9, -12
	.cfi_offset 1, -4
	.cfi_offset 18, -16
	addi	s0,sp,16
	.cfi_def_cfa 8, 0
	.loc 1 567 16
	lui	a3,%hi(.LANCHOR9)
	.loc 1 564 1
	.loc 1 567 16
	li	a4,3
	addi	a3,a3,%lo(.LANCHOR9)
	li	a2,0
	li	a1,0
	li	a0,1
	.loc 1 567 14
	lui	s1,%hi(.LANCHOR3)
	.loc 1 567 16
	call	xQueueGenericCreateStatic
.LVL151:
	.loc 1 567 14
	addi	s1,s1,%lo(.LANCHOR3)
	sw	a0,0(s1)
	.loc 1 568 5 is_stmt 1
	.loc 1 568 8 is_stmt 0
	bne	a0,zero,.L110
.L116:
	.loc 1 578 9 is_stmt 1
	lui	a0,%hi(.LC24)
	addi	a0,a0,%lo(.LC24)
.L115:
	.loc 1 587 9 is_stmt 0
	call	printf
.LVL152:
	.loc 1 588 9 is_stmt 1
	.loc 1 588 16 is_stmt 0
	li	a0,-1
.L109:
	.loc 1 597 1
	lw	ra,12(sp)
	.cfi_remember_state
	.cfi_restore 1
	lw	s0,8(sp)
	.cfi_restore 8
	.cfi_def_cfa 2, 16
	lw	s1,4(sp)
	.cfi_restore 9
	lw	s2,0(sp)
	.cfi_restore 18
	addi	sp,sp,16
	.cfi_def_cfa_offset 0
	jr	ra
.L110:
	.cfi_restore_state
	.loc 1 574 5 is_stmt 1
	.loc 1 574 20 is_stmt 0
	lui	a3,%hi(.LANCHOR10)
	li	a4,3
	addi	a3,a3,%lo(.LANCHOR10)
	li	a2,0
	li	a1,0
	li	a0,1
	.loc 1 574 18
	lui	s2,%hi(.LANCHOR0)
	.loc 1 574 20
	call	xQueueGenericCreateStatic
.LVL153:
	.loc 1 574 18
	addi	s2,s2,%lo(.LANCHOR0)
	sw	a0,0(s2)
	.loc 1 575 5 is_stmt 1
	.loc 1 575 8 is_stmt 0
	bne	a0,zero,.L112
	.loc 1 577 9 is_stmt 1
	lw	a0,0(s1)
	call	vQueueDelete
.LVL154:
	j	.L116
.L112:
	.loc 1 582 5
	.loc 1 582 11 is_stmt 0
	lui	a5,%hi(.LANCHOR11)
	lui	a1,%hi(.LC25)
	lui	a0,%hi(_ble_autoconn_task)
	addi	a5,a5,%lo(.LANCHOR11)
	li	a4,10
	li	a3,0
	li	a2,256
	addi	a1,a1,%lo(.LC25)
	addi	a0,a0,%lo(_ble_autoconn_task)
	call	xTaskCreate
.LVL155:
	.loc 1 584 5 is_stmt 1
	.loc 1 584 8 is_stmt 0
	li	a5,1
	beq	a0,a5,.L113
	.loc 1 585 9 is_stmt 1
	lw	a0,0(s1)
.LVL156:
	call	vQueueDelete
.LVL157:
	.loc 1 586 9
	lw	a0,0(s2)
	call	vQueueDelete
.LVL158:
	.loc 1 587 9
	lui	a0,%hi(.LC26)
	addi	a0,a0,%lo(.LC26)
	j	.L115
.LVL159:
.L113:
	.loc 1 590 5
	lui	a0,%hi(ble_master_conn_cb)
.LVL160:
	addi	a0,a0,%lo(ble_master_conn_cb)
	call	ble_regist_conn
.LVL161:
	.loc 1 591 5
	lui	a0,%hi(ble_master_disconn_cb)
	addi	a0,a0,%lo(ble_master_disconn_cb)
	call	ble_regist_disconn
.LVL162:
	.loc 1 593 5
	lui	a1,%hi(event_cb_user_event)
	li	a2,0
	addi	a1,a1,%lo(event_cb_user_event)
	li	a0,4096
	call	aos_register_event_filter
.LVL163:
	.loc 1 594 5
	li	a2,0
	li	a1,0
	li	a0,4096
	call	aos_post_event
.LVL164:
	.loc 1 596 5
	.loc 1 596 12 is_stmt 0
	li	a0,0
	j	.L109
	.cfi_endproc
.LFE88:
	.size	ble_master_init, .-ble_master_init
	.section	.text.ble_master_deinit,"ax",@progbits
	.align	1
	.globl	ble_master_deinit
	.type	ble_master_deinit, @function
ble_master_deinit:
.LFB89:
	.loc 1 600 1 is_stmt 1
	.cfi_startproc
	.loc 1 601 5
	.loc 1 600 1 is_stmt 0
	addi	sp,sp,-16
	.cfi_def_cfa_offset 16
	sw	ra,12(sp)
	sw	s0,8(sp)
	sw	s1,4(sp)
	.cfi_offset 1, -4
	.cfi_offset 8, -8
	.cfi_offset 9, -12
	addi	s0,sp,16
	.cfi_def_cfa 8, 0
	.loc 1 601 5
	li	a0,0
	call	ble_regist_conn
.LVL165:
	.loc 1 602 5 is_stmt 1
	li	a0,0
	call	ble_regist_disconn
.LVL166:
	.loc 1 603 5
	lui	a1,%hi(event_cb_user_event)
	li	a2,0
	addi	a1,a1,%lo(event_cb_user_event)
	li	a0,4096
	.loc 1 604 5 is_stmt 0
	lui	s1,%hi(.LANCHOR3)
	.loc 1 603 5
	call	aos_unregister_event_filter
.LVL167:
	.loc 1 604 5 is_stmt 1
	addi	s1,s1,%lo(.LANCHOR3)
	lw	a0,0(s1)
	call	vQueueDelete
.LVL168:
	.loc 1 605 5
	lui	a5,%hi(.LANCHOR0)
	lw	a0,%lo(.LANCHOR0)(a5)
	call	vQueueDelete
.LVL169:
	.loc 1 606 5
	lui	a5,%hi(.LANCHOR11)
	lw	a0,%lo(.LANCHOR11)(a5)
	call	vTaskDelete
.LVL170:
	.loc 1 607 5
	.loc 1 609 1 is_stmt 0
	lw	ra,12(sp)
	.cfi_restore 1
	lw	s0,8(sp)
	.cfi_restore 8
	.cfi_def_cfa 2, 16
	.loc 1 607 14
	sw	zero,0(s1)
	.loc 1 608 5 is_stmt 1
	.loc 1 609 1 is_stmt 0
	li	a0,0
	lw	s1,4(sp)
	.cfi_restore 9
	addi	sp,sp,16
	.cfi_def_cfa_offset 0
	jr	ra
	.cfi_endproc
.LFE89:
	.size	ble_master_deinit, .-ble_master_deinit
	.globl	flag_connected
	.globl	bleuart_connect_status
	.globl	MY_UUID1_USER_RXD
	.globl	MY_UUID1_USER_TXD
	.comm	pconn,4,4
	.section	.bss.sem_autoconn_buffer,"aw",@nobits
	.align	2
	.set	.LANCHOR10,. + 0
	.type	sem_autoconn_buffer, @object
	.size	sem_autoconn_buffer, 80
sem_autoconn_buffer:
	.zero	80
	.section	.bss.sem_conn_buffer,"aw",@nobits
	.align	2
	.set	.LANCHOR9,. + 0
	.type	sem_conn_buffer, @object
	.size	sem_conn_buffer, 80
sem_conn_buffer:
	.zero	80
	.section	.bss.subscribe_tt,"aw",@nobits
	.align	2
	.set	.LANCHOR5,. + 0
	.type	subscribe_tt, @object
	.size	subscribe_tt, 52
subscribe_tt:
	.zero	52
	.section	.rodata.MY_UUID1_USER_RXD,"a"
	.align	2
	.type	MY_UUID1_USER_RXD, @object
	.size	MY_UUID1_USER_RXD, 16
MY_UUID1_USER_RXD:
	.ascii	"ISSC\036MK\331\272a#\306G$\226\026"
	.section	.rodata.MY_UUID1_USER_TXD,"a"
	.align	2
	.type	MY_UUID1_USER_TXD, @object
	.size	MY_UUID1_USER_TXD, 16
MY_UUID1_USER_TXD:
	.ascii	"ISSC\210AC\364\250\324\354\2764r\233\263"
	.section	.sbss.ble_autoconn_target,"aw",@nobits
	.align	2
	.set	.LANCHOR1,. + 0
	.type	ble_autoconn_target, @object
	.size	ble_autoconn_target, 8
ble_autoconn_target:
	.zero	8
	.section	.sbss.ble_master_autoconn,"aw",@nobits
	.align	2
	.set	.LANCHOR7,. + 0
	.type	ble_master_autoconn, @object
	.size	ble_master_autoconn, 4
ble_master_autoconn:
	.zero	4
	.section	.sbss.ble_master_autoconn_handle,"aw",@nobits
	.align	2
	.set	.LANCHOR11,. + 0
	.type	ble_master_autoconn_handle, @object
	.size	ble_master_autoconn_handle, 4
ble_master_autoconn_handle:
	.zero	4
	.section	.sbss.bleuart_connect_status,"aw",@nobits
	.set	.LANCHOR6,. + 0
	.type	bleuart_connect_status, @object
	.size	bleuart_connect_status, 1
bleuart_connect_status:
	.zero	1
	.section	.sbss.discover_handle,"aw",@nobits
	.align	2
	.set	.LANCHOR8,. + 0
	.type	discover_handle, @object
	.size	discover_handle, 6
discover_handle:
	.zero	6
	.section	.sbss.flag_connected,"aw",@nobits
	.set	.LANCHOR4,. + 0
	.type	flag_connected, @object
	.size	flag_connected, 1
flag_connected:
	.zero	1
	.section	.sbss.sem_autoconn,"aw",@nobits
	.align	2
	.set	.LANCHOR0,. + 0
	.type	sem_autoconn, @object
	.size	sem_autoconn, 4
sem_autoconn:
	.zero	4
	.section	.sbss.sem_conn,"aw",@nobits
	.align	2
	.set	.LANCHOR3,. + 0
	.type	sem_conn, @object
	.size	sem_conn, 4
sem_conn:
	.zero	4
	.section	.sdata.autoconn_interval.0,"aw"
	.align	2
	.set	.LANCHOR2,. + 0
	.type	autoconn_interval.0, @object
	.size	autoconn_interval.0, 4
autoconn_interval.0:
	.word	1000
	.text
.Letext0:
	.file 3 "/home/dinhquangha/intern/Ai-Thinker-WB2/toolchain/riscv/Linux/lib/gcc/riscv64-unknown-elf/10.2.0/include/stdint-gcc.h"
	.file 4 "/home/dinhquangha/intern/Ai-Thinker-WB2/toolchain/riscv/Linux/riscv64-unknown-elf/include/sys/_types.h"
	.file 5 "/home/dinhquangha/intern/Ai-Thinker-WB2/toolchain/riscv/Linux/riscv64-unknown-elf/include/sys/types.h"
	.file 6 "/home/dinhquangha/intern/Ai-Thinker-WB2/components/platform/soc/bl602/freertos_riscv_ram/portable/GCC/RISC-V/portmacro.h"
	.file 7 "/home/dinhquangha/intern/Ai-Thinker-WB2/components/platform/soc/bl602/freertos_riscv_ram/config/FreeRTOS.h"
	.file 8 "/home/dinhquangha/intern/Ai-Thinker-WB2/components/platform/soc/bl602/freertos_riscv_ram/config/task.h"
	.file 9 "/home/dinhquangha/intern/Ai-Thinker-WB2/components/platform/soc/bl602/freertos_riscv_ram/config/queue.h"
	.file 10 "/home/dinhquangha/intern/Ai-Thinker-WB2/components/platform/soc/bl602/freertos_riscv_ram/config/semphr.h"
	.file 11 "/home/dinhquangha/intern/Ai-Thinker-WB2/components/stage/yloop/include/aos/yloop.h"
	.file 12 "/home/dinhquangha/intern/Ai-Thinker-WB2/components/network/ble/blestack/src/common/include/zephyr/types.h"
	.file 13 "/home/dinhquangha/intern/Ai-Thinker-WB2/components/network/ble/blestack/src/common/include/misc/slist.h"
	.file 14 "/home/dinhquangha/intern/Ai-Thinker-WB2/components/network/ble/blestack/src/common/include/misc/dlist.h"
	.file 15 "/home/dinhquangha/intern/Ai-Thinker-WB2/components/network/ble/blestack/src/port/include/bl_port.h"
	.file 16 "/home/dinhquangha/intern/Ai-Thinker-WB2/components/network/ble/blestack/src/common/include/atomic.h"
	.file 17 "/home/dinhquangha/intern/Ai-Thinker-WB2/components/network/ble/blestack/src/common/include/work_q.h"
	.file 18 "/home/dinhquangha/intern/Ai-Thinker-WB2/components/network/ble/blestack/src/port/include/zephyr.h"
	.file 19 "/home/dinhquangha/intern/Ai-Thinker-WB2/components/network/ble/blestack/src/common/include/net/buf.h"
	.file 20 "/home/dinhquangha/intern/Ai-Thinker-WB2/components/network/ble/blestack/src/include/bluetooth/addr.h"
	.file 21 "/home/dinhquangha/intern/Ai-Thinker-WB2/components/network/ble/blestack/src/include/bluetooth/conn.h"
	.file 22 "/home/dinhquangha/intern/Ai-Thinker-WB2/components/network/ble/blestack/src/host/conn_internal.h"
	.file 23 "/home/dinhquangha/intern/Ai-Thinker-WB2/components/network/ble/blestack/src/include/bluetooth/uuid.h"
	.file 24 "/home/dinhquangha/intern/Ai-Thinker-WB2/components/network/ble/blestack/src/include/bluetooth/att.h"
	.file 25 "/home/dinhquangha/intern/Ai-Thinker-WB2/components/network/ble/blestack/src/host/hci_core.h"
	.file 26 "/home/dinhquangha/intern/Ai-Thinker-WB2/datic/components/middle/ble/ble_master.h"
	.file 27 "/home/dinhquangha/intern/Ai-Thinker-WB2/components/platform/hosal/include/hosal_dma.h"
	.file 28 "/home/dinhquangha/intern/Ai-Thinker-WB2/components/platform/hosal/include/hosal_uart.h"
	.file 29 "/home/dinhquangha/intern/Ai-Thinker-WB2/toolchain/riscv/Linux/riscv64-unknown-elf/include/stdio.h"
	.file 30 "/home/dinhquangha/intern/Ai-Thinker-WB2/toolchain/riscv/Linux/riscv64-unknown-elf/include/string.h"
	.file 31 "/home/dinhquangha/intern/Ai-Thinker-WB2/components/stage/yloop/include/aos/kernel.h"