	.file	"ble_interface.c"
	.option nopic
	.attribute arch, "rv32i2p0_m2p0_f2p0_c2p0"
	.attribute unaligned_access, 0
	.attribute stack_align, 16
	.text
.Ltext0:
	.cfi_sections	.debug_frame
	.section	.rodata.ble_ccc_cfg_changed.str1.4,"aMS",@progbits,1
	.align	2
.LC0:
	.string	"notify"
	.align	2
.LC1:
	.string	"disabled"
	.align	2
.LC2:
	.string	"indicate"
	.align	2
.LC3:
	.string	"[BLE] ccc change %s"
	.section	.text.ble_ccc_cfg_changed,"ax",@progbits
	.align	1
	.type	ble_ccc_cfg_changed, @function
ble_ccc_cfg_changed:
.LFB75:
	.file 1 "/home/quanghaictu/intern/Ai-Thinker-WB2/datic/components/middle/ble/ble_interface.c"
	.loc 1 128 1
	.cfi_startproc
.LVL0:
	.loc 1 129 5
	.loc 1 131 5
	.loc 1 128 1 is_stmt 0
	addi	sp,sp,-16
	.cfi_def_cfa_offset 16
	sw	s0,12(sp)
	.cfi_offset 8, -4
	addi	s0,sp,16
	.cfi_def_cfa 8, 0
	.loc 1 131 8
	li	a5,1
	beq	a1,a5,.L3
	.loc 1 135 10 is_stmt 1
	.loc 1 135 13 is_stmt 0
	li	a5,2
	bne	a1,a5,.L4
	.loc 1 137 13
	lui	a1,%hi(.LC2)
.LVL1:
	addi	a1,a1,%lo(.LC2)
.L2:
.LVL2:
	.loc 1 140 5 is_stmt 1
	.loc 1 141 1 is_stmt 0
	lw	s0,12(sp)
	.cfi_remember_state
	.cfi_restore 8
	.cfi_def_cfa 2, 16
	.loc 1 140 5
	lui	a0,%hi(.LC3)
.LVL3:
	addi	a0,a0,%lo(.LC3)
	.loc 1 141 1
	addi	sp,sp,16
	.cfi_def_cfa_offset 0
	.loc 1 140 5
	tail	printf
.LVL4:
.L3:
	.cfi_restore_state
	.loc 1 133 13
	lui	a1,%hi(.LC0)
.LVL5:
	addi	a1,a1,%lo(.LC0)
	j	.L2
.LVL6:
.L4:
	.loc 1 129 11
	lui	a1,%hi(.LC1)
.LVL7:
	addi	a1,a1,%lo(.LC1)
	j	.L2
	.cfi_endproc
.LFE75:
	.size	ble_ccc_cfg_changed, .-ble_ccc_cfg_changed
	.section	.rodata._le_phy_updated.str1.4,"aMS",@progbits,1
	.align	2
.LC4:
	.string	"[BLE] phy updated: rx_phy %d, rx_phy %d \r\n"
	.section	.text._le_phy_updated,"ax",@progbits
	.align	1
	.type	_le_phy_updated, @function
_le_phy_updated:
.LFB80:
	.loc 1 204 1 is_stmt 1
	.cfi_startproc
.LVL8:
	.loc 1 205 5
	.loc 1 204 1 is_stmt 0
	addi	sp,sp,-16
	.cfi_def_cfa_offset 16
	sw	s0,12(sp)
	.cfi_offset 8, -4
	addi	s0,sp,16
	.cfi_def_cfa 8, 0
	.loc 1 206 1
	lw	s0,12(sp)
	.cfi_restore 8
	.cfi_def_cfa 2, 16
	.loc 1 205 5
	lui	a0,%hi(.LC4)
.LVL9:
	addi	a0,a0,%lo(.LC4)
	.loc 1 206 1
	addi	sp,sp,16
	.cfi_def_cfa_offset 0
	.loc 1 205 5
	tail	printf
.LVL10:
	.cfi_endproc
.LFE80:
	.size	_le_phy_updated, .-_le_phy_updated
	.section	.rodata._le_param_updated.str1.4,"aMS",@progbits,1
	.align	2
.LC5:
	.string	"[BLE] conn param updated: int 0x%04x lat %d to %d \r\n"
	.section	.text._le_param_updated,"ax",@progbits
	.align	1
	.type	_le_param_updated, @function
_le_param_updated:
.LFB79:
	.loc 1 199 1 is_stmt 1
	.cfi_startproc
.LVL11:
	.loc 1 200 5
	.loc 1 199 1 is_stmt 0
	addi	sp,sp,-16
	.cfi_def_cfa_offset 16
	sw	s0,12(sp)
	.cfi_offset 8, -4
	addi	s0,sp,16
	.cfi_def_cfa 8, 0
	.loc 1 201 1
	lw	s0,12(sp)
	.cfi_restore 8
	.cfi_def_cfa 2, 16
	.loc 1 200 5
	lui	a0,%hi(.LC5)
.LVL12:
	addi	a0,a0,%lo(.LC5)
	.loc 1 201 1
	addi	sp,sp,16
	.cfi_def_cfa_offset 0
	.loc 1 200 5
	tail	printf
.LVL13:
	.cfi_endproc
.LFE79:
	.size	_le_param_updated, .-_le_param_updated
	.section	.rodata._le_param_req.str1.4,"aMS",@progbits,1
	.align	2
.LC6:
	.string	"[BLE] conn param request: int 0x%04x-0x%04x lat %d to %d \r\n"
	.section	.text._le_param_req,"ax",@progbits
	.align	1
	.type	_le_param_req, @function
_le_param_req:
.LFB78:
	.loc 1 187 1 is_stmt 1
	.cfi_startproc
.LVL14:
	.loc 1 188 5
	.loc 1 187 1 is_stmt 0
	addi	sp,sp,-16
	.cfi_def_cfa_offset 16
	sw	s0,8(sp)
	sw	ra,12(sp)
	.cfi_offset 8, -8
	.cfi_offset 1, -4
	addi	s0,sp,16
	.cfi_def_cfa 8, 0
	.loc 1 188 5
	lhu	a4,6(a1)
	lhu	a3,4(a1)
	lhu	a2,2(a1)
	lhu	a1,0(a1)
.LVL15:
	lui	a0,%hi(.LC6)
.LVL16:
	addi	a0,a0,%lo(.LC6)
	call	printf
.LVL17:
	.loc 1 194 5 is_stmt 1
	.loc 1 195 1 is_stmt 0
	lw	ra,12(sp)
	.cfi_restore 1
	lw	s0,8(sp)
	.cfi_restore 8
	.cfi_def_cfa 2, 16
	li	a0,1
	addi	sp,sp,16
	.cfi_def_cfa_offset 0
	jr	ra
	.cfi_endproc
.LFE78:
	.size	_le_param_req, .-_le_param_req
	.section	.rodata._ble_mtu_changed_cb.str1.4,"aMS",@progbits,1
	.align	2
.LC7:
	.string	"[BLE] mtu updated:%d \r\n"
	.section	.text._ble_mtu_changed_cb,"ax",@progbits
	.align	1
	.type	_ble_mtu_changed_cb, @function
_ble_mtu_changed_cb:
.LFB82:
	.loc 1 226 1 is_stmt 1
	.cfi_startproc
.LVL18:
	.loc 1 227 5
	.loc 1 226 1 is_stmt 0
	addi	sp,sp,-16
	.cfi_def_cfa_offset 16
	sw	s0,12(sp)
	.cfi_offset 8, -4
	addi	s0,sp,16
	.cfi_def_cfa 8, 0
	.loc 1 228 1
	lw	s0,12(sp)
	.cfi_restore 8
	.cfi_def_cfa 2, 16
	.loc 1 227 5
	lui	a0,%hi(.LC7)
.LVL19:
	addi	a0,a0,%lo(.LC7)
	.loc 1 228 1
	addi	sp,sp,16
	.cfi_def_cfa_offset 0
	.loc 1 227 5
	tail	printf
.LVL20:
	.cfi_endproc
.LFE82:
	.size	_ble_mtu_changed_cb, .-_ble_mtu_changed_cb
	.section	.rodata.exchange_func.str1.4,"aMS",@progbits,1
	.align	2
.LC8:
	.string	"successful"
	.align	2
.LC9:
	.string	"failed"
	.align	2
.LC10:
	.string	"[BLE] Exchange %s MTU Size =%d \r\n"
	.section	.text.exchange_func,"ax",@progbits
	.align	1
	.type	exchange_func, @function
exchange_func:
.LFB95:
	.loc 1 441 1 is_stmt 1
	.cfi_startproc
.LVL21:
	.loc 1 442 5
	.loc 1 442 8 is_stmt 0
	beq	a0,zero,.L14
	.loc 1 444 9 is_stmt 1
	.loc 1 441 1 is_stmt 0
	addi	sp,sp,-32
	.cfi_def_cfa_offset 32
	sw	s0,24(sp)
	sw	ra,28(sp)
	.cfi_offset 8, -8
	.cfi_offset 1, -4
	addi	s0,sp,32
	.cfi_def_cfa 8, 0
	.loc 1 444 9
	beq	a1,zero,.L17
	lui	a1,%hi(.LC9)
.LVL22:
	addi	a1,a1,%lo(.LC9)
.L16:
	sw	a1,-20(s0)
	.loc 1 444 92 discriminator 4
	call	bt_gatt_get_mtu
.LVL23:
	.loc 1 444 9 discriminator 4
	lw	a1,-20(s0)
	.loc 1 446 1 discriminator 4
	lw	s0,24(sp)
	.cfi_remember_state
	.cfi_restore 8
	.cfi_def_cfa 2, 32
	lw	ra,28(sp)
	.cfi_restore 1
	.loc 1 444 92 discriminator 4
	mv	a2,a0
	.loc 1 444 9 discriminator 4
	lui	a0,%hi(.LC10)
	.loc 1 446 1 discriminator 4
	.loc 1 444 9 discriminator 4
	addi	a0,a0,%lo(.LC10)
	.loc 1 446 1 discriminator 4
	addi	sp,sp,32
	.cfi_def_cfa_offset 0
	.loc 1 444 9 discriminator 4
	tail	printf
.LVL24:
.L17:
	.cfi_restore_state
	.loc 1 444 9
	lui	a1,%hi(.LC8)
.LVL25:
	addi	a1,a1,%lo(.LC8)
	j	.L16
.LVL26:
.L14:
	.cfi_def_cfa_register 2
	.cfi_restore 1
	.cfi_restore 8
	ret
	.cfi_endproc
.LFE95:
	.size	exchange_func, .-exchange_func
	.section	.rodata.ble_uuid1_write_val.str1.4,"aMS",@progbits,1
	.align	2
.LC11:
	.string	"recv ble data len: %d\r\n"
	.align	2
.LC12:
	.string	"0x%x "
	.align	2
.LC13:
	.string	"\r\n"
	.section	.text.ble_uuid1_write_val,"ax",@progbits
	.align	1
	.type	ble_uuid1_write_val, @function
ble_uuid1_write_val:
.LFB73:
	.loc 1 94 1 is_stmt 1
	.cfi_startproc
.LVL27:
	.loc 1 95 5
	.loc 1 96 5
	.loc 1 94 1 is_stmt 0
	addi	sp,sp,-48
	.cfi_def_cfa_offset 48
	sw	ra,44(sp)
	sw	s0,40(sp)
	sw	s1,36(sp)
	.cfi_offset 1, -4
	.cfi_offset 8, -8
	.cfi_offset 9, -12
	addi	s0,sp,48
	.cfi_def_cfa 8, 0
	sw	s2,32(sp)
	sw	s3,28(sp)
	sw	s4,24(sp)
	.loc 1 96 19
	mv	a0,a3
.LVL28:
	.loc 1 94 1
	.cfi_offset 18, -16
	.cfi_offset 19, -20
	.cfi_offset 20, -24
	.loc 1 94 1
	mv	s1,a3
	sw	a2,-36(s0)
	.loc 1 96 19
	call	pvPortMalloc
.LVL29:
	.loc 1 97 5
	lw	a1,-36(s0)
	mv	a2,s1
	.loc 1 96 19
	mv	s2,a0
.LVL30:
	.loc 1 97 5 is_stmt 1
	call	memcpy
.LVL31:
	.loc 1 98 5
	lui	a0,%hi(.LC11)
	mv	a1,s1
	addi	a0,a0,%lo(.LC11)
	call	printf
.LVL32:
	.loc 1 99 5
.LBB17:
	.loc 1 99 10
	.loc 1 99 17 is_stmt 0
	li	s3,0
	.loc 1 101 9
	lui	s4,%hi(.LC12)
.LVL33:
.L22:
	.loc 1 99 24 is_stmt 1 discriminator 1
	.loc 1 99 5 is_stmt 0 discriminator 1
	bgtu	s1,s3,.L23
.LBE17:
	.loc 1 103 5 is_stmt 1
	lui	a0,%hi(.LC13)
	addi	a0,a0,%lo(.LC13)
	call	printf
.LVL34:
	.loc 1 104 5
	mv	a0,s2
	call	vPortFree
.LVL35:
	.loc 1 106 5
	.loc 1 107 1 is_stmt 0
	lw	ra,44(sp)
	.cfi_remember_state
	.cfi_restore 1
	lw	s0,40(sp)
	.cfi_restore 8
	.cfi_def_cfa 2, 48
.LVL36:
	lw	s2,32(sp)
	.cfi_restore 18
.LVL37:
	lw	s3,28(sp)
	.cfi_restore 19
.LVL38:
	lw	s4,24(sp)
	.cfi_restore 20
	mv	a0,s1
	lw	s1,36(sp)
	.cfi_restore 9
	addi	sp,sp,48
	.cfi_def_cfa_offset 0
	jr	ra
.LVL39:
.L23:
	.cfi_restore_state
.LBB18:
	.loc 1 101 9 is_stmt 1 discriminator 3
	.loc 1 101 36 is_stmt 0 discriminator 3
	add	a5,s2,s3
	.loc 1 101 9 discriminator 3
	lbu	a1,0(a5)
	addi	a0,s4,%lo(.LC12)
	.loc 1 99 34 discriminator 3
	addi	s3,s3,1
.LVL40:
	.loc 1 101 9 discriminator 3
	call	printf
.LVL41:
	.loc 1 99 33 is_stmt 1 discriminator 3
	j	.L22
.LBE18:
	.cfi_endproc
.LFE73:
	.size	ble_uuid1_write_val, .-ble_uuid1_write_val
	.section	.text.ble_uuid2_write_val,"ax",@progbits
	.align	1
	.type	ble_uuid2_write_val, @function
ble_uuid2_write_val:
.LFB115:
	.cfi_startproc
	addi	sp,sp,-16
	.cfi_def_cfa_offset 16
	sw	s0,12(sp)
	.cfi_offset 8, -4
	addi	s0,sp,16
	.cfi_def_cfa 8, 0
	lw	s0,12(sp)
	.cfi_restore 8
	.cfi_def_cfa 2, 16
	addi	sp,sp,16
	.cfi_def_cfa_offset 0
	tail	ble_uuid1_write_val
	.cfi_endproc
.LFE115:
	.size	ble_uuid2_write_val, .-ble_uuid2_write_val
	.section	.rodata.ble_salve_disconn_cb.str1.4,"aMS",@progbits,1
	.align	2
.LC14:
	.string	"[BLE] Restart adv fail. \r\n"
	.align	2
.LC15:
	.string	"[BLE] Restart adv success. \r\n"
	.section	.text.ble_salve_disconn_cb,"ax",@progbits
	.align	1
	.type	ble_salve_disconn_cb, @function
ble_salve_disconn_cb:
.LFB87:
	.loc 1 264 1
	.cfi_startproc
.LVL42:
	.loc 1 265 5
	.loc 1 264 1 is_stmt 0
	addi	sp,sp,-16
	.cfi_def_cfa_offset 16
	sw	s0,8(sp)
	sw	ra,12(sp)
	.cfi_offset 8, -8
	.cfi_offset 1, -4
	addi	s0,sp,16
	.cfi_def_cfa 8, 0
	.loc 1 265 9
	li	a0,1
.LVL43:
	call	set_adv_enable
.LVL44:
	.loc 1 265 8
	beq	a0,zero,.L28
	.loc 1 267 9 is_stmt 1
	lui	a0,%hi(.LC14)
	addi	a0,a0,%lo(.LC14)
.L31:
	.loc 1 271 9 is_stmt 0
	call	printf
.LVL45:
	.loc 1 274 5 is_stmt 1
	.loc 1 275 1 is_stmt 0
	lw	ra,12(sp)
	.cfi_remember_state
	.cfi_restore 1
	lw	s0,8(sp)
	.cfi_restore 8
	.cfi_def_cfa 2, 16
	li	a0,0
	addi	sp,sp,16
	.cfi_def_cfa_offset 0
	jr	ra
.L28:
	.cfi_restore_state
	.loc 1 271 9 is_stmt 1
	lui	a0,%hi(.LC15)
	addi	a0,a0,%lo(.LC15)
	j	.L31
	.cfi_endproc
.LFE87:
	.size	ble_salve_disconn_cb, .-ble_salve_disconn_cb
	.section	.text.ble_salve_conn_cb,"ax",@progbits
	.align	1
	.type	ble_salve_conn_cb, @function
ble_salve_conn_cb:
.LFB86:
	.loc 1 250 1
	.cfi_startproc
.LVL46:
	.loc 1 251 5
	.loc 1 253 5
	.loc 1 254 5
	.loc 1 255 5
	.loc 1 256 5
	.loc 1 257 5
	.loc 1 250 1 is_stmt 0
	addi	sp,sp,-32
	.cfi_def_cfa_offset 32
	sw	s0,24(sp)
	sw	ra,28(sp)
	.cfi_offset 8, -8
	.cfi_offset 1, -4
	addi	s0,sp,32
	.cfi_def_cfa 8, 0
	.loc 1 255 24
	li	a5,1572864
	.loc 1 250 1
	.loc 1 255 24
	addi	a5,a5,24
	sw	a5,-24(s0)
	.loc 1 258 11
	addi	a1,s0,-24
.LVL47:
	.loc 1 256 19
	li	a5,39321600
	sw	a5,-20(s0)
	.loc 1 258 5 is_stmt 1
	.loc 1 258 11 is_stmt 0
	call	bt_conn_le_param_update
.LVL48:
	.loc 1 260 5 is_stmt 1
	.loc 1 261 1 is_stmt 0
	lw	ra,28(sp)
	.cfi_restore 1
	lw	s0,24(sp)
	.cfi_restore 8
	.cfi_def_cfa 2, 32
	li	a0,0
	addi	sp,sp,32
	.cfi_def_cfa_offset 0
	jr	ra
	.cfi_endproc
.LFE86:
	.size	ble_salve_conn_cb, .-ble_salve_conn_cb
	.section	.rodata._disconnected.str1.4,"aMS",@progbits,1
	.align	2
.LC16:
	.string	"[BLE] disconnected, reason:%d \r\n"
	.section	.text._disconnected,"ax",@progbits
	.align	1
	.type	_disconnected, @function
_disconnected:
.LFB77:
	.loc 1 166 1 is_stmt 1
	.cfi_startproc
.LVL49:
	.loc 1 167 5
	.loc 1 166 1 is_stmt 0
	addi	sp,sp,-16
	.cfi_def_cfa_offset 16
	sw	s0,8(sp)
	sw	s1,4(sp)
	sw	s2,0(sp)
	sw	ra,12(sp)
	.cfi_offset 8, -8
	.cfi_offset 9, -12
	.cfi_offset 18, -16
	.cfi_offset 1, -4
	addi	s0,sp,16
	.cfi_def_cfa 8, 0
	.loc 1 167 9
	lui	a5,%hi(disconn_cb)
	lw	a5,%lo(disconn_cb)(a5)
	.loc 1 166 1
	mv	s2,a0
	mv	s1,a1
	.loc 1 167 8
	bne	a5,zero,.L35
.LVL50:
.L38:
	.loc 1 175 5 is_stmt 1
	.loc 1 175 8 is_stmt 0
	lbu	a4,2(s2)
	li	a5,1
	bne	a4,a5,.L34
.LVL51:
.LBB21:
.LBB22:
	.loc 1 180 5 is_stmt 1
.LBE22:
.LBE21:
	.loc 1 183 1 is_stmt 0
	lw	s0,8(sp)
	.cfi_remember_state
	.cfi_restore 8
	.cfi_def_cfa 2, 16
	lw	ra,12(sp)
	.cfi_restore 1
	lw	s2,0(sp)
	.cfi_restore 18
.LVL52:
.LBB27:
.LBB23:
	.loc 1 180 14
	lui	a5,%hi(.LANCHOR0)
	.loc 1 182 5
	mv	a1,s1
.LBE23:
.LBE27:
	.loc 1 183 1
	lw	s1,4(sp)
	.cfi_restore 9
.LVL53:
.LBB28:
.LBB24:
	.loc 1 180 14
	sw	zero,%lo(.LANCHOR0)(a5)
	.loc 1 182 5 is_stmt 1
	lui	a0,%hi(.LC16)
.LBE24:
.LBE28:
	.loc 1 183 1 is_stmt 0
.LBB29:
.LBB25:
	.loc 1 182 5
	addi	a0,a0,%lo(.LC16)
.LBE25:
.LBE29:
	.loc 1 183 1
	addi	sp,sp,16
	.cfi_def_cfa_offset 0
.LBB30:
.LBB26:
	.loc 1 182 5
	tail	printf
.LVL54:
.L35:
	.cfi_restore_state
.LBE26:
.LBE30:
	.loc 1 169 9 is_stmt 1
	.loc 1 169 13 is_stmt 0
	jalr	a5
.LVL55:
	.loc 1 169 12
	beq	a0,zero,.L38
.L34:
	.loc 1 183 1
	lw	ra,12(sp)
	.cfi_restore 1
	lw	s0,8(sp)
	.cfi_restore 8
	.cfi_def_cfa 2, 16
	lw	s1,4(sp)
	.cfi_restore 9
	lw	s2,0(sp)
	.cfi_restore 18
.LVL56:
	addi	sp,sp,16
	.cfi_def_cfa_offset 0
	jr	ra
	.cfi_endproc
.LFE77:
	.size	_disconnected, .-_disconnected
	.section	.rodata.bt_enable_cb.str1.4,"aMS",@progbits,1
	.align	2
.LC17:
	.string	"BD_ADDR:(MSB)%02x:%02x:%02x:%02x:%02x:%02x(LSB) \r\n"
	.section	.text.bt_enable_cb,"ax",@progbits
	.align	1
	.type	bt_enable_cb, @function
bt_enable_cb:
.LFB89:
	.loc 1 291 1 is_stmt 1
	.cfi_startproc
.LVL57:
	.loc 1 292 5
	.loc 1 292 8 is_stmt 0
	bne	a0,zero,.L48
.LVL58:
.LBB34:
.LBB35:
.LBB36:
	.loc 1 294 9 is_stmt 1
	.loc 1 295 9
.LBE36:
.LBE35:
.LBE34:
	.loc 1 291 1 is_stmt 0
	addi	sp,sp,-32
	.cfi_def_cfa_offset 32
	sw	ra,28(sp)
	sw	s0,24(sp)
	.cfi_offset 1, -4
	.cfi_offset 8, -8
	addi	s0,sp,32
	.cfi_def_cfa 8, 0
.LBB39:
.LBB38:
.LBB37:
	.loc 1 295 9
	addi	a0,s0,-24
.LVL59:
	call	bt_get_local_public_address
.LVL60:
	.loc 1 296 9 is_stmt 1
	.loc 1 297 9
	.loc 1 298 9
	.loc 1 299 9
	.loc 1 300 9
	.loc 1 301 9
	.loc 1 300 26 is_stmt 0
	li	a5,-28672
	.loc 1 301 26
	li	a4,-120
	.loc 1 300 26
	addi	a5,a5,-1912
	.loc 1 302 9
	lui	a0,%hi(.LC17)
	.loc 1 301 26
	sb	a4,-23(s0)
	.loc 1 300 26
	sh	a5,-22(s0)
	.loc 1 298 26
	sh	a5,-20(s0)
	.loc 1 296 26
	sb	a4,-18(s0)
	.loc 1 302 9 is_stmt 1
	li	a6,136
	li	a5,136
	li	a4,136
	li	a3,136
	li	a2,136
	li	a1,136
	addi	a0,a0,%lo(.LC17)
	call	printf
.LVL61:
.LBE37:
.LBE38:
.LBE39:
	.loc 1 305 1 is_stmt 0
	lw	ra,28(sp)
	.cfi_restore 1
	lw	s0,24(sp)
	.cfi_restore 8
	.cfi_def_cfa 2, 32
	addi	sp,sp,32
	.cfi_def_cfa_offset 0
	jr	ra
.LVL62:
.L48:
	ret
	.cfi_endproc
.LFE89:
	.size	bt_enable_cb, .-bt_enable_cb
	.section	.rodata.ble_disconnect_all.str1.4,"aMS",@progbits,1
	.align	2
.LC18:
	.string	"[BLE] disconn id:%d \r\n"
	.section	.text.ble_disconnect_all,"ax",@progbits
	.align	1
	.type	ble_disconnect_all, @function
ble_disconnect_all:
.LFB81:
	.loc 1 217 1 is_stmt 1
	.cfi_startproc
.LVL63:
	.loc 1 218 5
	.loc 1 218 8 is_stmt 0
	lbu	a4,13(a0)
	li	a5,4
	bne	a4,a5,.L51
	.loc 1 217 1
	addi	sp,sp,-16
	.cfi_def_cfa_offset 16
	sw	s0,8(sp)
	sw	s1,4(sp)
	sw	ra,12(sp)
	.cfi_offset 8, -8
	.cfi_offset 9, -12
	.cfi_offset 1, -4
	addi	s0,sp,16
	.cfi_def_cfa 8, 0
.LBB42:
.LBB43:
	.loc 1 220 9
	lbu	a1,8(a0)
.LVL64:
	mv	s1,a0
.LVL65:
	.loc 1 220 9 is_stmt 1
	lui	a0,%hi(.LC18)
.LVL66:
	addi	a0,a0,%lo(.LC18)
	call	printf
.LVL67:
	.loc 1 221 9
.LBE43:
.LBE42:
	.loc 1 223 1 is_stmt 0
	lw	s0,8(sp)
	.cfi_restore 8
	.cfi_def_cfa 2, 16
	lw	ra,12(sp)
	.cfi_restore 1
.LBB47:
.LBB44:
	.loc 1 221 9
	mv	a0,s1
.LBE44:
.LBE47:
	.loc 1 223 1
	lw	s1,4(sp)
	.cfi_restore 9
.LVL68:
.LBB48:
.LBB45:
	.loc 1 221 9
	li	a1,19
.LBE45:
.LBE48:
	.loc 1 223 1
	addi	sp,sp,16
	.cfi_def_cfa_offset 0
.LBB49:
.LBB46:
	.loc 1 221 9
	tail	bt_conn_disconnect
.LVL69:
.L51:
	ret
.LBE46:
.LBE49:
	.cfi_endproc
.LFE81:
	.size	ble_disconnect_all, .-ble_disconnect_all
	.section	.text.ble_get_conn_cur,"ax",@progbits
	.align	1
	.globl	ble_get_conn_cur
	.type	ble_get_conn_cur, @function
ble_get_conn_cur:
.LFB83:
	.loc 1 231 1 is_stmt 1
	.cfi_startproc
	.loc 1 232 5
	.loc 1 231 1 is_stmt 0
	addi	sp,sp,-16
	.cfi_def_cfa_offset 16
	sw	s0,12(sp)
	.cfi_offset 8, -4
	addi	s0,sp,16
	.cfi_def_cfa 8, 0
	.loc 1 233 1
	lw	s0,12(sp)
	.cfi_restore 8
	.cfi_def_cfa 2, 16
	lui	a5,%hi(.LANCHOR0)
	lw	a0,%lo(.LANCHOR0)(a5)
	addi	sp,sp,16
	.cfi_def_cfa_offset 0
	jr	ra
	.cfi_endproc
.LFE83:
	.size	ble_get_conn_cur, .-ble_get_conn_cur
	.section	.text.ble_regist_conn,"ax",@progbits
	.align	1
	.globl	ble_regist_conn
	.type	ble_regist_conn, @function
ble_regist_conn:
.LFB84:
	.loc 1 236 1 is_stmt 1
	.cfi_startproc
.LVL70:
	.loc 1 237 5
	.loc 1 236 1 is_stmt 0
	addi	sp,sp,-16
	.cfi_def_cfa_offset 16
	sw	s0,12(sp)
	.cfi_offset 8, -4
	addi	s0,sp,16
	.cfi_def_cfa 8, 0
	.loc 1 240 1
	lw	s0,12(sp)
	.cfi_restore 8
	.cfi_def_cfa 2, 16
	.loc 1 237 13
	lui	a5,%hi(conn_cb)
	sw	a0,%lo(conn_cb)(a5)
	.loc 1 239 5 is_stmt 1
	.loc 1 240 1 is_stmt 0
	li	a0,0
.LVL71:
	addi	sp,sp,16
	.cfi_def_cfa_offset 0
	jr	ra
	.cfi_endproc
.LFE84:
	.size	ble_regist_conn, .-ble_regist_conn
	.section	.text.ble_regist_disconn,"ax",@progbits
	.align	1
	.globl	ble_regist_disconn
	.type	ble_regist_disconn, @function
ble_regist_disconn:
.LFB85:
	.loc 1 243 1 is_stmt 1
	.cfi_startproc
.LVL72:
	.loc 1 244 5
	.loc 1 243 1 is_stmt 0
	addi	sp,sp,-16
	.cfi_def_cfa_offset 16
	sw	s0,12(sp)
	.cfi_offset 8, -4
	addi	s0,sp,16
	.cfi_def_cfa 8, 0
	.loc 1 247 1
	lw	s0,12(sp)
	.cfi_restore 8
	.cfi_def_cfa 2, 16
	.loc 1 244 16
	lui	a5,%hi(disconn_cb)
	sw	a0,%lo(disconn_cb)(a5)
	.loc 1 246 5 is_stmt 1
	.loc 1 247 1 is_stmt 0
	li	a0,0
.LVL73:
	addi	sp,sp,16
	.cfi_def_cfa_offset 0
	jr	ra
	.cfi_endproc
.LFE85:
	.size	ble_regist_disconn, .-ble_regist_disconn
	.section	.rodata.ble_salve_adv.str1.4,"aMS",@progbits,1
	.align	2
.LC19:
	.string	"[BLE] adv fail(err %d) \r\n"
	.section	.text.ble_salve_adv,"ax",@progbits
	.align	1
	.globl	ble_salve_adv
	.type	ble_salve_adv, @function
ble_salve_adv:
.LFB88:
	.loc 1 278 1 is_stmt 1
	.cfi_startproc
	.loc 1 279 5
.LVL74:
	.loc 1 280 5
	.loc 1 278 1 is_stmt 0
	addi	sp,sp,-32
	.cfi_def_cfa_offset 32
	sw	s0,24(sp)
	sw	ra,28(sp)
	.cfi_offset 8, -8
	.cfi_offset 1, -4
	addi	s0,sp,32
	.cfi_def_cfa 8, 0
	.loc 1 280 54
	li	a5,10485760
	.loc 1 278 1
	.loc 1 280 54
	addi	a5,a5,256
	.loc 1 280 11
	lui	a1,%hi(.LANCHOR1)
	.loc 1 280 54
	sw	a5,-24(s0)
	.loc 1 280 11
	li	a4,0
	.loc 1 280 54
	li	a5,240
	.loc 1 280 11
	li	a3,0
	li	a2,2
	addi	a1,a1,%lo(.LANCHOR1)
	addi	a0,s0,-24
	.loc 1 280 54
	sh	a5,-20(s0)
	.loc 1 280 11
	call	bt_le_adv_start
.LVL75:
	.loc 1 281 5 is_stmt 1
	.loc 1 281 8 is_stmt 0
	beq	a0,zero,.L62
	.loc 1 283 9 is_stmt 1
	mv	a1,a0
	lui	a0,%hi(.LC19)
.LVL76:
	addi	a0,a0,%lo(.LC19)
	call	printf
.LVL77:
	.loc 1 284 9
	.loc 1 284 16 is_stmt 0
	li	a0,-1
.L62:
	.loc 1 288 1
	lw	ra,28(sp)
	.cfi_restore 1
	lw	s0,24(sp)
	.cfi_restore 8
	.cfi_def_cfa 2, 32
	addi	sp,sp,32
	.cfi_def_cfa_offset 0
	jr	ra
	.cfi_endproc
.LFE88:
	.size	ble_salve_adv, .-ble_salve_adv
	.section	.text.ble_reverse_byte,"ax",@progbits
	.align	1
	.globl	ble_reverse_byte
	.type	ble_reverse_byte, @function
ble_reverse_byte:
.LFB90:
	.loc 1 308 1 is_stmt 1
	.cfi_startproc
.LVL78:
	.loc 1 309 5
	.loc 1 311 5
	.loc 1 308 1 is_stmt 0
	addi	sp,sp,-16
	.cfi_def_cfa_offset 16
	sw	s0,12(sp)
	.cfi_offset 8, -4
	addi	s0,sp,16
	.cfi_def_cfa 8, 0
	.loc 1 311 26
	srli	a2,a1,1
	.loc 1 308 1
	.loc 1 311 12
	li	a5,0
	.loc 1 314 31
	addi	a1,a1,-1
.LVL79:
.L69:
	.loc 1 311 17 is_stmt 1 discriminator 1
	.loc 1 311 5 is_stmt 0 discriminator 1
	bltu	a5,a2,.L70
	.loc 1 317 1
	lw	s0,12(sp)
	.cfi_remember_state
	.cfi_restore 8
	.cfi_def_cfa 2, 16
	addi	sp,sp,16
	.cfi_def_cfa_offset 0
	jr	ra
.L70:
	.cfi_restore_state
	.loc 1 313 9 is_stmt 1 discriminator 3
	.loc 1 314 31 is_stmt 0 discriminator 3
	sub	a4,a1,a5
	.loc 1 314 21 discriminator 3
	add	a4,a0,a4
	.loc 1 313 18 discriminator 3
	add	a3,a0,a5
	.loc 1 314 21 discriminator 3
	lbu	a7,0(a4)
	.loc 1 313 13 discriminator 3
	lbu	a6,0(a3)
.LVL80:
	.loc 1 314 9 is_stmt 1 discriminator 3
	.loc 1 311 32 is_stmt 0 discriminator 3
	addi	a5,a5,1
.LVL81:
	.loc 1 314 16 discriminator 3
	sb	a7,0(a3)
	.loc 1 315 9 is_stmt 1 discriminator 3
	.loc 1 315 27 is_stmt 0 discriminator 3
	sb	a6,0(a4)
	.loc 1 311 31 is_stmt 1 discriminator 3
	.loc 1 311 32 is_stmt 0 discriminator 3
	andi	a5,a5,0xff
.LVL82:
	j	.L69
	.cfi_endproc
.LFE90:
	.size	ble_reverse_byte, .-ble_reverse_byte
	.section	.rodata.ble_uuid1_notify_data.str1.4,"aMS",@progbits,1
	.align	2
.LC20:
	.string	"[BLE] notify len:%d \r\n"
	.section	.text.ble_uuid1_notify_data,"ax",@progbits
	.align	1
	.globl	ble_uuid1_notify_data
	.type	ble_uuid1_notify_data, @function
ble_uuid1_notify_data:
.LFB91:
	.loc 1 320 1 is_stmt 1
	.cfi_startproc
.LVL83:
	.loc 1 321 5
	.loc 1 322 5
	.loc 1 323 5
	.loc 1 324 5
	.loc 1 326 5
	.loc 1 327 5
	.loc 1 320 1 is_stmt 0
	addi	sp,sp,-96
	.cfi_def_cfa_offset 96
	sw	s0,88(sp)
	sw	s1,84(sp)
	sw	s2,80(sp)
	sw	s4,72(sp)
	sw	s5,68(sp)
	sw	s6,64(sp)
	sw	s7,60(sp)
	sw	s8,56(sp)
	sw	s10,48(sp)
	sw	ra,92(sp)
	sw	s3,76(sp)
	sw	s9,52(sp)
	sw	s11,44(sp)
	.cfi_offset 8, -8
	.cfi_offset 9, -12
	.cfi_offset 18, -16
	.cfi_offset 20, -24
	.cfi_offset 21, -28
	.cfi_offset 22, -32
	.cfi_offset 23, -36
	.cfi_offset 24, -40
	.cfi_offset 26, -48
	.cfi_offset 1, -4
	.cfi_offset 19, -20
	.cfi_offset 25, -44
	.cfi_offset 27, -52
	addi	s0,sp,96
	.cfi_def_cfa 8, 0
	.loc 1 320 1
	mv	s5,a0
	mv	s6,a1
	mv	s1,a2
	.loc 1 327 11
	call	bt_gatt_get_mtu
.LVL84:
	.loc 1 327 9
	addi	s2,a0,-3
	slli	s2,s2,16
	srli	s2,s2,16
.LVL85:
	.loc 1 328 5 is_stmt 1
.LBB52:
.LBB53:
	.file 2 "/home/quanghaictu/intern/Ai-Thinker-WB2/components/network/ble/blestack/src/include/bluetooth/gatt.h"
	.loc 2 870 14 is_stmt 0
	lui	s7,%hi(.LANCHOR2+40)
.LBE53:
.LBE52:
	.loc 1 326 12
	li	s4,0
	.loc 1 331 18
	mv	s10,s2
.LBB59:
.LBB54:
	.loc 2 870 14
	addi	s7,s7,%lo(.LANCHOR2+40)
.LBE54:
.LBE59:
	.loc 1 338 9
	lui	s8,%hi(.LC20)
.LVL86:
.L73:
	.loc 1 328 11 is_stmt 1
	bne	s1,zero,.L76
	li	s3,0
	.loc 1 346 5
	.loc 1 346 12 is_stmt 0
	j	.L72
.L76:
	.loc 1 331 9 is_stmt 1
	.loc 1 331 18 is_stmt 0
	mv	s3,s1
	bleu	s1,s2,.L74
	mv	s3,s10
.L74:
.LBB60:
.LBB55:
	.loc 2 868 2
	li	a2,24
	li	a1,0
	addi	a0,s0,-88
	call	memset
.LVL87:
.LBE55:
.LBE60:
	.loc 1 331 18
	slli	s9,s3,16
	srli	s9,s9,16
.LVL88:
	.loc 1 333 9 is_stmt 1
	.loc 1 333 67 is_stmt 0
	add	s11,s6,s4
.LVL89:
.LBB61:
.LBB56:
	.loc 2 866 2 is_stmt 1
	.loc 2 868 2
	.loc 2 870 2
	.loc 2 874 9 is_stmt 0
	addi	a1,s0,-88
	mv	a0,s5
	.loc 2 872 13
	sh	s3,-76(s0)
	.loc 2 870 14
	sw	s7,-84(s0)
	.loc 2 871 2 is_stmt 1
	.loc 2 871 14 is_stmt 0
	sw	s11,-80(s0)
	.loc 2 872 2 is_stmt 1
	.loc 2 874 2
.LBE56:
.LBE61:
	.loc 1 335 16 is_stmt 0
	add	s4,s4,s9
.LVL90:
.LBB62:
.LBB57:
	.loc 2 874 9
	call	bt_gatt_notify_cb
.LVL91:
.LBE57:
.LBE62:
	.loc 1 336 16
	sub	s1,s1,s9
.LVL92:
.LBB63:
.LBB58:
	.loc 2 874 9
	mv	s3,a0
.LVL93:
.LBE58:
.LBE63:
	.loc 1 335 9 is_stmt 1
	.loc 1 335 16 is_stmt 0
	slli	s4,s4,16
	.loc 1 336 16
	slli	s1,s1,16
	.loc 1 338 9
	mv	a1,s9
	addi	a0,s8,%lo(.LC20)
.LVL94:
	.loc 1 335 16
	srli	s4,s4,16
.LVL95:
	.loc 1 336 9 is_stmt 1
	.loc 1 336 16 is_stmt 0
	srli	s1,s1,16
.LVL96:
	.loc 1 338 9 is_stmt 1
	call	printf
.LVL97:
	.loc 1 340 9
	.loc 1 340 12 is_stmt 0
	beq	s3,zero,.L73
.LVL98:
.L72:
	.loc 1 347 1
	lw	ra,92(sp)
	.cfi_restore 1
	lw	s0,88(sp)
	.cfi_restore 8
	.cfi_def_cfa 2, 96
	lw	s1,84(sp)
	.cfi_restore 9
.LVL99:
	lw	s2,80(sp)
	.cfi_restore 18
.LVL100:
	lw	s4,72(sp)
	.cfi_restore 20
.LVL101:
	lw	s5,68(sp)
	.cfi_restore 21
.LVL102:
	lw	s6,64(sp)
	.cfi_restore 22
.LVL103:
	lw	s7,60(sp)
	.cfi_restore 23
	lw	s8,56(sp)
	.cfi_restore 24
	lw	s9,52(sp)
	.cfi_restore 25
	lw	s10,48(sp)
	.cfi_restore 26
.LVL104:
	lw	s11,44(sp)
	.cfi_restore 27
	mv	a0,s3
	lw	s3,76(sp)
	.cfi_restore 19
	addi	sp,sp,96
	.cfi_def_cfa_offset 0
	jr	ra
	.cfi_endproc
.LFE91:
	.size	ble_uuid1_notify_data, .-ble_uuid1_notify_data
	.section	.text.ble_uuid2_notify_data,"ax",@progbits
	.align	1
	.globl	ble_uuid2_notify_data
	.type	ble_uuid2_notify_data, @function
ble_uuid2_notify_data:
.LFB92:
	.loc 1 350 1 is_stmt 1
	.cfi_startproc
.LVL105:
	.loc 1 351 5
	.loc 1 352 5
	.loc 1 353 5
	.loc 1 354 5
	.loc 1 356 5
	.loc 1 357 5
	.loc 1 350 1 is_stmt 0
	addi	sp,sp,-96
	.cfi_def_cfa_offset 96
	sw	s0,88(sp)
	sw	s1,84(sp)
	sw	s2,80(sp)
	sw	s4,72(sp)
	sw	s5,68(sp)
	sw	s6,64(sp)
	sw	s7,60(sp)
	sw	s8,56(sp)
	sw	s10,48(sp)
	sw	ra,92(sp)
	sw	s3,76(sp)
	sw	s9,52(sp)
	sw	s11,44(sp)
	.cfi_offset 8, -8
	.cfi_offset 9, -12
	.cfi_offset 18, -16
	.cfi_offset 20, -24
	.cfi_offset 21, -28
	.cfi_offset 22, -32
	.cfi_offset 23, -36
	.cfi_offset 24, -40
	.cfi_offset 26, -48
	.cfi_offset 1, -4
	.cfi_offset 19, -20
	.cfi_offset 25, -44
	.cfi_offset 27, -52
	addi	s0,sp,96
	.cfi_def_cfa 8, 0
	.loc 1 350 1
	mv	s5,a0
	mv	s6,a1
	mv	s1,a2
	.loc 1 357 11
	call	bt_gatt_get_mtu
.LVL106:
	.loc 1 357 9
	addi	s2,a0,-3
	slli	s2,s2,16
	srli	s2,s2,16
.LVL107:
	.loc 1 358 5 is_stmt 1
.LBB66:
.LBB67:
	.loc 2 870 14 is_stmt 0
	lui	s7,%hi(.LANCHOR3+40)
.LBE67:
.LBE66:
	.loc 1 356 12
	li	s4,0
	.loc 1 361 18
	mv	s10,s2
.LBB73:
.LBB68:
	.loc 2 870 14
	addi	s7,s7,%lo(.LANCHOR3+40)
.LBE68:
.LBE73:
	.loc 1 368 9
	lui	s8,%hi(.LC20)
.LVL108:
.L79:
	.loc 1 358 11 is_stmt 1
	bne	s1,zero,.L82
	li	s3,0
	.loc 1 376 5
	.loc 1 376 12 is_stmt 0
	j	.L78
.L82:
	.loc 1 361 9 is_stmt 1
	.loc 1 361 18 is_stmt 0
	mv	s3,s1
	bleu	s1,s2,.L80
	mv	s3,s10
.L80:
.LBB74:
.LBB69:
	.loc 2 868 2
	li	a2,24
	li	a1,0
	addi	a0,s0,-88
	call	memset
.LVL109:
.LBE69:
.LBE74:
	.loc 1 361 18
	slli	s9,s3,16
	srli	s9,s9,16
.LVL110:
	.loc 1 363 9 is_stmt 1
	.loc 1 363 67 is_stmt 0
	add	s11,s6,s4
.LVL111:
.LBB75:
.LBB70:
	.loc 2 866 2 is_stmt 1
	.loc 2 868 2
	.loc 2 870 2
	.loc 2 874 9 is_stmt 0
	addi	a1,s0,-88
	mv	a0,s5
	.loc 2 872 13
	sh	s3,-76(s0)
	.loc 2 870 14
	sw	s7,-84(s0)
	.loc 2 871 2 is_stmt 1
	.loc 2 871 14 is_stmt 0
	sw	s11,-80(s0)
	.loc 2 872 2 is_stmt 1
	.loc 2 874 2
.LBE70:
.LBE75:
	.loc 1 365 16 is_stmt 0
	add	s4,s4,s9
.LVL112:
.LBB76:
.LBB71:
	.loc 2 874 9
	call	bt_gatt_notify_cb
.LVL113:
.LBE71:
.LBE76:
	.loc 1 366 16
	sub	s1,s1,s9
.LVL114:
.LBB77:
.LBB72:
	.loc 2 874 9
	mv	s3,a0
.LVL115:
.LBE72:
.LBE77:
	.loc 1 365 9 is_stmt 1
	.loc 1 365 16 is_stmt 0
	slli	s4,s4,16
	.loc 1 366 16
	slli	s1,s1,16
	.loc 1 368 9
	mv	a1,s9
	addi	a0,s8,%lo(.LC20)
.LVL116:
	.loc 1 365 16
	srli	s4,s4,16
.LVL117:
	.loc 1 366 9 is_stmt 1
	.loc 1 366 16 is_stmt 0
	srli	s1,s1,16
.LVL118:
	.loc 1 368 9 is_stmt 1
	call	printf
.LVL119:
	.loc 1 370 9
	.loc 1 370 12 is_stmt 0
	beq	s3,zero,.L79
.LVL120:
.L78:
	.loc 1 377 1
	lw	ra,92(sp)
	.cfi_restore 1
	lw	s0,88(sp)
	.cfi_restore 8
	.cfi_def_cfa 2, 96
	lw	s1,84(sp)
	.cfi_restore 9
.LVL121:
	lw	s2,80(sp)
	.cfi_restore 18
.LVL122:
	lw	s4,72(sp)
	.cfi_restore 20
.LVL123:
	lw	s5,68(sp)
	.cfi_restore 21
.LVL124:
	lw	s6,64(sp)
	.cfi_restore 22
.LVL125:
	lw	s7,60(sp)
	.cfi_restore 23
	lw	s8,56(sp)
	.cfi_restore 24
	lw	s9,52(sp)
	.cfi_restore 25
	lw	s10,48(sp)
	.cfi_restore 26
.LVL126:
	lw	s11,44(sp)
	.cfi_restore 27
	mv	a0,s3
	lw	s3,76(sp)
	.cfi_restore 19
	addi	sp,sp,96
	.cfi_def_cfa_offset 0
	jr	ra
	.cfi_endproc
.LFE92:
	.size	ble_uuid2_notify_data, .-ble_uuid2_notify_data
	.section	.text.UUID1_SendNotify,"ax",@progbits
	.align	1
	.globl	UUID1_SendNotify
	.type	UUID1_SendNotify, @function
UUID1_SendNotify:
.LFB93:
	.loc 1 390 1 is_stmt 1
	.cfi_startproc
.LVL127:
	.loc 1 391 5
	.loc 1 392 5
	.loc 1 394 5
.LBB78:
.LBB79:
	.loc 1 232 5
.LBE79:
.LBE78:
	.loc 1 390 1 is_stmt 0
	addi	sp,sp,-16
	.cfi_def_cfa_offset 16
	sw	s0,8(sp)
	sw	s1,4(sp)
	sw	ra,12(sp)
	.cfi_offset 8, -8
	.cfi_offset 9, -12
	.cfi_offset 1, -4
	addi	s0,sp,16
	.cfi_def_cfa 8, 0
.LBB82:
.LBB80:
	.loc 1 232 12
	lui	a5,%hi(.LANCHOR0)
.LBE80:
.LBE82:
	.loc 1 390 1
	.loc 1 390 1
	mv	s1,a0
.LBB83:
.LBB81:
	.loc 1 232 12
	lw	a0,%lo(.LANCHOR0)(a5)
.LVL128:
.LBE81:
.LBE83:
	.loc 1 395 5 is_stmt 1
	.loc 1 397 16 is_stmt 0
	li	a5,-1
	.loc 1 395 8
	beq	a0,zero,.L84
	.loc 1 400 5 is_stmt 1
	.loc 1 400 11 is_stmt 0
	mv	a2,s1
	call	ble_uuid1_notify_data
.LVL129:
	.loc 1 401 5 is_stmt 1
	.loc 1 403 16 is_stmt 0
	li	a5,-4
	.loc 1 401 8
	bne	a0,zero,.L84
	.loc 1 406 5 is_stmt 1
	.loc 1 406 12 is_stmt 0
	mv	a5,s1
.LVL130:
.L84:
	.loc 1 407 1
	lw	ra,12(sp)
	.cfi_restore 1
	lw	s0,8(sp)
	.cfi_restore 8
	.cfi_def_cfa 2, 16
	lw	s1,4(sp)
	.cfi_restore 9
	mv	a0,a5
	addi	sp,sp,16
	.cfi_def_cfa_offset 0
	jr	ra
	.cfi_endproc
.LFE93:
	.size	UUID1_SendNotify, .-UUID1_SendNotify
	.section	.text.UUID2_SendNotify,"ax",@progbits
	.align	1
	.globl	UUID2_SendNotify
	.type	UUID2_SendNotify, @function
UUID2_SendNotify:
.LFB94:
	.loc 1 420 1 is_stmt 1
	.cfi_startproc
.LVL131:
	.loc 1 421 5
	.loc 1 422 5
	.loc 1 424 5
.LBB84:
.LBB85:
	.loc 1 232 5
.LBE85:
.LBE84:
	.loc 1 420 1 is_stmt 0
	addi	sp,sp,-16
	.cfi_def_cfa_offset 16
	sw	s0,8(sp)
	sw	s1,4(sp)
	sw	ra,12(sp)
	.cfi_offset 8, -8
	.cfi_offset 9, -12
	.cfi_offset 1, -4
	addi	s0,sp,16
	.cfi_def_cfa 8, 0
.LBB88:
.LBB86:
	.loc 1 232 12
	lui	a5,%hi(.LANCHOR0)
.LBE86:
.LBE88:
	.loc 1 420 1
	.loc 1 420 1
	mv	s1,a0
.LBB89:
.LBB87:
	.loc 1 232 12
	lw	a0,%lo(.LANCHOR0)(a5)
.LVL132:
.LBE87:
.LBE89:
	.loc 1 425 5 is_stmt 1
	.loc 1 427 16 is_stmt 0
	li	a5,-1
	.loc 1 425 8
	beq	a0,zero,.L89
	.loc 1 430 5 is_stmt 1
	.loc 1 430 11 is_stmt 0
	mv	a2,s1
	call	ble_uuid2_notify_data
.LVL133:
	.loc 1 431 5 is_stmt 1
	.loc 1 433 16 is_stmt 0
	li	a5,-4
	.loc 1 431 8
	bne	a0,zero,.L89
	.loc 1 436 5 is_stmt 1
	.loc 1 436 12 is_stmt 0
	mv	a5,s1
.LVL134:
.L89:
	.loc 1 437 1
	lw	ra,12(sp)
	.cfi_restore 1
	lw	s0,8(sp)
	.cfi_restore 8
	.cfi_def_cfa 2, 16
	lw	s1,4(sp)
	.cfi_restore 9
	mv	a0,a5
	addi	sp,sp,16
	.cfi_def_cfa_offset 0
	jr	ra
	.cfi_endproc
.LFE94:
	.size	UUID2_SendNotify, .-UUID2_SendNotify
	.section	.text.BleSetMtu,"ax",@progbits
	.align	1
	.globl	BleSetMtu
	.type	BleSetMtu, @function
BleSetMtu:
.LFB96:
	.loc 1 451 1 is_stmt 1
	.cfi_startproc
	.loc 1 452 5
.LVL135:
	.loc 1 453 5
	.loc 1 453 18 is_stmt 0
	lui	a5,%hi(.LANCHOR0)
	lw	a4,%lo(.LANCHOR0)(a5)
	.loc 1 453 8
	beq	a4,zero,.L97
	.loc 1 458 5 is_stmt 1
	.loc 1 451 1 is_stmt 0
	addi	sp,sp,-16
	.cfi_def_cfa_offset 16
	sw	s0,8(sp)
	sw	ra,12(sp)
	.cfi_offset 8, -8
	.cfi_offset 1, -4
	addi	s0,sp,16
	.cfi_def_cfa 8, 0
	.loc 1 458 26
	lui	a1,%hi(.LANCHOR4)
	lui	a5,%hi(exchange_func)
	.loc 1 451 1
	.loc 1 458 26
	addi	a3,a1,%lo(.LANCHOR4)
	addi	a5,a5,%lo(exchange_func)
	.loc 1 459 11
	addi	a1,a1,%lo(.LANCHOR4)
	mv	a0,a4
	.loc 1 458 26
	sw	a5,24(a3)
	.loc 1 459 5 is_stmt 1
	.loc 1 459 11 is_stmt 0
	call	bt_gatt_exchange_mtu
.LVL136:
	.loc 1 460 5 is_stmt 1
	.loc 1 466 1 is_stmt 0
	lw	ra,12(sp)
	.cfi_restore 1
	lw	s0,8(sp)
	.cfi_restore 8
	.cfi_def_cfa 2, 16
	.loc 1 455 16
	snez	a0,a0
.LVL137:
	.loc 1 466 1
	addi	sp,sp,16
	.cfi_def_cfa_offset 0
	jr	ra
.LVL138:
.L97:
	li	a0,1
	ret
	.cfi_endproc
.LFE96:
	.size	BleSetMtu, .-BleSetMtu
	.section	.rodata._connected.str1.4,"aMS",@progbits,1
	.align	2
.LC21:
	.string	"[BLE] connected \r\n"
	.section	.text._connected,"ax",@progbits
	.align	1
	.type	_connected, @function
_connected:
.LFB76:
	.loc 1 144 1 is_stmt 1
	.cfi_startproc
.LVL139:
	addi	sp,sp,-16
	.cfi_def_cfa_offset 16
	sw	s0,8(sp)
	sw	s1,4(sp)
	sw	ra,12(sp)
	.cfi_offset 8, -8
	.cfi_offset 9, -12
	.cfi_offset 1, -4
	addi	s0,sp,16
	.cfi_def_cfa 8, 0
	.loc 1 145 9 is_stmt 0
	lui	a5,%hi(conn_cb)
	lw	a5,%lo(conn_cb)(a5)
	.loc 1 144 1
	mv	s1,a0
	.loc 1 145 5 is_stmt 1
	.loc 1 145 8 is_stmt 0
	bne	a5,zero,.L103
.LVL140:
.L106:
	.loc 1 153 5 is_stmt 1
	.loc 1 153 8 is_stmt 0
	lbu	a4,2(s1)
	li	a5,1
	bne	a4,a5,.L102
.LVL141:
.LBB92:
.LBB93:
	.loc 1 158 5 is_stmt 1
	.loc 1 160 5 is_stmt 0
	lui	a0,%hi(.LC21)
	.loc 1 158 14
	lui	a5,%hi(.LANCHOR0)
	.loc 1 160 5
	addi	a0,a0,%lo(.LC21)
	.loc 1 158 14
	sw	s1,%lo(.LANCHOR0)(a5)
	.loc 1 160 5 is_stmt 1
	call	printf
.LVL142:
	.loc 1 161 5
.LBE93:
.LBE92:
	.loc 1 163 1 is_stmt 0
	lw	s0,8(sp)
	.cfi_remember_state
	.cfi_restore 8
	.cfi_def_cfa 2, 16
	lw	ra,12(sp)
	.cfi_restore 1
	lw	s1,4(sp)
	.cfi_restore 9
.LVL143:
	addi	sp,sp,16
	.cfi_def_cfa_offset 0
.LBB95:
.LBB94:
	.loc 1 161 5
	tail	BleSetMtu
.LVL144:
.L103:
	.cfi_restore_state
.LBE94:
.LBE95:
	.loc 1 147 9 is_stmt 1
	.loc 1 147 13 is_stmt 0
	jalr	a5
.LVL145:
	.loc 1 147 12
	beq	a0,zero,.L106
.L102:
	.loc 1 163 1
	lw	ra,12(sp)
	.cfi_restore 1
	lw	s0,8(sp)
	.cfi_restore 8
	.cfi_def_cfa 2, 16
	lw	s1,4(sp)
	.cfi_restore 9
.LVL146:
	addi	sp,sp,16
	.cfi_def_cfa_offset 0
	jr	ra
	.cfi_endproc
.LFE76:
	.size	_connected, .-_connected
	.section	.text.ble_slave_deinit,"ax",@progbits
	.align	1
	.globl	ble_slave_deinit
	.type	ble_slave_deinit, @function
ble_slave_deinit:
.LFB98:
	.loc 1 481 1 is_stmt 1
	.cfi_startproc
	.loc 1 483 5
	.loc 1 481 1 is_stmt 0
	addi	sp,sp,-16
	.cfi_def_cfa_offset 16
	sw	s0,8(sp)
	sw	ra,12(sp)
	.cfi_offset 8, -8
	.cfi_offset 1, -4
	addi	s0,sp,16
	.cfi_def_cfa 8, 0
	.loc 1 483 5
	call	bt_le_adv_stop
.LVL147:
	.loc 1 484 5 is_stmt 1
.LBB96:
.LBB97:
	.loc 1 237 5
.LBE97:
.LBE96:
	.loc 1 488 1 is_stmt 0
	lw	ra,12(sp)
	.cfi_restore 1
	lw	s0,8(sp)
	.cfi_restore 8
	.cfi_def_cfa 2, 16
.LBB99:
.LBB98:
	.loc 1 237 13
	lui	a5,%hi(conn_cb)
	sw	zero,%lo(conn_cb)(a5)
	.loc 1 239 5 is_stmt 1
.LVL148:
.LBE98:
.LBE99:
	.loc 1 485 5
.LBB100:
.LBB101:
	.loc 1 244 5
	.loc 1 244 16 is_stmt 0
	lui	a5,%hi(disconn_cb)
	sw	zero,%lo(disconn_cb)(a5)
	.loc 1 246 5 is_stmt 1
.LVL149:
.LBE101:
.LBE100:
	.loc 1 487 5
	.loc 1 488 1 is_stmt 0
	li	a0,0
	addi	sp,sp,16
	.cfi_def_cfa_offset 0
	jr	ra
	.cfi_endproc
.LFE98:
	.size	ble_slave_deinit, .-ble_slave_deinit
	.section	.text.ble_server_init,"ax",@progbits
	.align	1
	.globl	ble_server_init
	.type	ble_server_init, @function
ble_server_init:
.LFB99:
	.loc 1 491 1 is_stmt 1
	.cfi_startproc
	.loc 1 492 5
.LVL150:
	.loc 1 494 5
	.loc 1 491 1 is_stmt 0
	addi	sp,sp,-16
	.cfi_def_cfa_offset 16
	sw	ra,12(sp)
	sw	s0,8(sp)
	sw	s1,4(sp)
	.cfi_offset 1, -4
	.cfi_offset 8, -8
	.cfi_offset 9, -12
	addi	s0,sp,16
	.cfi_def_cfa 8, 0
	.loc 1 494 11
	lui	a0,%hi(.LANCHOR5)
	.loc 1 491 1
	.loc 1 494 11
	addi	a0,a0,%lo(.LANCHOR5)
	call	bt_gatt_service_register
.LVL151:
	mv	s1,a0
.LVL152:
	.loc 1 495 5 is_stmt 1
	.loc 1 495 12 is_stmt 0
	lui	a0,%hi(.LANCHOR6)
	addi	a0,a0,%lo(.LANCHOR6)
	call	bt_gatt_service_register
.LVL153:
	.loc 1 497 5 is_stmt 1
	.loc 1 498 1 is_stmt 0
	lw	ra,12(sp)
	.cfi_restore 1
	lw	s0,8(sp)
	.cfi_restore 8
	.cfi_def_cfa 2, 16
	or	a0,s1,a0
.LVL154:
	lw	s1,4(sp)
	.cfi_restore 9
	addi	sp,sp,16
	.cfi_def_cfa_offset 0
	jr	ra
	.cfi_endproc
.LFE99:
	.size	ble_server_init, .-ble_server_init
	.section	.text.ble_slave_init,"ax",@progbits
	.align	1
	.globl	ble_slave_init
	.type	ble_slave_init, @function
ble_slave_init:
.LFB97:
	.loc 1 469 1 is_stmt 1
	.cfi_startproc
	.loc 1 471 5
.LBB102:
.LBB103:
	.loc 1 237 5
.LBE103:
.LBE102:
	.loc 1 469 1 is_stmt 0
	addi	sp,sp,-16
	.cfi_def_cfa_offset 16
	sw	ra,12(sp)
	sw	s0,8(sp)
.LBB106:
.LBB104:
	.loc 1 237 13
	lui	a5,%hi(ble_salve_conn_cb)
	.cfi_offset 1, -4
	.cfi_offset 8, -8
.LBE104:
.LBE106:
	.loc 1 469 1
	addi	s0,sp,16
	.cfi_def_cfa 8, 0
.LBB107:
.LBB105:
	.loc 1 237 13
	lui	a4,%hi(conn_cb)
	addi	a5,a5,%lo(ble_salve_conn_cb)
	sw	a5,%lo(conn_cb)(a4)
	.loc 1 239 5 is_stmt 1
.LBE105:
.LBE107:
	.loc 1 472 5
.LBB108:
.LBB109:
	.loc 1 244 5
	.loc 1 244 16 is_stmt 0
	lui	a5,%hi(ble_salve_disconn_cb)
	lui	a4,%hi(disconn_cb)
	addi	a5,a5,%lo(ble_salve_disconn_cb)
	sw	a5,%lo(disconn_cb)(a4)
	.loc 1 246 5 is_stmt 1
.LBE109:
.LBE108:
	.loc 1 474 5
	call	ble_server_init
.LVL155:
	.loc 1 475 5
	call	ble_salve_adv
.LVL156:
	.loc 1 477 5
	.loc 1 478 1 is_stmt 0
	lw	ra,12(sp)
	.cfi_restore 1
	lw	s0,8(sp)
	.cfi_restore 8
	.cfi_def_cfa 2, 16
	li	a0,0
	addi	sp,sp,16
	.cfi_def_cfa_offset 0
	jr	ra
	.cfi_endproc
.LFE97:
	.size	ble_slave_init, .-ble_slave_init
	.section	.text.ble_server_deinit,"ax",@progbits
	.align	1
	.globl	ble_server_deinit
	.type	ble_server_deinit, @function
ble_server_deinit:
.LFB100:
	.loc 1 501 1 is_stmt 1
	.cfi_startproc
	.loc 1 502 5
.LVL157:
	.loc 1 504 5
	.loc 1 501 1 is_stmt 0
	addi	sp,sp,-16
	.cfi_def_cfa_offset 16
	sw	ra,12(sp)
	sw	s0,8(sp)
	sw	s1,4(sp)
	.cfi_offset 1, -4
	.cfi_offset 8, -8
	.cfi_offset 9, -12
	addi	s0,sp,16
	.cfi_def_cfa 8, 0
	.loc 1 504 11
	lui	a0,%hi(.LANCHOR5)
	.loc 1 501 1
	.loc 1 504 11
	addi	a0,a0,%lo(.LANCHOR5)
	call	bt_gatt_service_unregister
.LVL158:
	mv	s1,a0
.LVL159:
	.loc 1 505 5 is_stmt 1
	.loc 1 505 12 is_stmt 0
	lui	a0,%hi(.LANCHOR6)
	addi	a0,a0,%lo(.LANCHOR6)
	call	bt_gatt_service_unregister
.LVL160:
	.loc 1 507 5 is_stmt 1
	.loc 1 508 1 is_stmt 0
	lw	ra,12(sp)
	.cfi_restore 1
	lw	s0,8(sp)
	.cfi_restore 8
	.cfi_def_cfa 2, 16
	or	a0,s1,a0
.LVL161:
	lw	s1,4(sp)
	.cfi_restore 9
	addi	sp,sp,16
	.cfi_def_cfa_offset 0
	jr	ra
	.cfi_endproc
.LFE100:
	.size	ble_server_deinit, .-ble_server_deinit
	.section	.text.ble_stack_start,"ax",@progbits
	.align	1
	.globl	ble_stack_start
	.type	ble_stack_start, @function
ble_stack_start:
.LFB101:
	.loc 1 511 1 is_stmt 1
	.cfi_startproc
	.loc 1 513 5
	.loc 1 511 1 is_stmt 0
	addi	sp,sp,-16
	.cfi_def_cfa_offset 16
	sw	ra,12(sp)
	sw	s0,8(sp)
	.cfi_offset 1, -4
	.cfi_offset 8, -8
	addi	s0,sp,16
	.cfi_def_cfa 8, 0
	.loc 1 513 5
	li	a0,31
	call	ble_controller_init
.LVL162:
	.loc 1 515 5 is_stmt 1
	call	hci_driver_init
.LVL163:
	.loc 1 516 5
	.loc 1 517 1 is_stmt 0
	lw	s0,8(sp)
	.cfi_restore 8
	.cfi_def_cfa 2, 16
	lw	ra,12(sp)
	.cfi_restore 1
	.loc 1 516 5
	lui	a0,%hi(bt_enable_cb)
	.loc 1 517 1
	.loc 1 516 5
	addi	a0,a0,%lo(bt_enable_cb)
	.loc 1 517 1
	addi	sp,sp,16
	.cfi_def_cfa_offset 0
	.loc 1 516 5
	tail	bt_enable
.LVL164:
	.cfi_endproc
.LFE101:
	.size	ble_stack_start, .-ble_stack_start
	.section	.text.apps_ble_start,"ax",@progbits
	.align	1
	.globl	apps_ble_start
	.type	apps_ble_start, @function
apps_ble_start:
.LFB102:
	.loc 1 522 1 is_stmt 1
	.cfi_startproc
	.loc 1 523 5
	.loc 1 522 1 is_stmt 0
	addi	sp,sp,-16
	.cfi_def_cfa_offset 16
	sw	ra,12(sp)
	sw	s0,8(sp)
	sw	s1,4(sp)
	.cfi_offset 1, -4
	.cfi_offset 8, -8
	.cfi_offset 9, -12
	addi	s0,sp,16
	.cfi_def_cfa 8, 0
	.loc 1 523 5
	call	ble_stack_start
.LVL165:
	.loc 1 524 5 is_stmt 1
	call	ble_slave_init
.LVL166:
	.loc 1 525 5
	lui	a0,%hi(_ble_mtu_changed_cb)
	addi	a0,a0,%lo(_ble_mtu_changed_cb)
	call	bt_gatt_register_mtu_callback
.LVL167:
	.loc 1 526 5
	lui	a0,%hi(.LANCHOR7)
	addi	s1,a0,%lo(.LANCHOR7)
	addi	a0,a0,%lo(.LANCHOR7)
	call	bt_conn_cb_register
.LVL168:
	.loc 1 528 5
	.loc 1 529 1 is_stmt 0
	lw	ra,12(sp)
	.cfi_restore 1
	lw	s0,8(sp)
	.cfi_restore 8
	.cfi_def_cfa 2, 16
	.loc 1 528 26
	sw	zero,28(s1)
	.loc 1 529 1
	lw	s1,4(sp)
	.cfi_restore 9
	addi	sp,sp,16
	.cfi_def_cfa_offset 0
	jr	ra
	.cfi_endproc
.LFE102:
	.size	apps_ble_start, .-apps_ble_start
	.section	.rodata.apps_ble_stop.str1.4,"aMS",@progbits,1
	.align	2
.LC22:
	.string	"[BLE] wait for ble_disconnect_all\r\n"
	.section	.text.apps_ble_stop,"ax",@progbits
	.align	1
	.globl	apps_ble_stop
	.type	apps_ble_stop, @function
apps_ble_stop:
.LFB103:
	.loc 1 534 1 is_stmt 1
	.cfi_startproc
	.loc 1 535 5
	.loc 1 534 1 is_stmt 0
	addi	sp,sp,-16
	.cfi_def_cfa_offset 16
	sw	ra,12(sp)
	sw	s0,8(sp)
	sw	s1,4(sp)
	sw	s2,0(sp)
	.cfi_offset 1, -4
	.cfi_offset 8, -8
	.cfi_offset 9, -12
	.cfi_offset 18, -16
	addi	s0,sp,16
	.cfi_def_cfa 8, 0
	.loc 1 535 5
	call	ble_slave_deinit
.LVL169:
	.loc 1 537 5 is_stmt 1
	lui	a1,%hi(ble_disconnect_all)
	li	a2,0
	addi	a1,a1,%lo(ble_disconnect_all)
	li	a0,15
	call	bt_conn_foreach
.LVL170:
	.loc 1 539 5
	.loc 1 540 5
	.loc 1 540 11 is_stmt 0
	li	s1,11
	.loc 1 542 9
	lui	s2,%hi(.LC22)
.LVL171:
.L126:
	.loc 1 540 11 is_stmt 1
	.loc 1 540 12 is_stmt 0
	call	le_check_valid_conn
.LVL172:
	.loc 1 540 11
	beq	a0,zero,.L127
.LVL173:
	.loc 1 540 34 discriminator 1
	addi	s1,s1,-1
.LVL174:
	bne	s1,zero,.L128
.LVL175:
.L127:
	.loc 1 545 5 is_stmt 1
	.loc 1 546 1 is_stmt 0
	lw	s0,8(sp)
	.cfi_remember_state
	.cfi_restore 8
	.cfi_def_cfa 2, 16
	lw	ra,12(sp)
	.cfi_restore 1
	lw	s1,4(sp)
	.cfi_restore 9
	lw	s2,0(sp)
	.cfi_restore 18
	addi	sp,sp,16
	.cfi_def_cfa_offset 0
	.loc 1 545 5
	tail	bt_disable
.LVL176:
.L128:
	.cfi_restore_state
	.loc 1 542 9 is_stmt 1
	addi	a0,s2,%lo(.LC22)
	call	printf
.LVL177:
	.loc 1 543 9
	li	a0,500
	call	vTaskDelay
.LVL178:
	j	.L126
	.cfi_endproc
.LFE103:
	.size	apps_ble_stop, .-apps_ble_stop
	.section	.text.ble_init,"ax",@progbits
	.align	1
	.globl	ble_init
	.type	ble_init, @function
ble_init:
.LFB104:
	.loc 1 550 1
	.cfi_startproc
	.loc 1 551 5
	.loc 1 550 1 is_stmt 0
	addi	sp,sp,-16
	.cfi_def_cfa_offset 16
	sw	s0,12(sp)
	.cfi_offset 8, -4
	addi	s0,sp,16
	.cfi_def_cfa 8, 0
	.loc 1 552 1
	lw	s0,12(sp)
	.cfi_restore 8
	.cfi_def_cfa 2, 16
	addi	sp,sp,16
	.cfi_def_cfa_offset 0
	.loc 1 551 5
	tail	ble_server_init
.LVL179:
	.cfi_endproc
.LFE104:
	.size	ble_init, .-ble_init
	.section	.text.ble_start,"ax",@progbits
	.align	1
	.globl	ble_start
	.type	ble_start, @function
ble_start:
.LFB105:
	.loc 1 555 1 is_stmt 1
	.cfi_startproc
	.loc 1 556 5
	.loc 1 555 1 is_stmt 0
	addi	sp,sp,-16
	.cfi_def_cfa_offset 16
	sw	s0,12(sp)
	.cfi_offset 8, -4
	addi	s0,sp,16
	.cfi_def_cfa 8, 0
	.loc 1 557 1
	lw	s0,12(sp)
	.cfi_restore 8
	.cfi_def_cfa 2, 16
	addi	sp,sp,16
	.cfi_def_cfa_offset 0
	.loc 1 556 5
	tail	apps_ble_start
.LVL180:
	.cfi_endproc
.LFE105:
	.size	ble_start, .-ble_start
	.section	.text.ble_stop,"ax",@progbits
	.align	1
	.globl	ble_stop
	.type	ble_stop, @function
ble_stop:
.LFB106:
	.loc 1 560 1 is_stmt 1
	.cfi_startproc
	.loc 1 561 5
	.loc 1 560 1 is_stmt 0
	addi	sp,sp,-16
	.cfi_def_cfa_offset 16
	sw	s0,12(sp)
	.cfi_offset 8, -4
	addi	s0,sp,16
	.cfi_def_cfa 8, 0
	.loc 1 562 1
	lw	s0,12(sp)
	.cfi_restore 8
	.cfi_def_cfa 2, 16
	addi	sp,sp,16
	.cfi_def_cfa_offset 0
	.loc 1 561 5
	tail	apps_ble_stop
.LVL181:
	.cfi_endproc
.LFE106:
	.size	ble_stop, .-ble_stop
	.section	.text.ble_send_data,"ax",@progbits
	.align	1
	.globl	ble_send_data
	.type	ble_send_data, @function
ble_send_data:
.LFB107:
	.loc 1 565 1 is_stmt 1
	.cfi_startproc
.LVL182:
	.loc 1 566 5
	.loc 1 565 1 is_stmt 0
	addi	sp,sp,-16
	.cfi_def_cfa_offset 16
	sw	s0,12(sp)
	.cfi_offset 8, -4
	addi	s0,sp,16
	.cfi_def_cfa 8, 0
	.loc 1 567 1
	lw	s0,12(sp)
	.cfi_restore 8
	.cfi_def_cfa 2, 16
	addi	sp,sp,16
	.cfi_def_cfa_offset 0
	.loc 1 566 12
	tail	UUID1_SendNotify
.LVL183:
	.cfi_endproc
.LFE107:
	.size	ble_send_data, .-ble_send_data
	.section	.text.ble_is_connected,"ax",@progbits
	.align	1
	.globl	ble_is_connected
	.type	ble_is_connected, @function
ble_is_connected:
.LFB108:
	.loc 1 570 1 is_stmt 1
	.cfi_startproc
	.loc 1 571 5
.LBB110:
.LBB111:
	.loc 1 232 5
.LBE111:
.LBE110:
	.loc 1 570 1 is_stmt 0
	addi	sp,sp,-16
	.cfi_def_cfa_offset 16
	sw	s0,12(sp)
	.cfi_offset 8, -4
	addi	s0,sp,16
	.cfi_def_cfa 8, 0
	.loc 1 571 32
	lui	a5,%hi(.LANCHOR0)
	lw	a0,%lo(.LANCHOR0)(a5)
	.loc 1 572 1
	lw	s0,12(sp)
	.cfi_restore 8
	.cfi_def_cfa 2, 16
	snez	a0,a0
	addi	sp,sp,16
	.cfi_def_cfa_offset 0
	jr	ra
	.cfi_endproc
.LFE108:
	.size	ble_is_connected, .-ble_is_connected
	.section	.rodata.ble_process_command.str1.4,"aMS",@progbits,1
	.align	2
.LC23:
	.string	"[BLE] Processing command: 0x%02X\r\n"
	.align	2
.LC24:
	.string	"[BLE] LED ON command\r\n"
	.align	2
.LC25:
	.string	"[BLE] LED OFF command\r\n"
	.align	2
.LC26:
	.string	"[BLE] LED TOGGLE command\r\n"
	.align	2
.LC27:
	.string	"[BLE] RELAY ON command\r\n"
	.align	2
.LC28:
	.string	"[BLE] RELAY OFF command\r\n"
	.align	2
.LC29:
	.string	"[BLE] RELAY TOGGLE command\r\n"
	.align	2
.LC30:
	.string	"[BLE] GET STATUS command\r\n"
	.align	2
.LC31:
	.string	"[BLE] Unknown command: 0x%02X\r\n"
	.section	.text.ble_process_command,"ax",@progbits
	.align	1
	.globl	ble_process_command
	.type	ble_process_command, @function
ble_process_command:
.LFB109:
	.loc 1 576 1 is_stmt 1
	.cfi_startproc
.LVL184:
	.loc 1 577 5
	.loc 1 577 8 is_stmt 0
	beq	a1,zero,.L160
	.loc 1 579 5 is_stmt 1
	.loc 1 576 1 is_stmt 0
	addi	sp,sp,-48
	.cfi_def_cfa_offset 48
	sw	s0,40(sp)
	sw	ra,44(sp)
	.cfi_offset 8, -8
	.cfi_offset 1, -4
	addi	s0,sp,48
	.cfi_def_cfa 8, 0
	.loc 1 579 13
	lbu	a1,0(a0)
.LVL185:
	.loc 1 580 5 is_stmt 1
	.loc 1 582 5
	.loc 1 585 5 is_stmt 0
	lui	a0,%hi(.LC23)
.LVL186:
	addi	a0,a0,%lo(.LC23)
	.loc 1 582 17
	sb	a1,-24(s0)
	.loc 1 583 5 is_stmt 1
	.loc 1 585 5 is_stmt 0
	sw	a1,-36(s0)
	.loc 1 583 17
	sb	zero,-23(s0)
	.loc 1 585 5 is_stmt 1
	call	printf
.LVL187:
	.loc 1 587 5
	lw	a1,-36(s0)
	li	a4,6
	addi	a5,a1,-1
	andi	a5,a5,0xff
	bgtu	a5,a4,.L145
	lui	a4,%hi(.L147)
	slli	a5,a5,2
	addi	a4,a4,%lo(.L147)
	add	a5,a5,a4
	lw	a5,0(a5)
	jr	a5
	.section	.rodata.ble_process_command,"a",@progbits
	.align	2
	.align	2
.L147:
	.word	.L153
	.word	.L152
	.word	.L151
	.word	.L150
	.word	.L149
	.word	.L148
	.word	.L146
	.section	.text.ble_process_command
.L153:
	.loc 1 589 13
	lui	a0,%hi(.LC24)
	addi	a0,a0,%lo(.LC24)
	call	printf
.LVL188:
	.loc 1 590 13
	li	a0,0
.L163:
	.loc 1 595 13 is_stmt 0
	call	led_handle_action
.LVL189:
	.loc 1 596 13 is_stmt 1
.L154:
	.loc 1 637 5
	addi	a1,s0,-24
	li	a0,2
	j	.L165
.L152:
	.loc 1 594 13
	lui	a0,%hi(.LC25)
	addi	a0,a0,%lo(.LC25)
	call	printf
.LVL190:
	.loc 1 595 13
	li	a0,1
	j	.L163
.L151:
	.loc 1 599 13
	lui	a0,%hi(.LC26)
	addi	a0,a0,%lo(.LC26)
	call	printf
.LVL191:
	.loc 1 600 13
	call	led_toggle
.LVL192:
	.loc 1 601 13
	j	.L154
.L150:
	.loc 1 604 13
	lui	a0,%hi(.LC27)
	addi	a0,a0,%lo(.LC27)
	call	printf
.LVL193:
	.loc 1 605 13
	li	a0,0
.L164:
	.loc 1 610 13 is_stmt 0
	call	relay_handle_event
.LVL194:
	.loc 1 611 13 is_stmt 1
	j	.L154
.L149:
	.loc 1 609 13
	lui	a0,%hi(.LC28)
	addi	a0,a0,%lo(.LC28)
	call	printf
.LVL195:
	.loc 1 610 13
	li	a0,1
	j	.L164
.L148:
	.loc 1 614 13
	lui	a0,%hi(.LC29)
	addi	a0,a0,%lo(.LC29)
	call	printf
.LVL196:
	.loc 1 615 13
	call	relay_toggle
.LVL197:
	.loc 1 616 13
	j	.L154
.L146:
	.loc 1 619 13
	lui	a0,%hi(.LC30)
	addi	a0,a0,%lo(.LC30)
	call	printf
.LVL198:
.LBB112:
	.loc 1 621 17
	.loc 1 622 17
	.loc 1 623 17
	.loc 1 622 32 is_stmt 0
	li	a5,7
	sh	a5,-20(s0)
	.loc 1 624 17 is_stmt 1
	.loc 1 624 34 is_stmt 0
	call	led_get_state
.LVL199:
	.loc 1 624 32
	sb	a0,-18(s0)
	.loc 1 625 17 is_stmt 1
	.loc 1 625 34 is_stmt 0
	call	relay_get_state
.LVL200:
	.loc 1 625 32
	sb	a0,-17(s0)
	.loc 1 626 17 is_stmt 1
	addi	a1,s0,-20
	li	a0,4
.L165:
.LBE112:
	.loc 1 637 5 is_stmt 0
	call	ble_send_data
.LVL201:
	.loc 1 638 1
	lw	ra,44(sp)
	.cfi_remember_state
	.cfi_restore 1
	lw	s0,40(sp)
	.cfi_restore 8
	.cfi_def_cfa 2, 48
.LVL202:
	addi	sp,sp,48
	.cfi_def_cfa_offset 0
	jr	ra
.L145:
	.cfi_restore_state
	.loc 1 631 13 is_stmt 1
	lui	a0,%hi(.LC31)
	addi	a0,a0,%lo(.LC31)
	call	printf
.LVL203:
	.loc 1 632 13
	.loc 1 632 25 is_stmt 0
	li	a5,-1
	sb	a5,-23(s0)
	.loc 1 633 13 is_stmt 1
	j	.L154
.LVL204:
.L160:
	.cfi_def_cfa_register 2
	.cfi_restore 1
	.cfi_restore 8
	ret
	.cfi_endproc
.LFE109:
	.size	ble_process_command, .-ble_process_command
	.section	.rodata.str1.4,"aMS",@progbits,1
	.align	2
.LC32:
	.string	"HNN_intern"
	.comm	disconn_cb,4,4
	.comm	conn_cb,4,4
	.section	.bss.exchange_params,"aw",@nobits
	.align	2
	.set	.LANCHOR4,. + 0
	.type	exchange_params, @object
	.size	exchange_params, 28
exchange_params:
	.zero	28
	.section	.data.__compound_literal.11,"aw"
	.align	2
	.type	__compound_literal.11, @object
	.size	__compound_literal.11, 17
__compound_literal.11:
	.byte	2
	.byte	22
	.byte	-106
	.byte	36
	.byte	71
	.byte	-58
	.byte	35
	.byte	97
	.byte	-70
	.byte	-39
	.byte	75
	.byte	77
	.byte	30
	.byte	67
	.byte	83
	.byte	83
	.byte	73
	.section	.data.__compound_literal.13,"aw"
	.align	2
	.type	__compound_literal.13, @object
	.size	__compound_literal.13, 17
__compound_literal.13:
	.byte	2
	.byte	22
	.byte	-106
	.byte	36
	.byte	71
	.byte	-58
	.byte	35
	.byte	97
	.byte	-70
	.byte	-39
	.byte	75
	.byte	77
	.byte	30
	.byte	67
	.byte	83
	.byte	83
	.byte	73
	.section	.data.__compound_literal.15,"aw"
	.align	2
	.type	__compound_literal.15, @object
	.size	__compound_literal.15, 17
__compound_literal.15:
	.byte	2
	.byte	0
	.byte	1
	.byte	2
	.byte	3
	.byte	4
	.byte	5
	.byte	6
	.byte	7
	.byte	8
	.byte	9
	.byte	10
	.byte	11
	.byte	12
	.byte	13
	.byte	25
	.byte	16
	.section	.data.__compound_literal.17,"aw"
	.align	2
	.type	__compound_literal.17, @object
	.size	__compound_literal.17, 17
__compound_literal.17:
	.byte	2
	.byte	0
	.byte	1
	.byte	2
	.byte	3
	.byte	4
	.byte	5
	.byte	6
	.byte	7
	.byte	8
	.byte	9
	.byte	10
	.byte	11
	.byte	12
	.byte	13
	.byte	43
	.byte	16
	.section	.data.__compound_literal.19,"aw"
	.align	2
	.type	__compound_literal.19, @object
	.size	__compound_literal.19, 17
__compound_literal.19:
	.byte	2
	.byte	0
	.byte	1
	.byte	2
	.byte	3
	.byte	4
	.byte	5
	.byte	6
	.byte	7
	.byte	8
	.byte	9
	.byte	10
	.byte	11
	.byte	12
	.byte	13
	.byte	43
	.byte	16
	.section	.data.__compound_literal.21,"aw"
	.align	2
	.type	__compound_literal.21, @object
	.size	__compound_literal.21, 24
__compound_literal.21:
	.zero	10
	.zero	2
	.word	ble_ccc_cfg_changed
	.word	0
	.word	0
	.section	.data.__compound_literal.23,"aw"
	.align	2
	.type	__compound_literal.23, @object
	.size	__compound_literal.23, 17
__compound_literal.23:
	.byte	2
	.byte	0
	.byte	1
	.byte	2
	.byte	3
	.byte	4
	.byte	5
	.byte	6
	.byte	7
	.byte	8
	.byte	9
	.byte	10
	.byte	11
	.byte	13
	.byte	13
	.byte	43
	.byte	16
	.section	.data.__compound_literal.25,"aw"
	.align	2
	.type	__compound_literal.25, @object
	.size	__compound_literal.25, 17
__compound_literal.25:
	.byte	2
	.byte	0
	.byte	1
	.byte	2
	.byte	3
	.byte	4
	.byte	5
	.byte	6
	.byte	7
	.byte	8
	.byte	9
	.byte	10
	.byte	11
	.byte	13
	.byte	13
	.byte	43
	.byte	16
	.section	.data.__compound_literal.3,"aw"
	.align	2
	.type	__compound_literal.3, @object
	.size	__compound_literal.3, 17
__compound_literal.3:
	.byte	2
	.byte	85
	.byte	-28
	.byte	5
	.byte	-46
	.byte	-81
	.byte	-97
	.byte	-87
	.byte	-113
	.byte	-27
	.byte	74
	.byte	125
	.byte	-2
	.byte	67
	.byte	83
	.byte	83
	.byte	85
	.section	.data.__compound_literal.5,"aw"
	.align	2
	.type	__compound_literal.5, @object
	.size	__compound_literal.5, 17
__compound_literal.5:
	.byte	2
	.byte	-77
	.byte	-101
	.byte	114
	.byte	52
	.byte	-66
	.byte	-20
	.byte	-44
	.byte	-88
	.byte	-12
	.byte	67
	.byte	65
	.byte	-120
	.byte	67
	.byte	83
	.byte	83
	.byte	73
	.section	.data.__compound_literal.7,"aw"
	.align	2
	.type	__compound_literal.7, @object
	.size	__compound_literal.7, 17
__compound_literal.7:
	.byte	2
	.byte	-77
	.byte	-101
	.byte	114
	.byte	52
	.byte	-66
	.byte	-20
	.byte	-44
	.byte	-88
	.byte	-12
	.byte	67
	.byte	65
	.byte	-120
	.byte	67
	.byte	83
	.byte	83
	.byte	73
	.section	.data.__compound_literal.9,"aw"
	.align	2
	.type	__compound_literal.9, @object
	.size	__compound_literal.9, 24
__compound_literal.9:
	.zero	10
	.zero	2
	.word	ble_ccc_cfg_changed
	.word	0
	.word	0
	.section	.data.ble_uuid1_server,"aw"
	.align	2
	.set	.LANCHOR5,. + 0
	.type	ble_uuid1_server, @object
	.size	ble_uuid1_server, 12
ble_uuid1_server:
	.word	salve_uuid1_server
	.word	6
	.zero	4
	.section	.data.ble_uuid2_server,"aw"
	.align	2
	.set	.LANCHOR6,. + 0
	.type	ble_uuid2_server, @object
	.size	ble_uuid2_server, 12
ble_uuid2_server:
	.word	salve_uuid2_server
	.word	6
	.zero	4
	.section	.data.conn_callbacks,"aw"
	.align	2
	.set	.LANCHOR7,. + 0
	.type	conn_callbacks, @object
	.size	conn_callbacks, 32
conn_callbacks:
	.word	_connected
	.word	_disconnected
	.word	_le_param_req
	.word	_le_param_updated
	.word	_le_phy_updated
	.zero	12
	.section	.data.salve_uuid1_server,"aw"
	.align	2
	.set	.LANCHOR2,. + 0
	.type	salve_uuid1_server, @object
	.size	salve_uuid1_server, 120
salve_uuid1_server:
	.word	__compound_literal.2
	.word	bt_gatt_attr_read_service
	.word	0
	.word	__compound_literal.3
	.half	0
	.byte	1
	.zero	1
	.word	__compound_literal.4
	.word	bt_gatt_attr_read_chrc
	.word	0
	.word	__compound_literal.6
	.half	0
	.byte	1
	.zero	1
	.word	__compound_literal.7
	.word	0
	.word	0
	.word	0
	.half	0
	.byte	1
	.zero	1
	.word	__compound_literal.8
	.word	bt_gatt_attr_read_ccc
	.word	bt_gatt_attr_write_ccc
	.word	__compound_literal.9
	.half	0
	.byte	3
	.zero	1
	.word	__compound_literal.10
	.word	bt_gatt_attr_read_chrc
	.word	0
	.word	__compound_literal.12
	.half	0
	.byte	1
	.zero	1
	.word	__compound_literal.13
	.word	0
	.word	ble_uuid1_write_val
	.word	0
	.half	0
	.byte	2
	.zero	1
	.section	.data.salve_uuid2_server,"aw"
	.align	2
	.set	.LANCHOR3,. + 0
	.type	salve_uuid2_server, @object
	.size	salve_uuid2_server, 120
salve_uuid2_server:
	.word	__compound_literal.14
	.word	bt_gatt_attr_read_service
	.word	0
	.word	__compound_literal.15
	.half	0
	.byte	1
	.zero	1
	.word	__compound_literal.16
	.word	bt_gatt_attr_read_chrc
	.word	0
	.word	__compound_literal.18
	.half	0
	.byte	1
	.zero	1
	.word	__compound_literal.19
	.word	0
	.word	0
	.word	0
	.half	0
	.byte	1
	.zero	1
	.word	__compound_literal.20
	.word	bt_gatt_attr_read_ccc
	.word	bt_gatt_attr_write_ccc
	.word	__compound_literal.21
	.half	0
	.byte	3
	.zero	1
	.word	__compound_literal.22
	.word	bt_gatt_attr_read_chrc
	.word	0
	.word	__compound_literal.24
	.half	0
	.byte	1
	.zero	1
	.word	__compound_literal.25
	.word	0
	.word	ble_uuid2_write_val
	.word	0
	.half	0
	.byte	2
	.zero	1
	.section	.rodata.salve_adv,"a"
	.align	2
	.set	.LANCHOR1,. + 0
	.type	salve_adv, @object
	.size	salve_adv, 16
salve_adv:
	.byte	1
	.byte	1
	.zero	2
	.word	__compound_literal.1
	.byte	9
	.byte	10
	.zero	2
	.word	.LC32
	.section	.sbss.conn_cur,"aw",@nobits
	.align	2
	.set	.LANCHOR0,. + 0
	.type	conn_cur, @object
	.size	conn_cur, 4
conn_cur:
	.zero	4
	.section	.sdata.__compound_literal.1,"aw"
	.align	2
	.type	__compound_literal.1, @object
	.size	__compound_literal.1, 1
__compound_literal.1:
	.byte	6
	.section	.sdata.__compound_literal.10,"aw"
	.align	2
	.type	__compound_literal.10, @object
	.size	__compound_literal.10, 4
__compound_literal.10:
	.byte	0
	.zero	1
	.half	10243
	.section	.sdata.__compound_literal.12,"aw"
	.align	2
	.type	__compound_literal.12, @object
	.size	__compound_literal.12, 8
__compound_literal.12:
	.word	__compound_literal.11
	.half	0
	.byte	4
	.zero	1
	.section	.sdata.__compound_literal.14,"aw"
	.align	2
	.type	__compound_literal.14, @object
	.size	__compound_literal.14, 4
__compound_literal.14:
	.byte	0
	.zero	1
	.half	10240
	.section	.sdata.__compound_literal.16,"aw"
	.align	2
	.type	__compound_literal.16, @object
	.size	__compound_literal.16, 4
__compound_literal.16:
	.byte	0
	.zero	1
	.half	10243
	.section	.sdata.__compound_literal.18,"aw"
	.align	2
	.type	__compound_literal.18, @object
	.size	__compound_literal.18, 8
__compound_literal.18:
	.word	__compound_literal.17
	.half	0
	.byte	16
	.zero	1
	.section	.sdata.__compound_literal.2,"aw"
	.align	2
	.type	__compound_literal.2, @object
	.size	__compound_literal.2, 4
__compound_literal.2:
	.byte	0
	.zero	1
	.half	10240
	.section	.sdata.__compound_literal.20,"aw"
	.align	2
	.type	__compound_literal.20, @object
	.size	__compound_literal.20, 4
__compound_literal.20:
	.byte	0
	.zero	1
	.half	10498
	.section	.sdata.__compound_literal.22,"aw"
	.align	2
	.type	__compound_literal.22, @object
	.size	__compound_literal.22, 4
__compound_literal.22:
	.byte	0
	.zero	1
	.half	10243
	.section	.sdata.__compound_literal.24,"aw"
	.align	2
	.type	__compound_literal.24, @object
	.size	__compound_literal.24, 8
__compound_literal.24:
	.word	__compound_literal.23
	.half	0
	.byte	4
	.zero	1
	.section	.sdata.__compound_literal.4,"aw"
	.align	2
	.type	__compound_literal.4, @object
	.size	__compound_literal.4, 4
__compound_literal.4:
	.byte	0
	.zero	1
	.half	10243
	.section	.sdata.__compound_literal.6,"aw"
	.align	2
	.type	__compound_literal.6, @object
	.size	__compound_literal.6, 8
__compound_literal.6:
	.word	__compound_literal.5
	.half	0
	.byte	16
	.zero	1
	.section	.sdata.__compound_literal.8,"aw"
	.align	2
	.type	__compound_literal.8, @object
	.size	__compound_literal.8, 4
__compound_literal.8:
	.byte	0
	.zero	1
	.half	10498
	.text
.Letext0:
	.file 3 "/home/quanghaictu/intern/Ai-Thinker-WB2/toolchain/riscv/Linux/lib/gcc/riscv64-unknown-elf/10.2.0/include/stdint-gcc.h"
	.file 4 "/home/quanghaictu/intern/Ai-Thinker-WB2/toolchain/riscv/Linux/lib/gcc/riscv64-unknown-elf/10.2.0/include/stddef.h"
	.file 5 "/home/quanghaictu/intern/Ai-Thinker-WB2/toolchain/riscv/Linux/riscv64-unknown-elf/include/sys/_types.h"
	.file 6 "/home/quanghaictu/intern/Ai-Thinker-WB2/toolchain/riscv/Linux/riscv64-unknown-elf/include/sys/types.h"
	.file 7 "/home/quanghaictu/intern/Ai-Thinker-WB2/components/network/ble/blestack/src/common/include/zephyr/types.h"
	.file 8 "/home/quanghaictu/intern/Ai-Thinker-WB2/components/network/ble/blestack/src/common/include/misc/slist.h"
	.file 9 "/home/quanghaictu/intern/Ai-Thinker-WB2/components/network/ble/blestack/src/common/include/misc/dlist.h"
	.file 10 "/home/quanghaictu/intern/Ai-Thinker-WB2/components/network/ble/blestack/src/port/include/bl_port.h"
	.file 11 "/home/quanghaictu/intern/Ai-Thinker-WB2/components/network/ble/blestack/src/common/include/atomic.h"
	.file 12 "/home/quanghaictu/intern/Ai-Thinker-WB2/components/network/ble/blestack/src/common/include/work_q.h"
	.file 13 "/home/quanghaictu/intern/Ai-Thinker-WB2/components/network/ble/blestack/src/port/include/zephyr.h"
	.file 14 "/home/quanghaictu/intern/Ai-Thinker-WB2/components/network/ble/blestack/src/common/include/net/buf.h"
	.file 15 "/home/quanghaictu/intern/Ai-Thinker-WB2/components/network/ble/blestack/src/include/bluetooth/addr.h"
	.file 16 "/home/quanghaictu/intern/Ai-Thinker-WB2/components/network/ble/blestack/src/include/bluetooth/bluetooth.h"
	.file 17 "/home/quanghaictu/intern/Ai-Thinker-WB2/datic/components/middle/ble/ble_interface.h"
	.file 18 "/home/quanghaictu/intern/Ai-Thinker-WB2/components/platform/soc/bl602/freertos_riscv_ram/portable/GCC/RISC-V/portmacro.h"
	.file 19 "/home/quanghaictu/intern/Ai-Thinker-WB2/components/network/ble/blestack/src/host/hci_core.h"
	.file 20 "/home/quanghaictu/intern/Ai-Thinker-WB2/components/network/ble/blestack/src/include/bluetooth/conn.h"
	.file 21 "/home/quanghaictu/intern/Ai-Thinker-WB2/components/network/ble/blestack/src/host/conn_internal.h"
	.file 22 "/home/quanghaictu/intern/Ai-Thinker-WB2/components/network/ble/blestack/src/include/bluetooth/uuid.h"
	.file 23 "/home/quanghaictu/intern/Ai-Thinker-WB2/components/network/ble/blestack/src/include/bluetooth/att.h"
	.file 24 "/home/quanghaictu/intern/Ai-Thinker-WB2/datic/components/middle/state_machine/led_state/led_state_machine.h"
	.file 25 "/home/quanghaictu/intern/Ai-Thinker-WB2/datic/components/middle/state_machine/relay_state/relay_state_machine.h"
	.file 26 "/home/quanghaictu/intern/Ai-Thinker-WB2/datic/components/hardware/led/led.h"
	.file 27 "/home/quanghaictu/intern/Ai-Thinker-WB2/datic/components/hardware/relay/relay.h"
	.file 28 "/home/quanghaictu/intern/Ai-Thinker-WB2/toolchain/riscv/Linux/riscv64-unknown-elf/include/stdio.h"
	.file 29 "/home/quanghaictu/intern/Ai-Thinker-WB2/components/platform/soc/bl602/freertos_riscv_ram/config/task.h"
	.file 30 "/home/quanghaictu/intern/Ai-Thinker-WB2/components/network/ble/blecontroller/ble_inc/ble_lib_api.h"
	.file 31 "/home/quanghaictu/intern/Ai-Thinker-WB2/components/network/ble/blestack/src/include/drivers/bluetooth/hci_driver.h"
	.file 32 "/home/quanghaictu/intern/Ai-Thinker-WB2/toolchain/riscv/Linux/riscv64-unknown-elf/include/string.h"
	.file 33 "/home/quanghaictu/intern/Ai-Thinker-WB2/components/platform/soc/bl602/freertos_riscv_ram/config/portable.h"