	.file	"ble_conn.c"
	.option nopic
	.attribute arch, "rv32i2p0_m2p0_f2p0_c2p0"
	.attribute unaligned_access, 0
	.attribute stack_align, 16
	.text
.Ltext0:
	.cfi_sections	.debug_frame
	.section	.rodata.on_disconnected.str1.4,"aMS",@progbits,1
	.align	2
.LC0:
	.string	">>> Disconnected, reason %d \r\n"
	.align	2
.LC1:
	.string	">>> turn on adv"
	.section	.text.on_disconnected,"ax",@progbits
	.align	1
	.type	on_disconnected, @function
on_disconnected:
.LFB76:
	.file 1 "/home/quanghaictu/intern/Ai-Thinker-WB2/datic/components/middle/ble/ble_conn.c"
	.loc 1 58 1
	.cfi_startproc
.LVL0:
	.loc 1 59 6
	.loc 1 60 5
	.loc 1 58 1 is_stmt 0
	addi	sp,sp,-48
	.cfi_def_cfa_offset 48
	sw	s0,40(sp)
	sw	s1,36(sp)
	sw	s2,32(sp)
	sw	ra,44(sp)
	.cfi_offset 8, -8
	.cfi_offset 9, -12
	.cfi_offset 18, -16
	.cfi_offset 1, -4
	addi	s0,sp,48
	.cfi_def_cfa 8, 0
	.loc 1 60 9
	lui	a5,%hi(.LANCHOR0)
	lw	a5,%lo(.LANCHOR0)(a5)
	.loc 1 58 1
	mv	s2,a0
	mv	s1,a1
	.loc 1 60 8
	bne	a5,zero,.L2
.LVL1:
.L5:
	.loc 1 66 5 is_stmt 1
	.loc 1 66 9 is_stmt 0
	addi	a1,s0,-44
	mv	a0,s2
	call	bt_conn_get_info
.LVL2:
	.loc 1 66 8
	beq	a0,zero,.L7
.L1:
	.loc 1 79 1
	lw	ra,44(sp)
	.cfi_remember_state
	.cfi_restore 1
	lw	s0,40(sp)
	.cfi_restore 8
	.cfi_def_cfa 2, 48
	lw	s1,36(sp)
	.cfi_restore 9
	lw	s2,32(sp)
	.cfi_restore 18
.LVL3:
	addi	sp,sp,48
	.cfi_def_cfa_offset 0
	jr	ra
.LVL4:
.L2:
	.cfi_restore_state
	.loc 1 61 9 is_stmt 1
	.loc 1 61 13 is_stmt 0
	jalr	a5
.LVL5:
	.loc 1 61 12
	beq	a0,zero,.L5
	j	.L1
.L7:
	.loc 1 70 5 is_stmt 1
	.loc 1 70 8 is_stmt 0
	lbu	a4,-44(s0)
	li	a5,1
	bne	a4,a5,.L1
.LVL6:
.LBB4:
.LBB5:
	.loc 1 74 5 is_stmt 1
	.loc 1 75 5 is_stmt 0
	lui	a0,%hi(.LC0)
	.loc 1 74 18
	lui	a5,%hi(.LANCHOR1)
	.loc 1 75 5
	mv	a1,s1
	addi	a0,a0,%lo(.LC0)
	.loc 1 74 18
	sw	zero,%lo(.LANCHOR1)(a5)
	.loc 1 75 5 is_stmt 1
	call	printf
.LVL7:
	.loc 1 76 5
	lui	a0,%hi(.LC1)
	addi	a0,a0,%lo(.LC1)
	call	printf
.LVL8:
	.loc 1 77 5
	call	ble_adv_start
.LVL9:
	j	.L1
.LBE5:
.LBE4:
	.cfi_endproc
.LFE76:
	.size	on_disconnected, .-on_disconnected
	.section	.rodata.on_connected.str1.4,"aMS",@progbits,1
	.align	2
.LC2:
	.string	">>> Connected\r\n"
	.align	2
.LC3:
	.string	">>> turn  off adv\r\n"
	.section	.text.on_connected,"ax",@progbits
	.align	1
	.type	on_connected, @function
on_connected:
.LFB75:
	.loc 1 32 1
	.cfi_startproc
.LVL10:
	addi	sp,sp,-48
	.cfi_def_cfa_offset 48
	sw	s0,40(sp)
	sw	s1,36(sp)
	sw	ra,44(sp)
	.cfi_offset 8, -8
	.cfi_offset 9, -12
	.cfi_offset 1, -4
	addi	s0,sp,48
	.cfi_def_cfa 8, 0
	.loc 1 34 9 is_stmt 0
	lui	a5,%hi(.LANCHOR2)
	lw	a5,%lo(.LANCHOR2)(a5)
	.loc 1 32 1
	mv	s1,a0
	.loc 1 33 6 is_stmt 1
	.loc 1 34 5
	.loc 1 34 8 is_stmt 0
	bne	a5,zero,.L10
.LVL11:
.L13:
	.loc 1 40 5 is_stmt 1
	.loc 1 40 9 is_stmt 0
	addi	a1,s0,-44
	mv	a0,s1
	call	bt_conn_get_info
.LVL12:
	.loc 1 40 8
	beq	a0,zero,.L15
.L9:
	.loc 1 54 1
	lw	ra,44(sp)
	.cfi_remember_state
	.cfi_restore 1
	lw	s0,40(sp)
	.cfi_restore 8
	.cfi_def_cfa 2, 48
	lw	s1,36(sp)
	.cfi_restore 9
.LVL13:
	addi	sp,sp,48
	.cfi_def_cfa_offset 0
	jr	ra
.LVL14:
.L10:
	.cfi_restore_state
	.loc 1 35 9 is_stmt 1
	.loc 1 35 13 is_stmt 0
	jalr	a5
.LVL15:
	.loc 1 35 12
	beq	a0,zero,.L13
	j	.L9
.L15:
	.loc 1 44 5 is_stmt 1
	.loc 1 44 8 is_stmt 0
	lbu	a4,-44(s0)
	li	a5,1
	bne	a4,a5,.L9
.LVL16:
.LBB8:
.LBB9:
	.loc 1 48 5 is_stmt 1
	.loc 1 49 5 is_stmt 0
	lui	a0,%hi(.LC2)
	.loc 1 48 18
	lui	a5,%hi(.LANCHOR1)
	.loc 1 49 5
	addi	a0,a0,%lo(.LC2)
	.loc 1 48 18
	sw	s1,%lo(.LANCHOR1)(a5)
	.loc 1 49 5 is_stmt 1
	call	printf
.LVL17:
	.loc 1 52 5
	lui	a0,%hi(.LC3)
	addi	a0,a0,%lo(.LC3)
	call	printf
.LVL18:
	.loc 1 53 5
	call	ble_adv_stop
.LVL19:
	j	.L9
.LBE9:
.LBE8:
	.cfi_endproc
.LFE75:
	.size	on_connected, .-on_connected
	.section	.text.ble_conn_get_current,"ax",@progbits
	.align	1
	.globl	ble_conn_get_current
	.type	ble_conn_get_current, @function
ble_conn_get_current:
.LFB73:
	.loc 1 19 1
	.cfi_startproc
	.loc 1 20 5
	.loc 1 19 1 is_stmt 0
	addi	sp,sp,-16
	.cfi_def_cfa_offset 16
	sw	s0,12(sp)
	.cfi_offset 8, -4
	addi	s0,sp,16
	.cfi_def_cfa 8, 0
	.loc 1 21 1
	lw	s0,12(sp)
	.cfi_restore 8
	.cfi_def_cfa 2, 16
	lui	a5,%hi(.LANCHOR1)
	lw	a0,%lo(.LANCHOR1)(a5)
	addi	sp,sp,16
	.cfi_def_cfa_offset 0
	jr	ra
	.cfi_endproc
.LFE73:
	.size	ble_conn_get_current, .-ble_conn_get_current
	.section	.text.ble_conn_register_callbacks,"ax",@progbits
	.align	1
	.globl	ble_conn_register_callbacks
	.type	ble_conn_register_callbacks, @function
ble_conn_register_callbacks:
.LFB74:
	.loc 1 24 82 is_stmt 1
	.cfi_startproc
.LVL20:
	.loc 1 25 5
	.loc 1 24 82 is_stmt 0
	addi	sp,sp,-16
	.cfi_def_cfa_offset 16
	sw	s0,12(sp)
	.cfi_offset 8, -4
	addi	s0,sp,16
	.cfi_def_cfa 8, 0
	.loc 1 27 1
	lw	s0,12(sp)
	.cfi_restore 8
	.cfi_def_cfa 2, 16
	.loc 1 25 18
	lui	a5,%hi(.LANCHOR2)
	sw	a0,%lo(.LANCHOR2)(a5)
	.loc 1 26 5 is_stmt 1
	.loc 1 26 21 is_stmt 0
	lui	a5,%hi(.LANCHOR0)
	sw	a1,%lo(.LANCHOR0)(a5)
	.loc 1 27 1
	addi	sp,sp,16
	.cfi_def_cfa_offset 0
	jr	ra
	.cfi_endproc
.LFE74:
	.size	ble_conn_register_callbacks, .-ble_conn_register_callbacks
	.section	.rodata.ble_conn_init.str1.4,"aMS",@progbits,1
	.align	2
.LC4:
	.string	">>> init conn \r\n"
	.section	.text.ble_conn_init,"ax",@progbits
	.align	1
	.globl	ble_conn_init
	.type	ble_conn_init, @function
ble_conn_init:
.LFB77:
	.loc 1 118 1 is_stmt 1
	.cfi_startproc
	.loc 1 119 5
	.loc 1 118 1 is_stmt 0
	addi	sp,sp,-16
	.cfi_def_cfa_offset 16
	sw	ra,12(sp)
	sw	s0,8(sp)
	sw	s1,4(sp)
	.cfi_offset 1, -4
	.cfi_offset 8, -8
	.cfi_offset 9, -12
	addi	s0,sp,16
	.cfi_def_cfa 8, 0
	.loc 1 119 5
	lui	a0,%hi(.LC4)
	.loc 1 118 1
	.loc 1 119 5
	addi	a0,a0,%lo(.LC4)
	call	printf
.LVL21:
	.loc 1 120 5 is_stmt 1
	lui	a0,%hi(.LANCHOR3)
	addi	s1,a0,%lo(.LANCHOR3)
	addi	a0,a0,%lo(.LANCHOR3)
	call	bt_conn_cb_register
.LVL22:
	.loc 1 121 5
	.loc 1 123 1 is_stmt 0
	lw	ra,12(sp)
	.cfi_restore 1
	lw	s0,8(sp)
	.cfi_restore 8
	.cfi_def_cfa 2, 16
	.loc 1 121 26
	sw	zero,20(s1)
	.loc 1 123 1
	lw	s1,4(sp)
	.cfi_restore 9
	addi	sp,sp,16
	.cfi_def_cfa_offset 0
	jr	ra
	.cfi_endproc
.LFE77:
	.size	ble_conn_init, .-ble_conn_init
	.section	.data.conn_callbacks,"aw"
	.align	2
	.set	.LANCHOR3,. + 0
	.type	conn_callbacks, @object
	.size	conn_callbacks, 24
conn_callbacks:
	.word	on_connected
	.word	on_disconnected
	.zero	16
	.section	.sbss.current_conn,"aw",@nobits
	.align	2
	.set	.LANCHOR1,. + 0
	.type	current_conn, @object
	.size	current_conn, 4
current_conn:
	.zero	4
	.section	.sbss.user_conn_cb,"aw",@nobits
	.align	2
	.set	.LANCHOR2,. + 0
	.type	user_conn_cb, @object
	.size	user_conn_cb, 4
user_conn_cb:
	.zero	4
	.section	.sbss.user_disconn_cb,"aw",@nobits
	.align	2
	.set	.LANCHOR0,. + 0
	.type	user_disconn_cb, @object
	.size	user_disconn_cb, 4
user_disconn_cb:
	.zero	4
	.text
.Letext0:
	.file 2 "/home/quanghaictu/intern/Ai-Thinker-WB2/toolchain/riscv/Linux/riscv64-unknown-elf/include/machine/_default_types.h"
	.file 3 "/home/quanghaictu/intern/Ai-Thinker-WB2/toolchain/riscv/Linux/riscv64-unknown-elf/include/sys/_stdint.h"
	.file 4 "/home/quanghaictu/intern/Ai-Thinker-WB2/components/network/ble/blestack/src/common/include/zephyr/types.h"
	.file 5 "/home/quanghaictu/intern/Ai-Thinker-WB2/components/network/ble/blestack/src/port/include/zephyr.h"
	.file 6 "/home/quanghaictu/intern/Ai-Thinker-WB2/components/network/ble/blestack/src/include/bluetooth/addr.h"
	.file 7 "/home/quanghaictu/intern/Ai-Thinker-WB2/datic/components/middle/ble/ble_conn.h"
	.file 8 "/home/quanghaictu/intern/Ai-Thinker-WB2/components/network/ble/blestack/src/include/bluetooth/conn.h"
	.file 9 "/home/quanghaictu/intern/Ai-Thinker-WB2/components/network/ble/blestack/src/include/bluetooth/gatt.h"
	.file 10 "/home/quanghaictu/intern/Ai-Thinker-WB2/toolchain/riscv/Linux/riscv64-unknown-elf/include/stdio.h"
	.file 11 "/home/quanghaictu/intern/Ai-Thinker-WB2/datic/components/middle/ble/ble_adv.h"