	.file	"ble_master.c"
	.option nopic
	.attribute arch, "rv32i2p0_m2p0_f2p0_c2p0"
	.attribute unaligned_access, 0
	.attribute stack_align, 16
	.text
.Ltext0:
	.cfi_sections	.debug_frame
	.section	.text.device_found,"ax",@progbits
	.align	1
	.type	device_found, @function
device_found:
.LFB76:
	.file 1 "/home/quanghaictu/intern/Ai-Thinker-WB2/datic/components/middle/ble/ble_master.c"
	.loc 1 73 1
	.cfi_startproc
.LVL0:
	.loc 1 78 5
	.loc 1 73 1 is_stmt 0
	addi	sp,sp,-16
	.cfi_def_cfa_offset 16
	sw	s0,12(sp)
	.cfi_offset 8, -4
	addi	s0,sp,16
	.cfi_def_cfa 8, 0
	.loc 1 81 1
	lw	s0,12(sp)
	.cfi_restore 8
	.cfi_def_cfa 2, 16
	.loc 1 78 5
	lui	a1,%hi(adv_parse_cb)
.LVL1:
	.loc 1 73 1
	mv	a2,a0
.LVL2:
	.loc 1 81 1
	.loc 1 78 5
	addi	a1,a1,%lo(adv_parse_cb)
	mv	a0,a3
.LVL3:
	.loc 1 81 1
	addi	sp,sp,16
	.cfi_def_cfa_offset 0
	.loc 1 78 5
	tail	bt_data_parse
.LVL4:
	.cfi_endproc
.LFE76:
	.size	device_found, .-device_found
	.section	.rodata.connect.str1.4,"aMS",@progbits,1
	.align	2
.LC0:
	.string	"Connect failed err %d\r\n"
	.align	2
.LC1:
	.string	"public"
	.align	2
.LC2:
	.string	"random"
	.align	2
.LC3:
	.string	"public-id"
	.align	2
.LC4:
	.string	"random-id"
	.align	2
.LC5:
	.string	"0x%02x"
	.align	2
.LC6:
	.string	"%02X:%02X:%02X:%02X:%02X:%02X (%s)"
	.align	2
.LC7:
	.string	"Connected! %s\r\n"
	.section	.text.connect,"ax",@progbits
	.align	1
	.globl	connect
	.type	connect, @function
connect:
.LFB75:
	.loc 1 42 32 is_stmt 1
	.cfi_startproc
.LVL5:
	.loc 1 43 5
	.loc 1 49 5
	.loc 1 51 5
	.loc 1 42 32 is_stmt 0
	addi	sp,sp,-80
	.cfi_def_cfa_offset 80
	sw	s0,72(sp)
	sw	s1,68(sp)
	sw	ra,76(sp)
	sw	s2,64(sp)
	.cfi_offset 8, -8
	.cfi_offset 9, -12
	.cfi_offset 1, -4
	.cfi_offset 18, -16
	addi	s0,sp,80
	.cfi_def_cfa 8, 0
	.loc 1 51 15
	lui	a1,%hi(.LANCHOR0)
	.loc 1 42 32
	.loc 1 51 15
	addi	a1,a1,%lo(.LANCHOR0)
	.loc 1 42 32
	mv	s1,a0
	.loc 1 51 15
	call	bt_conn_create_le
.LVL6:
	.loc 1 53 5 is_stmt 1
	.loc 1 53 8 is_stmt 0
	beq	a0,zero,.L4
	mv	a1,a0
	.loc 1 54 9 is_stmt 1
	lui	a0,%hi(.LC0)
.LVL7:
	addi	a0,a0,%lo(.LC0)
	call	printf
.LVL8:
	.loc 1 55 9
	.loc 1 55 16 is_stmt 0
	li	a0,-1
.L3:
	.loc 1 62 1
	lw	ra,76(sp)
	.cfi_remember_state
	.cfi_restore 1
	lw	s0,72(sp)
	.cfi_restore 8
	.cfi_def_cfa 2, 80
	lw	s1,68(sp)
	.cfi_restore 9
.LVL9:
	lw	s2,64(sp)
	.cfi_restore 18
	addi	sp,sp,80
	.cfi_def_cfa_offset 0
	jr	ra
.LVL10:
.L4:
	.cfi_restore_state
	.loc 1 57 5 is_stmt 1
.LBB5:
.LBB6:
	.file 2 "/home/quanghaictu/intern/Ai-Thinker-WB2/components/network/ble/blestack/src/include/bluetooth/bluetooth.h"
	.loc 2 758 2
	.loc 2 760 2
	.loc 2 760 14 is_stmt 0
	lbu	a3,0(s1)
	.loc 2 760 2
	li	a5,2
	addi	s2,s0,-60
	beq	a3,a5,.L6
	bgtu	a3,a5,.L7
	bne	a3,zero,.L13
	.loc 2 762 3 is_stmt 1
	lui	a1,%hi(.LC1)
	addi	a1,a1,%lo(.LC1)
.L16:
	.loc 2 765 3 is_stmt 0
	mv	a0,s2
.LVL11:
	call	strcpy
.LVL12:
	.loc 2 766 3 is_stmt 1
.L12:
	.loc 2 778 2
	.loc 2 778 9 is_stmt 0
	lbu	a5,1(s1)
	lbu	a7,2(s1)
	lbu	a6,3(s1)
	lbu	a4,5(s1)
	lbu	a3,6(s1)
	sw	a5,0(sp)
	lbu	a5,4(s1)
	lui	a2,%hi(.LC6)
	addi	a2,a2,%lo(.LC6)
	li	a1,30
	sw	s2,4(sp)
	addi	a0,s0,-48
.LVL13:
	call	snprintf
.LVL14:
.LBE6:
.LBE5:
	.loc 1 58 5 is_stmt 1
	lui	a0,%hi(.LC7)
	addi	a1,s0,-48
	addi	a0,a0,%lo(.LC7)
	call	printf
.LVL15:
	.loc 1 61 5
	.loc 1 61 12 is_stmt 0
	li	a0,0
	j	.L3
.LVL16:
.L7:
.LBB8:
.LBB7:
	.loc 2 760 2
	li	a5,3
	beq	a3,a5,.L10
	.loc 2 774 3 is_stmt 1
	lui	a2,%hi(.LC5)
	addi	a2,a2,%lo(.LC5)
	li	a1,10
	mv	a0,s2
.LVL17:
	call	snprintf
.LVL18:
	.loc 2 775 3
	j	.L12
.LVL19:
.L13:
	.loc 2 765 3
	lui	a1,%hi(.LC2)
	addi	a1,a1,%lo(.LC2)
	j	.L16
.L6:
	.loc 2 768 3
	lui	a1,%hi(.LC3)
	addi	a1,a1,%lo(.LC3)
	j	.L16
.L10:
	.loc 2 771 3
	lui	a1,%hi(.LC4)
	addi	a1,a1,%lo(.LC4)
	j	.L16
.LBE7:
.LBE8:
	.cfi_endproc
.LFE75:
	.size	connect, .-connect
	.section	.rodata.ble_start_scan.str1.4,"aMS",@progbits,1
	.align	2
.LC8:
	.string	"Start scan failed (err %d)"
	.align	2
.LC9:
	.string	"Scanning started"
	.section	.text.ble_start_scan,"ax",@progbits
	.align	1
	.globl	ble_start_scan
	.type	ble_start_scan, @function
ble_start_scan:
.LFB77:
	.loc 1 84 1
	.cfi_startproc
	.loc 1 85 5
	.loc 1 87 5
	.loc 1 88 5
	.loc 1 89 5
	.loc 1 90 5
	.loc 1 91 5
	.loc 1 84 1 is_stmt 0
	addi	sp,sp,-32
	.cfi_def_cfa_offset 32
	sw	s0,24(sp)
	sw	s1,20(sp)
	.cfi_offset 8, -8
	.cfi_offset 9, -12
	addi	s0,sp,32
	.cfi_def_cfa 8, 0
	sw	ra,28(sp)
	.loc 1 88 21
	li	a5,20971520
	.loc 1 84 1
	.cfi_offset 1, -4
	.loc 1 88 21
	addi	a5,a5,257
	.loc 1 94 11
	lui	a1,%hi(device_found)
	.loc 1 88 21
	sw	a5,-24(s0)
	.loc 1 94 11
	addi	a1,a1,%lo(device_found)
	.loc 1 91 23
	li	a5,48
	.loc 1 94 11
	addi	a0,s0,-24
	.loc 1 91 23
	sh	a5,-20(s0)
	.loc 1 94 5 is_stmt 1
	.loc 1 94 11 is_stmt 0
	call	bt_le_scan_start
.LVL20:
	mv	s1,a0
.LVL21:
	.loc 1 95 5 is_stmt 1
	.loc 1 95 8 is_stmt 0
	beq	a0,zero,.L18
	.loc 1 96 9 is_stmt 1
	mv	a1,a0
	lui	a0,%hi(.LC8)
	addi	a0,a0,%lo(.LC8)
	call	printf
.LVL22:
	.loc 1 97 9
.L17:
	.loc 1 102 1 is_stmt 0
	lw	ra,28(sp)
	.cfi_remember_state
	.cfi_restore 1
	lw	s0,24(sp)
	.cfi_restore 8
	.cfi_def_cfa 2, 32
	mv	a0,s1
	lw	s1,20(sp)
	.cfi_restore 9
.LVL23:
	addi	sp,sp,32
	.cfi_def_cfa_offset 0
	jr	ra
.LVL24:
.L18:
	.cfi_restore_state
	.loc 1 100 5 is_stmt 1
	lui	a0,%hi(.LC9)
	addi	a0,a0,%lo(.LC9)
	call	printf
.LVL25:
	.loc 1 101 5
	.loc 1 101 12 is_stmt 0
	j	.L17
	.cfi_endproc
.LFE77:
	.size	ble_start_scan, .-ble_start_scan
	.section	.rodata.ble_stop_scan.str1.4,"aMS",@progbits,1
	.align	2
.LC10:
	.string	"stop scan fail %d\r\n"
	.align	2
.LC11:
	.string	"stop done\r\n"
	.section	.text.ble_stop_scan,"ax",@progbits
	.align	1
	.globl	ble_stop_scan
	.type	ble_stop_scan, @function
ble_stop_scan:
.LFB78:
	.loc 1 104 20 is_stmt 1
	.cfi_startproc
	.loc 1 105 5
	.loc 1 106 5
	.loc 1 104 20 is_stmt 0
	addi	sp,sp,-16
	.cfi_def_cfa_offset 16
	sw	s0,8(sp)
	sw	s1,4(sp)
	sw	ra,12(sp)
	.cfi_offset 8, -8
	.cfi_offset 9, -12
	.cfi_offset 1, -4
	addi	s0,sp,16
	.cfi_def_cfa 8, 0
	.loc 1 106 10
	call	bt_le_scan_stop
.LVL26:
	mv	s1,a0
.LVL27:
	.loc 1 107 5 is_stmt 1
	.loc 1 107 7 is_stmt 0
	beq	a0,zero,.L22
	.loc 1 108 9 is_stmt 1
	mv	a1,a0
	lui	a0,%hi(.LC10)
	addi	a0,a0,%lo(.LC10)
	call	printf
.LVL28:
	.loc 1 109 9
.L21:
	.loc 1 113 1 is_stmt 0
	lw	ra,12(sp)
	.cfi_remember_state
	.cfi_restore 1
	lw	s0,8(sp)
	.cfi_restore 8
	.cfi_def_cfa 2, 16
	mv	a0,s1
	lw	s1,4(sp)
	.cfi_restore 9
.LVL29:
	addi	sp,sp,16
	.cfi_def_cfa_offset 0
	jr	ra
.LVL30:
.L22:
	.cfi_restore_state
	.loc 1 111 5 is_stmt 1
	lui	a0,%hi(.LC11)
	addi	a0,a0,%lo(.LC11)
	call	printf
.LVL31:
	.loc 1 112 5
	.loc 1 112 12 is_stmt 0
	j	.L21
	.cfi_endproc
.LFE78:
	.size	ble_stop_scan, .-ble_stop_scan
	.section	.rodata.adv_parse_cb.str1.4,"aMS",@progbits,1
	.align	2
.LC12:
	.string	" %s \r\n"
	.align	2
.LC13:
	.string	"HNN_intern"
	.align	2
.LC14:
	.string	"find target device done: %s \r\n "
	.section	.text.adv_parse_cb,"ax",@progbits
	.align	1
	.type	adv_parse_cb, @function
adv_parse_cb:
.LFB74:
	.loc 1 16 1 is_stmt 1
	.cfi_startproc
.LVL32:
	.loc 1 17 5
	.loc 1 18 5
	.loc 1 21 5
	.loc 1 21 28 is_stmt 0
	lbu	a5,0(a0)
	.loc 1 21 8
	li	a4,1
	.loc 1 21 28
	addi	a5,a5,-8
	.loc 1 21 8
	andi	a5,a5,0xff
	bgtu	a5,a4,.L31
	.loc 1 16 1
	addi	sp,sp,-48
	.cfi_def_cfa_offset 48
	sw	ra,44(sp)
	sw	s0,40(sp)
	sw	s1,36(sp)
	.cfi_offset 1, -4
	.cfi_offset 8, -8
	.cfi_offset 9, -12
	addi	s0,sp,48
	.cfi_def_cfa 8, 0
	sw	s2,32(sp)
	.cfi_offset 18, -16
.LBB12:
.LBB13:
	.loc 1 24 9
	lbu	a2,1(a0)
	mv	s2,a1
.LVL33:
	.loc 1 24 9 is_stmt 1
	lw	a1,4(a0)
.LVL34:
	mv	s1,a0
	addi	a0,s0,-48
.LVL35:
	call	memcpy
.LVL36:
	.loc 1 25 9
	.loc 1 25 18 is_stmt 0
	lbu	a5,1(s1)
	.loc 1 25 30
	addi	a4,s0,-16
	.loc 1 26 9
	lui	a0,%hi(.LC12)
	.loc 1 25 30
	add	a5,a4,a5
	.loc 1 26 9
	addi	a1,s0,-48
	.loc 1 25 30
	sb	zero,-32(a5)
	.loc 1 26 9 is_stmt 1
	addi	a0,a0,%lo(.LC12)
	call	printf
.LVL37:
	.loc 1 28 9
	.loc 1 28 13 is_stmt 0
	lui	a1,%hi(.LC13)
	addi	a1,a1,%lo(.LC13)
	addi	a0,s0,-48
	call	strcmp
.LVL38:
	.loc 1 28 12
	bne	a0,zero,.L27
.LBB14:
	.loc 1 29 13 is_stmt 1
.LVL39:
	.loc 1 30 13
	lui	a0,%hi(.LC14)
	addi	a1,s0,-48
	addi	a0,a0,%lo(.LC14)
	call	printf
.LVL40:
	.loc 1 31 13
	.loc 1 31 18 is_stmt 0
	mv	a0,s2
	call	connect
.LVL41:
	.loc 1 32 13 is_stmt 1
	.loc 1 32 15 is_stmt 0
	li	a5,-1
	bne	a0,a5,.L29
	.loc 1 33 18 is_stmt 1
	lui	a0,%hi(.LC0)
.LVL42:
	li	a1,-1
	addi	a0,a0,%lo(.LC0)
	call	printf
.LVL43:
.L29:
	.loc 1 35 13
	call	ble_stop_scan
.LVL44:
	.loc 1 36 13
.L27:
.LBE14:
.LBE13:
.LBE12:
	.loc 1 40 1 is_stmt 0
	lw	ra,44(sp)
	.cfi_restore 1
	lw	s0,40(sp)
	.cfi_restore 8
	.cfi_def_cfa 2, 48
	lw	s1,36(sp)
	.cfi_restore 9
.LVL45:
	lw	s2,32(sp)
	.cfi_restore 18
.LVL46:
	li	a0,1
	addi	sp,sp,48
	.cfi_def_cfa_offset 0
	jr	ra
.LVL47:
.L31:
	li	a0,1
.LVL48:
	ret
	.cfi_endproc
.LFE74:
	.size	adv_parse_cb, .-adv_parse_cb
	.section	.text.test_ble_master,"ax",@progbits
	.align	1
	.globl	test_ble_master
	.type	test_ble_master, @function
test_ble_master:
.LFB79:
	.loc 1 152 27 is_stmt 1
	.cfi_startproc
	.loc 1 156 5
	.loc 1 152 27 is_stmt 0
	addi	sp,sp,-16
	.cfi_def_cfa_offset 16
	sw	s0,12(sp)
	.cfi_offset 8, -4
	addi	s0,sp,16
	.cfi_def_cfa 8, 0
	.loc 1 158 1
	lw	s0,12(sp)
	.cfi_restore 8
	.cfi_def_cfa 2, 16
	addi	sp,sp,16
	.cfi_def_cfa_offset 0
	.loc 1 156 5
	tail	ble_start_scan
.LVL49:
	.cfi_endproc
.LFE79:
	.size	test_ble_master, .-test_ble_master
	.section	.sdata.conn_param_bl.0,"aw"
	.align	2
	.set	.LANCHOR0,. + 0
	.type	conn_param_bl.0, @object
	.size	conn_param_bl.0, 8
conn_param_bl.0:
	.half	24
	.half	40
	.half	0
	.half	400
	.text
.Letext0:
	.file 3 "/home/quanghaictu/intern/Ai-Thinker-WB2/toolchain/riscv/Linux/lib/gcc/riscv64-unknown-elf/10.2.0/include/stdint-gcc.h"
	.file 4 "/home/quanghaictu/intern/Ai-Thinker-WB2/toolchain/riscv/Linux/lib/gcc/riscv64-unknown-elf/10.2.0/include/stddef.h"
	.file 5 "/home/quanghaictu/intern/Ai-Thinker-WB2/components/network/ble/blestack/src/common/include/zephyr/types.h"
	.file 6 "/home/quanghaictu/intern/Ai-Thinker-WB2/components/network/ble/blestack/src/common/include/net/buf.h"
	.file 7 "/home/quanghaictu/intern/Ai-Thinker-WB2/components/network/ble/blestack/src/include/bluetooth/addr.h"
	.file 8 "/home/quanghaictu/intern/Ai-Thinker-WB2/components/network/ble/blestack/src/include/bluetooth/conn.h"
	.file 9 "/home/quanghaictu/intern/Ai-Thinker-WB2/toolchain/riscv/Linux/riscv64-unknown-elf/include/stdio.h"
	.file 10 "/home/quanghaictu/intern/Ai-Thinker-WB2/toolchain/riscv/Linux/riscv64-unknown-elf/include/string.h"