	.file	"net_sockets.c"
	.option nopic
	.attribute arch, "rv32i2p0_m2p0_f2p0_c2p0"
	.attribute unaligned_access, 0
	.attribute stack_align, 16
	.text
.Ltext0:
	.cfi_sections	.debug_frame
	.section	.text.net_would_block.isra.0,"ax",@progbits
	.align	1
	.type	net_would_block.isra.0, @function
net_would_block.isra.0:
.LFB63:
	.file 1 "/home/dinhquangha/Ai-Thinker-WB2/components/security/mbedtls_lts/port/net_sockets.c"
	.loc 1 322 12
	.cfi_startproc
.LVL0:
	.loc 1 324 5
	.loc 1 322 12 is_stmt 0
	addi	sp,sp,-16
	.cfi_def_cfa_offset 16
	sw	s0,8(sp)
	sw	s1,4(sp)
	sw	s2,0(sp)
	sw	ra,12(sp)
	.cfi_offset 8, -8
	.cfi_offset 9, -12
	.cfi_offset 18, -16
	.cfi_offset 1, -4
	addi	s0,sp,16
	.cfi_def_cfa 8, 0
	.loc 1 324 9
	lui	s2,%hi(errno)
	lw	s1,%lo(errno)(s2)
.LVL1:
	.loc 1 332 5 is_stmt 1
	.loc 1 332 11 is_stmt 0
	li	a2,0
	li	a1,3
	call	lwip_fcntl
.LVL2:
	.loc 1 332 35
	andi	a0,a0,1
	.loc 1 335 15
	sw	s1,%lo(errno)(s2)
	.loc 1 332 7
	bne	a0,zero,.L2
.L1:
	.loc 1 350 1
	lw	ra,12(sp)
	.cfi_remember_state
	.cfi_restore 1
	lw	s0,8(sp)
	.cfi_restore 8
	.cfi_def_cfa 2, 16
	lw	s1,4(sp)
	.cfi_restore 9
.LVL3:
	lw	s2,0(sp)
	.cfi_restore 18
.LVL4:
	addi	sp,sp,16
	.cfi_def_cfa_offset 0
	jr	ra
.LVL5:
.L2:
	.cfi_restore_state
	.loc 1 339 5 is_stmt 1
	addi	a0,s1,-11
	seqz	a0,a0
	j	.L1
	.cfi_endproc
.LFE63:
	.size	net_would_block.isra.0, .-net_would_block.isra.0
	.section	.text.mbedtls_net_init,"ax",@progbits
	.align	1
	.globl	mbedtls_net_init
	.type	mbedtls_net_init, @function
mbedtls_net_init:
.LFB48:
	.loc 1 180 1
	.cfi_startproc
.LVL6:
	.loc 1 181 5
	.loc 1 180 1 is_stmt 0
	addi	sp,sp,-16
	.cfi_def_cfa_offset 16
	sw	s0,12(sp)
	.cfi_offset 8, -4
	addi	s0,sp,16
	.cfi_def_cfa 8, 0
	.loc 1 182 1
	lw	s0,12(sp)
	.cfi_restore 8
	.cfi_def_cfa 2, 16
	.loc 1 181 13
	li	a5,-1
	sw	a5,0(a0)
	.loc 1 182 1
	addi	sp,sp,16
	.cfi_def_cfa_offset 0
	jr	ra
	.cfi_endproc
.LFE48:
	.size	mbedtls_net_init, .-mbedtls_net_init
	.section	.text.mbedtls_net_connect,"ax",@progbits
	.align	1
	.globl	mbedtls_net_connect
	.type	mbedtls_net_connect, @function
mbedtls_net_connect:
.LFB49:
	.loc 1 189 1 is_stmt 1
	.cfi_startproc
.LVL7:
	.loc 1 190 5
	.loc 1 191 5
	.loc 1 193 5
	.loc 1 148 5
	.loc 1 197 5
	.loc 1 189 1 is_stmt 0
	addi	sp,sp,-80
	.cfi_def_cfa_offset 80
	sw	s0,72(sp)
	sw	s1,68(sp)
	.cfi_offset 8, -8
	.cfi_offset 9, -12
	addi	s0,sp,80
	.cfi_def_cfa 8, 0
	sw	s2,64(sp)
	sw	s3,60(sp)
	sw	s4,56(sp)
	sw	ra,76(sp)
	.cfi_offset 18, -16
	.cfi_offset 19, -20
	.cfi_offset 20, -24
	.cfi_offset 1, -4
	.loc 1 189 1
	mv	s3,a0
	mv	s2,a1
	mv	s4,a2
	.loc 1 197 5
	li	a1,0
.LVL8:
	li	a2,32
.LVL9:
	addi	a0,s0,-64
.LVL10:
	.loc 1 189 1
	mv	s1,a3
	.loc 1 197 5
	call	memset
.LVL11:
	.loc 1 198 5 is_stmt 1
	.loc 1 199 40 is_stmt 0
	li	a4,1
	.loc 1 198 21
	sw	zero,-60(s0)
	.loc 1 199 5 is_stmt 1
	.loc 1 199 40 is_stmt 0
	li	a5,1
	bne	s1,a4,.L8
	li	a5,2
.L8:
	.loc 1 199 23 discriminator 4
	sw	a5,-56(s0)
	.loc 1 200 5 is_stmt 1 discriminator 4
	.loc 1 200 41 is_stmt 0 discriminator 4
	li	a4,1
	li	a5,17
	beq	s1,a4,.L9
	.loc 1 200 41
	li	a5,6
.L9:
	.loc 1 202 9 discriminator 4
	addi	a3,s0,-68
	addi	a2,s0,-64
	mv	a1,s4
	mv	a0,s2
	.loc 1 200 23 discriminator 4
	sw	a5,-52(s0)
	.loc 1 202 5 is_stmt 1 discriminator 4
	.loc 1 202 9 is_stmt 0 discriminator 4
	call	lwip_getaddrinfo
.LVL12:
	.loc 1 203 15 discriminator 4
	li	s1,-82
.LVL13:
	.loc 1 202 7 discriminator 4
	bne	a0,zero,.L7
	.loc 1 206 5 is_stmt 1
.LVL14:
	.loc 1 207 5
	.loc 1 207 14 is_stmt 0
	lw	s2,-68(s0)
.LVL15:
.L11:
	.loc 1 207 27 is_stmt 1 discriminator 1
	.loc 1 207 5 is_stmt 0 discriminator 1
	bne	s2,zero,.L14
.LVL16:
.L13:
	.loc 1 227 5 is_stmt 1
	lw	a0,-68(s0)
	call	lwip_freeaddrinfo
.LVL17:
	.loc 1 229 5
.L7:
	.loc 1 230 1 is_stmt 0
	lw	ra,76(sp)
	.cfi_remember_state
	.cfi_restore 1
	lw	s0,72(sp)
	.cfi_restore 8
	.cfi_def_cfa 2, 80
	lw	s2,64(sp)
	.cfi_restore 18
	lw	s3,60(sp)
	.cfi_restore 19
.LVL18:
	lw	s4,56(sp)
	.cfi_restore 20
.LVL19:
	mv	a0,s1
	lw	s1,68(sp)
	.cfi_restore 9
	addi	sp,sp,80
	.cfi_def_cfa_offset 0
	jr	ra
.LVL20:
.L14:
	.cfi_restore_state
	.loc 1 209 9 is_stmt 1
	.loc 1 209 19 is_stmt 0
	lw	a2,12(s2)
	lw	a1,8(s2)
	lw	a0,4(s2)
	call	lwip_socket
.LVL21:
	.loc 1 209 17
	sw	a0,0(s3)
	.loc 1 211 9 is_stmt 1
	.loc 1 211 11 is_stmt 0
	blt	a0,zero,.L18
	.loc 1 217 9 is_stmt 1
	.loc 1 217 13 is_stmt 0
	lw	a2,16(s2)
	lw	a1,20(s2)
	call	lwip_connect
.LVL22:
	mv	s1,a0
.LVL23:
	.loc 1 217 11
	beq	a0,zero,.L13
	.loc 1 223 9 is_stmt 1
	lw	a0,0(s3)
	.loc 1 224 13 is_stmt 0
	li	s1,-68
	.loc 1 223 9
	call	lwip_close
.LVL24:
	.loc 1 224 9 is_stmt 1
.L12:
	.loc 1 207 39 discriminator 2
	.loc 1 207 43 is_stmt 0 discriminator 2
	lw	s2,28(s2)
.LVL25:
	j	.L11
.L18:
	.loc 1 213 17
	li	s1,-66
.LVL26:
	j	.L12
	.cfi_endproc
.LFE49:
	.size	mbedtls_net_connect, .-mbedtls_net_connect
	.section	.text.mbedtls_net_bind,"ax",@progbits
	.align	1
	.globl	mbedtls_net_bind
	.type	mbedtls_net_bind, @function
mbedtls_net_bind:
.LFB50:
	.loc 1 236 1 is_stmt 1
	.cfi_startproc
.LVL27:
	.loc 1 237 5
	.loc 1 238 5
	.loc 1 240 5
	.loc 1 148 5
	.loc 1 244 5
	.loc 1 236 1 is_stmt 0
	addi	sp,sp,-80
	.cfi_def_cfa_offset 80
	sw	s0,72(sp)
	sw	s1,68(sp)
	.cfi_offset 8, -8
	.cfi_offset 9, -12
	addi	s0,sp,80
	.cfi_def_cfa 8, 0
	sw	s2,64(sp)
	sw	s3,60(sp)
	sw	s4,56(sp)
	sw	ra,76(sp)
	sw	s5,52(sp)
	sw	s6,48(sp)
	.cfi_offset 18, -16
	.cfi_offset 19, -20
	.cfi_offset 20, -24
	.cfi_offset 1, -4
	.cfi_offset 21, -28
	.cfi_offset 22, -32
	.loc 1 236 1
	mv	s3,a0
	mv	s1,a1
	mv	s2,a2
	.loc 1 244 5
	li	a1,0
.LVL28:
	li	a2,32
.LVL29:
	addi	a0,s0,-64
.LVL30:
	.loc 1 236 1
	mv	s4,a3
	.loc 1 244 5
	call	memset
.LVL31:
	.loc 1 245 5 is_stmt 1
	.loc 1 246 40 is_stmt 0
	li	a4,1
	.loc 1 245 21
	sw	zero,-60(s0)
	.loc 1 246 5 is_stmt 1
	.loc 1 246 40 is_stmt 0
	li	a5,1
	bne	s4,a4,.L25
	li	a5,2
.L25:
	.loc 1 246 23 discriminator 4
	sw	a5,-56(s0)
	.loc 1 247 5 is_stmt 1 discriminator 4
	.loc 1 247 41 is_stmt 0 discriminator 4
	li	a4,1
	li	a5,17
	beq	s4,a4,.L26
	.loc 1 247 41
	li	a5,6
.L26:
	.loc 1 247 23 discriminator 4
	sw	a5,-52(s0)
	.loc 1 248 5 is_stmt 1 discriminator 4
	.loc 1 248 7 is_stmt 0 discriminator 4
	bne	s1,zero,.L27
	.loc 1 249 9 is_stmt 1
	.loc 1 249 24 is_stmt 0
	li	a5,1
	sw	a5,-64(s0)
.L27:
	.loc 1 251 5 is_stmt 1
	.loc 1 251 9 is_stmt 0
	mv	a0,s1
	addi	a3,s0,-68
	addi	a2,s0,-64
	mv	a1,s2
	call	lwip_getaddrinfo
.LVL32:
	.loc 1 252 15
	li	s1,-82
.LVL33:
	.loc 1 251 7
	bne	a0,zero,.L24
	.loc 1 255 5 is_stmt 1
.LVL34:
	.loc 1 256 5
	.loc 1 256 14 is_stmt 0
	lw	s2,-68(s0)
.LVL35:
	.loc 1 267 13
	li	s5,4096
	.loc 1 266 11
	li	s6,1
	.loc 1 267 13
	addi	s5,s5,-1
.LVL36:
.L29:
	.loc 1 256 27 is_stmt 1 discriminator 1
	.loc 1 256 5 is_stmt 0 discriminator 1
	bne	s2,zero,.L36
.LVL37:
.L34:
	.loc 1 298 5 is_stmt 1
	lw	a0,-68(s0)
	call	lwip_freeaddrinfo
.LVL38:
	.loc 1 300 5
.L24:
	.loc 1 302 1 is_stmt 0
	lw	ra,76(sp)
	.cfi_remember_state
	.cfi_restore 1
	lw	s0,72(sp)
	.cfi_restore 8
	.cfi_def_cfa 2, 80
	lw	s2,64(sp)
	.cfi_restore 18
	lw	s3,60(sp)
	.cfi_restore 19
.LVL39:
	lw	s4,56(sp)
	.cfi_restore 20
.LVL40:
	lw	s5,52(sp)
	.cfi_restore 21
	lw	s6,48(sp)
	.cfi_restore 22
	mv	a0,s1
	lw	s1,68(sp)
	.cfi_restore 9
	addi	sp,sp,80
	.cfi_def_cfa_offset 0
	jr	ra
.LVL41:
.L36:
	.cfi_restore_state
	.loc 1 258 9 is_stmt 1
	.loc 1 258 19 is_stmt 0
	lw	a2,12(s2)
	lw	a1,8(s2)
	lw	a0,4(s2)
	call	lwip_socket
.LVL42:
	.loc 1 258 17
	sw	a0,0(s3)
	.loc 1 260 9 is_stmt 1
	.loc 1 260 11 is_stmt 0
	blt	a0,zero,.L40
	.loc 1 266 9 is_stmt 1
	.loc 1 267 13 is_stmt 0
	li	a4,4
	addi	a3,s0,-72
	li	a2,4
	mv	a1,s5
	.loc 1 266 11
	sw	s6,-72(s0)
	.loc 1 267 9 is_stmt 1
	.loc 1 267 13 is_stmt 0
	call	lwip_setsockopt
.LVL43:
	mv	a5,a0
	lw	a0,0(s3)
	.loc 1 267 11
	beq	a5,zero,.L31
	.loc 1 270 13 is_stmt 1
	call	lwip_close
.LVL44:
	.loc 1 271 13
	.loc 1 272 13
.L40:
	.loc 1 262 17 is_stmt 0
	li	s1,-66
	j	.L30
.LVL45:
.L31:
	.loc 1 275 9 is_stmt 1
	.loc 1 275 13 is_stmt 0
	lw	a2,16(s2)
	lw	a1,20(s2)
	call	lwip_bind
.LVL46:
	mv	s1,a0
.LVL47:
	.loc 1 275 11
	beq	a0,zero,.L32
	.loc 1 277 13 is_stmt 1
	lw	a0,0(s3)
	.loc 1 278 17 is_stmt 0
	li	s1,-70
	.loc 1 277 13
	call	lwip_close
.LVL48:
	.loc 1 278 13 is_stmt 1
	.loc 1 279 13
.L30:
	.loc 1 256 39 discriminator 2
	.loc 1 256 43 is_stmt 0 discriminator 2
	lw	s2,28(s2)
.LVL49:
	j	.L29
.LVL50:
.L32:
	.loc 1 283 9 is_stmt 1
	.loc 1 283 11 is_stmt 0
	bne	s4,zero,.L34
	.loc 1 285 13 is_stmt 1
	.loc 1 285 17 is_stmt 0
	lw	a0,0(s3)
	li	a1,10
	call	lwip_listen
.LVL51:
	.loc 1 285 15
	beq	a0,zero,.L34
	.loc 1 287 17 is_stmt 1
	lw	a0,0(s3)
	.loc 1 288 21 is_stmt 0
	li	s1,-72
	.loc 1 287 17
	call	lwip_close
.LVL52:
	.loc 1 288 17 is_stmt 1
	.loc 1 289 17
	j	.L30
	.cfi_endproc
.LFE50:
	.size	mbedtls_net_bind, .-mbedtls_net_bind
	.section	.text.mbedtls_net_accept,"ax",@progbits
	.align	1
	.globl	mbedtls_net_accept
	.type	mbedtls_net_accept, @function
mbedtls_net_accept:
.LFB52:
	.loc 1 359 1
	.cfi_startproc
.LVL53:
	.loc 1 360 5
	.loc 1 361 5
	.loc 1 363 5
	.loc 1 375 5
	.loc 1 359 1 is_stmt 0
	addi	sp,sp,-80
	.cfi_def_cfa_offset 80
	sw	s0,72(sp)
	sw	s2,64(sp)
	.cfi_offset 8, -8
	.cfi_offset 18, -16
	addi	s0,sp,80
	.cfi_def_cfa 8, 0
	sw	s3,60(sp)
	sw	s4,56(sp)
	sw	s5,52(sp)
	sw	s6,48(sp)
	sw	ra,76(sp)
	sw	s1,68(sp)
	.cfi_offset 19, -20
	.cfi_offset 20, -24
	.cfi_offset 21, -28
	.cfi_offset 22, -32
	.cfi_offset 1, -4
	.cfi_offset 9, -12
	.loc 1 359 1
	mv	s2,a0
	.loc 1 381 9
	lw	a0,0(a0)
.LVL54:
	.loc 1 375 15
	li	a5,16
	.loc 1 359 1
	mv	s3,a1
	.loc 1 381 9
	li	a1,4096
.LVL55:
	.loc 1 359 1
	mv	s4,a2
	mv	s5,a3
	mv	s6,a4
	.loc 1 375 15
	sw	a5,-76(s0)
	.loc 1 376 5 is_stmt 1
	.loc 1 381 9 is_stmt 0
	addi	a2,a1,8
.LVL56:
	.loc 1 376 15
	li	a5,4
	.loc 1 381 9
	addi	a4,s0,-72
.LVL57:
	addi	a3,s0,-80
.LVL58:
	addi	a1,a1,-1
	.loc 1 376 15
	sw	a5,-72(s0)
	.loc 1 381 5 is_stmt 1
	.loc 1 381 9 is_stmt 0
	call	lwip_getsockopt
.LVL59:
	.loc 1 381 7
	beq	a0,zero,.L47
.LVL60:
.L58:
.LBB19:
	.loc 1 428 19
	li	s1,-74
	j	.L46
.LVL61:
.L47:
.LBE19:
	.loc 1 383 21
	lw	a4,-80(s0)
	.loc 1 382 54
	li	a5,1
	.loc 1 383 21
	addi	a3,a4,-1
	.loc 1 382 54
	bgtu	a3,a5,.L58
	mv	s1,a0
	.loc 1 388 5 is_stmt 1
	.loc 1 391 32 is_stmt 0
	lw	a0,0(s2)
	.loc 1 388 7
	bne	a4,a5,.L50
	.loc 1 391 9 is_stmt 1
	.loc 1 391 32 is_stmt 0
	addi	a2,s0,-76
	addi	a1,s0,-64
	call	lwip_accept
.LVL62:
	.loc 1 391 30
	sw	a0,0(s3)
.LVL63:
.L51:
	.loc 1 412 5 is_stmt 1
	.loc 1 412 7 is_stmt 0
	bge	a0,zero,.L52
	.loc 1 414 9 is_stmt 1
	.loc 1 414 13 is_stmt 0
	lw	a0,0(s2)
.LVL64:
	call	net_would_block.isra.0
.LVL65:
	.loc 1 414 11
	beq	a0,zero,.L58
	.loc 1 415 19
	li	s1,-28672
	addi	s1,s1,1792
	j	.L46
.LVL66:
.L50:
.LBB20:
	.loc 1 397 9 is_stmt 1
	.loc 1 399 21 is_stmt 0
	addi	a5,s0,-76
	addi	a4,s0,-64
	li	a3,1
	li	a2,1
	addi	a1,s0,-48
	.loc 1 397 14
	sb	zero,-48(s0)
	.loc 1 399 9 is_stmt 1
	.loc 1 399 21 is_stmt 0
	call	lwip_recvfrom
.LVL67:
	j	.L51
.L52:
.LBE20:
	.loc 1 422 5 is_stmt 1
	.loc 1 422 7 is_stmt 0
	lw	a4,-80(s0)
	li	a5,1
	beq	a4,a5,.L53
.LBB21:
	.loc 1 424 9 is_stmt 1
	.loc 1 425 9
	.loc 1 427 13 is_stmt 0
	lw	a2,-76(s0)
	lw	a0,0(s2)
.LVL68:
	addi	a1,s0,-64
	.loc 1 425 13
	sw	a5,-68(s0)
	.loc 1 427 9 is_stmt 1
	.loc 1 427 13 is_stmt 0
	call	lwip_connect
.LVL69:
	.loc 1 427 11
	bne	a0,zero,.L58
	.loc 1 430 9 is_stmt 1
	.loc 1 430 34 is_stmt 0
	lw	a5,0(s2)
	.loc 1 434 13
	addi	a2,s0,-76
	addi	a1,s0,-48
	.loc 1 430 24
	sw	a5,0(s3)
	.loc 1 431 9 is_stmt 1
	.loc 1 431 22 is_stmt 0
	li	a5,-1
	sw	a5,0(s2)
	.loc 1 433 9 is_stmt 1
	.loc 1 434 13 is_stmt 0
	lw	a0,0(s3)
	.loc 1 433 11
	li	a5,16
	sw	a5,-76(s0)
	.loc 1 434 9 is_stmt 1
	.loc 1 434 13 is_stmt 0
	call	lwip_getsockname
.LVL70:
	.loc 1 434 11
	beq	a0,zero,.L55
.L56:
	.loc 1 441 19
	li	s1,-66
.L46:
.LBE21:
	.loc 1 477 1
	lw	ra,76(sp)
	.cfi_remember_state
	.cfi_restore 1
	lw	s0,72(sp)
	.cfi_restore 8
	.cfi_def_cfa 2, 80
	lw	s2,64(sp)
	.cfi_restore 18
.LVL71:
	lw	s3,60(sp)
	.cfi_restore 19
.LVL72:
	lw	s4,56(sp)
	.cfi_restore 20
.LVL73:
	lw	s5,52(sp)
	.cfi_restore 21
.LVL74:
	lw	s6,48(sp)
	.cfi_restore 22
.LVL75:
	mv	a0,s1
	lw	s1,68(sp)
	.cfi_restore 9
	addi	sp,sp,80
	.cfi_def_cfa_offset 0
	jr	ra
.LVL76:
.L55:
	.cfi_restore_state
.LBB22:
	.loc 1 436 30
	lbu	a0,-47(s0)
	li	a2,17
	li	a1,2
	call	lwip_socket
.LVL77:
	.loc 1 436 28
	sw	a0,0(s2)
	.loc 1 435 69
	blt	a0,zero,.L56
	.loc 1 438 13
	li	a1,4096
	li	a4,4
	addi	a3,s0,-68
	li	a2,4
	addi	a1,a1,-1
	call	lwip_setsockopt
.LVL78:
	.loc 1 437 76
	bne	a0,zero,.L56
	.loc 1 444 9 is_stmt 1
	.loc 1 444 13 is_stmt 0
	lw	a2,-76(s0)
	lw	a0,0(s2)
	addi	a1,s0,-48
	call	lwip_bind
.LVL79:
	.loc 1 444 11
	beq	a0,zero,.L53
	.loc 1 446 19
	li	s1,-70
	j	.L46
.L53:
.LBE22:
	.loc 1 450 5 is_stmt 1
	.loc 1 450 7 is_stmt 0
	beq	s4,zero,.L46
	.loc 1 452 9 is_stmt 1
	.loc 1 452 11 is_stmt 0
	lbu	a4,-63(s0)
	li	a5,2
	bne	a4,a5,.L46
.LBB23:
	.loc 1 454 13 is_stmt 1
.LVL80:
	.loc 1 455 13
	.loc 1 455 21 is_stmt 0
	li	a5,4
	sw	a5,0(s6)
	.loc 1 457 13 is_stmt 1
	.loc 1 457 15 is_stmt 0
	li	a5,3
	bleu	s5,a5,.L60
	.loc 1 460 13 is_stmt 1
	li	a2,4
	addi	a1,s0,-60
	mv	a0,s4
	call	memcpy
.LVL81:
	j	.L46
.L60:
	.loc 1 458 23 is_stmt 0
	li	s1,-67
	j	.L46
.LBE23:
	.cfi_endproc
.LFE52:
	.size	mbedtls_net_accept, .-mbedtls_net_accept
	.section	.text.mbedtls_net_set_block,"ax",@progbits
	.align	1
	.globl	mbedtls_net_set_block
	.type	mbedtls_net_set_block, @function
mbedtls_net_set_block:
.LFB53:
	.loc 1 483 1 is_stmt 1
	.cfi_startproc
.LVL82:
	.loc 1 492 5
	.loc 1 483 1 is_stmt 0
	addi	sp,sp,-16
	.cfi_def_cfa_offset 16
	sw	s0,8(sp)
	sw	ra,12(sp)
	sw	s1,4(sp)
	.cfi_offset 8, -8
	.cfi_offset 1, -4
	.cfi_offset 9, -12
	addi	s0,sp,16
	.cfi_def_cfa 8, 0
	.loc 1 492 13
	lw	s1,0(a0)
	.loc 1 492 34
	li	a2,0
	li	a1,3
	mv	a0,s1
.LVL83:
	call	lwip_fcntl
.LVL84:
	.loc 1 495 1
	lw	s0,8(sp)
	.cfi_restore 8
	.cfi_def_cfa 2, 16
	lw	ra,12(sp)
	.cfi_restore 1
	.loc 1 492 13
	andi	a2,a0,-2
	mv	a0,s1
	.loc 1 495 1
	lw	s1,4(sp)
	.cfi_restore 9
	.loc 1 492 13
	li	a1,4
	.loc 1 495 1
	addi	sp,sp,16
	.cfi_def_cfa_offset 0
	.loc 1 492 13
	tail	lwip_fcntl
.LVL85:
	.cfi_endproc
.LFE53:
	.size	mbedtls_net_set_block, .-mbedtls_net_set_block
	.section	.text.mbedtls_net_set_nonblock,"ax",@progbits
	.align	1
	.globl	mbedtls_net_set_nonblock
	.type	mbedtls_net_set_nonblock, @function
mbedtls_net_set_nonblock:
.LFB54:
	.loc 1 498 1 is_stmt 1
	.cfi_startproc
.LVL86:
	.loc 1 507 5
	.loc 1 498 1 is_stmt 0
	addi	sp,sp,-16
	.cfi_def_cfa_offset 16
	sw	s0,8(sp)
	sw	ra,12(sp)
	sw	s1,4(sp)
	.cfi_offset 8, -8
	.cfi_offset 1, -4
	.cfi_offset 9, -12
	addi	s0,sp,16
	.cfi_def_cfa 8, 0
	.loc 1 507 13
	lw	s1,0(a0)
	.loc 1 507 34
	li	a2,0
	li	a1,3
	mv	a0,s1
.LVL87:
	call	lwip_fcntl
.LVL88:
	.loc 1 510 1
	lw	s0,8(sp)
	.cfi_restore 8
	.cfi_def_cfa 2, 16
	lw	ra,12(sp)
	.cfi_restore 1
	.loc 1 507 13
	ori	a2,a0,1
	mv	a0,s1
	.loc 1 510 1
	lw	s1,4(sp)
	.cfi_restore 9
	.loc 1 507 13
	li	a1,4
	.loc 1 510 1
	addi	sp,sp,16
	.cfi_def_cfa_offset 0
	.loc 1 507 13
	tail	lwip_fcntl
.LVL89:
	.cfi_endproc
.LFE54:
	.size	mbedtls_net_set_nonblock, .-mbedtls_net_set_nonblock
	.section	.text.mbedtls_net_poll,"ax",@progbits
	.align	1
	.globl	mbedtls_net_poll
	.type	mbedtls_net_poll, @function
mbedtls_net_poll:
.LFB55:
	.loc 1 517 1 is_stmt 1
	.cfi_startproc
.LVL90:
	.loc 1 518 5
	.loc 1 519 5
	.loc 1 521 5
	.loc 1 522 5
	.loc 1 524 5
	.loc 1 517 1 is_stmt 0
	addi	sp,sp,-64
	.cfi_def_cfa_offset 64
	sw	s0,56(sp)
	sw	ra,60(sp)
	sw	s1,52(sp)
	sw	s2,48(sp)
	sw	s3,44(sp)
	sw	s4,40(sp)
	.cfi_offset 8, -8
	.cfi_offset 1, -4
	.cfi_offset 9, -12
	.cfi_offset 18, -16
	.cfi_offset 19, -20
	.cfi_offset 20, -24
	addi	s0,sp,64
	.cfi_def_cfa 8, 0
	.loc 1 524 9
	lw	s1,0(a0)
.LVL91:
	.loc 1 526 5 is_stmt 1
.LBB24:
.LBB25:
	.loc 1 158 5
	.loc 1 159 15 is_stmt 0
	li	a0,-69
.LVL92:
	.loc 1 158 7
	blt	s1,zero,.L69
	.loc 1 169 5 is_stmt 1
	.loc 1 169 20 is_stmt 0
	li	a5,63
	ble	s1,a5,.L71
.LVL93:
.L77:
	.loc 1 170 15
	li	a0,-71
.LVL94:
.L69:
.LBE25:
.LBE24:
	.loc 1 577 1
	lw	ra,60(sp)
	.cfi_remember_state
	.cfi_restore 1
	lw	s0,56(sp)
	.cfi_restore 8
	.cfi_def_cfa 2, 64
	lw	s1,52(sp)
	.cfi_restore 9
	lw	s2,48(sp)
	.cfi_restore 18
	lw	s3,44(sp)
	.cfi_restore 19
	lw	s4,40(sp)
	.cfi_restore 20
	addi	sp,sp,64
	.cfi_def_cfa_offset 0
	jr	ra
.LVL95:
.L71:
	.cfi_restore_state
.LBB26:
	.loc 1 540 100 is_stmt 1
	.loc 1 540 109
	.loc 1 540 130 is_stmt 0
	sw	zero,-60(s0)
	.loc 1 540 100 is_stmt 1
	.loc 1 540 109
.LVL96:
	.loc 1 540 130 is_stmt 0
	sw	zero,-64(s0)
	.loc 1 540 100 is_stmt 1
.LBE26:
	.loc 1 540 143
	.loc 1 541 5
	.loc 1 541 12 is_stmt 0
	andi	a5,a1,1
	.loc 1 541 7
	beq	a5,zero,.L72
	.loc 1 543 9 is_stmt 1
	.loc 1 544 9 is_stmt 0
	srai	a5,s1,5
	.loc 1 544 40
	addi	a4,s0,-32
	slli	a5,a5,2
	add	a5,a4,a5
	lw	a3,-32(a5)
	.loc 1 544 57
	li	a4,1
	sll	a4,a4,s1
	.loc 1 544 40
	or	a4,a4,a3
	.loc 1 543 12
	andi	a1,a1,-2
.LVL97:
	.loc 1 544 8 is_stmt 1
	.loc 1 544 40 is_stmt 0
	sw	a4,-32(a5)
.L72:
	.loc 1 547 4 is_stmt 1
.LBB27:
	.loc 1 547 9
	.loc 1 547 21
	.loc 1 547 34
.LVL98:
	.loc 1 547 7
	.loc 1 547 94
	.loc 1 547 100
	.loc 1 547 109
	.loc 1 547 130 is_stmt 0
	sw	zero,-52(s0)
	.loc 1 547 100 is_stmt 1
	.loc 1 547 109
.LVL99:
	.loc 1 547 130 is_stmt 0
	sw	zero,-56(s0)
	.loc 1 547 100 is_stmt 1
.LBE27:
	.loc 1 547 143
	.loc 1 548 5
	.loc 1 548 12 is_stmt 0
	andi	a5,a1,2
	.loc 1 548 7
	beq	a5,zero,.L73
	.loc 1 550 9 is_stmt 1
	.loc 1 551 9 is_stmt 0
	srai	a5,s1,5
	.loc 1 551 40
	addi	a4,s0,-32
	slli	a5,a5,2
	add	a5,a4,a5
	lw	a3,-24(a5)
	.loc 1 551 57
	li	a4,1
	sll	a4,a4,s1
	.loc 1 551 40
	or	a4,a4,a3
	.loc 1 550 12
	andi	a1,a1,-3
.LVL100:
	.loc 1 551 8 is_stmt 1
	.loc 1 551 40 is_stmt 0
	sw	a4,-24(a5)
.L73:
	.loc 1 554 5 is_stmt 1
	.loc 1 555 15 is_stmt 0
	li	a0,-73
	.loc 1 554 7
	bne	a1,zero,.L69
	.loc 1 557 5 is_stmt 1
	.loc 1 557 25 is_stmt 0
	li	a4,1000
	divu	a5,a2,a4
	sw	zero,-44(s0)
	.loc 1 558 5 is_stmt 1
	li	s2,0
	.loc 1 557 25 is_stmt 0
	sw	a5,-48(s0)
	.loc 1 558 28
	remu	a5,a2,a4
	.loc 1 558 37
	mul	a5,a5,a4
	.loc 1 558 16
	sw	a5,-40(s0)
	li	a5,-1
	beq	a2,a5,.L75
	addi	s2,s0,-48
.L75:
	.loc 1 562 15
	addi	s4,s1,1
	.loc 1 565 5
	li	s3,4
.LVL101:
.L76:
	.loc 1 560 5 is_stmt 1
	.loc 1 562 9
	.loc 1 562 15 is_stmt 0
	mv	a4,s2
	li	a3,0
	addi	a2,s0,-56
.LVL102:
	addi	a1,s0,-64
	mv	a0,s4
	call	lwip_select
.LVL103:
	.loc 1 565 10 is_stmt 1
	.loc 1 565 5 is_stmt 0
	beq	a0,s3,.L76
	.loc 1 567 5 is_stmt 1
	.loc 1 567 7 is_stmt 0
	blt	a0,zero,.L77
	.loc 1 570 5 is_stmt 1
.LVL104:
	.loc 1 571 5
	.loc 1 571 9 is_stmt 0
	srai	a5,s1,5
	.loc 1 571 21
	slli	a5,a5,2
	addi	a4,s0,-32
	add	a5,a4,a5
	.loc 1 571 44
	lw	a0,-32(a5)
	.loc 1 573 44
	lw	a5,-24(a5)
	.loc 1 571 10
	andi	s1,s1,31
.LVL105:
	.loc 1 571 44
	srl	a0,a0,s1
	.loc 1 573 44
	srl	s1,a5,s1
	andi	s1,s1,1
	.loc 1 571 44
	andi	a0,a0,1
.LVL106:
	.loc 1 573 5 is_stmt 1
	.loc 1 573 7 is_stmt 0
	beq	s1,zero,.L69
	.loc 1 574 9 is_stmt 1
	.loc 1 574 13 is_stmt 0
	ori	a0,a0,2
.LVL107:
	j	.L69
	.cfi_endproc
.LFE55:
	.size	mbedtls_net_poll, .-mbedtls_net_poll
	.section	.text.mbedtls_net_usleep,"ax",@progbits
	.align	1
	.globl	mbedtls_net_usleep
	.type	mbedtls_net_usleep, @function
mbedtls_net_usleep:
.LFB56:
	.loc 1 583 1 is_stmt 1
	.cfi_startproc
.LVL108:
	.loc 1 587 5
	.loc 1 588 5
	.loc 1 588 22 is_stmt 0
	li	a5,999424
	addi	a5,a5,576
	divu	a4,a0,a5
	.loc 1 583 1
	addi	sp,sp,-32
	.cfi_def_cfa_offset 32
	sw	s0,24(sp)
	sw	ra,28(sp)
	.cfi_offset 8, -8
	.cfi_offset 1, -4
	addi	s0,sp,32
	.cfi_def_cfa 8, 0
	.loc 1 595 5
	li	a3,0
	li	a2,0
	li	a1,0
	.loc 1 588 22
	sw	zero,-28(s0)
	.loc 1 593 5 is_stmt 1
	.loc 1 593 23 is_stmt 0
	remu	a0,a0,a5
.LVL109:
	.loc 1 588 22
	sw	a4,-32(s0)
	.loc 1 595 5
	addi	a4,s0,-32
	.loc 1 593 16
	sw	a0,-24(s0)
	.loc 1 595 5 is_stmt 1
	li	a0,0
	call	lwip_select
.LVL110:
	.loc 1 597 1 is_stmt 0
	lw	ra,28(sp)
	.cfi_restore 1
	lw	s0,24(sp)
	.cfi_restore 8
	.cfi_def_cfa 2, 32
	addi	sp,sp,32
	.cfi_def_cfa_offset 0
	jr	ra
	.cfi_endproc
.LFE56:
	.size	mbedtls_net_usleep, .-mbedtls_net_usleep
	.section	.text.mbedtls_net_recv,"ax",@progbits
	.align	1
	.globl	mbedtls_net_recv
	.type	mbedtls_net_recv, @function
mbedtls_net_recv:
.LFB57:
	.loc 1 603 1 is_stmt 1
	.cfi_startproc
.LVL111:
	addi	sp,sp,-16
	.cfi_def_cfa_offset 16
	sw	s0,8(sp)
	sw	s1,4(sp)
	sw	ra,12(sp)
	.cfi_offset 8, -8
	.cfi_offset 9, -12
	.cfi_offset 1, -4
	addi	s0,sp,16
	.cfi_def_cfa 8, 0
	.loc 1 603 1 is_stmt 0
	mv	s1,a0
	.loc 1 604 5 is_stmt 1
.LVL112:
	.loc 1 605 5
	.loc 1 605 9 is_stmt 0
	lw	a0,0(a0)
.LVL113:
	.loc 1 607 5 is_stmt 1
.LBB34:
.LBB35:
	.loc 1 158 5
	.loc 1 158 7 is_stmt 0
	blt	a0,zero,.L95
	.loc 1 169 5 is_stmt 1
.LVL114:
.LBE35:
.LBE34:
	.loc 1 608 5
	.loc 1 611 5
	.loc 1 611 17 is_stmt 0
	call	lwip_read
.LVL115:
	.loc 1 613 5 is_stmt 1
	.loc 1 613 7 is_stmt 0
	bge	a0,zero,.L93
	.loc 1 615 9 is_stmt 1
	.loc 1 615 13 is_stmt 0
	lw	a0,0(s1)
.LVL116:
	call	net_would_block.isra.0
.LVL117:
	.loc 1 615 11
	bne	a0,zero,.L99
.LVL118:
.LBB37:
.LBB38:
	.loc 1 623 9 is_stmt 1
	.loc 1 623 19 is_stmt 0
	lui	a5,%hi(errno)
	lw	a5,%lo(errno)(a5)
	.loc 1 623 11
	li	a4,32
	.loc 1 624 19
	li	a0,-80
	.loc 1 623 11
	beq	a5,a4,.L93
	.loc 1 623 25
	li	a4,104
	beq	a5,a4,.L93
	.loc 1 626 9 is_stmt 1
	.loc 1 626 11 is_stmt 0
	li	a4,4
	.loc 1 630 15
	li	a0,-76
	.loc 1 626 11
	bne	a5,a4,.L93
.LVL119:
.L99:
.LBE38:
.LBE37:
	.loc 1 616 19
	li	a0,-28672
	addi	a0,a0,1792
	j	.L93
.LVL120:
.L95:
.LBB39:
.LBB36:
	.loc 1 159 15
	li	a0,-69
.LVL121:
.L93:
.LBE36:
.LBE39:
	.loc 1 634 1
	lw	ra,12(sp)
	.cfi_restore 1
	lw	s0,8(sp)
	.cfi_restore 8
	.cfi_def_cfa 2, 16
	lw	s1,4(sp)
	.cfi_restore 9
.LVL122:
	addi	sp,sp,16
	.cfi_def_cfa_offset 0
	jr	ra
	.cfi_endproc
.LFE57:
	.size	mbedtls_net_recv, .-mbedtls_net_recv
	.section	.text.mbedtls_net_recv_timeout,"ax",@progbits
	.align	1
	.globl	mbedtls_net_recv_timeout
	.type	mbedtls_net_recv_timeout, @function
mbedtls_net_recv_timeout:
.LFB58:
	.loc 1 641 1 is_stmt 1
	.cfi_startproc
.LVL123:
	.loc 1 642 5
	.loc 1 643 5
	.loc 1 644 5
	.loc 1 645 5
	.loc 1 645 9 is_stmt 0
	lw	a5,0(a0)
.LVL124:
	.loc 1 647 5 is_stmt 1
.LBB40:
.LBB41:
	.loc 1 158 5
	.loc 1 158 7 is_stmt 0
	blt	a5,zero,.L105
.LBE41:
.LBE40:
	.loc 1 641 1
	addi	sp,sp,-64
	.cfi_def_cfa_offset 64
	sw	s0,56(sp)
	sw	s1,52(sp)
	sw	ra,60(sp)
	sw	s2,48(sp)
	sw	s3,44(sp)
	.cfi_offset 8, -8
	.cfi_offset 9, -12
	.cfi_offset 1, -4
	.cfi_offset 18, -16
	.cfi_offset 19, -20
	addi	s0,sp,64
	.cfi_def_cfa 8, 0
.LBB44:
.LBB42:
	.loc 1 169 20
	li	a4,63
	mv	s1,a0
	.loc 1 169 5 is_stmt 1
	.loc 1 170 15 is_stmt 0
	li	a0,-71
.LVL125:
	.loc 1 169 20
	bgt	a5,a4,.L101
.LBE42:
.LBE44:
	.loc 1 652 5
	srai	a4,a5,5
	mv	s3,a2
.LVL126:
.LBB45:
	.loc 1 651 100 is_stmt 1
	.loc 1 651 109
.LBE45:
	.loc 1 652 36 is_stmt 0
	slli	a4,a4,2
	addi	a2,s0,-32
.LVL127:
	add	a4,a2,a4
.LBB46:
	.loc 1 651 130
	sw	zero,-52(s0)
	.loc 1 651 100 is_stmt 1
	.loc 1 651 109
.LVL128:
	.loc 1 651 130 is_stmt 0
	sw	zero,-56(s0)
	.loc 1 651 100 is_stmt 1
.LBE46:
	.loc 1 651 143
	.loc 1 652 4
	.loc 1 652 36 is_stmt 0
	lw	a2,-24(a4)
	.loc 1 652 53
	li	a6,1
	sll	a6,a6,a5
	.loc 1 652 36
	or	a6,a6,a2
	.loc 1 654 25
	li	a2,1000
	.loc 1 652 36
	sw	a6,-24(a4)
	.loc 1 654 5 is_stmt 1
	.loc 1 654 25 is_stmt 0
	divu	a4,a3,a2
	sw	zero,-44(s0)
	.loc 1 655 5 is_stmt 1
	mv	s2,a1
	.loc 1 657 11 is_stmt 0
	addi	a0,a5,1
	.loc 1 654 25
	sw	a4,-48(s0)
	.loc 1 655 28
	remu	a4,a3,a2
	.loc 1 655 37
	mul	a4,a4,a2
	.loc 1 655 16
	sw	a4,-40(s0)
	.loc 1 657 5 is_stmt 1
	.loc 1 657 11 is_stmt 0
	addi	a4,s0,-48
	bne	a3,zero,.L103
	li	a4,0
.L103:
	.loc 1 657 11 discriminator 4
	li	a3,0
.LVL129:
	li	a2,0
	addi	a1,s0,-56
.LVL130:
	call	lwip_select
.LVL131:
	.loc 1 660 5 is_stmt 1 discriminator 4
	.loc 1 660 7 is_stmt 0 discriminator 4
	beq	a0,zero,.L108
	.loc 1 663 5 is_stmt 1
	.loc 1 663 7 is_stmt 0
	bge	a0,zero,.L104
	.loc 1 670 9 is_stmt 1
	.loc 1 670 19 is_stmt 0
	lui	a5,%hi(errno)
	.loc 1 670 11
	lw	a4,%lo(errno)(a5)
	li	a5,4
	.loc 1 674 15
	li	a0,-76
.LVL132:
	.loc 1 670 11
	bne	a4,a5,.L101
	.loc 1 671 19
	li	a0,-28672
	addi	a0,a0,1792
	j	.L101
.LVL133:
.L104:
	.loc 1 678 5 is_stmt 1
	.loc 1 678 13 is_stmt 0
	mv	a2,s3
	mv	a1,s2
	mv	a0,s1
.LVL134:
	call	mbedtls_net_recv
.LVL135:
.L101:
	.loc 1 679 1
	lw	ra,60(sp)
	.cfi_restore 1
	lw	s0,56(sp)
	.cfi_restore 8
	.cfi_def_cfa 2, 64
	lw	s1,52(sp)
	.cfi_restore 9
.LVL136:
	lw	s2,48(sp)
	.cfi_restore 18
	lw	s3,44(sp)
	.cfi_restore 19
	addi	sp,sp,64
	.cfi_def_cfa_offset 0
	jr	ra
.LVL137:
.L105:
.LBB47:
.LBB43:
	.loc 1 159 15
	li	a0,-69
.LVL138:
.LBE43:
.LBE47:
	.loc 1 679 1
	ret
.LVL139:
.L108:
	.cfi_def_cfa_register 8
	.cfi_offset 1, -4
	.cfi_offset 8, -8
	.cfi_offset 9, -12
	.cfi_offset 18, -16
	.cfi_offset 19, -20
	.loc 1 661 15
	li	a0,-24576
.LVL140:
	addi	a0,a0,-2048
	j	.L101
	.cfi_endproc
.LFE58:
	.size	mbedtls_net_recv_timeout, .-mbedtls_net_recv_timeout
	.section	.text.mbedtls_net_send,"ax",@progbits
	.align	1
	.globl	mbedtls_net_send
	.type	mbedtls_net_send, @function
mbedtls_net_send:
.LFB59:
	.loc 1 685 1 is_stmt 1
	.cfi_startproc
.LVL141:
	.loc 1 686 5
	.loc 1 687 5
	.loc 1 685 1 is_stmt 0
	addi	sp,sp,-16
	.cfi_def_cfa_offset 16
	sw	s0,8(sp)
	sw	s1,4(sp)
	sw	ra,12(sp)
	.cfi_offset 8, -8
	.cfi_offset 9, -12
	.cfi_offset 1, -4
	addi	s0,sp,16
	.cfi_def_cfa 8, 0
	.loc 1 685 1
	mv	s1,a0
	.loc 1 687 9
	lw	a0,0(a0)
.LVL142:
	.loc 1 689 5 is_stmt 1
.LBB48:
.LBB49:
	.loc 1 158 5
	.loc 1 158 7 is_stmt 0
	blt	a0,zero,.L116
	.loc 1 169 5 is_stmt 1
.LVL143:
.LBE49:
.LBE48:
	.loc 1 690 5
	.loc 1 693 5
	.loc 1 693 17 is_stmt 0
	call	lwip_write
.LVL144:
	.loc 1 695 5 is_stmt 1
	.loc 1 695 7 is_stmt 0
	bge	a0,zero,.L114
	.loc 1 697 9 is_stmt 1
	.loc 1 697 13 is_stmt 0
	lw	a0,0(s1)
.LVL145:
	call	net_would_block.isra.0
.LVL146:
	.loc 1 697 11
	bne	a0,zero,.L120
	.loc 1 705 9 is_stmt 1
	.loc 1 705 19 is_stmt 0
	lui	a5,%hi(errno)
	lw	a5,%lo(errno)(a5)
	.loc 1 705 11
	li	a4,32
	.loc 1 706 19
	li	a0,-80
	.loc 1 705 11
	beq	a5,a4,.L114
	.loc 1 705 25 discriminator 1
	li	a4,104
	beq	a5,a4,.L114
	.loc 1 708 9 is_stmt 1
	.loc 1 708 11 is_stmt 0
	li	a4,4
	.loc 1 712 15
	li	a0,-78
	.loc 1 708 11
	bne	a5,a4,.L114
.L120:
	.loc 1 698 19
	li	a0,-28672
	addi	a0,a0,1920
	j	.L114
.LVL147:
.L116:
.LBB51:
.LBB50:
	.loc 1 159 15
	li	a0,-69
.LVL148:
.L114:
.LBE50:
.LBE51:
	.loc 1 716 1
	lw	ra,12(sp)
	.cfi_restore 1
	lw	s0,8(sp)
	.cfi_restore 8
	.cfi_def_cfa 2, 16
	lw	s1,4(sp)
	.cfi_restore 9
.LVL149:
	addi	sp,sp,16
	.cfi_def_cfa_offset 0
	jr	ra
	.cfi_endproc
.LFE59:
	.size	mbedtls_net_send, .-mbedtls_net_send
	.section	.text.mbedtls_net_close,"ax",@progbits
	.align	1
	.globl	mbedtls_net_close
	.type	mbedtls_net_close, @function
mbedtls_net_close:
.LFB60:
	.loc 1 722 1 is_stmt 1
	.cfi_startproc
.LVL150:
	.loc 1 723 5
	.loc 1 722 1 is_stmt 0
	addi	sp,sp,-16
	.cfi_def_cfa_offset 16
	sw	s0,8(sp)
	sw	s1,4(sp)
	sw	s2,0(sp)
	sw	ra,12(sp)
	.cfi_offset 8, -8
	.cfi_offset 9, -12
	.cfi_offset 18, -16
	.cfi_offset 1, -4
	addi	s0,sp,16
	.cfi_def_cfa 8, 0
	.loc 1 722 1
	mv	s1,a0
	.loc 1 723 12
	lw	a0,0(a0)
.LVL151:
	.loc 1 723 7
	li	s2,-1
	beq	a0,s2,.L122
	.loc 1 726 5 is_stmt 1
	call	lwip_close
.LVL152:
	.loc 1 728 5
	.loc 1 728 13 is_stmt 0
	sw	s2,0(s1)
.L122:
	.loc 1 729 1
	lw	ra,12(sp)
	.cfi_restore 1
	lw	s0,8(sp)
	.cfi_restore 8
	.cfi_def_cfa 2, 16
	lw	s1,4(sp)
	.cfi_restore 9
.LVL153:
	lw	s2,0(sp)
	.cfi_restore 18
	addi	sp,sp,16
	.cfi_def_cfa_offset 0
	jr	ra
	.cfi_endproc
.LFE60:
	.size	mbedtls_net_close, .-mbedtls_net_close
	.section	.text.mbedtls_net_free,"ax",@progbits
	.align	1
	.globl	mbedtls_net_free
	.type	mbedtls_net_free, @function
mbedtls_net_free:
.LFB61:
	.loc 1 735 1 is_stmt 1
	.cfi_startproc
.LVL154:
	.loc 1 736 5
	.loc 1 735 1 is_stmt 0
	addi	sp,sp,-16
	.cfi_def_cfa_offset 16
	sw	s0,8(sp)
	sw	s1,4(sp)
	sw	s2,0(sp)
	sw	ra,12(sp)
	.cfi_offset 8, -8
	.cfi_offset 9, -12
	.cfi_offset 18, -16
	.cfi_offset 1, -4
	addi	s0,sp,16
	.cfi_def_cfa 8, 0
	.loc 1 735 1
	mv	s1,a0
	.loc 1 736 12
	lw	a0,0(a0)
.LVL155:
	.loc 1 736 7
	li	s2,-1
	beq	a0,s2,.L125
	.loc 1 739 5 is_stmt 1
	li	a1,2
	call	lwip_shutdown
.LVL156:
	.loc 1 740 5
	lw	a0,0(s1)
	call	lwip_close
.LVL157:
	.loc 1 742 5
	.loc 1 742 13 is_stmt 0
	sw	s2,0(s1)
.L125:
	.loc 1 743 1
	lw	ra,12(sp)
	.cfi_restore 1
	lw	s0,8(sp)
	.cfi_restore 8
	.cfi_def_cfa 2, 16
	lw	s1,4(sp)
	.cfi_restore 9
.LVL158:
	lw	s2,0(sp)
	.cfi_restore 18
	addi	sp,sp,16
	.cfi_def_cfa_offset 0
	jr	ra
	.cfi_endproc
.LFE61:
	.size	mbedtls_net_free, .-mbedtls_net_free
	.text
.Letext0:
	.file 2 "/home/dinhquangha/Ai-Thinker-WB2/toolchain/riscv/Linux/riscv64-unknown-elf/include/machine/_default_types.h"
	.file 3 "/home/dinhquangha/Ai-Thinker-WB2/toolchain/riscv/Linux/lib/gcc/riscv64-unknown-elf/10.2.0/include/stddef.h"
	.file 4 "/home/dinhquangha/Ai-Thinker-WB2/toolchain/riscv/Linux/lib/gcc/riscv64-unknown-elf/10.2.0/include/stdint-gcc.h"
	.file 5 "/home/dinhquangha/Ai-Thinker-WB2/toolchain/riscv/Linux/riscv64-unknown-elf/include/sys/_types.h"
	.file 6 "/home/dinhquangha/Ai-Thinker-WB2/toolchain/riscv/Linux/riscv64-unknown-elf/include/sys/_timeval.h"
	.file 7 "/home/dinhquangha/Ai-Thinker-WB2/toolchain/riscv/Linux/riscv64-unknown-elf/include/sys/select.h"
	.file 8 "/home/dinhquangha/Ai-Thinker-WB2/toolchain/riscv/Linux/riscv64-unknown-elf/include/sys/types.h"
	.file 9 "/home/dinhquangha/Ai-Thinker-WB2/components/security/mbedtls_lts/mbedtls/include/mbedtls/net_sockets.h"
	.file 10 "/home/dinhquangha/Ai-Thinker-WB2/components/network/lwip/src/include/lwip/arch.h"
	.file 11 "/home/dinhquangha/Ai-Thinker-WB2/components/network/lwip/src/include/lwip/inet.h"
	.file 12 "/home/dinhquangha/Ai-Thinker-WB2/components/network/lwip/src/include/lwip/sockets.h"
	.file 13 "/home/dinhquangha/Ai-Thinker-WB2/components/network/lwip/src/include/lwip/netdb.h"
	.file 14 "/home/dinhquangha/Ai-Thinker-WB2/toolchain/riscv/Linux/riscv64-unknown-elf/include/string.h"
	.file 15 "/home/dinhquangha/Ai-Thinker-WB2/components/network/lwip/src/include/lwip/errno.h"