	.file	"pkparse.c"
	.option nopic
	.attribute arch, "rv32i2p0_m2p0_f2p0_c2p0"
	.attribute unaligned_access, 0
	.attribute stack_align, 16
	.text
.Ltext0:
	.cfi_sections	.debug_frame
	.section	.text.mbedtls_pk_rsa,"ax",@progbits
	.align	1
	.type	mbedtls_pk_rsa, @function
mbedtls_pk_rsa:
.LFB4:
	.file 1 "/home/dinhquangha/Ai-Thinker-WB2/components/security/mbedtls_lts/mbedtls/include/mbedtls/pk.h"
	.loc 1 645 1
	.cfi_startproc
	.loc 1 646 5
	.loc 1 645 1 is_stmt 0
	addi	sp,sp,-32
	.cfi_def_cfa_offset 32
	sw	s0,24(sp)
	sw	ra,28(sp)
	.cfi_offset 8, -8
	.cfi_offset 1, -4
	addi	s0,sp,32
	.cfi_def_cfa 8, 0
	.loc 1 645 1
	sw	a0,-24(s0)
	.loc 1 646 13
	addi	a0,s0,-24
	.loc 1 645 1
	sw	a1,-20(s0)
	.loc 1 646 13
	call	mbedtls_pk_get_type
.LVL0:
	.loc 1 646 5
	li	a5,1
	bne	a0,a5,.L3
	.loc 1 649 13 is_stmt 1
	.loc 1 649 21 is_stmt 0
	lw	a0,-20(s0)
.L1:
	.loc 1 653 1
	lw	ra,28(sp)
	.cfi_remember_state
	.cfi_restore 1
	lw	s0,24(sp)
	.cfi_restore 8
	.cfi_def_cfa 2, 32
	addi	sp,sp,32
	.cfi_def_cfa_offset 0
	jr	ra
.L3:
	.cfi_restore_state
	.loc 1 651 19
	li	a0,0
	j	.L1
	.cfi_endproc
.LFE4:
	.size	mbedtls_pk_rsa, .-mbedtls_pk_rsa
	.section	.text.mbedtls_pk_ec,"ax",@progbits
	.align	1
	.type	mbedtls_pk_ec, @function
mbedtls_pk_ec:
.LFB5:
	.loc 1 669 1 is_stmt 1
	.cfi_startproc
	.loc 1 670 5
	.loc 1 669 1 is_stmt 0
	addi	sp,sp,-32
	.cfi_def_cfa_offset 32
	sw	s0,24(sp)
	sw	ra,28(sp)
	.cfi_offset 8, -8
	.cfi_offset 1, -4
	addi	s0,sp,32
	.cfi_def_cfa 8, 0
	.loc 1 669 1
	sw	a0,-24(s0)
	.loc 1 670 13
	addi	a0,s0,-24
	.loc 1 669 1
	sw	a1,-20(s0)
	.loc 1 670 13
	call	mbedtls_pk_get_type
.LVL1:
	.loc 1 670 5
	addi	a0,a0,-2
	li	a5,2
	bgtu	a0,a5,.L7
	.loc 1 675 13 is_stmt 1
	.loc 1 675 21 is_stmt 0
	lw	a0,-20(s0)
.L5:
	.loc 1 679 1
	lw	ra,28(sp)
	.cfi_remember_state
	.cfi_restore 1
	lw	s0,24(sp)
	.cfi_restore 8
	.cfi_def_cfa 2, 32
	addi	sp,sp,32
	.cfi_def_cfa_offset 0
	jr	ra
.L7:
	.cfi_restore_state
	.loc 1 677 19
	li	a0,0
	j	.L5
	.cfi_endproc
.LFE5:
	.size	mbedtls_pk_ec, .-mbedtls_pk_ec
	.section	.text.pk_get_rsapubkey,"ax",@progbits
	.align	1
	.type	pk_get_rsapubkey, @function
pk_get_rsapubkey:
.LFB21:
	.file 2 "/home/dinhquangha/Ai-Thinker-WB2/components/security/mbedtls_lts/port/pkparse.c"
	.loc 2 526 1 is_stmt 1
	.cfi_startproc
.LVL2:
	.loc 2 527 5
	.loc 2 528 5
	.loc 2 530 5
	.loc 2 526 1 is_stmt 0
	addi	sp,sp,-64
	.cfi_def_cfa_offset 64
	sw	s0,56(sp)
	sw	s1,52(sp)
	sw	s2,48(sp)
	sw	s3,44(sp)
	.cfi_offset 8, -8
	.cfi_offset 9, -12
	.cfi_offset 18, -16
	.cfi_offset 19, -20
	addi	s0,sp,64
	.cfi_def_cfa 8, 0
	sw	ra,60(sp)
	mv	s3,a2
	.cfi_offset 1, -4
	.loc 2 530 17
	li	a3,48
	addi	a2,s0,-36
.LVL3:
	.loc 2 526 1
	mv	s1,a0
	mv	s2,a1
	.loc 2 530 17
	call	mbedtls_asn1_get_tag
.LVL4:
	.loc 2 530 7
	beq	a0,zero,.L10
.L19:
	.loc 2 550 9 is_stmt 1
.LVL5:
.LBB72:
.LBB73:
	.file 3 "/home/dinhquangha/Ai-Thinker-WB2/components/security/mbedtls_lts/mbedtls/include/mbedtls/error.h"
	.loc 3 166 5
	.loc 3 167 5
	.loc 3 169 5
	.loc 3 169 18 is_stmt 0
	li	a5,-16384
	addi	a5,a5,1280
	add	a0,a0,a5
.LVL6:
.LBE73:
.LBE72:
	.loc 2 550 17
	j	.L9
.LVL7:
.L10:
	.loc 2 534 5 is_stmt 1
	.loc 2 534 12 is_stmt 0
	lw	a5,0(s1)
	lw	a4,-36(s0)
	add	a5,a5,a4
	.loc 2 534 7
	bne	s2,a5,.L12
	.loc 2 539 5 is_stmt 1
	.loc 2 539 17 is_stmt 0
	li	a3,2
	addi	a2,s0,-36
	mv	a1,s2
	mv	a0,s1
.LVL8:
	call	mbedtls_asn1_get_tag
.LVL9:
	.loc 2 539 7
	bne	a0,zero,.L19
	.loc 2 542 5 is_stmt 1
	.loc 2 542 17 is_stmt 0
	lw	a2,-36(s0)
	lw	a1,0(s1)
	sw	zero,8(sp)
	sw	zero,4(sp)
	sw	zero,0(sp)
	li	a7,0
	li	a6,0
	li	a5,0
	li	a4,0
	li	a3,0
	mv	a0,s3
.LVL10:
	call	mbedtls_rsa_import_raw
.LVL11:
	.loc 2 542 7
	beq	a0,zero,.L14
.LVL12:
.L16:
	.loc 2 544 15
	li	a0,-16384
	addi	a0,a0,1280
.L9:
	.loc 2 569 1
	lw	ra,60(sp)
	.cfi_remember_state
	.cfi_restore 1
	lw	s0,56(sp)
	.cfi_restore 8
	.cfi_def_cfa 2, 64
	lw	s1,52(sp)
	.cfi_restore 9
.LVL13:
	lw	s2,48(sp)
	.cfi_restore 18
.LVL14:
	lw	s3,44(sp)
	.cfi_restore 19
.LVL15:
	addi	sp,sp,64
	.cfi_def_cfa_offset 0
	jr	ra
.LVL16:
.L14:
	.cfi_restore_state
	.loc 2 546 5 is_stmt 1
	.loc 2 546 8 is_stmt 0
	lw	a5,0(s1)
	lw	a4,-36(s0)
	.loc 2 549 17
	li	a3,2
	addi	a2,s0,-36
	.loc 2 546 8
	add	a5,a5,a4
	sw	a5,0(s1)
	.loc 2 549 5 is_stmt 1
	.loc 2 549 17 is_stmt 0
	mv	a1,s2
	mv	a0,s1
.LVL17:
	call	mbedtls_asn1_get_tag
.LVL18:
	.loc 2 549 7
	bne	a0,zero,.L19
	.loc 2 552 5 is_stmt 1
	.loc 2 552 17 is_stmt 0
	lw	a5,-36(s0)
	sw	zero,0(sp)
	li	a7,0
	sw	a5,8(sp)
	lw	a5,0(s1)
	li	a6,0
	li	a4,0
	sw	a5,4(sp)
	li	a3,0
	li	a5,0
	li	a2,0
	li	a1,0
	mv	a0,s3
.LVL19:
	call	mbedtls_rsa_import_raw
.LVL20:
	.loc 2 552 7
	bne	a0,zero,.L16
	.loc 2 556 5 is_stmt 1
	.loc 2 556 8 is_stmt 0
	lw	a5,0(s1)
	lw	a4,-36(s0)
	.loc 2 558 9
	mv	a0,s3
.LVL21:
	.loc 2 556 8
	add	a5,a5,a4
	sw	a5,0(s1)
	.loc 2 558 5 is_stmt 1
	.loc 2 558 9 is_stmt 0
	call	mbedtls_rsa_complete
.LVL22:
	.loc 2 558 7
	bne	a0,zero,.L16
	.loc 2 559 9 discriminator 1
	mv	a0,s3
	call	mbedtls_rsa_check_pubkey
.LVL23:
	.loc 2 558 42 discriminator 1
	bne	a0,zero,.L16
	.loc 2 564 5 is_stmt 1
	.loc 2 564 7 is_stmt 0
	lw	a5,0(s1)
	beq	a5,s2,.L9
.L12:
	.loc 2 565 9 is_stmt 1
.LVL24:
	.loc 3 166 5
	.loc 3 167 5
	.loc 3 169 5
	.loc 2 565 17 is_stmt 0
	li	a0,-16384
	addi	a0,a0,1178
	j	.L9
	.cfi_endproc
.LFE21:
	.size	pk_get_rsapubkey, .-pk_get_rsapubkey
	.section	.text.pk_use_ecparams,"ax",@progbits
	.align	1
	.type	pk_use_ecparams, @function
pk_use_ecparams:
.LFB19:
	.loc 2 458 1 is_stmt 1
	.cfi_startproc
.LVL25:
	.loc 2 459 5
	.loc 2 460 5
	.loc 2 462 5
	.loc 2 462 7 is_stmt 0
	lw	a4,0(a0)
	li	a5,6
	beq	a4,a5,.L21
	.loc 2 473 15
	li	a0,-16384
.LVL26:
	addi	a0,a0,768
	.loc 2 487 1
	ret
.LVL27:
.L24:
	.cfi_def_cfa_register 8
	.cfi_offset 1, -4
	.cfi_offset 8, -8
	.cfi_offset 9, -12
	.loc 2 473 15
	li	a0,-16384
	addi	a0,a0,768
.LVL28:
.L20:
	.loc 2 487 1
	lw	ra,28(sp)
	.cfi_restore 1
	lw	s0,24(sp)
	.cfi_restore 8
	.cfi_def_cfa 2, 32
	lw	s1,20(sp)
	.cfi_restore 9
.LVL29:
	addi	sp,sp,32
	.cfi_def_cfa_offset 0
	jr	ra
.LVL30:
.L21:
	.loc 2 458 1
	addi	sp,sp,-32
	.cfi_def_cfa_offset 32
	sw	s0,24(sp)
	sw	s1,20(sp)
	.cfi_offset 8, -8
	.cfi_offset 9, -12
	addi	s0,sp,32
	.cfi_def_cfa 8, 0
	sw	ra,28(sp)
	mv	s1,a1
	.loc 2 464 9 is_stmt 1
	.loc 2 458 1 is_stmt 0
	.cfi_offset 1, -4
	.loc 2 464 13
	addi	a1,s0,-20
.LVL31:
	call	mbedtls_oid_get_ec_grp
.LVL32:
	.loc 2 464 11
	bne	a0,zero,.L25
	.loc 2 480 5 is_stmt 1
	.loc 2 480 12 is_stmt 0
	lw	a5,0(s1)
	.loc 2 480 51
	lw	a1,-20(s0)
	.loc 2 480 7
	beq	a5,zero,.L23
	.loc 2 480 40 discriminator 1
	bne	a5,a1,.L24
.L23:
	.loc 2 483 5 is_stmt 1
	.loc 2 483 17 is_stmt 0
	mv	a0,s1
	call	mbedtls_ecp_group_load
.LVL33:
	j	.L20
.LVL34:
.L25:
	.loc 2 465 19
	li	a0,-16384
	addi	a0,a0,1536
	j	.L20
	.cfi_endproc
.LFE19:
	.size	pk_use_ecparams, .-pk_use_ecparams
	.section	.text.pk_parse_key_sec1_der,"ax",@progbits
	.align	1
	.type	pk_parse_key_sec1_der, @function
pk_parse_key_sec1_der:
.LFB26:
	.loc 2 865 1 is_stmt 1
	.cfi_startproc
.LVL35:
	.loc 2 866 5
	.loc 2 867 5
	.loc 2 868 5
	.loc 2 869 5
	.loc 2 870 5
	.loc 2 865 1 is_stmt 0
	addi	sp,sp,-80
	.cfi_def_cfa_offset 80
	sw	s0,72(sp)
	sw	s2,64(sp)
	.cfi_offset 8, -8
	.cfi_offset 18, -16
	addi	s0,sp,80
	.cfi_def_cfa 8, 0
	sw	ra,76(sp)
	sw	s1,68(sp)
	sw	s3,60(sp)
	sw	s4,56(sp)
	mv	a5,a2
	.cfi_offset 1, -4
	.cfi_offset 9, -12
	.cfi_offset 19, -20
	.cfi_offset 20, -24
	.loc 2 865 1
	mv	s2,a0
	.loc 2 870 20
	sw	a1,-48(s0)
	.loc 2 871 5 is_stmt 1
.LVL36:
	.loc 2 872 5
	.loc 2 884 5
	.loc 2 884 17 is_stmt 0
	li	a3,48
	addi	a2,s0,-52
.LVL37:
	add	a1,a1,a5
.LVL38:
	addi	a0,s0,-48
.LVL39:
	call	mbedtls_asn1_get_tag
.LVL40:
	.loc 2 884 7
	beq	a0,zero,.L33
.LVL41:
.L68:
	.loc 2 944 17 is_stmt 1
.LBB96:
.LBB97:
	.loc 3 166 5
	.loc 3 167 5
	.loc 3 169 5
	.loc 3 169 18 is_stmt 0
	li	s1,-16384
	addi	s1,s1,768
	j	.L65
.LVL42:
.L33:
.LBE97:
.LBE96:
	.loc 2 890 5 is_stmt 1
	.loc 2 890 9 is_stmt 0
	lw	s3,-48(s0)
	lw	a5,-52(s0)
	.loc 2 892 17
	addi	a2,s0,-56
	addi	a0,s0,-48
.LVL43:
	.loc 2 890 9
	add	s3,s3,a5
.LVL44:
	.loc 2 892 5 is_stmt 1
	.loc 2 892 17 is_stmt 0
	mv	a1,s3
	call	mbedtls_asn1_get_int
.LVL45:
	.loc 2 892 7
	bne	a0,zero,.L68
	.loc 2 895 5 is_stmt 1
	.loc 2 895 7 is_stmt 0
	lw	a4,-56(s0)
	li	a5,1
	bne	a4,a5,.L48
	.loc 2 898 5 is_stmt 1
	.loc 2 898 17 is_stmt 0
	li	a3,4
	addi	a2,s0,-52
	mv	a1,s3
	addi	a0,s0,-48
.LVL46:
	call	mbedtls_asn1_get_tag
.LVL47:
	.loc 2 898 7
	bne	a0,zero,.L68
	.loc 2 901 5 is_stmt 1
	.loc 2 901 17 is_stmt 0
	lw	a2,-52(s0)
	lw	a1,-48(s0)
	addi	s4,s2,108
	mv	a0,s4
.LVL48:
	call	mbedtls_mpi_read_binary
.LVL49:
	mv	s1,a0
.LVL50:
	.loc 2 901 7
	beq	a0,zero,.L37
.L66:
	.loc 2 903 9 is_stmt 1
	mv	a0,s2
	call	mbedtls_ecp_keypair_free
.LVL51:
	.loc 2 904 9
.LBB98:
.LBB99:
	.loc 3 166 5
	.loc 3 167 5
	.loc 3 169 5
	.loc 3 169 18 is_stmt 0
	li	a0,-16384
	addi	a0,a0,768
.LVL52:
.L65:
	add	s1,s1,a0
.L32:
.LBE99:
.LBE98:
	.loc 2 984 1
	lw	ra,76(sp)
	.cfi_remember_state
	.cfi_restore 1
	lw	s0,72(sp)
	.cfi_restore 8
	.cfi_def_cfa 2, 80
	lw	s2,64(sp)
	.cfi_restore 18
.LVL53:
	lw	s3,60(sp)
	.cfi_restore 19
	lw	s4,56(sp)
	.cfi_restore 20
	mv	a0,s1
	lw	s1,68(sp)
	.cfi_restore 9
	addi	sp,sp,80
	.cfi_def_cfa_offset 0
	jr	ra
.LVL54:
.L37:
	.cfi_restore_state
	.loc 2 907 5 is_stmt 1
	.loc 2 907 7 is_stmt 0
	lw	a5,-48(s0)
	lw	a4,-52(s0)
	add	a5,a5,a4
	sw	a5,-48(s0)
	.loc 2 909 5 is_stmt 1
.LVL55:
	.loc 2 910 5
	.loc 2 910 7 is_stmt 0
	beq	a5,s3,.L38
	.loc 2 915 9 is_stmt 1
	.loc 2 915 21 is_stmt 0
	li	a3,160
	addi	a2,s0,-52
	mv	a1,s3
	addi	a0,s0,-48
	call	mbedtls_asn1_get_tag
.LVL56:
	mv	s1,a0
.LVL57:
	.loc 2 915 11
	bne	a0,zero,.L39
	.loc 2 918 13 is_stmt 1
	.loc 2 918 25 is_stmt 0
	lw	a5,-48(s0)
	lw	a4,-52(s0)
	.loc 2 918 48
	add	s1,a5,a4
.LVL58:
.LBB100:
.LBB101:
	.loc 2 187 5 is_stmt 1
	.loc 2 189 5
	.loc 2 189 8 is_stmt 0
	ble	a4,zero,.L49
	.loc 2 194 5 is_stmt 1
	.loc 2 194 19 is_stmt 0
	lbu	a5,0(a5)
	.loc 2 195 7
	li	a4,6
	.loc 2 194 17
	sw	a5,-44(s0)
	.loc 2 195 5 is_stmt 1
	.loc 2 195 7 is_stmt 0
	bne	a5,a4,.L50
	.loc 2 205 5 is_stmt 1
	.loc 2 205 17 is_stmt 0
	li	a3,6
	addi	a2,s0,-40
	mv	a1,s1
	addi	a0,s0,-48
.LVL59:
	call	mbedtls_asn1_get_tag
.LVL60:
	.loc 2 205 7
	beq	a0,zero,.L41
	.loc 2 207 9 is_stmt 1
.LVL61:
.LBB102:
.LBB103:
	.loc 3 166 5
	.loc 3 167 5
	.loc 3 169 5
	.loc 3 169 18 is_stmt 0
	li	s1,-16384
.LVL62:
	addi	s1,s1,768
	add	s1,a0,s1
.LVL63:
.LBE103:
.LBE102:
.LBE101:
.LBE100:
	.loc 2 918 15
	bne	s1,zero,.L67
.LVL64:
.L43:
	.loc 2 919 25
	mv	a1,s2
	addi	a0,s0,-44
	call	pk_use_ecparams
.LVL65:
	mv	s1,a0
.LVL66:
	.loc 2 918 71
	beq	a0,zero,.L42
.LVL67:
.L67:
	.loc 2 979 9 is_stmt 1
	mv	a0,s2
	call	mbedtls_ecp_keypair_free
.LVL68:
	.loc 2 980 9
	.loc 2 980 15 is_stmt 0
	j	.L32
.LVL69:
.L41:
.LBB105:
.LBB104:
	.loc 2 210 5 is_stmt 1
	.loc 2 210 17 is_stmt 0
	lw	a5,-48(s0)
	.loc 2 211 8
	lw	a4,-40(s0)
	.loc 2 210 15
	sw	a5,-36(s0)
	.loc 2 211 5 is_stmt 1
	.loc 2 211 8 is_stmt 0
	add	a5,a5,a4
	sw	a5,-48(s0)
	.loc 2 213 5 is_stmt 1
	.loc 2 213 7 is_stmt 0
	beq	s1,a5,.L43
	.loc 2 214 17
	li	a0,-16384
.LVL70:
	addi	s1,a0,666
.LVL71:
	j	.L67
.LVL72:
.L49:
	.loc 2 190 17
	li	a0,-16384
.LVL73:
	addi	s1,a0,672
.LVL74:
	j	.L67
.LVL75:
.L50:
	.loc 2 201 17
	li	a0,-16384
.LVL76:
	addi	s1,a0,670
.LVL77:
.LBE104:
.LBE105:
	.loc 2 921 17 is_stmt 1
	j	.L67
.L39:
	.loc 2 925 14
	.loc 2 925 16 is_stmt 0
	li	a5,-98
	bne	a0,a5,.L66
.L42:
	.loc 2 932 5 is_stmt 1
	.loc 2 932 7 is_stmt 0
	lw	a5,-48(s0)
	beq	a5,s3,.L38
	.loc 2 938 9 is_stmt 1
	.loc 2 938 21 is_stmt 0
	li	a3,161
	addi	a2,s0,-52
	mv	a1,s3
	addi	a0,s0,-48
	call	mbedtls_asn1_get_tag
.LVL78:
	mv	s1,a0
.LVL79:
	.loc 2 938 11
	bne	a0,zero,.L44
	.loc 2 941 13 is_stmt 1
	.loc 2 941 18 is_stmt 0
	lw	s1,-48(s0)
.LVL80:
	lw	a5,-52(s0)
	.loc 2 943 25
	addi	a2,s0,-52
	addi	a0,s0,-48
.LVL81:
	.loc 2 941 18
	add	s1,s1,a5
.LVL82:
	.loc 2 943 13 is_stmt 1
	.loc 2 943 25 is_stmt 0
	mv	a1,s1
	call	mbedtls_asn1_get_bitstring_null
.LVL83:
	.loc 2 943 15
	bne	a0,zero,.L68
	.loc 2 946 13 is_stmt 1
	.loc 2 946 19 is_stmt 0
	lw	a2,-48(s0)
	lw	a5,-52(s0)
	add	a5,a2,a5
	.loc 2 946 15
	bne	s1,a5,.L51
	.loc 2 950 13 is_stmt 1
.LVL84:
.LBB106:
.LBB107:
	.loc 2 499 5
	.loc 2 501 5
	.loc 2 501 17 is_stmt 0
	addi	a1,s2,120
	sub	a3,s1,a2
	mv	a0,s2
.LVL85:
	sw	a1,-68(s0)
	call	mbedtls_ecp_point_read_binary
.LVL86:
	.loc 2 501 7
	lw	a1,-68(s0)
	bne	a0,zero,.L46
	.loc 2 504 9 is_stmt 1
	.loc 2 504 15 is_stmt 0
	mv	a0,s2
.LVL87:
	call	mbedtls_ecp_check_pubkey
.LVL88:
.L46:
	.loc 2 510 5 is_stmt 1
	.loc 2 510 8 is_stmt 0
	sw	s1,-48(s0)
	.loc 2 512 5 is_stmt 1
.LVL89:
.LBE107:
.LBE106:
	.loc 2 950 15 is_stmt 0
	beq	a0,zero,.L47
	.loc 2 958 17 is_stmt 1
	.loc 2 958 19 is_stmt 0
	li	a5,-20480
	addi	a5,a5,384
	beq	a0,a5,.L38
	.loc 2 959 27
	li	a0,-16384
.LVL90:
	addi	s1,a0,768
.LVL91:
	j	.L32
.LVL92:
.L44:
	.loc 2 962 14 is_stmt 1
	.loc 2 962 16 is_stmt 0
	li	a5,-98
	bne	a0,a5,.L66
.LVL93:
.L38:
	.loc 2 970 17
	li	a5,0
	li	a4,0
	addi	a3,s2,40
	mv	a2,s4
	addi	a1,s2,120
	mv	a0,s2
.LVL94:
	call	mbedtls_ecp_mul
.LVL95:
	mv	s1,a0
.LVL96:
	.loc 2 969 23
	bne	a0,zero,.L66
.LVL97:
.L47:
	.loc 2 977 5 is_stmt 1
	.loc 2 977 17 is_stmt 0
	mv	a1,s4
	mv	a0,s2
.LVL98:
	call	mbedtls_ecp_check_privkey
.LVL99:
	mv	s1,a0
.LVL100:
	.loc 2 977 7
	beq	a0,zero,.L32
	j	.L67
.LVL101:
.L48:
	.loc 2 896 15
	li	a0,-16384
.LVL102:
	addi	s1,a0,640
	j	.L32
.LVL103:
.L51:
	.loc 2 947 25
	li	a0,-16384
.LVL104:
	addi	s1,a0,666
.LVL105:
	j	.L32
	.cfi_endproc
.LFE26:
	.size	pk_parse_key_sec1_der, .-pk_parse_key_sec1_der
	.section	.text.asn1_get_nonzero_mpi,"ax",@progbits
	.align	1
	.type	asn1_get_nonzero_mpi, @function
asn1_get_nonzero_mpi:
.LFB24:
	.loc 2 689 1 is_stmt 1
	.cfi_startproc
.LVL106:
	.loc 2 690 5
	.loc 2 692 5
	.loc 2 689 1 is_stmt 0
	addi	sp,sp,-16
	.cfi_def_cfa_offset 16
	sw	s0,8(sp)
	sw	s1,4(sp)
	sw	s2,0(sp)
	sw	ra,12(sp)
	.cfi_offset 8, -8
	.cfi_offset 9, -12
	.cfi_offset 18, -16
	.cfi_offset 1, -4
	addi	s0,sp,16
	.cfi_def_cfa 8, 0
	.loc 2 689 1
	mv	s2,a2
	.loc 2 692 11
	call	mbedtls_asn1_get_mpi
.LVL107:
	mv	s1,a0
.LVL108:
	.loc 2 693 5 is_stmt 1
	.loc 2 693 7 is_stmt 0
	bne	a0,zero,.L69
.LVL109:
.LBB110:
.LBB111:
	.loc 2 696 5 is_stmt 1
	.loc 2 696 9 is_stmt 0
	li	a1,0
	mv	a0,s2
	call	mbedtls_mpi_cmp_int
.LVL110:
	.loc 2 696 7
	bne	a0,zero,.L69
	.loc 2 697 15
	li	s1,-16384
.LVL111:
	addi	s1,s1,768
.LVL112:
.L69:
.LBE111:
.LBE110:
	.loc 2 700 1
	lw	ra,12(sp)
	.cfi_restore 1
	lw	s0,8(sp)
	.cfi_restore 8
	.cfi_def_cfa 2, 16
	lw	s2,0(sp)
	.cfi_restore 18
.LVL113:
	mv	a0,s1
	lw	s1,4(sp)
	.cfi_restore 9
	addi	sp,sp,16
	.cfi_def_cfa_offset 0
	jr	ra
	.cfi_endproc
.LFE24:
	.size	asn1_get_nonzero_mpi, .-asn1_get_nonzero_mpi
	.section	.text.pk_parse_key_pkcs1_der,"ax",@progbits
	.align	1
	.type	pk_parse_key_pkcs1_der, @function
pk_parse_key_pkcs1_der:
.LFB25:
	.loc 2 708 1 is_stmt 1
	.cfi_startproc
.LVL114:
	.loc 2 709 5
	.loc 2 710 5
	.loc 2 711 5
	.loc 2 713 5
	.loc 2 714 5
	.loc 2 708 1 is_stmt 0
	addi	sp,sp,-64
	.cfi_def_cfa_offset 64
	sw	s0,56(sp)
	sw	s1,52(sp)
	.cfi_offset 8, -8
	.cfi_offset 9, -12
	addi	s0,sp,64
	.cfi_def_cfa 8, 0
	sw	s2,48(sp)
	sw	s3,44(sp)
	sw	ra,60(sp)
	.cfi_offset 18, -16
	.cfi_offset 19, -20
	.cfi_offset 1, -4
	.loc 2 708 1
	mv	s2,a0
	.loc 2 714 5
	addi	a0,s0,-44
.LVL115:
	.loc 2 708 1
	mv	s1,a1
	mv	s3,a2
	.loc 2 714 5
	call	mbedtls_mpi_init
.LVL116:
	.loc 2 716 5 is_stmt 1
	.loc 2 735 17 is_stmt 0
	li	a3,48
	addi	a2,s0,-52
	add	a1,s1,s3
	addi	a0,s0,-48
	.loc 2 716 7
	sw	s1,-48(s0)
	.loc 2 717 5 is_stmt 1
.LVL117:
	.loc 2 735 5
	.loc 2 735 17 is_stmt 0
	call	mbedtls_asn1_get_tag
.LVL118:
	.loc 2 735 7
	beq	a0,zero,.L73
.LVL119:
.L84:
	.loc 2 745 9 is_stmt 1
.LBB112:
.LBB113:
	.loc 3 166 5
	.loc 3 167 5
	.loc 3 169 5
	.loc 3 169 18 is_stmt 0
	li	s1,-16384
.LVL120:
	addi	s1,s1,768
	add	s1,a0,s1
.LVL121:
.L72:
.LBE113:
.LBE112:
	.loc 2 855 1
	lw	ra,60(sp)
	.cfi_remember_state
	.cfi_restore 1
	lw	s0,56(sp)
	.cfi_restore 8
	.cfi_def_cfa 2, 64
	lw	s2,48(sp)
	.cfi_restore 18
.LVL122:
	lw	s3,44(sp)
	.cfi_restore 19
	mv	a0,s1
	lw	s1,52(sp)
	.cfi_restore 9
	addi	sp,sp,64
	.cfi_def_cfa_offset 0
	jr	ra
.LVL123:
.L73:
	.cfi_restore_state
	.loc 2 741 5 is_stmt 1
	.loc 2 741 9 is_stmt 0
	lw	s3,-48(s0)
.LVL124:
	lw	a5,-52(s0)
	.loc 2 743 17
	addi	a2,s0,-56
	addi	a0,s0,-48
.LVL125:
	.loc 2 741 9
	add	s3,s3,a5
.LVL126:
	.loc 2 743 5 is_stmt 1
	.loc 2 743 17 is_stmt 0
	mv	a1,s3
	call	mbedtls_asn1_get_int
.LVL127:
	.loc 2 743 7
	bne	a0,zero,.L84
	.loc 2 748 5 is_stmt 1
	.loc 2 748 7 is_stmt 0
	lw	a5,-56(s0)
	bne	a5,zero,.L78
	.loc 2 754 5 is_stmt 1
	.loc 2 754 17 is_stmt 0
	addi	a2,s0,-44
	mv	a1,s3
	addi	a0,s0,-48
.LVL128:
	call	asn1_get_nonzero_mpi
.LVL129:
	mv	s1,a0
.LVL130:
	.loc 2 754 7
	bne	a0,zero,.L76
	.loc 2 755 17 discriminator 1
	li	a5,0
	li	a4,0
	li	a3,0
	li	a2,0
	addi	a1,s0,-44
	mv	a0,s2
	call	mbedtls_rsa_import
.LVL131:
	mv	s1,a0
.LVL132:
	.loc 2 754 60 discriminator 1
	bne	a0,zero,.L76
	.loc 2 760 5 is_stmt 1
	.loc 2 760 17 is_stmt 0
	addi	a2,s0,-44
	mv	a1,s3
	addi	a0,s0,-48
	call	asn1_get_nonzero_mpi
.LVL133:
	mv	s1,a0
.LVL134:
	.loc 2 760 7
	bne	a0,zero,.L76
	.loc 2 761 17 discriminator 1
	addi	a5,s0,-44
	li	a4,0
	li	a3,0
	li	a2,0
	li	a1,0
	mv	a0,s2
	call	mbedtls_rsa_import
.LVL135:
	mv	s1,a0
.LVL136:
	.loc 2 760 60 discriminator 1
	bne	a0,zero,.L76
	.loc 2 766 5 is_stmt 1
	.loc 2 766 17 is_stmt 0
	addi	a2,s0,-44
	mv	a1,s3
	addi	a0,s0,-48
	call	asn1_get_nonzero_mpi
.LVL137:
	mv	s1,a0
.LVL138:
	.loc 2 766 7
	bne	a0,zero,.L76
	.loc 2 767 17 discriminator 1
	li	a5,0
	addi	a4,s0,-44
	li	a3,0
	li	a2,0
	li	a1,0
	mv	a0,s2
	call	mbedtls_rsa_import
.LVL139:
	mv	s1,a0
.LVL140:
	.loc 2 766 60 discriminator 1
	bne	a0,zero,.L76
	.loc 2 772 5 is_stmt 1
	.loc 2 772 17 is_stmt 0
	addi	a2,s0,-44
	mv	a1,s3
	addi	a0,s0,-48
	call	asn1_get_nonzero_mpi
.LVL141:
	mv	s1,a0
.LVL142:
	.loc 2 772 7
	bne	a0,zero,.L76
	.loc 2 773 17 discriminator 1
	li	a5,0
	li	a4,0
	li	a3,0
	addi	a2,s0,-44
	li	a1,0
	mv	a0,s2
	call	mbedtls_rsa_import
.LVL143:
	mv	s1,a0
.LVL144:
	.loc 2 772 60 discriminator 1
	bne	a0,zero,.L76
	.loc 2 778 5 is_stmt 1
	.loc 2 778 17 is_stmt 0
	addi	a2,s0,-44
	mv	a1,s3
	addi	a0,s0,-48
	call	asn1_get_nonzero_mpi
.LVL145:
	mv	s1,a0
.LVL146:
	.loc 2 778 7
	bne	a0,zero,.L76
	.loc 2 779 17 discriminator 1
	li	a5,0
	li	a4,0
	addi	a3,s0,-44
	li	a2,0
	li	a1,0
	mv	a0,s2
	call	mbedtls_rsa_import
.LVL147:
	mv	s1,a0
.LVL148:
	.loc 2 778 60 discriminator 1
	bne	a0,zero,.L76
	.loc 2 796 5 is_stmt 1
	.loc 2 796 17 is_stmt 0
	addi	a2,s0,-44
	mv	a1,s3
	addi	a0,s0,-48
	call	asn1_get_nonzero_mpi
.LVL149:
	mv	s1,a0
.LVL150:
	.loc 2 796 7
	bne	a0,zero,.L76
	.loc 2 797 17 discriminator 1
	addi	a1,s0,-44
	addi	a0,s2,68
	call	mbedtls_mpi_copy
.LVL151:
	mv	s1,a0
.LVL152:
	.loc 2 796 60 discriminator 1
	bne	a0,zero,.L76
	.loc 2 801 5 is_stmt 1
	.loc 2 801 17 is_stmt 0
	addi	a2,s0,-44
	mv	a1,s3
	addi	a0,s0,-48
	call	asn1_get_nonzero_mpi
.LVL153:
	mv	s1,a0
.LVL154:
	.loc 2 801 7
	bne	a0,zero,.L76
	.loc 2 802 17 discriminator 1
	addi	a1,s0,-44
	addi	a0,s2,80
	call	mbedtls_mpi_copy
.LVL155:
	mv	s1,a0
.LVL156:
	.loc 2 801 60 discriminator 1
	bne	a0,zero,.L76
	.loc 2 806 5 is_stmt 1
	.loc 2 806 17 is_stmt 0
	addi	a2,s0,-44
	mv	a1,s3
	addi	a0,s0,-48
	call	asn1_get_nonzero_mpi
.LVL157:
	mv	s1,a0
.LVL158:
	.loc 2 806 7
	bne	a0,zero,.L76
	.loc 2 807 17 discriminator 1
	addi	a1,s0,-44
	addi	a0,s2,92
	call	mbedtls_mpi_copy
.LVL159:
	mv	s1,a0
.LVL160:
	.loc 2 806 60 discriminator 1
	bne	a0,zero,.L76
	.loc 2 827 5 is_stmt 1
	.loc 2 827 17 is_stmt 0
	mv	a0,s2
	call	mbedtls_rsa_complete
.LVL161:
	mv	s1,a0
.LVL162:
	.loc 2 827 7
	bne	a0,zero,.L76
	.loc 2 828 17 discriminator 1
	mv	a0,s2
	call	mbedtls_rsa_check_pubkey
.LVL163:
	mv	s1,a0
.LVL164:
	.loc 2 827 52 discriminator 1
	bne	a0,zero,.L76
	.loc 2 833 5 is_stmt 1
	.loc 2 833 7 is_stmt 0
	lw	a5,-48(s0)
	beq	a5,s3,.L76
	.loc 2 835 15
	li	a0,-16384
	addi	s1,a0,666
.LVL165:
.L76:
	.loc 2 841 5 is_stmt 1
	addi	a0,s0,-44
	call	mbedtls_mpi_free
.LVL166:
	.loc 2 843 5
	.loc 2 843 7 is_stmt 0
	beq	s1,zero,.L72
	.loc 2 846 9 is_stmt 1
	.loc 2 846 19 is_stmt 0
	li	a5,65536
	addi	a5,a5,-128
	li	a4,-16384
	and	a5,s1,a5
	addi	a4,a4,768
.LBB114:
.LBB115:
	.loc 3 169 18
	add	s1,s1,a4
.LVL167:
.LBE115:
.LBE114:
	.loc 2 846 11
	beq	a5,zero,.L77
	.loc 2 849 17
	mv	s1,a4
.LVL168:
.L77:
	.loc 2 851 9 is_stmt 1
	mv	a0,s2
	call	mbedtls_rsa_free
.LVL169:
	j	.L72
.LVL170:
.L78:
	.loc 2 750 15 is_stmt 0
	li	a0,-16384
.LVL171:
	addi	s1,a0,640
.LVL172:
	j	.L72
	.cfi_endproc
.LFE25:
	.size	pk_parse_key_pkcs1_der, .-pk_parse_key_pkcs1_der
	.section	.text.pk_get_pk_alg,"ax",@progbits
	.align	1
	.type	pk_get_pk_alg, @function
pk_get_pk_alg:
.LFB22:
	.loc 2 581 1 is_stmt 1
	.cfi_startproc
.LVL173:
	addi	sp,sp,-48
	.cfi_def_cfa_offset 48
	sw	s0,40(sp)
	sw	s1,36(sp)
	sw	s2,32(sp)
	sw	s3,28(sp)
	sw	s4,24(sp)
	.cfi_offset 8, -8
	.cfi_offset 9, -12
	.cfi_offset 18, -16
	.cfi_offset 19, -20
	.cfi_offset 20, -24
	addi	s0,sp,48
	.cfi_def_cfa 8, 0
	sw	ra,44(sp)
	mv	s3,a0
	.loc 2 582 5
.LVL174:
	.loc 2 583 5
	.loc 2 585 5
	.loc 2 581 1 is_stmt 0
	mv	s4,a1
	.loc 2 585 5
	mv	a0,a3
.LVL175:
	li	a1,0
.LVL176:
	.loc 2 581 1
	.cfi_offset 1, -4
	.loc 2 581 1
	mv	s2,a2
	.loc 2 585 5
	li	a2,12
.LVL177:
	.loc 2 581 1
	mv	s1,a3
	.loc 2 585 5
	call	memset
.LVL178:
	.loc 2 587 5 is_stmt 1
	.loc 2 587 17 is_stmt 0
	mv	a3,s1
	addi	a2,s0,-44
	mv	a1,s4
	mv	a0,s3
	call	mbedtls_asn1_get_alg
.LVL179:
	.loc 2 587 7
	beq	a0,zero,.L86
	.loc 2 588 9 is_stmt 1
.LVL180:
.LBB122:
.LBB123:
	.loc 3 166 5
	.loc 3 167 5
	.loc 3 169 5
	.loc 3 169 18 is_stmt 0
	li	a5,-16384
	addi	a5,a5,1408
	add	a0,a0,a5
.LVL181:
.L85:
.LBE123:
.LBE122:
	.loc 2 604 1
	lw	ra,44(sp)
	.cfi_remember_state
	.cfi_restore 1
	lw	s0,40(sp)
	.cfi_restore 8
	.cfi_def_cfa 2, 48
	lw	s1,36(sp)
	.cfi_restore 9
.LVL182:
	lw	s2,32(sp)
	.cfi_restore 18
.LVL183:
	lw	s3,28(sp)
	.cfi_restore 19
.LVL184:
	lw	s4,24(sp)
	.cfi_restore 20
.LVL185:
	addi	sp,sp,48
	.cfi_def_cfa_offset 0
	jr	ra
.LVL186:
.L86:
	.cfi_restore_state
	.loc 2 590 5 is_stmt 1
	.loc 2 590 9 is_stmt 0
	mv	a1,s2
	addi	a0,s0,-44
.LVL187:
	call	mbedtls_oid_get_pk_alg
.LVL188:
	.loc 2 590 7
	bne	a0,zero,.L89
.LVL189:
.LBB124:
.LBB125:
	.loc 2 596 5 is_stmt 1
	.loc 2 596 7 is_stmt 0
	lw	a4,0(s2)
	li	a5,1
	bne	a4,a5,.L85
	.loc 2 597 23
	lw	a5,0(s1)
	.loc 2 596 35
	li	a4,5
	beq	a5,a4,.L88
	.loc 2 597 37
	bne	a5,zero,.L90
.L88:
	.loc 2 597 59
	lw	a5,4(s1)
	beq	a5,zero,.L85
.L90:
	.loc 2 600 15
	li	a0,-16384
	addi	a0,a0,1408
.LVL190:
	j	.L85
.L89:
.LBE125:
.LBE124:
	.loc 2 591 15
	li	a0,-16384
	addi	a0,a0,896
	j	.L85
	.cfi_endproc
.LFE22:
	.size	pk_get_pk_alg, .-pk_get_pk_alg
	.section	.text.pk_parse_key_pkcs8_unencrypted_der,"ax",@progbits
	.align	1
	.type	pk_parse_key_pkcs8_unencrypted_der, @function
pk_parse_key_pkcs8_unencrypted_der:
.LFB27:
	.loc 2 1004 1 is_stmt 1
	.cfi_startproc
.LVL191:
	.loc 2 1005 5
	.loc 2 1006 5
	.loc 2 1007 5
	.loc 2 1008 5
	.loc 2 1004 1 is_stmt 0
	addi	sp,sp,-64
	.cfi_def_cfa_offset 64
	sw	s0,56(sp)
	sw	s2,48(sp)
	.cfi_offset 8, -8
	.cfi_offset 18, -16
	addi	s0,sp,64
	.cfi_def_cfa 8, 0
	sw	ra,60(sp)
	sw	s1,52(sp)
	.cfi_offset 1, -4
	.cfi_offset 9, -12
	.loc 2 1004 1
	mv	a5,a2
	mv	s2,a0
	.loc 2 1008 20
	sw	a1,-36(s0)
	.loc 2 1009 5 is_stmt 1
.LVL192:
	.loc 2 1010 5
	.loc 2 1029 17 is_stmt 0
	li	a3,48
	addi	a2,s0,-40
.LVL193:
	add	a1,a1,a5
.LVL194:
	addi	a0,s0,-36
.LVL195:
	.loc 2 1010 23
	sw	zero,-32(s0)
	.loc 2 1011 5 is_stmt 1
	.loc 2 1029 5
	.loc 2 1029 17 is_stmt 0
	call	mbedtls_asn1_get_tag
.LVL196:
	.loc 2 1029 7
	beq	a0,zero,.L96
.LVL197:
.L114:
	.loc 2 1049 9 is_stmt 1
.LBB126:
.LBB127:
	.loc 3 166 5
	.loc 3 167 5
	.loc 3 169 5
	.loc 3 169 18 is_stmt 0
	li	s1,-16384
	addi	s1,s1,768
	add	s1,a0,s1
.LVL198:
.L95:
.LBE127:
.LBE126:
	.loc 2 1085 1
	lw	ra,60(sp)
	.cfi_remember_state
	.cfi_restore 1
	lw	s0,56(sp)
	.cfi_restore 8
	.cfi_def_cfa 2, 64
	lw	s2,48(sp)
	.cfi_restore 18
.LVL199:
	mv	a0,s1
	lw	s1,52(sp)
	.cfi_restore 9
	addi	sp,sp,64
	.cfi_def_cfa_offset 0
	jr	ra
.LVL200:
.L96:
	.cfi_restore_state
	.loc 2 1035 5 is_stmt 1
	.loc 2 1035 9 is_stmt 0
	lw	a1,-36(s0)
	lw	a5,-40(s0)
	.loc 2 1037 17
	addi	a2,s0,-44
	addi	a0,s0,-36
.LVL201:
	.loc 2 1035 9
	add	a1,a1,a5
.LVL202:
	.loc 2 1037 5 is_stmt 1
	.loc 2 1037 17 is_stmt 0
	sw	a1,-52(s0)
	call	mbedtls_asn1_get_int
.LVL203:
	.loc 2 1037 7
	lw	a1,-52(s0)
	bne	a0,zero,.L114
	.loc 2 1040 5 is_stmt 1
	.loc 2 1040 7 is_stmt 0
	lw	a5,-44(s0)
	bne	a5,zero,.L104
	.loc 2 1043 5 is_stmt 1
	.loc 2 1043 17 is_stmt 0
	addi	a3,s0,-28
	addi	a2,s0,-32
	addi	a0,s0,-36
.LVL204:
	sw	a1,-52(s0)
.LVL205:
	call	pk_get_pk_alg
.LVL206:
	mv	s1,a0
.LVL207:
	.loc 2 1043 7
	bne	a0,zero,.L95
	.loc 2 1048 5 is_stmt 1
	.loc 2 1048 17 is_stmt 0
	lw	a1,-52(s0)
	li	a3,4
	addi	a2,s0,-40
	addi	a0,s0,-36
	call	mbedtls_asn1_get_tag
.LVL208:
	.loc 2 1048 7
	bne	a0,zero,.L114
	.loc 2 1051 5 is_stmt 1
	.loc 2 1051 7 is_stmt 0
	lw	a5,-40(s0)
	beq	a5,zero,.L105
	.loc 2 1055 5 is_stmt 1
	.loc 2 1055 21 is_stmt 0
	lw	a0,-32(s0)
.LVL209:
	call	mbedtls_pk_info_from_type
.LVL210:
	mv	a1,a0
.LVL211:
	.loc 2 1055 7
	bne	a0,zero,.L100
.LVL212:
.L102:
	.loc 2 1056 15
	li	a0,-16384
	addi	s1,a0,896
	j	.L95
.LVL213:
.L100:
	.loc 2 1058 5 is_stmt 1
	.loc 2 1058 17 is_stmt 0
	mv	a0,s2
.LVL214:
	call	mbedtls_pk_setup
.LVL215:
	mv	s1,a0
.LVL216:
	.loc 2 1058 7
	bne	a0,zero,.L95
	.loc 2 1062 5 is_stmt 1
	.loc 2 1062 16 is_stmt 0
	lw	a5,-32(s0)
	.loc 2 1062 7
	li	a4,1
	bne	a5,a4,.L101
	.loc 2 1064 9 is_stmt 1
	.loc 2 1064 21 is_stmt 0
	lw	a1,4(s2)
	lw	a0,0(s2)
	call	mbedtls_pk_rsa
.LVL217:
	lw	a2,-40(s0)
	lw	a1,-36(s0)
	call	pk_parse_key_pkcs1_der
.LVL218:
.L116:
	.loc 2 1075 21 discriminator 1
	mv	s1,a0
.LVL219:
	.loc 2 1074 83 discriminator 1
	beq	a0,zero,.L95
.L103:
	.loc 2 1077 13 is_stmt 1
	mv	a0,s2
	call	mbedtls_pk_free
.LVL220:
	.loc 2 1078 13
	.loc 2 1078 19 is_stmt 0
	j	.L95
.L101:
	.loc 2 1072 5 is_stmt 1
	.loc 2 1072 36 is_stmt 0
	addi	a5,a5,-2
	.loc 2 1072 7
	bgtu	a5,a4,.L102
	.loc 2 1074 9 is_stmt 1
	.loc 2 1074 48 is_stmt 0
	lw	a1,4(s2)
	lw	a0,0(s2)
	call	mbedtls_pk_ec
.LVL221:
	mv	a1,a0
	.loc 2 1074 21
	addi	a0,s0,-28
	call	pk_use_ecparams
.LVL222:
	mv	s1,a0
.LVL223:
	.loc 2 1074 11
	bne	a0,zero,.L103
	.loc 2 1075 21 discriminator 1
	lw	a1,4(s2)
	lw	a0,0(s2)
	call	mbedtls_pk_ec
.LVL224:
	lw	a2,-40(s0)
	lw	a1,-36(s0)
	call	pk_parse_key_sec1_der
.LVL225:
	j	.L116
.LVL226:
.L104:
	.loc 2 1041 17
	li	a0,-16384
.LVL227:
	addi	s1,a0,640
	j	.L95
.LVL228:
.L105:
	.loc 2 1052 17
	li	a0,-16384
.LVL229:
	addi	s1,a0,672
	j	.L95
	.cfi_endproc
.LFE27:
	.size	pk_parse_key_pkcs8_unencrypted_der, .-pk_parse_key_pkcs8_unencrypted_der
	.section	.rodata.mbedtls_pk_load_file.str1.4,"aMS",@progbits,1
	.align	2
.LC0:
	.string	"-----BEGIN "
	.section	.text.mbedtls_pk_load_file,"ax",@progbits
	.align	1
	.globl	mbedtls_pk_load_file
	.type	mbedtls_pk_load_file, @function
mbedtls_pk_load_file:
.LFB15:
	.loc 2 75 1 is_stmt 1
	.cfi_startproc
.LVL230:
	.loc 2 76 5
	.loc 2 77 5
	.loc 2 79 5
	.loc 2 79 10
	.loc 2 79 17
	.loc 2 80 5
	.loc 2 80 10
	.loc 2 80 17
	.loc 2 81 5
	.loc 2 81 10
	.loc 2 81 17
	.loc 2 83 5
	.loc 2 75 1 is_stmt 0
	addi	sp,sp,-32
	.cfi_def_cfa_offset 32
	sw	s0,24(sp)
	sw	s1,20(sp)
	sw	s3,12(sp)
	sw	ra,28(sp)
	sw	s2,16(sp)
	sw	s4,8(sp)
	.cfi_offset 8, -8
	.cfi_offset 9, -12
	.cfi_offset 19, -20
	.cfi_offset 1, -4
	.cfi_offset 18, -16
	.cfi_offset 20, -24
	addi	s0,sp,32
	.cfi_def_cfa 8, 0
	mv	s3,a1
	.loc 2 83 17
	li	a1,0
.LVL231:
	.loc 2 75 1
	mv	s1,a2
	.loc 2 83 17
	call	aos_open
.LVL232:
	.loc 2 83 8
	blt	a0,zero,.L122
	.loc 2 86 18
	li	a2,2
	li	a1,0
	mv	s2,a0
	.loc 2 86 5 is_stmt 1
	.loc 2 86 18 is_stmt 0
	call	aos_lseek
.LVL233:
	mv	s4,a0
.LVL234:
	.loc 2 86 7
	bge	a0,zero,.L119
	.loc 2 88 9 is_stmt 1
	mv	a0,s2
.LVL235:
	call	aos_close
.LVL236:
	.loc 2 89 9
.L122:
	.loc 2 84 15 is_stmt 0
	li	a5,-16384
	addi	a5,a5,512
	j	.L117
.LVL237:
.L119:
	.loc 2 91 5 is_stmt 1
	li	a2,0
	li	a1,0
	mv	a0,s2
.LVL238:
	call	aos_lseek
.LVL239:
	.loc 2 93 5
	.loc 2 96 18 is_stmt 0
	addi	a1,s4,1
	.loc 2 93 8
	sw	s4,0(s1)
	.loc 2 95 5 is_stmt 1
	.loc 2 96 18 is_stmt 0
	li	a0,1
	call	mbedtls_calloc
.LVL240:
	.loc 2 96 16
	sw	a0,0(s3)
	.loc 2 96 18
	mv	a1,a0
	.loc 2 95 21
	bne	a0,zero,.L120
	.loc 2 98 9 is_stmt 1
	mv	a0,s2
	call	aos_close
.LVL241:
	.loc 2 99 9
	.loc 2 99 15 is_stmt 0
	li	a5,-16384
	addi	a5,a5,128
.LVL242:
.L117:
	.loc 2 121 1
	lw	ra,28(sp)
	.cfi_remember_state
	.cfi_restore 1
	lw	s0,24(sp)
	.cfi_restore 8
	.cfi_def_cfa 2, 32
	lw	s1,20(sp)
	.cfi_restore 9
.LVL243:
	lw	s2,16(sp)
	.cfi_restore 18
	lw	s3,12(sp)
	.cfi_restore 19
.LVL244:
	lw	s4,8(sp)
	.cfi_restore 20
	mv	a0,a5
	addi	sp,sp,32
	.cfi_def_cfa_offset 0
	jr	ra
.LVL245:
.L120:
	.cfi_restore_state
	.loc 2 102 5 is_stmt 1
	.loc 2 102 9 is_stmt 0
	lw	a2,0(s1)
	mv	a0,s2
	call	aos_read
.LVL246:
	.loc 2 102 7
	lw	a5,0(s1)
	beq	a0,a5,.L121
	.loc 2 104 9 is_stmt 1
	mv	a0,s2
	call	aos_close
.LVL247:
	.loc 2 106 9
	lw	a0,0(s3)
	lw	a1,0(s1)
	call	mbedtls_platform_zeroize
.LVL248:
	.loc 2 107 9
	lw	a0,0(s3)
	call	mbedtls_free
.LVL249:
	.loc 2 109 9
	j	.L122
.L121:
	.loc 2 112 5
	mv	a0,s2
	call	aos_close
.LVL250:
	.loc 2 114 5
	.loc 2 114 16 is_stmt 0
	lw	a5,0(s3)
	lw	a4,0(s1)
	.loc 2 117 9
	lui	a1,%hi(.LC0)
	addi	a1,a1,%lo(.LC0)
	.loc 2 114 16
	add	a5,a5,a4
	sb	zero,0(a5)
	.loc 2 117 5 is_stmt 1
	.loc 2 117 9 is_stmt 0
	lw	a0,0(s3)
	call	strstr
.LVL251:
	.loc 2 120 11
	li	a5,0
	.loc 2 117 7
	beq	a0,zero,.L117
	.loc 2 118 9 is_stmt 1
	lw	a5,0(s1)
	addi	a5,a5,1
	sw	a5,0(s1)
	.loc 2 120 11 is_stmt 0
	li	a5,0
	j	.L117
	.cfi_endproc
.LFE15:
	.size	mbedtls_pk_load_file, .-mbedtls_pk_load_file
	.section	.text.mbedtls_pk_parse_subpubkey,"ax",@progbits
	.align	1
	.globl	mbedtls_pk_parse_subpubkey
	.type	mbedtls_pk_parse_subpubkey, @function
mbedtls_pk_parse_subpubkey:
.LFB23:
	.loc 2 613 1 is_stmt 1
	.cfi_startproc
.LVL252:
	.loc 2 614 5
	.loc 2 615 5
	.loc 2 616 5
	.loc 2 617 5
	.loc 2 613 1 is_stmt 0
	addi	sp,sp,-80
	.cfi_def_cfa_offset 80
	sw	s0,72(sp)
	sw	s3,60(sp)
	.cfi_offset 8, -8
	.cfi_offset 19, -20
	addi	s0,sp,80
	.cfi_def_cfa 8, 0
	sw	s4,56(sp)
	sw	ra,76(sp)
	sw	s1,68(sp)
	sw	s2,64(sp)
	sw	s5,52(sp)
	sw	s6,48(sp)
	.cfi_offset 20, -24
	.cfi_offset 1, -4
	.cfi_offset 9, -12
	.cfi_offset 18, -16
	.cfi_offset 21, -28
	.cfi_offset 22, -32
	.loc 2 613 1
	mv	s3,a2
	.loc 2 625 17
	li	a3,48
	addi	a2,s0,-52
.LVL253:
	.loc 2 613 1
	mv	s4,a0
	.loc 2 617 23
	sw	zero,-48(s0)
	.loc 2 618 5 is_stmt 1
	.loc 2 620 5
	.loc 2 620 10
	.loc 2 620 17
	.loc 2 621 5
	.loc 2 621 10
	.loc 2 621 17
	.loc 2 622 5
	.loc 2 622 10
	.loc 2 622 17
	.loc 2 623 5
	.loc 2 623 10
	.loc 2 623 17
	.loc 2 625 5
	.loc 2 625 17 is_stmt 0
	call	mbedtls_asn1_get_tag
.LVL254:
	.loc 2 625 7
	beq	a0,zero,.L126
	.loc 2 628 9 is_stmt 1
.LVL255:
.LBB134:
.LBB135:
	.loc 3 166 5
	.loc 3 167 5
	.loc 3 169 5
	.loc 3 169 18 is_stmt 0
	li	s1,-16384
	addi	s1,s1,768
.LVL256:
.L138:
.LBE135:
.LBE134:
.LBB136:
.LBB137:
	add	s1,a0,s1
.LVL257:
.L125:
.LBE137:
.LBE136:
	.loc 2 673 1
	lw	ra,76(sp)
	.cfi_remember_state
	.cfi_restore 1
	lw	s0,72(sp)
	.cfi_restore 8
	.cfi_def_cfa 2, 80
	lw	s2,64(sp)
	.cfi_restore 18
	lw	s3,60(sp)
	.cfi_restore 19
.LVL258:
	lw	s4,56(sp)
	.cfi_restore 20
.LVL259:
	lw	s5,52(sp)
	.cfi_restore 21
	lw	s6,48(sp)
	.cfi_restore 22
	mv	a0,s1
	lw	s1,68(sp)
	.cfi_restore 9
	addi	sp,sp,80
	.cfi_def_cfa_offset 0
	jr	ra
.LVL260:
.L126:
	.cfi_restore_state
	.loc 2 631 5 is_stmt 1
	.loc 2 631 9 is_stmt 0
	lw	s5,0(s4)
	lw	a5,-52(s0)
	.loc 2 633 17
	addi	a3,s0,-44
	addi	a2,s0,-48
	.loc 2 631 9
	add	s5,s5,a5
.LVL261:
	.loc 2 633 5 is_stmt 1
	.loc 2 633 17 is_stmt 0
	mv	a1,s5
	mv	a0,s4
.LVL262:
	call	pk_get_pk_alg
.LVL263:
	mv	s1,a0
.LVL264:
	.loc 2 633 7
	bne	a0,zero,.L125
	.loc 2 636 5 is_stmt 1
	.loc 2 636 17 is_stmt 0
	addi	a2,s0,-52
	mv	a1,s5
	mv	a0,s4
	call	mbedtls_asn1_get_bitstring_null
.LVL265:
	.loc 2 636 7
	beq	a0,zero,.L128
	.loc 2 637 9 is_stmt 1
.LVL266:
.LBB139:
.LBB138:
	.loc 3 166 5
	.loc 3 167 5
	.loc 3 169 5
	.loc 3 169 18 is_stmt 0
	li	s1,-16384
	addi	s1,s1,1280
	j	.L138
.LVL267:
.L128:
.LBE138:
.LBE139:
	.loc 2 639 5 is_stmt 1
	.loc 2 639 12 is_stmt 0
	lw	a5,0(s4)
	lw	a4,-52(s0)
	add	a5,a5,a4
	.loc 2 639 7
	bne	s5,a5,.L134
	.loc 2 643 5 is_stmt 1
	.loc 2 643 21 is_stmt 0
	lw	a0,-48(s0)
.LVL268:
	call	mbedtls_pk_info_from_type
.LVL269:
	mv	a1,a0
.LVL270:
	.loc 2 643 7
	beq	a0,zero,.L135
	.loc 2 646 5 is_stmt 1
	.loc 2 646 17 is_stmt 0
	mv	a0,s3
.LVL271:
	call	mbedtls_pk_setup
.LVL272:
	mv	s1,a0
.LVL273:
	.loc 2 646 7
	bne	a0,zero,.L125
	.loc 2 650 5 is_stmt 1
	.loc 2 650 16 is_stmt 0
	lw	a5,-48(s0)
	.loc 2 650 7
	li	a4,1
	bne	a5,a4,.L129
	.loc 2 652 9 is_stmt 1
	.loc 2 652 15 is_stmt 0
	lw	a1,4(s3)
	lw	a0,0(s3)
	call	mbedtls_pk_rsa
.LVL274:
	mv	a2,a0
	mv	a1,s5
	mv	a0,s4
	call	pk_get_rsapubkey
.LVL275:
	mv	s2,a0
.LVL276:
	.loc 2 665 5 is_stmt 1
	.loc 2 665 7 is_stmt 0
	beq	a0,zero,.L130
.LVL277:
.L131:
	.loc 2 670 9 is_stmt 1
	mv	a0,s3
	call	mbedtls_pk_free
.LVL278:
	mv	s1,s2
	j	.L125
.LVL279:
.L129:
	.loc 2 656 5
	.loc 2 656 39 is_stmt 0
	addi	a5,a5,-2
	.loc 2 656 7
	bgtu	a5,a4,.L136
	.loc 2 658 9 is_stmt 1
	.loc 2 658 46 is_stmt 0
	lw	a1,4(s3)
	lw	a0,0(s3)
	call	mbedtls_pk_ec
.LVL280:
	mv	a1,a0
	.loc 2 658 15
	addi	a0,s0,-44
	call	pk_use_ecparams
.LVL281:
	mv	s2,a0
.LVL282:
	.loc 2 659 9 is_stmt 1
	.loc 2 659 11 is_stmt 0
	bne	a0,zero,.L131
	.loc 2 660 13 is_stmt 1
	.loc 2 660 19 is_stmt 0
	lw	a1,4(s3)
	lw	a0,0(s3)
.LVL283:
	call	mbedtls_pk_ec
.LVL284:
.LBB140:
.LBB141:
	.loc 2 501 17
	lw	a2,0(s4)
	addi	a1,a0,120
	sw	a1,-68(s0)
	sub	a3,s5,a2
.LBE141:
.LBE140:
	.loc 2 660 19
	mv	s6,a0
.LVL285:
.LBB143:
.LBB142:
	.loc 2 499 5 is_stmt 1
	.loc 2 501 5
	.loc 2 501 17 is_stmt 0
	call	mbedtls_ecp_point_read_binary
.LVL286:
	.loc 2 501 7
	lw	a1,-68(s0)
	.loc 2 501 17
	mv	s2,a0
.LVL287:
	.loc 2 501 7
	bne	a0,zero,.L132
	.loc 2 504 9 is_stmt 1
	.loc 2 504 15 is_stmt 0
	mv	a0,s6
.LVL288:
	call	mbedtls_ecp_check_pubkey
.LVL289:
	mv	s2,a0
.LVL290:
.L132:
	.loc 2 510 5 is_stmt 1
	.loc 2 510 8 is_stmt 0
	sw	s5,0(s4)
	.loc 2 512 5 is_stmt 1
.LVL291:
.LBE142:
.LBE143:
	.loc 2 665 5
	.loc 2 665 7 is_stmt 0
	beq	s2,zero,.L125
	j	.L131
.L130:
	.loc 2 665 18 discriminator 1
	lw	a5,0(s4)
	beq	a5,s5,.L125
	.loc 2 666 15
	li	a0,-16384
.LVL292:
	addi	s2,a0,1178
.LVL293:
	j	.L131
.LVL294:
.L136:
	.loc 2 663 13
	li	a0,-16384
	addi	s2,a0,896
	j	.L131
.LVL295:
.L134:
	.loc 2 640 17
	li	s1,-16384
	addi	s1,s1,1178
	j	.L125
.LVL296:
.L135:
	.loc 2 644 15
	li	s1,-16384
	addi	s1,s1,896
	j	.L125
	.cfi_endproc
.LFE23:
	.size	mbedtls_pk_parse_subpubkey, .-mbedtls_pk_parse_subpubkey
	.section	.rodata.mbedtls_pk_parse_key.str1.4,"aMS",@progbits,1
	.align	2
.LC1:
	.string	"-----END RSA PRIVATE KEY-----"
	.align	2
.LC2:
	.string	"-----BEGIN RSA PRIVATE KEY-----"
	.align	2
.LC3:
	.string	"-----END EC PRIVATE KEY-----"
	.align	2
.LC4:
	.string	"-----BEGIN EC PRIVATE KEY-----"
	.align	2
.LC5:
	.string	"-----END PRIVATE KEY-----"
	.align	2
.LC6:
	.string	"-----BEGIN PRIVATE KEY-----"
	.section	.text.mbedtls_pk_parse_key,"ax",@progbits
	.align	1
	.globl	mbedtls_pk_parse_key
	.type	mbedtls_pk_parse_key, @function
mbedtls_pk_parse_key:
.LFB28:
	.loc 2 1220 1 is_stmt 1
	.cfi_startproc
.LVL297:
	.loc 2 1221 5
	.loc 2 1222 5
	.loc 2 1224 5
	.loc 2 1225 5
	.loc 2 1228 5
	.loc 2 1228 10
	.loc 2 1228 17
	.loc 2 1229 5
	.loc 2 1220 1 is_stmt 0
	addi	sp,sp,-64
	.cfi_def_cfa_offset 64
	sw	s0,56(sp)
	sw	ra,60(sp)
	sw	s1,52(sp)
	sw	s2,48(sp)
	sw	s3,44(sp)
	sw	s4,40(sp)
	sw	s5,36(sp)
	sw	s6,32(sp)
	sw	s7,28(sp)
	sw	s8,24(sp)
	sw	s9,20(sp)
	.cfi_offset 8, -8
	.cfi_offset 1, -4
	.cfi_offset 9, -12
	.cfi_offset 18, -16
	.cfi_offset 19, -20
	.cfi_offset 20, -24
	.cfi_offset 21, -28
	.cfi_offset 22, -32
	.cfi_offset 23, -36
	.cfi_offset 24, -40
	.cfi_offset 25, -44
	addi	s0,sp,64
	.cfi_def_cfa 8, 0
	.loc 2 1229 7
	beq	a2,zero,.L163
	mv	s4,a2
	mv	s3,a1
	mv	s2,a0
	.loc 2 1238 12
	addi	s5,s4,-1
	.loc 2 1234 4
	addi	a0,s0,-60
.LVL298:
	mv	s6,a3
	mv	s7,a4
	.loc 2 1231 5 is_stmt 1
	.loc 2 1231 10
	.loc 2 1231 17
	.loc 2 1234 4
	.loc 2 1238 12 is_stmt 0
	add	s5,s3,s5
	.loc 2 1234 4
	call	mbedtls_pem_init
.LVL299:
	.loc 2 1238 5 is_stmt 1
	.loc 2 1238 7 is_stmt 0
	lbu	a5,0(s5)
	bne	a5,zero,.L142
	.loc 2 1241 9 is_stmt 1
	.loc 2 1241 15 is_stmt 0
	lui	a2,%hi(.LC1)
	lui	a1,%hi(.LC2)
	addi	a6,s0,-64
	mv	a5,s7
	mv	a4,s6
	mv	a3,s3
	addi	a2,a2,%lo(.LC1)
	addi	a1,a1,%lo(.LC2)
	addi	a0,s0,-60
	call	mbedtls_pem_read_buffer
.LVL300:
	mv	s1,a0
.LVL301:
	.loc 2 1246 5 is_stmt 1
	.loc 2 1246 7 is_stmt 0
	bne	a0,zero,.L143
	.loc 2 1248 9 is_stmt 1
	.loc 2 1248 19 is_stmt 0
	li	a0,1
	call	mbedtls_pk_info_from_type
.LVL302:
	mv	a1,a0
.LVL303:
	.loc 2 1249 9 is_stmt 1
	.loc 2 1249 21 is_stmt 0
	mv	a0,s2
.LVL304:
	call	mbedtls_pk_setup
.LVL305:
	mv	s1,a0
.LVL306:
	.loc 2 1249 11
	bne	a0,zero,.L185
	.loc 2 1250 21 discriminator 1
	lw	a1,4(s2)
	lw	a0,0(s2)
	call	mbedtls_pk_rsa
.LVL307:
	lw	a2,-56(s0)
	lw	a1,-60(s0)
	call	pk_parse_key_pkcs1_der
.LVL308:
.L187:
	.loc 2 1308 21
	mv	s1,a0
.LVL309:
	.loc 2 1308 11
	beq	a0,zero,.L158
.L185:
	.loc 2 1311 13 is_stmt 1
	mv	a0,s2
	call	mbedtls_pk_free
.LVL310:
.L158:
	.loc 2 1314 9
	addi	a0,s0,-60
	call	mbedtls_pem_free
.LVL311:
	.loc 2 1315 9
	.loc 2 1315 15 is_stmt 0
	j	.L139
.LVL312:
.L143:
	.loc 2 1259 10 is_stmt 1
	.loc 2 1259 12 is_stmt 0
	li	a2,-4096
	addi	s9,a2,-896
	bne	a0,s9,.L146
.L155:
	.loc 2 1260 15
	li	a0,-16384
	addi	s1,a0,1152
.LVL313:
.L139:
	.loc 2 1428 1
	lw	ra,60(sp)
	.cfi_remember_state
	.cfi_restore 1
	lw	s0,56(sp)
	.cfi_restore 8
	.cfi_def_cfa 2, 64
	lw	s2,48(sp)
	.cfi_restore 18
	lw	s3,44(sp)
	.cfi_restore 19
	lw	s4,40(sp)
	.cfi_restore 20
	lw	s5,36(sp)
	.cfi_restore 21
	lw	s6,32(sp)
	.cfi_restore 22
	lw	s7,28(sp)
	.cfi_restore 23
	lw	s8,24(sp)
	.cfi_restore 24
	lw	s9,20(sp)
	.cfi_restore 25
	mv	a0,s1
	lw	s1,52(sp)
	.cfi_restore 9
	addi	sp,sp,64
	.cfi_def_cfa_offset 0
	jr	ra
.LVL314:
.L146:
	.cfi_restore_state
	.loc 2 1261 10 is_stmt 1
	.loc 2 1261 12 is_stmt 0
	addi	s8,a2,-768
	bne	a0,s8,.L147
.L156:
	.loc 2 1262 15
	li	a0,-16384
	addi	s1,a0,1024
	j	.L139
.L147:
	.loc 2 1263 10 is_stmt 1
	.loc 2 1263 12 is_stmt 0
	addi	a2,a2,-128
	bne	a0,a2,.L139
	.loc 2 1269 5 is_stmt 1
	.loc 2 1269 7 is_stmt 0
	lbu	a5,0(s5)
	beq	a5,zero,.L182
.LVL315:
.L142:
	.loc 2 1294 10 is_stmt 1
	.loc 2 1299 5
	.loc 2 1384 5
	.loc 2 1384 11 is_stmt 0
	mv	a2,s4
	mv	a1,s3
	mv	a0,s2
	call	pk_parse_key_pkcs8_unencrypted_der
.LVL316:
	.loc 2 1385 5 is_stmt 1
	.loc 2 1385 7 is_stmt 0
	beq	a0,zero,.L150
	.loc 2 1390 5 is_stmt 1
	mv	a0,s2
.LVL317:
	call	mbedtls_pk_free
.LVL318:
	.loc 2 1391 5
	mv	a0,s2
	call	mbedtls_pk_init
.LVL319:
	.loc 2 1395 5
	.loc 2 1395 15 is_stmt 0
	li	a0,1
	call	mbedtls_pk_info_from_type
.LVL320:
	mv	a1,a0
.LVL321:
	.loc 2 1396 5 is_stmt 1
	.loc 2 1396 9 is_stmt 0
	mv	a0,s2
.LVL322:
	call	mbedtls_pk_setup
.LVL323:
	.loc 2 1396 7
	beq	a0,zero,.L159
.L162:
	.loc 2 1402 5 is_stmt 1
	mv	a0,s2
	call	mbedtls_pk_free
.LVL324:
	.loc 2 1403 5
	mv	a0,s2
	call	mbedtls_pk_init
.LVL325:
	.loc 2 1407 5
	.loc 2 1407 15 is_stmt 0
	li	a0,2
	call	mbedtls_pk_info_from_type
.LVL326:
	mv	a1,a0
.LVL327:
	.loc 2 1408 5 is_stmt 1
	.loc 2 1408 9 is_stmt 0
	mv	a0,s2
.LVL328:
	call	mbedtls_pk_setup
.LVL329:
	.loc 2 1408 7
	beq	a0,zero,.L160
.L161:
	.loc 2 1414 5 is_stmt 1
	mv	a0,s2
	call	mbedtls_pk_free
.LVL330:
	.loc 2 1427 5
.L163:
	.loc 2 1230 15 is_stmt 0
	li	a0,-16384
	addi	s1,a0,768
	j	.L139
.LVL331:
.L182:
	.loc 2 1272 9 is_stmt 1
	.loc 2 1272 15 is_stmt 0
	lui	a2,%hi(.LC3)
	lui	a1,%hi(.LC4)
	addi	a6,s0,-64
	mv	a5,s7
	mv	a4,s6
	mv	a3,s3
	addi	a2,a2,%lo(.LC3)
	addi	a1,a1,%lo(.LC4)
	addi	a0,s0,-60
	call	mbedtls_pem_read_buffer
.LVL332:
	mv	s1,a0
.LVL333:
	.loc 2 1276 5 is_stmt 1
	.loc 2 1276 7 is_stmt 0
	bne	a0,zero,.L152
	.loc 2 1278 9 is_stmt 1
	.loc 2 1278 19 is_stmt 0
	li	a0,2
	call	mbedtls_pk_info_from_type
.LVL334:
	mv	a1,a0
.LVL335:
	.loc 2 1280 9 is_stmt 1
	.loc 2 1280 21 is_stmt 0
	mv	a0,s2
.LVL336:
	call	mbedtls_pk_setup
.LVL337:
	mv	s1,a0
.LVL338:
	.loc 2 1280 11
	bne	a0,zero,.L185
	.loc 2 1281 21 discriminator 1
	lw	a1,4(s2)
	lw	a0,0(s2)
	call	mbedtls_pk_ec
.LVL339:
	lw	a2,-56(s0)
	lw	a1,-60(s0)
	call	pk_parse_key_sec1_der
.LVL340:
	j	.L187
.L152:
.LVL341:
	.loc 2 1290 10 is_stmt 1
	.loc 2 1290 12 is_stmt 0
	beq	a0,s9,.L155
	.loc 2 1292 10 is_stmt 1
	.loc 2 1292 12 is_stmt 0
	beq	a0,s8,.L156
	.loc 2 1294 10 is_stmt 1
	.loc 2 1294 12 is_stmt 0
	li	s6,-4096
.LVL342:
	addi	s6,s6,-128
	bne	a0,s6,.L139
	.loc 2 1299 5 is_stmt 1
	.loc 2 1299 7 is_stmt 0
	lbu	a5,0(s5)
	bne	a5,zero,.L142
	.loc 2 1302 9 is_stmt 1
	.loc 2 1302 15 is_stmt 0
	lui	a2,%hi(.LC5)
	lui	a1,%hi(.LC6)
	addi	a6,s0,-64
	li	a4,0
	mv	a3,s3
	addi	a2,a2,%lo(.LC5)
	addi	a1,a1,%lo(.LC6)
	addi	a0,s0,-60
	call	mbedtls_pem_read_buffer
.LVL343:
	mv	s1,a0
.LVL344:
	.loc 2 1306 5 is_stmt 1
	.loc 2 1306 7 is_stmt 0
	bne	a0,zero,.L157
	.loc 2 1308 9 is_stmt 1
	.loc 2 1308 21 is_stmt 0
	lw	a2,-56(s0)
	lw	a1,-60(s0)
	mv	a0,s2
	call	pk_parse_key_pkcs8_unencrypted_der
.LVL345:
	j	.L187
.L157:
.LVL346:
	.loc 2 1317 10 is_stmt 1
	.loc 2 1317 12 is_stmt 0
	bne	a0,s6,.L139
	j	.L142
.L159:
	.loc 2 1397 9 discriminator 1
	lw	a1,4(s2)
	lw	a0,0(s2)
	call	mbedtls_pk_rsa
.LVL347:
	mv	a2,s4
	mv	a1,s3
	call	pk_parse_key_pkcs1_der
.LVL348:
	.loc 2 1396 46 discriminator 1
	bne	a0,zero,.L162
.L150:
	.loc 2 1387 15
	li	s1,0
	j	.L139
.L160:
	.loc 2 1409 9 discriminator 1
	lw	a1,4(s2)
	lw	a0,0(s2)
	call	mbedtls_pk_ec
.LVL349:
	mv	a2,s4
	mv	a1,s3
	call	pk_parse_key_sec1_der
.LVL350:
	.loc 2 1408 46 discriminator 1
	beq	a0,zero,.L150
	j	.L161
	.cfi_endproc
.LFE28:
	.size	mbedtls_pk_parse_key, .-mbedtls_pk_parse_key
	.section	.text.mbedtls_pk_parse_keyfile,"ax",@progbits
	.align	1
	.globl	mbedtls_pk_parse_keyfile
	.type	mbedtls_pk_parse_keyfile, @function
mbedtls_pk_parse_keyfile:
.LFB16:
	.loc 2 128 1 is_stmt 1
	.cfi_startproc
.LVL351:
	.loc 2 129 5
	.loc 2 130 5
	.loc 2 131 5
	.loc 2 133 5
	.loc 2 133 10
	.loc 2 133 17
	.loc 2 134 5
	.loc 2 134 10
	.loc 2 134 17
	.loc 2 136 5
	.loc 2 128 1 is_stmt 0
	addi	sp,sp,-64
	.cfi_def_cfa_offset 64
	sw	s0,56(sp)
	sw	s1,52(sp)
	.cfi_offset 8, -8
	.cfi_offset 9, -12
	addi	s0,sp,64
	.cfi_def_cfa 8, 0
	sw	s2,48(sp)
	sw	s3,44(sp)
	sw	ra,60(sp)
	.cfi_offset 18, -16
	.cfi_offset 19, -20
	.cfi_offset 1, -4
	.loc 2 128 1
	mv	s3,a0
	mv	s2,a2
	mv	a0,a1
.LVL352:
	.loc 2 136 17
	addi	a2,s0,-40
.LVL353:
	addi	a1,s0,-36
.LVL354:
	call	mbedtls_pk_load_file
.LVL355:
	mv	s1,a0
	.loc 2 136 7
	bne	a0,zero,.L189
	.loc 2 139 5 is_stmt 1
	.loc 2 140 15 is_stmt 0
	lw	a1,-36(s0)
	lw	a2,-40(s0)
	.loc 2 139 7
	bne	s2,zero,.L191
	.loc 2 140 9 is_stmt 1
	.loc 2 140 15 is_stmt 0
	li	a4,0
	li	a3,0
.LVL356:
.L195:
	.loc 2 142 15
	mv	a0,s3
	call	mbedtls_pk_parse_key
.LVL357:
	.loc 2 145 5
	lw	a1,-40(s0)
	.loc 2 142 15
	mv	s1,a0
.LVL358:
	.loc 2 145 5 is_stmt 1
	lw	a0,-36(s0)
	call	mbedtls_platform_zeroize
.LVL359:
	.loc 2 146 5
	lw	a0,-36(s0)
	call	mbedtls_free
.LVL360:
	.loc 2 148 5
.L189:
	.loc 2 149 1 is_stmt 0
	lw	ra,60(sp)
	.cfi_remember_state
	.cfi_restore 1
	lw	s0,56(sp)
	.cfi_restore 8
	.cfi_def_cfa 2, 64
	lw	s2,48(sp)
	.cfi_restore 18
.LVL361:
	lw	s3,44(sp)
	.cfi_restore 19
.LVL362:
	mv	a0,s1
	lw	s1,52(sp)
	.cfi_restore 9
	addi	sp,sp,64
	.cfi_def_cfa_offset 0
	jr	ra
.LVL363:
.L191:
	.cfi_restore_state
	.loc 2 142 15
	mv	a0,s2
	sw	a1,-56(s0)
	sw	a2,-52(s0)
	.loc 2 142 9 is_stmt 1
	.loc 2 142 15 is_stmt 0
	call	strlen
.LVL364:
	lw	a2,-52(s0)
	lw	a1,-56(s0)
	mv	a4,a0
	mv	a3,s2
	j	.L195
	.cfi_endproc
.LFE16:
	.size	mbedtls_pk_parse_keyfile, .-mbedtls_pk_parse_keyfile
	.section	.rodata.mbedtls_pk_parse_public_key.str1.4,"aMS",@progbits,1
	.align	2
.LC7:
	.string	"-----END RSA PUBLIC KEY-----"
	.align	2
.LC8:
	.string	"-----BEGIN RSA PUBLIC KEY-----"
	.align	2
.LC9:
	.string	"-----END PUBLIC KEY-----"
	.align	2
.LC10:
	.string	"-----BEGIN PUBLIC KEY-----"
	.section	.text.mbedtls_pk_parse_public_key,"ax",@progbits
	.align	1
	.globl	mbedtls_pk_parse_public_key
	.type	mbedtls_pk_parse_public_key, @function
mbedtls_pk_parse_public_key:
.LFB29:
	.loc 2 1435 1 is_stmt 1
	.cfi_startproc
.LVL365:
	.loc 2 1436 5
	.loc 2 1437 5
	.loc 2 1439 5
	.loc 2 1442 5
	.loc 2 1443 5
	.loc 2 1446 5
	.loc 2 1446 10
	.loc 2 1446 17
	.loc 2 1447 5
	.loc 2 1435 1 is_stmt 0
	addi	sp,sp,-64
	.cfi_def_cfa_offset 64
	sw	s0,56(sp)
	sw	ra,60(sp)
	sw	s1,52(sp)
	sw	s2,48(sp)
	sw	s3,44(sp)
	sw	s4,40(sp)
	sw	s5,36(sp)
	sw	s6,32(sp)
	.cfi_offset 8, -8
	.cfi_offset 1, -4
	.cfi_offset 9, -12
	.cfi_offset 18, -16
	.cfi_offset 19, -20
	.cfi_offset 20, -24
	.cfi_offset 21, -28
	.cfi_offset 22, -32
	addi	s0,sp,64
	.cfi_def_cfa 8, 0
	.loc 2 1447 7
	beq	a2,zero,.L205
	mv	s3,a2
	.loc 2 1449 5 is_stmt 1
	.loc 2 1449 10
	.loc 2 1449 17
	.loc 2 1452 5
	mv	s4,a1
	mv	s2,a0
	.loc 2 1455 12 is_stmt 0
	addi	s6,s3,-1
	.loc 2 1452 5
	addi	a0,s0,-44
.LVL366:
	call	mbedtls_pem_init
.LVL367:
	.loc 2 1455 5 is_stmt 1
	.loc 2 1455 12 is_stmt 0
	add	s6,s4,s6
	.loc 2 1455 7
	lbu	a5,0(s6)
	bne	a5,zero,.L198
	.loc 2 1458 9 is_stmt 1
	.loc 2 1458 15 is_stmt 0
	lui	a2,%hi(.LC7)
	lui	a1,%hi(.LC8)
	addi	a6,s0,-48
	li	a4,0
	mv	a3,s4
	addi	a2,a2,%lo(.LC7)
	addi	a1,a1,%lo(.LC8)
	addi	a0,s0,-44
	call	mbedtls_pem_read_buffer
.LVL368:
	mv	s1,a0
.LVL369:
	.loc 2 1463 5 is_stmt 1
	.loc 2 1463 7 is_stmt 0
	bne	a0,zero,.L199
	.loc 2 1465 9 is_stmt 1
	.loc 2 1465 11 is_stmt 0
	lw	a5,-44(s0)
	.loc 2 1466 25
	li	a0,1
	.loc 2 1465 11
	sw	a5,-52(s0)
	.loc 2 1466 9 is_stmt 1
	.loc 2 1466 25 is_stmt 0
	call	mbedtls_pk_info_from_type
.LVL370:
	mv	a1,a0
.LVL371:
	.loc 2 1466 11
	bne	a0,zero,.L200
.LVL372:
.L204:
	.loc 2 1467 19
	li	a0,-16384
.LVL373:
	addi	s1,a0,896
.LVL374:
.L196:
	.loc 2 1538 1
	lw	ra,60(sp)
	.cfi_remember_state
	.cfi_restore 1
	lw	s0,56(sp)
	.cfi_restore 8
	.cfi_def_cfa 2, 64
	lw	s2,48(sp)
	.cfi_restore 18
	lw	s3,44(sp)
	.cfi_restore 19
	lw	s4,40(sp)
	.cfi_restore 20
	lw	s5,36(sp)
	.cfi_restore 21
	lw	s6,32(sp)
	.cfi_restore 22
	mv	a0,s1
	lw	s1,52(sp)
	.cfi_restore 9
	addi	sp,sp,64
	.cfi_def_cfa_offset 0
	jr	ra
.LVL375:
.L200:
	.cfi_restore_state
	.loc 2 1469 9 is_stmt 1
	.loc 2 1469 21 is_stmt 0
	mv	a0,s2
.LVL376:
	call	mbedtls_pk_setup
.LVL377:
	mv	s1,a0
.LVL378:
	.loc 2 1469 11
	bne	a0,zero,.L196
	.loc 2 1472 9 is_stmt 1
	.loc 2 1472 46 is_stmt 0
	lw	a5,-40(s0)
	lw	s1,-52(s0)
.LVL379:
	.loc 2 1472 22
	lw	a1,4(s2)
	lw	a0,0(s2)
.LVL380:
	.loc 2 1472 46
	add	s1,s1,a5
	.loc 2 1472 22
	call	mbedtls_pk_rsa
.LVL381:
	mv	a2,a0
	mv	a1,s1
	addi	a0,s0,-52
	call	pk_get_rsapubkey
.LVL382:
	mv	s1,a0
.LVL383:
	.loc 2 1472 12
	beq	a0,zero,.L216
	.loc 2 1473 13 is_stmt 1
	mv	a0,s2
	call	mbedtls_pk_free
.LVL384:
	.loc 2 1475 9
.L216:
	.loc 2 1507 9
	addi	a0,s0,-44
	call	mbedtls_pem_free
.LVL385:
	.loc 2 1508 9
	.loc 2 1508 15 is_stmt 0
	j	.L196
.LVL386:
.L199:
	.loc 2 1478 10 is_stmt 1
	.loc 2 1478 12 is_stmt 0
	li	s5,-4096
	addi	s5,s5,-128
	bne	a0,s5,.L216
	.loc 2 1486 5 is_stmt 1
	.loc 2 1486 7 is_stmt 0
	lbu	a5,0(s6)
	bne	a5,zero,.L198
	.loc 2 1489 9 is_stmt 1
	.loc 2 1489 15 is_stmt 0
	lui	a2,%hi(.LC9)
	lui	a1,%hi(.LC10)
	addi	a6,s0,-48
	li	a4,0
	mv	a3,s4
	addi	a2,a2,%lo(.LC9)
	addi	a1,a1,%lo(.LC10)
	addi	a0,s0,-44
	call	mbedtls_pem_read_buffer
.LVL387:
	mv	s1,a0
.LVL388:
	.loc 2 1494 5 is_stmt 1
	.loc 2 1494 7 is_stmt 0
	bne	a0,zero,.L203
	.loc 2 1499 9 is_stmt 1
	.loc 2 1499 16 is_stmt 0
	lw	a5,-44(s0)
	.loc 2 1501 15
	lw	a1,-40(s0)
	mv	a2,s2
	addi	a0,s0,-52
	add	a1,a5,a1
	.loc 2 1499 11
	sw	a5,-52(s0)
	.loc 2 1501 9 is_stmt 1
	.loc 2 1501 15 is_stmt 0
	call	mbedtls_pk_parse_subpubkey
.LVL389:
	mv	s1,a0
.LVL390:
	.loc 2 1502 9 is_stmt 1
	j	.L216
.L203:
.LVL391:
	.loc 2 1505 10
	.loc 2 1505 12 is_stmt 0
	bne	a0,s5,.L216
.L198:
	.loc 2 1510 5 is_stmt 1
	addi	a0,s0,-44
	call	mbedtls_pem_free
.LVL392:
	.loc 2 1514 5
	.loc 2 1514 21 is_stmt 0
	li	a0,1
	call	mbedtls_pk_info_from_type
.LVL393:
	mv	a1,a0
.LVL394:
	.loc 2 1514 7
	beq	a0,zero,.L204
	.loc 2 1517 5 is_stmt 1
	.loc 2 1517 17 is_stmt 0
	mv	a0,s2
.LVL395:
	call	mbedtls_pk_setup
.LVL396:
	mv	s1,a0
.LVL397:
	.loc 2 1517 7
	bne	a0,zero,.L196
	.loc 2 1520 5 is_stmt 1
	.loc 2 1521 11 is_stmt 0
	lw	a1,4(s2)
	lw	a0,0(s2)
	.loc 2 1520 7
	sw	s4,-52(s0)
	.loc 2 1521 5 is_stmt 1
	.loc 2 1521 35 is_stmt 0
	add	s3,s4,s3
.LVL398:
	.loc 2 1521 11
	call	mbedtls_pk_rsa
.LVL399:
	mv	a2,a0
	mv	a1,s3
	addi	a0,s0,-52
	call	pk_get_rsapubkey
.LVL400:
	mv	s1,a0
.LVL401:
	.loc 2 1522 5 is_stmt 1
	.loc 2 1522 7 is_stmt 0
	beq	a0,zero,.L196
	.loc 2 1526 5 is_stmt 1
	mv	a0,s2
	call	mbedtls_pk_free
.LVL402:
	.loc 2 1527 5
	.loc 3 166 5
	.loc 3 167 5
	.loc 3 169 5
	.loc 2 1527 7 is_stmt 0
	li	a5,-16384
	addi	a5,a5,1182
	bne	s1,a5,.L196
	.loc 2 1533 5 is_stmt 1
	.loc 2 1535 11 is_stmt 0
	mv	a2,s2
	mv	a1,s3
	addi	a0,s0,-52
	.loc 2 1533 7
	sw	s4,-52(s0)
	.loc 2 1535 5 is_stmt 1
	.loc 2 1535 11 is_stmt 0
	call	mbedtls_pk_parse_subpubkey
.LVL403:
	mv	s1,a0
.LVL404:
	.loc 2 1537 5 is_stmt 1
	.loc 2 1537 11 is_stmt 0
	j	.L196
.LVL405:
.L205:
	.loc 2 1448 15
	li	a0,-16384
.LVL406:
	addi	s1,a0,768
	j	.L196
	.cfi_endproc
.LFE29:
	.size	mbedtls_pk_parse_public_key, .-mbedtls_pk_parse_public_key
	.section	.text.mbedtls_pk_parse_public_keyfile,"ax",@progbits
	.align	1
	.globl	mbedtls_pk_parse_public_keyfile
	.type	mbedtls_pk_parse_public_keyfile, @function
mbedtls_pk_parse_public_keyfile:
.LFB17:
	.loc 2 155 1 is_stmt 1
	.cfi_startproc
.LVL407:
	.loc 2 156 5
	.loc 2 157 5
	.loc 2 158 5
	.loc 2 160 5
	.loc 2 160 10
	.loc 2 160 17
	.loc 2 161 5
	.loc 2 161 10
	.loc 2 161 17
	.loc 2 163 5
	.loc 2 155 1 is_stmt 0
	addi	sp,sp,-32
	.cfi_def_cfa_offset 32
	sw	s0,24(sp)
	sw	s1,20(sp)
	.cfi_offset 8, -8
	.cfi_offset 9, -12
	addi	s0,sp,32
	.cfi_def_cfa 8, 0
	sw	s2,16(sp)
	sw	ra,28(sp)
	.cfi_offset 18, -16
	.cfi_offset 1, -4
	.loc 2 155 1
	mv	s2,a0
	.loc 2 163 17
	addi	a2,s0,-24
	.loc 2 155 1
	mv	a0,a1
.LVL408:
	.loc 2 163 17
	addi	a1,s0,-20
.LVL409:
	call	mbedtls_pk_load_file
.LVL410:
	mv	s1,a0
	.loc 2 163 7
	bne	a0,zero,.L217
	.loc 2 166 5 is_stmt 1
	.loc 2 166 11 is_stmt 0
	lw	a2,-24(s0)
	lw	a1,-20(s0)
	mv	a0,s2
.LVL411:
	call	mbedtls_pk_parse_public_key
.LVL412:
	.loc 2 168 5
	lw	a1,-24(s0)
	.loc 2 166 11
	mv	s1,a0
.LVL413:
	.loc 2 168 5 is_stmt 1
	lw	a0,-20(s0)
	call	mbedtls_platform_zeroize
.LVL414:
	.loc 2 169 5
	lw	a0,-20(s0)
	call	mbedtls_free
.LVL415:
	.loc 2 171 5
.L217:
	.loc 2 172 1 is_stmt 0
	lw	ra,28(sp)
	.cfi_restore 1
	lw	s0,24(sp)
	.cfi_restore 8
	.cfi_def_cfa 2, 32
	lw	s2,16(sp)
	.cfi_restore 18
.LVL416:
	mv	a0,s1
	lw	s1,20(sp)
	.cfi_restore 9
	addi	sp,sp,32
	.cfi_def_cfa_offset 0
	jr	ra
	.cfi_endproc
.LFE17:
	.size	mbedtls_pk_parse_public_keyfile, .-mbedtls_pk_parse_public_keyfile
	.text
.Letext0:
	.file 4 "/home/dinhquangha/Ai-Thinker-WB2/toolchain/riscv/Linux/lib/gcc/riscv64-unknown-elf/10.2.0/include/stddef.h"
	.file 5 "/home/dinhquangha/Ai-Thinker-WB2/toolchain/riscv/Linux/lib/gcc/riscv64-unknown-elf/10.2.0/include/stdint-gcc.h"
	.file 6 "/home/dinhquangha/Ai-Thinker-WB2/toolchain/riscv/Linux/riscv64-unknown-elf/include/sys/_types.h"
	.file 7 "/home/dinhquangha/Ai-Thinker-WB2/toolchain/riscv/Linux/riscv64-unknown-elf/include/sys/types.h"
	.file 8 "/home/dinhquangha/Ai-Thinker-WB2/components/security/mbedtls_lts/mbedtls/include/mbedtls/bignum.h"
	.file 9 "/home/dinhquangha/Ai-Thinker-WB2/components/security/mbedtls_lts/mbedtls/include/mbedtls/rsa.h"
	.file 10 "/home/dinhquangha/Ai-Thinker-WB2/components/security/mbedtls_lts/mbedtls/include/mbedtls/ecp.h"
	.file 11 "/home/dinhquangha/Ai-Thinker-WB2/components/security/mbedtls_lts/port/ecp_alt.h"
	.file 12 "/home/dinhquangha/Ai-Thinker-WB2/components/security/mbedtls_lts/mbedtls/include/mbedtls/asn1.h"
	.file 13 "/home/dinhquangha/Ai-Thinker-WB2/components/security/mbedtls_lts/mbedtls/include/mbedtls/pem.h"
	.file 14 "/home/dinhquangha/Ai-Thinker-WB2/components/security/mbedtls_lts/mbedtls/include/mbedtls/oid.h"
	.file 15 "/home/dinhquangha/Ai-Thinker-WB2/components/security/mbedtls_lts/mbedtls/include/mbedtls/platform_util.h"
	.file 16 "/home/dinhquangha/Ai-Thinker-WB2/components/security/mbedtls_lts/mbedtls/include/mbedtls/platform.h"
	.file 17 "/home/dinhquangha/Ai-Thinker-WB2/toolchain/riscv/Linux/riscv64-unknown-elf/include/string.h"
	.file 18 "/home/dinhquangha/Ai-Thinker-WB2/components/fs/vfs/include/vfs.h"