	.file	"bl_cks.c"
	.option nopic
	.attribute arch, "rv32i2p0_m2p0_f2p0_c2p0"
	.attribute unaligned_access, 0
	.attribute stack_align, 16
	.text
.Ltext0:
	.cfi_sections	.debug_frame
	.section	.text._cb_cmd,"ax",@progbits
	.align	1
	.type	_cb_cmd, @function
_cb_cmd:
.LFB30:
	.file 1 "/home/dinhquangha/Ai-Thinker-WB2/components/platform/hosal/bl602_hal/bl_cks.c"
	.loc 1 196 1
	.cfi_startproc
.LVL0:
	.loc 1 197 5
	.loc 1 199 5
	.loc 1 200 5
	.loc 1 201 5
	.loc 1 196 1 is_stmt 0
	addi	sp,sp,-16
	.cfi_def_cfa_offset 16
	sw	s0,12(sp)
	.cfi_offset 8, -4
	addi	s0,sp,16
	.cfi_def_cfa 8, 0
	.loc 1 201 16
	sw	zero,8(a0)
	.loc 1 202 1
	lw	s0,12(sp)
	.cfi_restore 8
	.cfi_def_cfa 2, 16
	addi	sp,sp,16
	.cfi_def_cfa_offset 0
	jr	ra
	.cfi_endproc
.LFE30:
	.size	_cb_cmd, .-_cb_cmd
	.section	.text.bl_cks_test,"ax",@progbits
	.align	1
	.globl	bl_cks_test
	.type	bl_cks_test, @function
bl_cks_test:
.LFB32:
	.loc 1 281 1 is_stmt 1
	.cfi_startproc
	.loc 1 282 5
	.loc 1 283 5
.LBB12:
.LBB13:
	.loc 1 16 5
	.loc 1 21 5
	.loc 1 25 5
	.loc 1 26 5
	.loc 1 27 5
	.loc 1 28 5
	.loc 1 30 5
.LBE13:
.LBE12:
	.loc 1 281 1 is_stmt 0
	addi	sp,sp,-128
	.cfi_def_cfa_offset 128
	sw	s0,120(sp)
	sw	ra,124(sp)
	sw	s1,116(sp)
	sw	s2,112(sp)
	sw	s3,108(sp)
	sw	s4,104(sp)
	.cfi_offset 8, -8
	.cfi_offset 1, -4
	.cfi_offset 9, -12
	.cfi_offset 18, -16
	.cfi_offset 19, -20
	.cfi_offset 20, -24
	addi	s0,sp,128
	.cfi_def_cfa 8, 0
.LBB16:
.LBB14:
	.loc 1 30 36
	li	a4,1
.LBE14:
.LBE16:
	.loc 1 281 1
.LBB17:
.LBB15:
	.loc 1 30 36
	li	a5,1073782784
	.loc 1 32 51
	lui	a2,%hi(.LANCHOR0)
	.loc 1 30 36
	sb	a4,1792(a5)
	.loc 1 31 5 is_stmt 1
.LVL1:
	.loc 1 31 17
	.loc 1 32 51 is_stmt 0
	addi	a2,a2,%lo(.LANCHOR0)
	.loc 1 31 12
	li	a4,0
	.loc 1 31 5
	li	a3,20
.LVL2:
.L4:
	.loc 1 32 9 is_stmt 1
	.loc 1 32 51 is_stmt 0
	add	a1,a2,a4
	lbu	a1,0(a1)
	.loc 1 31 41
	addi	a4,a4,1
.LVL3:
	.loc 1 32 40
	sb	a1,1796(a5)
	.loc 1 31 40 is_stmt 1
.LVL4:
	.loc 1 31 17
	.loc 1 31 5 is_stmt 0
	bne	a4,a3,.L4
	.loc 1 34 5 is_stmt 1
	.loc 1 34 9 is_stmt 0
	lhu	a4,1800(a5)
.LVL5:
	.loc 1 35 5 is_stmt 1
	.loc 1 37 5
	.loc 1 39 12 is_stmt 0
	li	a3,0
	.loc 1 37 36
	li	a4,1
	sb	a4,1792(a5)
	.loc 1 38 5 is_stmt 1
	.loc 1 38 36 is_stmt 0
	li	a4,2
	sb	a4,1792(a5)
	.loc 1 39 5 is_stmt 1
.LVL6:
	.loc 1 39 17
	.loc 1 39 5 is_stmt 0
	li	a1,20
	.loc 1 40 40
	li	a5,1073782784
.LVL7:
.L5:
	.loc 1 40 9 is_stmt 1
	.loc 1 40 51 is_stmt 0
	add	a4,a2,a3
	lbu	a0,0(a4)
	.loc 1 39 41
	addi	a3,a3,1
.LVL8:
	.loc 1 40 40
	addi	a4,a5,1796
	sb	a0,1796(a5)
	.loc 1 39 40 is_stmt 1
.LVL9:
	.loc 1 39 17
	.loc 1 39 5 is_stmt 0
	bne	a3,a1,.L5
	.loc 1 42 5 is_stmt 1
	.loc 1 42 9 is_stmt 0
	lhu	a3,1800(a5)
.LVL10:
	.loc 1 43 5 is_stmt 1
.LBE15:
.LBE17:
	.loc 1 284 5
	.loc 1 285 5
.LBB18:
.LBB19:
	.loc 1 48 5
	.loc 1 49 5
	.loc 1 50 5
	.loc 1 51 5
	.loc 1 53 5
	.loc 1 57 40 is_stmt 0
	li	a1,31
	.loc 1 53 36
	li	a3,1
	sb	a3,1792(a5)
	.loc 1 54 5 is_stmt 1
.LVL11:
	.loc 1 55 5
	.loc 1 55 17
	.loc 1 56 9
	.loc 1 57 9
	.loc 1 57 40 is_stmt 0
	sb	a1,0(a4)
	.loc 1 58 9 is_stmt 1
	.loc 1 58 40 is_stmt 0
	li	a2,63
	sb	a2,0(a4)
	.loc 1 55 24 is_stmt 1
.LVL12:
	.loc 1 55 17
	.loc 1 60 11
	.loc 1 64 5
	.loc 1 64 9 is_stmt 0
	lhu	a0,1800(a5)
.LVL13:
	.loc 1 68 6 is_stmt 1
	.loc 1 70 5
	.loc 1 70 36 is_stmt 0
	sb	a3,1792(a5)
	.loc 1 71 5 is_stmt 1
	.loc 1 71 36 is_stmt 0
	li	a0,2
	sb	a0,1792(a5)
	.loc 1 72 5 is_stmt 1
.LVL14:
	.loc 1 73 5
	.loc 1 73 17
	.loc 1 74 9
	.loc 1 75 9
	.loc 1 75 40 is_stmt 0
	sb	a1,0(a4)
	.loc 1 76 9 is_stmt 1
	.loc 1 76 40 is_stmt 0
	sb	a2,0(a4)
	.loc 1 73 24 is_stmt 1
.LVL15:
	.loc 1 73 17
	.loc 1 78 11
	.loc 1 82 5
	.loc 1 82 9 is_stmt 0
	lhu	a2,1800(a5)
	.loc 1 86 6 is_stmt 1
	.loc 1 87 5
	.loc 1 90 9
.LVL16:
.LBE19:
.LBE18:
	.loc 1 286 5
	.loc 1 287 5
.LBB20:
.LBB21:
	.loc 1 96 5
	.loc 1 97 5
	.loc 1 98 5
	.loc 1 99 5
	.loc 1 101 5
	.loc 1 101 36 is_stmt 0
	sb	a3,1792(a5)
	.loc 1 102 5 is_stmt 1
.LVL17:
	.loc 1 103 5
	.loc 1 103 17
	.loc 1 105 40 is_stmt 0
	li	a2,31
	.loc 1 101 36
	li	a5,1000
	.loc 1 106 40
	li	a3,63
.LVL18:
.L6:
	.loc 1 104 9 is_stmt 1
	.loc 1 105 9
	.loc 1 105 40 is_stmt 0
	sb	a2,0(a4)
	.loc 1 106 9 is_stmt 1
	.loc 1 106 40 is_stmt 0
	sb	a3,0(a4)
	.loc 1 103 27 is_stmt 1
.LVL19:
	.loc 1 103 17
	.loc 1 103 5 is_stmt 0
	addi	a5,a5,-1
.LVL20:
	bne	a5,zero,.L6
	.loc 1 104 18
	li	a5,16158720
.LVL21:
	.loc 1 109 49
	li	a4,65536
	.loc 1 104 18
	addi	a5,a5,280
	.loc 1 109 49
	addi	a4,a4,-1
.L7:
.LVL22:
	.loc 1 108 11 is_stmt 1
	.loc 1 108 21 is_stmt 0
	srli	a3,a5,16
	.loc 1 108 11
	bne	a3,zero,.L8
	.loc 1 112 5 is_stmt 1
	.loc 1 112 9 is_stmt 0
	li	a5,1073782784
.LVL23:
	lhu	a4,1800(a5)
.LVL24:
	.loc 1 116 6 is_stmt 1
	.loc 1 118 5
	.loc 1 123 40 is_stmt 0
	li	a2,31
	.loc 1 118 36
	li	a4,1
	sb	a4,1792(a5)
	.loc 1 119 5 is_stmt 1
	.loc 1 119 36 is_stmt 0
	li	a4,2
	sb	a4,1792(a5)
	.loc 1 120 5 is_stmt 1
.LVL25:
	.loc 1 121 5
	.loc 1 121 17
	.loc 1 124 40 is_stmt 0
	li	a3,63
	.loc 1 119 36
	li	a4,1000
	.loc 1 123 40
	addi	a5,a5,1796
.LVL26:
.L9:
	.loc 1 122 9 is_stmt 1
	.loc 1 123 9
	.loc 1 123 40 is_stmt 0
	sb	a2,0(a5)
	.loc 1 124 9 is_stmt 1
	.loc 1 124 40 is_stmt 0
	sb	a3,0(a5)
	.loc 1 121 27 is_stmt 1
.LVL27:
	.loc 1 121 17
	.loc 1 121 5 is_stmt 0
	addi	a4,a4,-1
.LVL28:
	bne	a4,zero,.L9
	.loc 1 122 18
	li	a5,16158720
	.loc 1 127 49
	li	a4,65536
.LVL29:
	.loc 1 122 18
	addi	a5,a5,280
	.loc 1 127 49
	addi	a4,a4,-1
.L10:
.LVL30:
	.loc 1 126 11 is_stmt 1
	.loc 1 126 21 is_stmt 0
	srli	a3,a5,16
	.loc 1 126 11
	bne	a3,zero,.L11
	.loc 1 130 5 is_stmt 1
	.loc 1 130 9 is_stmt 0
	li	a5,1073782784
.LVL31:
	lhu	a4,1800(a5)
	.loc 1 134 6 is_stmt 1
	.loc 1 135 5
	.loc 1 138 9
.LBE21:
.LBE20:
	.loc 1 288 5
	.loc 1 289 5
.LBB24:
.LBB25:
	.loc 1 144 5
.LVL32:
	.loc 1 145 5
	.loc 1 146 5
	.loc 1 147 5
	.loc 1 148 5
	.loc 1 150 5
	.loc 1 154 40 is_stmt 0
	li	a0,31
	.loc 1 150 36
	li	a4,1
	sb	a4,1792(a5)
	.loc 1 151 5 is_stmt 1
.LVL33:
	.loc 1 152 5
	.loc 1 152 17
	.loc 1 153 9
	.loc 1 154 9
	.loc 1 154 40 is_stmt 0
	sb	a0,1796(a5)
	.loc 1 155 9 is_stmt 1
	.loc 1 155 40 is_stmt 0
	li	a1,63
	sb	a1,1796(a5)
	.loc 1 152 24 is_stmt 1
.LVL34:
	.loc 1 152 17
	.loc 1 157 5
	.loc 1 158 5
	.loc 1 158 11
	.loc 1 161 5
	.loc 1 161 36 is_stmt 0
	li	a2,-95
	sb	a2,1796(a5)
	.loc 1 163 5 is_stmt 1
	.loc 1 163 9 is_stmt 0
	lhu	a3,1800(a5)
.LVL35:
	.loc 1 167 6 is_stmt 1
	.loc 1 169 5
	.loc 1 169 36 is_stmt 0
	sb	a4,1792(a5)
	.loc 1 170 5 is_stmt 1
	.loc 1 170 36 is_stmt 0
	li	a3,2
	sb	a3,1792(a5)
	.loc 1 171 5 is_stmt 1
.LVL36:
	.loc 1 172 5
	.loc 1 172 17
	.loc 1 173 9
	.loc 1 174 9
	.loc 1 174 40 is_stmt 0
	sb	a0,1796(a5)
	.loc 1 175 9 is_stmt 1
	.loc 1 175 40 is_stmt 0
	sb	a1,1796(a5)
	.loc 1 172 24 is_stmt 1
.LVL37:
	.loc 1 172 17
	.loc 1 177 5
	.loc 1 178 5
	.loc 1 178 11
	.loc 1 181 5
	.loc 1 181 36 is_stmt 0
	sb	a2,1796(a5)
	.loc 1 183 5 is_stmt 1
.LBE25:
.LBE24:
.LBB27:
.LBB22:
	.loc 1 130 9 is_stmt 0
	addi	s2,a5,1800
.LBE22:
.LBE27:
.LBB28:
.LBB26:
	.loc 1 150 36
	addi	s4,a5,1792
	.loc 1 154 40
	addi	s3,a5,1796
	.loc 1 183 9
	lhu	a5,1800(a5)
	.loc 1 187 6 is_stmt 1
	.loc 1 188 5
	.loc 1 191 9
.LVL38:
.LBE26:
.LBE28:
	.loc 1 290 5
	.loc 1 291 5
.LBB29:
.LBB30:
	.loc 1 206 5
	.loc 1 207 5
	.loc 1 208 5
	.loc 1 209 5
	.loc 1 216 5 is_stmt 0
	addi	s1,s0,-116
	.loc 1 209 14
	li	a5,16384
	addi	a5,a5,-225
	.loc 1 216 5
	li	a2,28
	li	a1,0
	mv	a0,s1
	.loc 1 209 14
	sh	a5,-128(s0)
	.loc 1 210 5 is_stmt 1
	.loc 1 211 14 is_stmt 0
	sw	a4,-124(s0)
	sw	a3,-120(s0)
	.loc 1 210 14
	sh	zero,-126(s0)
	.loc 1 211 5 is_stmt 1
	.loc 1 216 5
	call	memset
.LVL39:
	.loc 1 217 5
	li	a2,28
	li	a1,0
	addi	a0,s0,-88
	call	memset
.LVL40:
	.loc 1 218 5
	li	a2,28
	li	a1,0
	addi	a0,s0,-60
	call	memset
.LVL41:
	.loc 1 221 5
	.loc 1 221 17 is_stmt 0
	addi	a5,s0,-124
	.loc 1 221 15
	sw	a5,-104(s0)
	.loc 1 222 5 is_stmt 1
	.loc 1 223 18 is_stmt 0
	addi	a5,s0,-76
	.loc 1 223 16
	sw	a5,-96(s0)
	.loc 1 224 16
	li	a5,71827456
	addi	a5,a5,2
	sw	a5,-92(s0)
	.loc 1 233 14
	lui	a5,%hi(_cb_cmd)
	addi	a5,a5,%lo(_cb_cmd)
	sw	a5,-112(s0)
	.loc 1 237 18
	addi	a5,s0,-128
	.loc 1 237 16
	sw	a5,-76(s0)
	.loc 1 239 19
	addi	a5,s0,-48
	.loc 1 239 17
	sw	a5,-68(s0)
	.loc 1 240 17
	li	a5,262144
	addi	a5,a5,1000
	sw	a5,-64(s0)
	.loc 1 253 16
	addi	a5,s0,-126
	.loc 1 253 14
	sw	a5,-44(s0)
	.loc 1 255 15
	li	a5,-2145124352
	addi	a5,a5,1
	.loc 1 266 5
	mv	a0,s1
	.loc 1 222 15
	sw	s4,-100(s0)
	.loc 1 223 5 is_stmt 1
	.loc 1 224 5
	.loc 1 233 5
	.loc 1 234 5
	.loc 1 234 15 is_stmt 0
	sw	s1,-108(s0)
	.loc 1 237 5 is_stmt 1
	.loc 1 238 5
	.loc 1 238 16 is_stmt 0
	sw	s3,-72(s0)
	.loc 1 239 5 is_stmt 1
	.loc 1 240 5
	.loc 1 248 5
	.loc 1 248 15 is_stmt 0
	sw	zero,-84(s0)
	.loc 1 249 5 is_stmt 1
	.loc 1 249 16 is_stmt 0
	sw	zero,-80(s0)
	.loc 1 252 5 is_stmt 1
	.loc 1 252 14 is_stmt 0
	sw	s2,-48(s0)
	.loc 1 253 5 is_stmt 1
	.loc 1 254 5
	.loc 1 254 15 is_stmt 0
	sw	zero,-40(s0)
	.loc 1 255 5 is_stmt 1
	.loc 1 255 15 is_stmt 0
	sw	a5,-36(s0)
	.loc 1 263 5 is_stmt 1
	.loc 1 263 13 is_stmt 0
	sw	zero,-56(s0)
	.loc 1 264 5 is_stmt 1
	.loc 1 264 14 is_stmt 0
	sw	zero,-52(s0)
	.loc 1 266 5 is_stmt 1
	call	bl_dma_copy
.LVL42:
	.loc 1 270 5
.L12:
	.loc 1 270 11
	lw	a5,-108(s0)
	bne	a5,zero,.L13
	.loc 1 273 5
	.loc 1 276 9
.LBE30:
.LBE29:
	.loc 1 292 5
	.loc 1 293 1 is_stmt 0
	lw	ra,124(sp)
	.cfi_remember_state
	.cfi_restore 1
	lw	s0,120(sp)
	.cfi_restore 8
	.cfi_def_cfa 2, 128
	lw	s1,116(sp)
	.cfi_restore 9
	lw	s2,112(sp)
	.cfi_restore 18
	lw	s3,108(sp)
	.cfi_restore 19
	lw	s4,104(sp)
	.cfi_restore 20
	li	a0,0
	addi	sp,sp,128
	.cfi_def_cfa_offset 0
	jr	ra
.LVL43:
.L8:
	.cfi_restore_state
.LBB32:
.LBB23:
	.loc 1 109 9 is_stmt 1
	.loc 1 109 49 is_stmt 0
	and	a5,a5,a4
.LVL44:
	.loc 1 109 18
	add	a5,a5,a3
.LVL45:
	j	.L7
.L11:
	.loc 1 127 9 is_stmt 1
	.loc 1 127 49 is_stmt 0
	and	a5,a5,a4
.LVL46:
	.loc 1 127 18
	add	a5,a5,a3
.LVL47:
	j	.L10
.LVL48:
.L13:
.LBE23:
.LBE32:
.LBB33:
.LBB31:
	.loc 1 271 9 is_stmt 1
	li	a0,2
	call	vTaskDelay
.LVL49:
	j	.L12
.LBE31:
.LBE33:
	.cfi_endproc
.LFE32:
	.size	bl_cks_test, .-bl_cks_test
	.section	.rodata.data_src1.0,"a"
	.align	2
	.set	.LANCHOR0,. + 0
	.type	data_src1.0, @object
	.size	data_src1.0, 20
data_src1.0:
	.string	"E"
	.string	""
	.string	"s"
	.string	""
	.string	"@"
	.string	"@\021"
	.string	""
	.string	"\300\250"
	.string	"\001\300\250"
	.ascii	"\307"
	.text
.Letext0:
	.file 2 "/home/dinhquangha/Ai-Thinker-WB2/toolchain/riscv/Linux/lib/gcc/riscv64-unknown-elf/10.2.0/include/stdint-gcc.h"
	.file 3 "/home/dinhquangha/Ai-Thinker-WB2/components/utils/include/utils_list.h"
	.file 4 "/home/dinhquangha/Ai-Thinker-WB2/components/platform/hosal/bl602_hal/bl_dma.h"
	.file 5 "/home/dinhquangha/Ai-Thinker-WB2/toolchain/riscv/Linux/riscv64-unknown-elf/include/string.h"
	.file 6 "/home/dinhquangha/Ai-Thinker-WB2/components/platform/soc/bl602/freertos_riscv_ram/config/task.h"