	.file	"bl_dma.c"
	.option nopic
	.attribute arch, "rv32i2p0_m2p0_f2p0_c2p0"
	.attribute unaligned_access, 0
	.attribute stack_align, 16
	.text
.Ltext0:
	.cfi_sections	.debug_frame
	.section	.text._cb_cmd,"ax",@progbits
	.align	1
	.type	_cb_cmd, @function
_cb_cmd:
.LFB44:
	.file 1 "/home/dinhquangha/intern/Ai-Thinker-WB2/components/platform/hosal/bl602_hal/bl_dma.c"
	.loc 1 391 1
	.cfi_startproc
.LVL0:
	.loc 1 392 5
	.loc 1 394 5
	.loc 1 395 5
	.loc 1 396 5
	.loc 1 391 1 is_stmt 0
	addi	sp,sp,-16
	.cfi_def_cfa_offset 16
	sw	s0,12(sp)
	.cfi_offset 8, -4
	addi	s0,sp,16
	.cfi_def_cfa 8, 0
	.loc 1 396 16
	sw	zero,8(a0)
	.loc 1 397 1
	lw	s0,12(sp)
	.cfi_restore 8
	.cfi_def_cfa 2, 16
	addi	sp,sp,16
	.cfi_def_cfa_offset 0
	jr	ra
	.cfi_endproc
.LFE44:
	.size	_cb_cmd, .-_cb_cmd
	.section	.text.bl_dma_int_process,"ax",@progbits
	.align	1
	.type	bl_dma_int_process, @function
bl_dma_int_process:
.LFB38:
	.loc 1 205 1 is_stmt 1
	.cfi_startproc
	.loc 1 206 5
	.loc 1 207 5
	.loc 1 208 5
	.loc 1 209 5
	.loc 1 210 5
	.loc 1 211 5
	.loc 1 212 5
.LVL1:
	.loc 1 213 5
	.loc 1 215 5
	.loc 1 205 1 is_stmt 0
	addi	sp,sp,-64
	.cfi_def_cfa_offset 64
	sw	s0,56(sp)
	sw	s3,44(sp)
	sw	s4,40(sp)
	sw	s6,32(sp)
	sw	s8,24(sp)
	sw	ra,60(sp)
	sw	s1,52(sp)
	sw	s2,48(sp)
	sw	s5,36(sp)
	sw	s7,28(sp)
	sw	s9,20(sp)
	.cfi_offset 8, -8
	.cfi_offset 19, -20
	.cfi_offset 20, -24
	.cfi_offset 22, -32
	.cfi_offset 24, -40
	.cfi_offset 1, -4
	.cfi_offset 9, -12
	.cfi_offset 18, -16
	.cfi_offset 21, -28
	.cfi_offset 23, -36
	.cfi_offset 25, -44
	addi	s0,sp,64
	.cfi_def_cfa 8, 0
	.loc 1 215 12
	li	a5,1073790976
	.loc 1 217 5
	addi	a1,s0,-52
	li	a0,31
	.loc 1 215 12
	lw	s1,4(a5)
.LVL2:
	.loc 1 216 5 is_stmt 1
	.loc 1 218 13 is_stmt 0
	li	s3,0
	.loc 1 216 16
	lw	s7,12(a5)
.LVL3:
	.loc 1 217 5 is_stmt 1
	.loc 1 219 78 is_stmt 0
	li	s8,1
	.loc 1 217 5
	call	bl_irq_ctx_get
.LVL4:
	.loc 1 218 5 is_stmt 1
	.loc 1 218 18
	.loc 1 225 24 is_stmt 0
	li	s4,1073790976
	.loc 1 218 5
	li	s6,4
.LVL5:
.L14:
	.loc 1 219 9 is_stmt 1
	.loc 1 219 78 is_stmt 0
	sll	a5,s8,s3
	.loc 1 219 73
	and	s5,a5,s1
.LVL6:
	.loc 1 220 9 is_stmt 1
	.loc 1 220 81 is_stmt 0
	and	s9,a5,s7
.LVL7:
	.loc 1 222 9 is_stmt 1
	.loc 1 222 11 is_stmt 0
	bne	s5,zero,.L4
	.loc 1 222 27 discriminator 1
	beq	s9,zero,.L5
.L7:
.LVL8:
	.loc 1 234 17 is_stmt 1
	.loc 1 234 24 is_stmt 0
	lw	s1,16(s4)
.LVL9:
	.loc 1 235 17 is_stmt 1
	.loc 1 236 17
	.loc 1 237 17
	.loc 1 237 24 is_stmt 0
	or	s1,a5,s1
.LVL10:
	.loc 1 238 17 is_stmt 1
	.loc 1 238 72 is_stmt 0
	sw	s1,16(s4)
.L6:
	.loc 1 241 13 is_stmt 1
	.loc 1 241 64 is_stmt 0
	lw	a5,-52(s0)
	.loc 1 241 23
	lw	a5,0(a5)
	lw	s2,4(a5)
.LVL11:
.L8:
	.loc 1 241 136 is_stmt 1 discriminator 1
	.loc 1 241 164 is_stmt 0 discriminator 1
	lw	a5,-52(s0)
	.loc 1 241 13 discriminator 1
	lw	a5,0(a5)
	bne	s2,a5,.L13
.LVL12:
.L5:
	.loc 1 218 35 is_stmt 1 discriminator 2
	.loc 1 218 37 is_stmt 0 discriminator 2
	addi	s3,s3,1
.LVL13:
	.loc 1 218 18 is_stmt 1 discriminator 2
	.loc 1 218 5 is_stmt 0 discriminator 2
	bne	s3,s6,.L14
	.loc 1 258 1
	lw	ra,60(sp)
	.cfi_remember_state
	.cfi_restore 1
	lw	s0,56(sp)
	.cfi_restore 8
	.cfi_def_cfa 2, 64
	lw	s1,52(sp)
	.cfi_restore 9
.LVL14:
	lw	s2,48(sp)
	.cfi_restore 18
	lw	s3,44(sp)
	.cfi_restore 19
.LVL15:
	lw	s4,40(sp)
	.cfi_restore 20
	lw	s5,36(sp)
	.cfi_restore 21
.LVL16:
	lw	s6,32(sp)
	.cfi_restore 22
	lw	s7,28(sp)
	.cfi_restore 23
.LVL17:
	lw	s8,24(sp)
	.cfi_restore 24
	lw	s9,20(sp)
	.cfi_restore 25
.LVL18:
	addi	sp,sp,64
	.cfi_def_cfa_offset 0
	jr	ra
.LVL19:
.L4:
	.cfi_restore_state
	.loc 1 223 13 is_stmt 1
	.loc 1 225 17
	.loc 1 225 24 is_stmt 0
	lw	s1,8(s4)
.LVL20:
	.loc 1 226 17 is_stmt 1
	.loc 1 227 17
	.loc 1 228 17
	.loc 1 228 24 is_stmt 0
	or	s1,a5,s1
.LVL21:
	.loc 1 229 17 is_stmt 1
	.loc 1 229 71 is_stmt 0
	sw	s1,8(s4)
	.loc 1 232 13 is_stmt 1
	.loc 1 232 16 is_stmt 0
	beq	s9,zero,.L6
	j	.L7
.LVL22:
.L13:
	.loc 1 242 17 is_stmt 1
	.loc 1 242 20 is_stmt 0
	lw	a5,8(s2)
	bne	a5,s3,.L10
	.loc 1 243 21 is_stmt 1
	.loc 1 243 29 is_stmt 0
	lw	a5,12(s2)
	.loc 1 243 24
	beq	a5,zero,.L11
	.loc 1 243 49 discriminator 1
	beq	s5,zero,.L11
	.loc 1 244 25 is_stmt 1
.LVL23:
	.loc 1 245 25
	jalr	a5
.LVL24:
.L11:
	.loc 1 248 21
	.loc 1 248 29 is_stmt 0
	lw	a5,16(s2)
	.loc 1 248 24
	beq	a5,zero,.L10
	.loc 1 248 53 discriminator 1
	beq	s9,zero,.L10
	.loc 1 249 25 is_stmt 1
.LVL25:
	.loc 1 250 25
	jalr	a5
.LVL26:
.L10:
	.loc 1 241 177 discriminator 2
	.loc 1 241 182 is_stmt 0 discriminator 2
	lw	s2,4(s2)
.LVL27:
	j	.L8
	.cfi_endproc
.LFE38:
	.size	bl_dma_int_process, .-bl_dma_int_process
	.section	.text.bl_dma_irq_register.part.0,"ax",@progbits
	.align	1
	.type	bl_dma_irq_register.part.0, @function
bl_dma_irq_register.part.0:
.LFB47:
	.loc 1 260 5 is_stmt 1
	.cfi_startproc
.LVL28:
	.loc 1 272 5
	.loc 1 260 5 is_stmt 0
	addi	sp,sp,-48
	.cfi_def_cfa_offset 48
	sw	s0,40(sp)
	sw	s1,36(sp)
	.cfi_offset 8, -8
	.cfi_offset 9, -12
	addi	s0,sp,48
	.cfi_def_cfa 8, 0
	sw	s2,32(sp)
	sw	s3,28(sp)
	sw	s4,24(sp)
	sw	ra,44(sp)
	.cfi_offset 18, -16
	.cfi_offset 19, -20
	.cfi_offset 20, -24
	.cfi_offset 1, -4
	.loc 1 260 5
	mv	s1,a0
	mv	s4,a1
	.loc 1 272 5
	li	a0,31
.LVL29:
	addi	a1,s0,-36
.LVL30:
	.loc 1 260 5
	mv	s3,a2
	mv	s2,a3
	.loc 1 272 5
	call	bl_irq_ctx_get
.LVL31:
	.loc 1 273 5 is_stmt 1
	.loc 1 273 56 is_stmt 0
	lw	a5,-36(s0)
	lw	a4,0(a5)
	.loc 1 273 15
	lw	a5,4(a4)
.LVL32:
.L33:
	.loc 1 273 128 is_stmt 1
	.loc 1 273 5 is_stmt 0
	bne	a4,a5,.L35
	.loc 1 279 5 is_stmt 1
	.loc 1 279 15 is_stmt 0
	li	a0,24
	call	pvPortMalloc
.LVL33:
	.loc 1 280 5 is_stmt 1
	.loc 1 281 9
	.loc 1 283 5
	.loc 1 287 5 is_stmt 0
	lw	a5,-36(s0)
	.loc 1 283 22
	sw	s1,8(a0)
	.loc 1 284 5 is_stmt 1
	.loc 1 284 25 is_stmt 0
	sw	s4,12(a0)
	.loc 1 285 5 is_stmt 1
	.loc 1 285 29 is_stmt 0
	sw	s3,16(a0)
	.loc 1 286 5 is_stmt 1
	.loc 1 286 18 is_stmt 0
	sw	s2,20(a0)
	.loc 1 287 5 is_stmt 1
	lw	a5,0(a5)
.LVL34:
.LBB20:
.LBB21:
	.file 2 "/home/dinhquangha/intern/Ai-Thinker-WB2/components/utils/include/utils_list.h"
	.loc 2 286 5
	.loc 2 286 41 is_stmt 0
	lw	a4,4(a5)
.LVL35:
.LBB22:
.LBB23:
	.loc 2 266 5 is_stmt 1
	.loc 2 267 16 is_stmt 0
	sw	a5,0(a0)
	.loc 2 266 16
	sw	a4,4(a0)
	.loc 2 267 5 is_stmt 1
	.loc 2 269 5
	.loc 2 269 16 is_stmt 0
	sw	a0,4(a5)
	.loc 2 270 5 is_stmt 1
	.loc 2 270 16 is_stmt 0
	sw	a0,0(a4)
.LVL36:
.LBE23:
.LBE22:
.LBE21:
.LBE20:
	.loc 1 289 5 is_stmt 1
.L32:
	.loc 1 290 1 is_stmt 0
	lw	ra,44(sp)
	.cfi_remember_state
	.cfi_restore 1
	lw	s0,40(sp)
	.cfi_restore 8
	.cfi_def_cfa 2, 48
	lw	s1,36(sp)
	.cfi_restore 9
.LVL37:
	lw	s2,32(sp)
	.cfi_restore 18
.LVL38:
	lw	s3,28(sp)
	.cfi_restore 19
.LVL39:
	lw	s4,24(sp)
	.cfi_restore 20
.LVL40:
	addi	sp,sp,48
	.cfi_def_cfa_offset 0
	jr	ra
.LVL41:
.L35:
	.cfi_restore_state
	.loc 1 274 9 is_stmt 1
	.loc 1 274 12 is_stmt 0
	lw	a3,8(a5)
	beq	a3,s1,.L32
	.loc 1 273 169 is_stmt 1
	.loc 1 273 174 is_stmt 0
	lw	a5,4(a5)
.LVL42:
	j	.L33
	.cfi_endproc
.LFE47:
	.size	bl_dma_irq_register.part.0, .-bl_dma_irq_register.part.0
	.section	.text.bl_dma_int_clear,"ax",@progbits
	.align	1
	.globl	bl_dma_int_clear
	.type	bl_dma_int_clear, @function
bl_dma_int_clear:
.LFB30:
	.loc 1 46 1 is_stmt 1
	.cfi_startproc
.LVL43:
	.loc 1 47 5
	.loc 1 48 5
	.loc 1 50 5
	.loc 1 52 5
	.loc 1 46 1 is_stmt 0
	addi	sp,sp,-16
	.cfi_def_cfa_offset 16
	sw	s0,12(sp)
	.cfi_offset 8, -4
	addi	s0,sp,16
	.cfi_def_cfa 8, 0
	.loc 1 52 12
	li	a3,1073790976
	lw	a4,4(a3)
.LVL44:
	.loc 1 53 5 is_stmt 1
	.loc 1 53 68 is_stmt 0
	li	a5,1
	sll	a0,a5,a0
.LVL45:
	.loc 1 53 63
	and	a4,a0,a4
.LVL46:
	andi	a4,a4,255
	.loc 1 53 7
	beq	a4,zero,.L38
	.loc 1 55 9 is_stmt 1
	.loc 1 55 16 is_stmt 0
	lw	a5,8(a3)
.LVL47:
	.loc 1 56 9 is_stmt 1
	.loc 1 57 9
	.loc 1 58 9
	.loc 1 58 16 is_stmt 0
	or	a5,a0,a5
.LVL48:
	.loc 1 59 9 is_stmt 1
	.loc 1 59 47 is_stmt 0
	sw	a5,8(a3)
.LVL49:
.L38:
	.loc 1 62 5 is_stmt 1
	.loc 1 62 12 is_stmt 0
	li	a4,1073790976
	lw	a5,12(a4)
.LVL50:
	.loc 1 63 5 is_stmt 1
	.loc 1 63 63 is_stmt 0
	and	a5,a0,a5
.LVL51:
	andi	a5,a5,255
	.loc 1 63 7
	beq	a5,zero,.L39
	.loc 1 65 9 is_stmt 1
	.loc 1 65 16 is_stmt 0
	lw	a5,16(a4)
.LVL52:
	.loc 1 66 9 is_stmt 1
	.loc 1 67 9
	.loc 1 68 9
	.loc 1 68 16 is_stmt 0
	or	a0,a0,a5
.LVL53:
	.loc 1 69 9 is_stmt 1
	.loc 1 69 48 is_stmt 0
	sw	a0,16(a4)
.LVL54:
.L39:
	.loc 1 72 5 is_stmt 1
	.loc 1 73 1 is_stmt 0
	lw	s0,12(sp)
	.cfi_restore 8
	.cfi_def_cfa 2, 16
	li	a0,0
	addi	sp,sp,16
	.cfi_def_cfa_offset 0
	jr	ra
	.cfi_endproc
.LFE30:
	.size	bl_dma_int_clear, .-bl_dma_int_clear
	.section	.text.bl_dma_IRQHandler,"ax",@progbits
	.align	1
	.globl	bl_dma_IRQHandler
	.type	bl_dma_IRQHandler, @function
bl_dma_IRQHandler:
.LFB35:
	.loc 1 127 1 is_stmt 1
	.cfi_startproc
	.loc 1 128 5
	.loc 1 131 5
	.loc 1 127 1 is_stmt 0
	addi	sp,sp,-16
	.cfi_def_cfa_offset 16
	sw	s0,8(sp)
	sw	s1,4(sp)
	sw	ra,12(sp)
	.cfi_offset 8, -8
	.cfi_offset 9, -12
	.cfi_offset 1, -4
	addi	s0,sp,16
	.cfi_def_cfa 8, 0
	.loc 1 131 5
	li	a0,0
	call	bl_dma_int_clear
.LVL55:
	.loc 1 132 5 is_stmt 1
	.loc 1 132 34 is_stmt 0
	lui	s1,%hi(.LANCHOR0)
	addi	a0,s1,%lo(.LANCHOR0)
	call	utils_list_pop_front
.LVL56:
	.loc 1 133 5 is_stmt 1
	.loc 1 133 8 is_stmt 0
	bne	a0,zero,.L48
.L49:
	.loc 1 134 9 is_stmt 1 discriminator 1
	.loc 1 135 9 discriminator 1
	.loc 1 136 9 discriminator 1
	.loc 1 135 15 discriminator 1
	j	.L49
.L48:
	.loc 1 138 5
	.loc 1 138 14 is_stmt 0
	lw	a5,4(a0)
	.loc 1 138 8
	beq	a5,zero,.L50
	.loc 1 139 9 is_stmt 1
	lw	a0,8(a0)
.LVL57:
	jalr	a5
.LVL58:
.L50:
	.loc 1 143 5
.LBB28:
.LBB29:
	.loc 2 226 5
	.loc 2 226 16 is_stmt 0
	lw	a1,%lo(.LANCHOR0)(s1)
.LVL59:
.LBE29:
.LBE28:
	.loc 1 144 5 is_stmt 1
	.loc 1 144 8 is_stmt 0
	beq	a1,zero,.L47
	.loc 1 145 9 is_stmt 1
.LVL60:
.LBB30:
.LBB31:
	.loc 1 112 5
	li	a0,0
	addi	a1,a1,12
.LVL61:
	call	DMA_LLI_Update
.LVL62:
	.loc 1 113 5
.LBE31:
.LBE30:
	.loc 1 147 1 is_stmt 0
	lw	s0,8(sp)
	.cfi_remember_state
	.cfi_restore 8
	.cfi_def_cfa 2, 16
	lw	ra,12(sp)
	.cfi_restore 1
	lw	s1,4(sp)
	.cfi_restore 9
.LBB34:
.LBB32:
	.loc 1 113 5
	li	a0,0
.LBE32:
.LBE34:
	.loc 1 147 1
	addi	sp,sp,16
	.cfi_def_cfa_offset 0
.LBB35:
.LBB33:
	.loc 1 113 5
	tail	DMA_Channel_Enable
.LVL63:
.L47:
	.cfi_restore_state
.LBE33:
.LBE35:
	.loc 1 147 1
	lw	ra,12(sp)
	.cfi_restore 1
	lw	s0,8(sp)
	.cfi_restore 8
	.cfi_def_cfa 2, 16
	lw	s1,4(sp)
	.cfi_restore 9
	addi	sp,sp,16
	.cfi_def_cfa_offset 0
	jr	ra
	.cfi_endproc
.LFE35:
	.size	bl_dma_IRQHandler, .-bl_dma_IRQHandler
	.section	.text.bl_dma_update_memsrc,"ax",@progbits
	.align	1
	.globl	bl_dma_update_memsrc
	.type	bl_dma_update_memsrc, @function
bl_dma_update_memsrc:
.LFB31:
	.loc 1 76 1 is_stmt 1
	.cfi_startproc
.LVL64:
	.loc 1 77 5
	.loc 1 79 5
	.loc 1 76 1 is_stmt 0
	addi	sp,sp,-16
	.cfi_def_cfa_offset 16
	.loc 1 79 14
	li	a4,1073790976
	.loc 1 76 1
	sw	s0,12(sp)
	.loc 1 79 58
	slli	a0,a0,8
.LVL65:
	.loc 1 82 5 is_stmt 1
	.loc 1 85 5
	.cfi_offset 8, -4
	.loc 1 76 1 is_stmt 0
	addi	s0,sp,16
	.cfi_def_cfa 8, 0
	.loc 1 79 14
	addi	a3,a4,256
	.loc 1 76 1
	.loc 1 79 14
	add	a3,a0,a3
	.loc 1 87 44
	addi	a4,a4,268
	.loc 1 85 43
	sw	a1,0(a3)
	.loc 1 87 5 is_stmt 1
	.loc 1 87 44 is_stmt 0
	add	a0,a0,a4
.LVL66:
	.loc 1 87 12
	lw	a5,0(a0)
.LVL67:
	.loc 1 88 5 is_stmt 1
	.loc 1 88 25 is_stmt 0
	li	a4,-4096
	and	a5,a5,a4
.LVL68:
	.loc 1 88 12
	or	a5,a5,a2
.LVL69:
	.loc 1 89 5 is_stmt 1
	.loc 1 89 43 is_stmt 0
	sw	a5,0(a0)
	.loc 1 90 1
	lw	s0,12(sp)
	.cfi_restore 8
	.cfi_def_cfa 2, 16
	addi	sp,sp,16
	.cfi_def_cfa_offset 0
	jr	ra
	.cfi_endproc
.LFE31:
	.size	bl_dma_update_memsrc, .-bl_dma_update_memsrc
	.section	.text.bl_dma_update_memdst,"ax",@progbits
	.align	1
	.globl	bl_dma_update_memdst
	.type	bl_dma_update_memdst, @function
bl_dma_update_memdst:
.LFB32:
	.loc 1 93 1 is_stmt 1
	.cfi_startproc
.LVL70:
	.loc 1 94 5
	.loc 1 96 5
	.loc 1 93 1 is_stmt 0
	addi	sp,sp,-16
	.cfi_def_cfa_offset 16
	.loc 1 102 35
	li	a4,1073790976
	.loc 1 93 1
	sw	s0,12(sp)
	.loc 1 96 58
	slli	a0,a0,8
.LVL71:
	.loc 1 99 5 is_stmt 1
	.loc 1 102 5
	.cfi_offset 8, -4
	.loc 1 93 1 is_stmt 0
	addi	s0,sp,16
	.cfi_def_cfa 8, 0
	.loc 1 102 35
	addi	a3,a4,260
	.loc 1 93 1
	.loc 1 102 35
	add	a3,a0,a3
	.loc 1 104 44
	addi	a4,a4,268
	.loc 1 102 43
	sw	a1,0(a3)
	.loc 1 104 5 is_stmt 1
	.loc 1 104 44 is_stmt 0
	add	a0,a0,a4
.LVL72:
	.loc 1 104 12
	lw	a5,0(a0)
.LVL73:
	.loc 1 105 5 is_stmt 1
	.loc 1 105 25 is_stmt 0
	li	a4,-4096
	and	a5,a5,a4
.LVL74:
	.loc 1 105 12
	or	a5,a5,a2
.LVL75:
	.loc 1 106 5 is_stmt 1
	.loc 1 106 43 is_stmt 0
	sw	a5,0(a0)
	.loc 1 107 1
	lw	s0,12(sp)
	.cfi_restore 8
	.cfi_def_cfa 2, 16
	addi	sp,sp,16
	.cfi_def_cfa_offset 0
	jr	ra
	.cfi_endproc
.LFE32:
	.size	bl_dma_update_memdst, .-bl_dma_update_memdst
	.section	.text.bl_dma_copy,"ax",@progbits
	.align	1
	.globl	bl_dma_copy
	.type	bl_dma_copy, @function
bl_dma_copy:
.LFB34:
	.loc 1 117 1 is_stmt 1
	.cfi_startproc
.LVL76:
	.loc 1 118 5
	.loc 1 117 1 is_stmt 0
	addi	sp,sp,-16
	.cfi_def_cfa_offset 16
	sw	s0,8(sp)
	sw	s1,4(sp)
	sw	s2,0(sp)
	sw	ra,12(sp)
	.cfi_offset 8, -8
	.cfi_offset 9, -12
	.cfi_offset 18, -16
	.cfi_offset 1, -4
	addi	s0,sp,16
	.cfi_def_cfa 8, 0
	.loc 1 117 1
	mv	s2,a0
	.loc 1 118 5
	call	vTaskEnterCritical
.LVL77:
	.loc 1 119 5 is_stmt 1
.LBB40:
.LBB41:
	.loc 2 201 5
	.loc 2 201 24 is_stmt 0
	lui	a5,%hi(.LANCHOR0)
.LBE41:
.LBE40:
	.loc 1 119 8
	lw	a4,%lo(.LANCHOR0)(a5)
	mv	s1,a5
	bne	a4,zero,.L61
	.loc 1 120 9 is_stmt 1
.LVL78:
.LBB42:
.LBB43:
	.loc 1 112 5
	li	a0,0
	addi	a1,s2,12
	call	DMA_LLI_Update
.LVL79:
	.loc 1 113 5
	li	a0,0
	call	DMA_Channel_Enable
.LVL80:
.L61:
.LBE43:
.LBE42:
	.loc 1 122 5
	mv	a1,s2
	addi	a0,s1,%lo(.LANCHOR0)
	call	utils_list_push_back
.LVL81:
	.loc 1 123 5
	.loc 1 124 1 is_stmt 0
	lw	s0,8(sp)
	.cfi_restore 8
	.cfi_def_cfa 2, 16
	lw	ra,12(sp)
	.cfi_restore 1
	lw	s1,4(sp)
	.cfi_restore 9
	lw	s2,0(sp)
	.cfi_restore 18
.LVL82:
	addi	sp,sp,16
	.cfi_def_cfa_offset 0
	.loc 1 123 5
	tail	vTaskExitCritical
.LVL83:
	.cfi_endproc
.LFE34:
	.size	bl_dma_copy, .-bl_dma_copy
	.section	.text.bl_dma_mem_malloc,"ax",@progbits
	.align	1
	.globl	bl_dma_mem_malloc
	.type	bl_dma_mem_malloc, @function
bl_dma_mem_malloc:
.LFB36:
	.loc 1 150 1 is_stmt 1
	.cfi_startproc
.LVL84:
	.loc 1 151 5
	.loc 1 152 5
	.loc 1 153 5
	.loc 1 154 5
	.loc 1 155 5
	.loc 1 157 5
	.loc 1 158 5
	.loc 1 160 5
	.loc 1 150 1 is_stmt 0
	addi	sp,sp,-64
	.cfi_def_cfa_offset 64
	sw	ra,60(sp)
	sw	s0,56(sp)
	sw	s2,48(sp)
	.cfi_offset 1, -4
	.cfi_offset 8, -8
	.cfi_offset 18, -16
	addi	s0,sp,64
	.cfi_def_cfa 8, 0
	sw	s3,44(sp)
	sw	s1,52(sp)
	sw	s4,40(sp)
	sw	s5,36(sp)
	sw	s6,32(sp)
	sw	s7,28(sp)
	sw	s8,24(sp)
	sw	s9,20(sp)
	.cfi_offset 19, -20
	.cfi_offset 9, -12
	.cfi_offset 20, -24
	.cfi_offset 21, -28
	.cfi_offset 22, -32
	.cfi_offset 23, -36
	.cfi_offset 24, -40
	.cfi_offset 25, -44
	.loc 1 150 1
	mv	s3,a0
	.loc 1 160 21
	call	xPortGetFreeHeapSize
.LVL85:
	.loc 1 161 5 is_stmt 1
	.loc 1 160 44 is_stmt 0
	srli	a2,a0,10
	.loc 1 160 19
	addi	a2,a2,1
.LVL86:
	.loc 1 161 46
	slli	a2,a2,2
.LVL87:
	.loc 1 161 19
	mv	a0,a2
.LVL88:
	sw	a2,-52(s0)
	call	pvPortMalloc
.LVL89:
	.loc 1 162 5
	lw	a2,-52(s0)
	.loc 1 161 19
	mv	s2,a0
.LVL90:
	.loc 1 162 5 is_stmt 1
	li	a1,0
	call	memset
.LVL91:
	.loc 1 163 5
	.loc 1 163 8 is_stmt 0
	beq	s2,zero,.L63
	.loc 1 182 13
	li	s5,268435456
	mv	s9,s2
	.loc 1 168 12
	li	s4,0
	.loc 1 171 30
	li	s8,1023
	.loc 1 182 13
	addi	s5,s5,-1
	.loc 1 182 12
	li	s7,-33636352
	li	s6,229376
.L66:
.LVL92:
	.loc 1 169 5 is_stmt 1
	.loc 1 170 9
	.loc 1 170 21 is_stmt 0
	call	xPortGetFreeHeapSize
.LVL93:
	.loc 1 171 9 is_stmt 1
	.loc 1 171 12 is_stmt 0
	bltu	a0,s3,.L70
	.loc 1 171 30 discriminator 1
	bleu	a0,s8,.L70
	.loc 1 176 9 is_stmt 1
	.loc 1 176 15 is_stmt 0
	li	a0,1024
.LVL94:
	call	pvPortMalloc
.LVL95:
	mv	s1,a0
.LVL96:
	.loc 1 177 9 is_stmt 1
	.loc 1 177 12 is_stmt 0
	beq	a0,zero,.L65
	.loc 1 181 9 is_stmt 1
	.loc 1 182 13 is_stmt 0
	and	s1,a0,s5
.LVL97:
	.loc 1 181 31
	sw	a0,0(s9)
	.loc 1 182 12
	add	s1,s1,s7
	.loc 1 181 27
	addi	s4,s4,1
.LVL98:
	.loc 1 182 9 is_stmt 1
	.loc 1 182 12 is_stmt 0
	addi	s9,s9,4
	bgtu	s1,s6,.L66
	.loc 1 183 13 is_stmt 1
	.loc 1 184 17
	.loc 1 184 23 is_stmt 0
	mv	a0,s3
.LVL99:
	call	pvPortMalloc
.LVL100:
	mv	s1,a0
.LVL101:
	.loc 1 185 17 is_stmt 1
.L65:
	.loc 1 191 5
	.loc 1 191 16 is_stmt 0
	li	s3,0
.LVL102:
.L67:
	.loc 1 191 21 is_stmt 1 discriminator 1
	.loc 1 191 5 is_stmt 0 discriminator 1
	bne	s4,s3,.L68
	.loc 1 195 5 is_stmt 1
	mv	a0,s2
	call	vPortFree
.LVL103:
	.loc 1 196 5
	.loc 1 196 12 is_stmt 0
	mv	s2,s1
.LVL104:
.L63:
	.loc 1 197 1
	lw	ra,60(sp)
	.cfi_remember_state
	.cfi_restore 1
	lw	s0,56(sp)
	.cfi_restore 8
	.cfi_def_cfa 2, 64
	lw	s1,52(sp)
	.cfi_restore 9
	lw	s3,44(sp)
	.cfi_restore 19
	lw	s4,40(sp)
	.cfi_restore 20
	lw	s5,36(sp)
	.cfi_restore 21
	lw	s6,32(sp)
	.cfi_restore 22
	lw	s7,28(sp)
	.cfi_restore 23
	lw	s8,24(sp)
	.cfi_restore 24
	lw	s9,20(sp)
	.cfi_restore 25
	mv	a0,s2
	lw	s2,48(sp)
	.cfi_restore 18
	addi	sp,sp,64
	.cfi_def_cfa_offset 0
	jr	ra
.LVL105:
.L70:
	.cfi_restore_state
	.loc 1 172 17
	li	s1,0
	j	.L65
.LVL106:
.L68:
	.loc 1 192 9 is_stmt 1 discriminator 3
	.loc 1 192 42 is_stmt 0 discriminator 3
	slli	a5,s3,2
	add	a5,s2,a5
	.loc 1 192 9 discriminator 3
	lw	a0,0(a5)
	.loc 1 191 42 discriminator 3
	addi	s3,s3,1
.LVL107:
	.loc 1 192 9 discriminator 3
	call	vPortFree
.LVL108:
	.loc 1 191 37 is_stmt 1 discriminator 3
	j	.L67
	.cfi_endproc
.LFE36:
	.size	bl_dma_mem_malloc, .-bl_dma_mem_malloc
	.section	.text.bl_dma_mem_free,"ax",@progbits
	.align	1
	.globl	bl_dma_mem_free
	.type	bl_dma_mem_free, @function
bl_dma_mem_free:
.LFB37:
	.loc 1 200 1
	.cfi_startproc
.LVL109:
	.loc 1 201 5
	.loc 1 200 1 is_stmt 0
	addi	sp,sp,-16
	.cfi_def_cfa_offset 16
	sw	s0,12(sp)
	.cfi_offset 8, -4
	addi	s0,sp,16
	.cfi_def_cfa 8, 0
	.loc 1 202 1
	lw	s0,12(sp)
	.cfi_restore 8
	.cfi_def_cfa 2, 16
	addi	sp,sp,16
	.cfi_def_cfa_offset 0
	.loc 1 201 5
	tail	vPortFree
.LVL110:
	.cfi_endproc
.LFE37:
	.size	bl_dma_mem_free, .-bl_dma_mem_free
	.section	.text.bl_dma_irq_register,"ax",@progbits
	.align	1
	.globl	bl_dma_irq_register
	.type	bl_dma_irq_register, @function
bl_dma_irq_register:
.LFB39:
	.loc 1 261 1 is_stmt 1
	.cfi_startproc
.LVL111:
	.loc 1 262 5
	.loc 1 263 5
	.loc 1 264 5
	.loc 1 266 5
	.loc 1 266 8 is_stmt 0
	li	a4,4
	bgtu	a0,a4,.L87
	.loc 1 266 47 discriminator 1
	beq	a1,zero,.L87
	.loc 1 261 1
	addi	sp,sp,-16
	.cfi_def_cfa_offset 16
	sw	s0,8(sp)
	sw	ra,12(sp)
	.cfi_offset 8, -8
	.cfi_offset 1, -4
	addi	s0,sp,16
	.cfi_def_cfa 8, 0
	call	bl_dma_irq_register.part.0
.LVL112:
	.loc 1 290 1
	lw	ra,12(sp)
	.cfi_restore 1
	lw	s0,8(sp)
	.cfi_restore 8
	.cfi_def_cfa 2, 16
	li	a0,-1
	addi	sp,sp,16
	.cfi_def_cfa_offset 0
	jr	ra
.LVL113:
.L87:
	li	a0,-1
.LVL114:
	ret
	.cfi_endproc
.LFE39:
	.size	bl_dma_irq_register, .-bl_dma_irq_register
	.section	.text.bl_dma_find_node_by_channel,"ax",@progbits
	.align	1
	.globl	bl_dma_find_node_by_channel
	.type	bl_dma_find_node_by_channel, @function
bl_dma_find_node_by_channel:
.LFB40:
	.loc 1 293 1 is_stmt 1
	.cfi_startproc
.LVL115:
	.loc 1 294 5
	.loc 1 295 5
	.loc 1 297 5
	.loc 1 293 1 is_stmt 0
	addi	sp,sp,-32
	.cfi_def_cfa_offset 32
	sw	s0,24(sp)
	sw	s1,20(sp)
	.cfi_offset 8, -8
	.cfi_offset 9, -12
	addi	s0,sp,32
	.cfi_def_cfa 8, 0
	sw	ra,28(sp)
	.cfi_offset 1, -4
	.loc 1 293 1
	mv	s1,a0
	.loc 1 297 5
	addi	a1,s0,-20
	li	a0,31
.LVL116:
	call	bl_irq_ctx_get
.LVL117:
	.loc 1 298 5 is_stmt 1
	.loc 1 298 56 is_stmt 0
	lw	a5,-20(s0)
	lw	a5,0(a5)
	.loc 1 298 15
	lw	a0,4(a5)
.LVL118:
.L91:
	.loc 1 298 128 is_stmt 1 discriminator 1
	.loc 1 298 5 is_stmt 0 discriminator 1
	bne	a5,a0,.L93
	.loc 1 307 15
	li	a0,0
.LVL119:
.L90:
	.loc 1 311 1
	lw	ra,28(sp)
	.cfi_remember_state
	.cfi_restore 1
	lw	s0,24(sp)
	.cfi_restore 8
	.cfi_def_cfa 2, 32
	lw	s1,20(sp)
	.cfi_restore 9
.LVL120:
	addi	sp,sp,32
	.cfi_def_cfa_offset 0
	jr	ra
.LVL121:
.L93:
	.cfi_restore_state
	.loc 1 299 9 is_stmt 1
	.loc 1 299 12 is_stmt 0
	lw	a4,8(a0)
	beq	a4,s1,.L90
	.loc 1 298 169 is_stmt 1 discriminator 2
	.loc 1 298 174 is_stmt 0 discriminator 2
	lw	a0,4(a0)
.LVL122:
	j	.L91
	.cfi_endproc
.LFE40:
	.size	bl_dma_find_node_by_channel, .-bl_dma_find_node_by_channel
	.section	.text.bl_dma_find_ctx_by_channel,"ax",@progbits
	.align	1
	.globl	bl_dma_find_ctx_by_channel
	.type	bl_dma_find_ctx_by_channel, @function
bl_dma_find_ctx_by_channel:
.LFB41:
	.loc 1 314 1 is_stmt 1
	.cfi_startproc
.LVL123:
	.loc 1 315 5
	.loc 1 316 5
	.loc 1 318 5
	.loc 1 314 1 is_stmt 0
	addi	sp,sp,-16
	.cfi_def_cfa_offset 16
	sw	s0,8(sp)
	sw	ra,12(sp)
	.cfi_offset 8, -8
	.cfi_offset 1, -4
	addi	s0,sp,16
	.cfi_def_cfa 8, 0
	.loc 1 318 12
	call	bl_dma_find_node_by_channel
.LVL124:
	.loc 1 319 5 is_stmt 1
	.loc 1 321 5
	.loc 1 322 1 is_stmt 0
	lw	ra,12(sp)
	.cfi_restore 1
	lw	s0,8(sp)
	.cfi_restore 8
	.cfi_def_cfa 2, 16
	lw	a0,20(a0)
.LVL125:
	addi	sp,sp,16
	.cfi_def_cfa_offset 0
	jr	ra
	.cfi_endproc
.LFE41:
	.size	bl_dma_find_ctx_by_channel, .-bl_dma_find_ctx_by_channel
	.section	.text.bl_dma_irq_unregister,"ax",@progbits
	.align	1
	.globl	bl_dma_irq_unregister
	.type	bl_dma_irq_unregister, @function
bl_dma_irq_unregister:
.LFB42:
	.loc 1 325 1 is_stmt 1
	.cfi_startproc
.LVL126:
	.loc 1 326 5
	.loc 1 327 5
	.loc 1 329 5
	.loc 1 329 8 is_stmt 0
	li	a5,4
	bgtu	a0,a5,.L102
	.loc 1 325 1
	addi	sp,sp,-32
	.cfi_def_cfa_offset 32
	sw	s0,24(sp)
	sw	s1,20(sp)
	.cfi_offset 8, -8
	.cfi_offset 9, -12
	addi	s0,sp,32
	.cfi_def_cfa 8, 0
	sw	s2,16(sp)
	sw	ra,28(sp)
	.cfi_offset 18, -16
	.cfi_offset 1, -4
	mv	s2,a0
	.loc 1 335 5 is_stmt 1
	addi	a1,s0,-20
	li	a0,31
.LVL127:
	call	bl_irq_ctx_get
.LVL128:
	.loc 1 336 5
	.loc 1 336 56 is_stmt 0
	lw	a5,-20(s0)
	lw	a4,0(a5)
	.loc 1 336 15
	lw	s1,4(a4)
.LVL129:
.L99:
	.loc 1 336 128 is_stmt 1 discriminator 1
	.loc 1 336 5 is_stmt 0 discriminator 1
	beq	a4,s1,.L100
	.loc 1 337 9 is_stmt 1
	.loc 1 337 12 is_stmt 0
	lw	a3,8(s1)
.LBB46:
.LBB47:
	.loc 2 297 20
	lw	a5,4(s1)
.LBE47:
.LBE46:
	.loc 1 337 12
	bne	a3,s2,.L103
	.loc 1 338 13 is_stmt 1
.LVL130:
.LBB51:
.LBB48:
	.loc 2 296 5
	.loc 2 296 20 is_stmt 0
	lw	a4,0(s1)
.LVL131:
	.loc 2 297 5 is_stmt 1
	.loc 2 299 5
.LBE48:
.LBE51:
	.loc 1 339 13 is_stmt 0
	mv	a0,s1
.LBB52:
.LBB49:
	.loc 2 299 16
	sw	a5,4(a4)
	.loc 2 300 5 is_stmt 1
	.loc 2 300 16 is_stmt 0
	sw	a4,0(a5)
.LVL132:
.LBE49:
.LBE52:
	.loc 1 339 13 is_stmt 1
	call	vPortFree
.LVL133:
	.loc 1 340 13
.L100:
	.loc 1 344 5
	.loc 1 344 36 is_stmt 0
	lw	a5,-20(s0)
	.loc 1 350 1
	lw	ra,28(sp)
	.cfi_remember_state
	.cfi_restore 1
	lw	s0,24(sp)
	.cfi_restore 8
	.cfi_def_cfa 2, 32
	.loc 1 344 8
	lw	a5,0(a5)
	.loc 1 350 1
	lw	s2,16(sp)
	.cfi_restore 18
.LVL134:
	.loc 1 344 8
	sub	a0,a5,s1
	seqz	a0,a0
	.loc 1 350 1
	lw	s1,20(sp)
	.cfi_restore 9
.LVL135:
	.loc 1 344 8
	neg	a0,a0
	.loc 1 350 1
	addi	sp,sp,32
	.cfi_def_cfa_offset 0
	jr	ra
.LVL136:
.L103:
	.cfi_restore_state
.LBB53:
.LBB50:
	.loc 2 297 20
	mv	s1,a5
.LVL137:
	j	.L99
.LVL138:
.L102:
	.cfi_def_cfa_register 2
	.cfi_restore 1
	.cfi_restore 8
	.cfi_restore 9
	.cfi_restore 18
.LBE50:
.LBE53:
	.loc 1 332 16
	li	a0,-1
.LVL139:
	.loc 1 350 1
	ret
	.cfi_endproc
.LFE42:
	.size	bl_dma_irq_unregister, .-bl_dma_irq_unregister
	.section	.text.bl_dma_init,"ax",@progbits
	.align	1
	.globl	bl_dma_init
	.type	bl_dma_init, @function
bl_dma_init:
.LFB43:
	.loc 1 353 1 is_stmt 1
	.cfi_startproc
	.loc 1 354 5
	.loc 1 356 5
.LVL140:
	.loc 1 357 5
	.loc 1 353 1 is_stmt 0
	addi	sp,sp,-32
	.cfi_def_cfa_offset 32
	sw	s0,24(sp)
	sw	ra,28(sp)
	.cfi_offset 8, -8
	.cfi_offset 1, -4
	addi	s0,sp,32
	.cfi_def_cfa 8, 0
	sw	s1,20(sp)
	.loc 1 363 5
	lui	a0,%hi(.LANCHOR0)
	.loc 1 353 1
	.cfi_offset 9, -12
	.loc 1 363 5
	addi	a0,a0,%lo(.LANCHOR0)
	.loc 1 357 22
	sw	zero,-28(s0)
	sw	zero,-24(s0)
	sw	zero,-20(s0)
	.loc 1 363 5 is_stmt 1
	call	utils_list_init
.LVL141:
	.loc 1 365 5
	.loc 1 365 14 is_stmt 0
	li	a0,4
	call	pvPortMalloc
.LVL142:
	.loc 1 366 5 is_stmt 1
	.loc 1 366 8 is_stmt 0
	beq	a0,zero,.L108
	mv	s1,a0
	.loc 1 372 5 is_stmt 1
	.loc 1 372 24 is_stmt 0
	li	a0,8
.LVL143:
	call	pvPortMalloc
.LVL144:
	.loc 1 372 22
	sw	a0,0(s1)
	.loc 1 373 5 is_stmt 1
	.loc 1 373 8 is_stmt 0
	beq	a0,zero,.L108
	.loc 1 378 5 is_stmt 1
.LVL145:
.LBB54:
.LBB55:
	.loc 2 310 5
	.loc 2 310 16 is_stmt 0
	sw	a0,4(a0)
	.loc 2 311 5 is_stmt 1
	.loc 2 311 16 is_stmt 0
	sw	a0,0(a0)
.LVL146:
.LBE55:
.LBE54:
	.loc 1 380 5 is_stmt 1
	call	DMA_Enable
.LVL147:
	.loc 1 381 5
	li	a2,1
	li	a1,2
	li	a0,0
	call	DMA_IntMask
.LVL148:
	.loc 1 382 5
	li	a2,0
	li	a1,0
	li	a0,0
	call	DMA_IntMask
.LVL149:
	.loc 1 383 5
	li	a2,0
	li	a1,1
	li	a0,0
	call	DMA_IntMask
.LVL150:
	.loc 1 384 5
	addi	a1,s0,-28
	li	a0,0
	call	DMA_LLI_Init
.LVL151:
	.loc 1 385 5
	lui	a1,%hi(bl_dma_int_process)
	mv	a2,s1
	addi	a1,a1,%lo(bl_dma_int_process)
	li	a0,31
	call	bl_irq_register_with_ctx
.LVL152:
	.loc 1 386 5
.LBB56:
.LBB57:
	.loc 1 262 5
	.loc 1 263 5
	.loc 1 264 5
	.loc 1 266 5
	lui	a1,%hi(bl_dma_IRQHandler)
	li	a0,0
	li	a3,0
	li	a2,0
	addi	a1,a1,%lo(bl_dma_IRQHandler)
	call	bl_dma_irq_register.part.0
.LVL153:
.LBE57:
.LBE56:
	.loc 1 387 5
	li	a0,31
	call	bl_irq_enable
.LVL154:
.L108:
	.loc 1 388 1 is_stmt 0
	lw	ra,28(sp)
	.cfi_restore 1
	lw	s0,24(sp)
	.cfi_restore 8
	.cfi_def_cfa 2, 32
	lw	s1,20(sp)
	.cfi_restore 9
	addi	sp,sp,32
	.cfi_def_cfa_offset 0
	jr	ra
	.cfi_endproc
.LFE43:
	.size	bl_dma_init, .-bl_dma_init
	.section	.text.bl_dma_test,"ax",@progbits
	.align	1
	.globl	bl_dma_test
	.type	bl_dma_test, @function
bl_dma_test:
.LFB46:
	.loc 1 439 1 is_stmt 1
	.cfi_startproc
	.loc 1 440 5
.LBB60:
.LBB61:
	.loc 1 401 5
	.loc 1 402 5
	.loc 1 403 5
	.loc 1 404 5
.LVL155:
	.loc 1 406 5
.LBE61:
.LBE60:
	.loc 1 439 1 is_stmt 0
	addi	sp,sp,-32
	.cfi_def_cfa_offset 32
	sw	ra,28(sp)
	sw	s0,24(sp)
	sw	s1,20(sp)
	.cfi_offset 1, -4
	.cfi_offset 8, -8
	.cfi_offset 9, -12
	addi	s0,sp,32
	.cfi_def_cfa 8, 0
	sw	s2,16(sp)
	sw	s3,12(sp)
	.cfi_offset 18, -16
	.cfi_offset 19, -20
.LBB65:
.LBB62:
	.loc 1 406 13
	li	a0,28
	call	pvPortMalloc
.LVL156:
	mv	s1,a0
.LVL157:
	.loc 1 407 5 is_stmt 1
	.loc 1 407 11 is_stmt 0
	li	a0,68
	call	pvPortMalloc
.LVL158:
	mv	s3,a0
.LVL159:
	.loc 1 408 5 is_stmt 1
	.loc 1 408 11 is_stmt 0
	li	a0,68
.LVL160:
	call	pvPortMalloc
.LVL161:
	mv	s2,a0
.LVL162:
	.loc 1 414 6 is_stmt 1
	.loc 1 416 5
	li	a2,28
	li	a1,0
	mv	a0,s1
.LVL163:
	call	memset
.LVL164:
	.loc 1 417 5
	li	a2,68
	li	a1,1
	mv	a0,s3
	call	memset
.LVL165:
	.loc 1 418 5
	li	a2,68
	li	a1,255
	mv	a0,s2
	call	memset
.LVL166:
	.loc 1 419 5
	.loc 1 422 17 is_stmt 0
	li	a5,-1941327872
	addi	a5,a5,17
	sw	a5,24(s1)
	.loc 1 423 15
	lui	a5,%hi(_cb_cmd)
	addi	a5,a5,%lo(_cb_cmd)
	.loc 1 419 16
	sw	s3,12(s1)
	.loc 1 420 5 is_stmt 1
	.loc 1 420 16 is_stmt 0
	sw	s2,16(s1)
	.loc 1 421 5 is_stmt 1
	.loc 1 421 17 is_stmt 0
	sw	zero,20(s1)
	.loc 1 422 5 is_stmt 1
	.loc 1 423 5
	.loc 1 423 15 is_stmt 0
	sw	a5,4(s1)
	.loc 1 424 5 is_stmt 1
	.loc 1 424 16 is_stmt 0
	sw	s1,8(s1)
	.loc 1 426 5 is_stmt 1
	mv	a0,s1
	call	bl_dma_copy
.LVL167:
	.loc 1 429 5
.L119:
	.loc 1 429 11
	lw	a5,8(s1)
	bne	a5,zero,.L120
	.loc 1 433 5
	lw	a0,12(s1)
	call	vPortFree
.LVL168:
	.loc 1 434 5
	lw	a0,16(s1)
	call	vPortFree
.LVL169:
	.loc 1 435 5
.LBE62:
.LBE65:
	.loc 1 441 1 is_stmt 0
	lw	s0,24(sp)
	.cfi_remember_state
	.cfi_restore 8
	.cfi_def_cfa 2, 32
	lw	ra,28(sp)
	.cfi_restore 1
	lw	s2,16(sp)
	.cfi_restore 18
.LVL170:
	lw	s3,12(sp)
	.cfi_restore 19
.LVL171:
.LBB66:
.LBB63:
	.loc 1 435 5
	mv	a0,s1
.LBE63:
.LBE66:
	.loc 1 441 1
	lw	s1,20(sp)
	.cfi_restore 9
.LVL172:
	addi	sp,sp,32
	.cfi_def_cfa_offset 0
.LBB67:
.LBB64:
	.loc 1 435 5
	tail	vPortFree
.LVL173:
.L120:
	.cfi_restore_state
	.loc 1 430 9 is_stmt 1
	li	a0,2
	call	vTaskDelay
.LVL174:
	j	.L119
.LBE64:
.LBE67:
	.cfi_endproc
.LFE46:
	.size	bl_dma_test, .-bl_dma_test
	.section	.sbss.dma_copy_list,"aw",@nobits
	.align	2
	.set	.LANCHOR0,. + 0
	.type	dma_copy_list, @object
	.size	dma_copy_list, 8
dma_copy_list:
	.zero	8
	.text
.Letext0:
	.file 3 "/home/dinhquangha/intern/Ai-Thinker-WB2/toolchain/riscv/Linux/riscv64-unknown-elf/include/machine/_default_types.h"
	.file 4 "/home/dinhquangha/intern/Ai-Thinker-WB2/toolchain/riscv/Linux/lib/gcc/riscv64-unknown-elf/10.2.0/include/stddef.h"
	.file 5 "/home/dinhquangha/intern/Ai-Thinker-WB2/toolchain/riscv/Linux/riscv64-unknown-elf/include/sys/_stdint.h"
	.file 6 "/home/dinhquangha/intern/Ai-Thinker-WB2/components/platform/soc/bl602/bl602_std/bl602_std/Device/Bouffalo/BL602/Peripherals/bl602.h"
	.file 7 "/home/dinhquangha/intern/Ai-Thinker-WB2/components/platform/soc/bl602/bl602_std/bl602_std/StdDriver/Inc/bl602_common.h"
	.file 8 "/home/dinhquangha/intern/Ai-Thinker-WB2/components/platform/soc/bl602/bl602_std/bl602_std/StdDriver/Inc/bl602_dma.h"
	.file 9 "/home/dinhquangha/intern/Ai-Thinker-WB2/components/platform/hosal/bl602_hal/bl_dma.h"
	.file 10 "/home/dinhquangha/intern/Ai-Thinker-WB2/components/platform/soc/bl602/freertos_riscv_ram/config/portable.h"
	.file 11 "/home/dinhquangha/intern/Ai-Thinker-WB2/toolchain/riscv/Linux/riscv64-unknown-elf/include/string.h"
	.file 12 "/home/dinhquangha/intern/Ai-Thinker-WB2/components/platform/soc/bl602/freertos_riscv_ram/config/task.h"
	.file 13 "/home/dinhquangha/intern/Ai-Thinker-WB2/components/platform/hosal/bl602_hal/bl_irq.h"
	.file 14 "/home/dinhquangha/intern/Ai-Thinker-WB2/components/platform/soc/bl602/freertos_riscv_ram/portable/GCC/RISC-V/portmacro.h"