	.file	"bl_flash.c"
	.option nopic
	.attribute arch, "rv32i2p0_m2p0_f2p0_c2p0"
	.attribute unaligned_access, 0
	.attribute stack_align, 16
	.text
.Ltext0:
	.cfi_sections	.debug_frame
	.section	.tcm_code./home/quanghaictu/intern/Ai-Thinker-WB2/components/platform/hosal/bl602_hal/bl_flash.c109,"ax",@progbits
	.align	1
	.globl	arch_memcpy
	.type	arch_memcpy, @function
arch_memcpy:
.LFB8:
	.file 1 "/home/quanghaictu/intern/Ai-Thinker-WB2/components/platform/hosal/bl602_hal/bl_flash.c"
	.loc 1 110 1
	.cfi_startproc
.LVL0:
	.loc 1 111 5
	.loc 1 112 5
	.loc 1 114 5
	.loc 1 110 1 is_stmt 0
	addi	sp,sp,-16
	.cfi_def_cfa_offset 16
	sw	s0,12(sp)
	.cfi_offset 8, -4
	addi	s0,sp,16
	.cfi_def_cfa 8, 0
	.loc 1 114 11
	li	a5,0
.LVL1:
.L2:
	.loc 1 114 11 is_stmt 1
	bne	a2,a5,.L3
	.loc 1 119 5
	.loc 1 120 1 is_stmt 0
	lw	s0,12(sp)
	.cfi_remember_state
	.cfi_restore 8
	.cfi_def_cfa 2, 16
	addi	sp,sp,16
	.cfi_def_cfa_offset 0
	jr	ra
.L3:
	.cfi_restore_state
	.loc 1 116 9 is_stmt 1
.LVL2:
	.loc 1 116 16 is_stmt 0
	add	a4,a1,a5
	lbu	a3,0(a4)
	.loc 1 116 14
	add	a4,a0,a5
	addi	a5,a5,1
.LVL3:
	sb	a3,0(a4)
	j	.L2
	.cfi_endproc
.LFE8:
	.size	arch_memcpy, .-arch_memcpy
	.section	.text.flash_get_cfg,"ax",@progbits
	.align	1
	.globl	flash_get_cfg
	.type	flash_get_cfg, @function
flash_get_cfg:
.LFB9:
	.loc 1 128 1 is_stmt 1
	.cfi_startproc
.LVL4:
	.loc 1 129 5
	.loc 1 128 1 is_stmt 0
	addi	sp,sp,-16
	.cfi_def_cfa_offset 16
	sw	s0,12(sp)
	.loc 1 129 15
	lui	a5,%hi(.LANCHOR0)
	.cfi_offset 8, -4
	.loc 1 128 1
	addi	s0,sp,16
	.cfi_def_cfa 8, 0
	.loc 1 129 15
	addi	a5,a5,%lo(.LANCHOR0)
	sw	a5,0(a0)
	.loc 1 130 5 is_stmt 1
	.loc 1 133 1 is_stmt 0
	lw	s0,12(sp)
	.cfi_restore 8
	.cfi_def_cfa 2, 16
	.loc 1 130 10
	li	a5,84
	sw	a5,0(a1)
	.loc 1 132 5 is_stmt 1
	.loc 1 133 1 is_stmt 0
	li	a0,0
.LVL5:
	addi	sp,sp,16
	.cfi_def_cfa_offset 0
	jr	ra
	.cfi_endproc
.LFE9:
	.size	flash_get_cfg, .-flash_get_cfg
	.section	.tcm_code./home/quanghaictu/intern/Ai-Thinker-WB2/components/platform/hosal/bl602_hal/bl_flash.c140,"ax",@progbits
	.align	1
	.globl	flash_set_qspi_enable
	.type	flash_set_qspi_enable, @function
flash_set_qspi_enable:
.LFB10:
	.loc 1 141 1 is_stmt 1
	.cfi_startproc
.LVL6:
	.loc 1 142 5
	.loc 1 142 8 is_stmt 0
	lbu	a5,0(a0)
	andi	a5,a5,15
	addi	a5,a5,-2
	andi	a5,a5,253
	bne	a5,zero,.L10
	.loc 1 144 9 is_stmt 1
	.loc 1 141 1 is_stmt 0
	addi	sp,sp,-16
	.cfi_def_cfa_offset 16
	sw	s0,8(sp)
	sw	ra,12(sp)
	.cfi_offset 8, -8
	.cfi_offset 1, -4
	addi	s0,sp,16
	.cfi_def_cfa 8, 0
	.loc 1 144 9
	call	SFlash_Qspi_Enable
.LVL7:
	.loc 1 147 5 is_stmt 1
	.loc 1 148 1 is_stmt 0
	lw	ra,12(sp)
	.cfi_restore 1
	lw	s0,8(sp)
	.cfi_restore 8
	.cfi_def_cfa 2, 16
	li	a0,0
	addi	sp,sp,16
	.cfi_def_cfa_offset 0
	jr	ra
.LVL8:
.L10:
	.loc 1 147 5 is_stmt 1
	.loc 1 148 1 is_stmt 0
	li	a0,0
.LVL9:
	ret
	.cfi_endproc
.LFE10:
	.size	flash_set_qspi_enable, .-flash_set_qspi_enable
	.section	.tcm_code./home/quanghaictu/intern/Ai-Thinker-WB2/components/platform/hosal/bl602_hal/bl_flash.c155,"ax",@progbits
	.align	1
	.globl	flash_set_l1c_wrap
	.type	flash_set_l1c_wrap, @function
flash_set_l1c_wrap:
.LFB11:
	.loc 1 156 1 is_stmt 1
	.cfi_startproc
.LVL10:
	.loc 1 157 5
	.loc 1 156 1 is_stmt 0
	addi	sp,sp,-16
	.cfi_def_cfa_offset 16
	sw	s0,8(sp)
	sw	ra,12(sp)
	sw	s1,4(sp)
	.cfi_offset 8, -8
	.cfi_offset 1, -4
	.cfi_offset 9, -12
	addi	s0,sp,16
	.cfi_def_cfa 8, 0
	.loc 1 157 37
	lbu	a5,0(a0)
	srli	a5,a5,4
	.loc 1 157 8
	andi	a5,a5,1
	beq	a5,zero,.L14
	.loc 1 159 9 is_stmt 1
	li	a0,0
.LVL11:
	call	L1C_Set_Wrap
.LVL12:
.L15:
	.loc 1 170 5
	.loc 1 171 1 is_stmt 0
	lw	ra,12(sp)
	.cfi_remember_state
	.cfi_restore 1
	lw	s0,8(sp)
	.cfi_restore 8
	.cfi_def_cfa 2, 16
	lw	s1,4(sp)
	.cfi_restore 9
	li	a0,0
	addi	sp,sp,16
	.cfi_def_cfa_offset 0
	jr	ra
.LVL13:
.L14:
	.cfi_restore_state
	mv	s1,a0
	.loc 1 163 9 is_stmt 1
	li	a0,1
.LVL14:
	call	L1C_Set_Wrap
.LVL15:
	.loc 1 164 9
	.loc 1 164 12 is_stmt 0
	lbu	a5,0(s1)
	andi	a5,a5,15
	addi	a5,a5,-2
	andi	a5,a5,253
	bne	a5,zero,.L15
	.loc 1 166 13 is_stmt 1
	mv	a0,s1
	call	SFlash_SetBurstWrap
.LVL16:
	j	.L15
	.cfi_endproc
.LFE11:
	.size	flash_set_l1c_wrap, .-flash_set_l1c_wrap
	.section	.tcm_code./home/quanghaictu/intern/Ai-Thinker-WB2/components/platform/hosal/bl602_hal/bl_flash.c178,"ax",@progbits
	.align	1
	.globl	flash_get_clkdelay_from_bootheader
	.type	flash_get_clkdelay_from_bootheader, @function
flash_get_clkdelay_from_bootheader:
.LFB12:
	.loc 1 179 1
	.cfi_startproc
.LVL17:
	.loc 1 180 5
	.loc 1 181 5
	.loc 1 182 5
	.loc 1 183 5
	.loc 1 179 1 is_stmt 0
	addi	sp,sp,-208
	.cfi_def_cfa_offset 208
	sw	s0,200(sp)
	sw	s1,196(sp)
	.cfi_offset 8, -8
	.cfi_offset 9, -12
	addi	s0,sp,208
	.cfi_def_cfa 8, 0
	sw	ra,204(sp)
	.cfi_offset 1, -4
	.loc 1 185 5
	lbu	a1,0(a0)
	.loc 1 183 10
	li	a5,1195786240
	addi	a5,a5,838
	sw	a5,-200(s0)
	.loc 1 185 5
	li	a2,0
	andi	a1,a1,15
	li	a5,92
	addi	a4,s0,-108
	li	a3,8
	.loc 1 179 1
	mv	s1,a0
	.loc 1 183 10
	sb	zero,-196(s0)
	.loc 1 185 5 is_stmt 1
	call	SFlash_Read
.LVL18:
	.loc 1 186 5
	.loc 1 186 9 is_stmt 0
	li	a2,4
	addi	a1,s0,-200
	addi	a0,s0,-108
	call	BL602_MemCmp
.LVL19:
	.loc 1 186 8
	beq	a0,zero,.L18
.L20:
	.loc 1 199 12
	li	a0,1
.L17:
	.loc 1 200 1
	lw	ra,204(sp)
	.cfi_remember_state
	.cfi_restore 1
	lw	s0,200(sp)
	.cfi_restore 8
	.cfi_def_cfa 2, 208
	lw	s1,196(sp)
	.cfi_restore 9
.LVL20:
	addi	sp,sp,208
	.cfi_def_cfa_offset 0
	jr	ra
.LVL21:
.L18:
	.cfi_restore_state
	.loc 1 188 9 is_stmt 1
	.loc 1 188 15 is_stmt 0
	li	a1,84
	addi	a0,s0,-104
	call	BFLB_Soft_CRC32
.LVL22:
	.loc 1 189 9 is_stmt 1
	.loc 1 190 9
	.loc 1 190 12 is_stmt 0
	lw	a5,-20(s0)
	bne	a5,a0,.L20
	.loc 1 192 13 is_stmt 1
	li	a2,84
	addi	a1,s0,-104
	addi	a0,s0,-192
.LVL23:
	call	BL602_MemCpy_Fast
.LVL24:
	.loc 1 193 13
	.loc 1 193 35 is_stmt 0
	lbu	a5,-190(s0)
	.loc 1 195 20
	li	a0,0
	.loc 1 193 35
	sb	a5,2(s1)
	.loc 1 194 13 is_stmt 1
	.loc 1 194 36 is_stmt 0
	lbu	a5,-189(s0)
	sb	a5,3(s1)
	.loc 1 195 13 is_stmt 1
	.loc 1 195 20 is_stmt 0
	j	.L17
	.cfi_endproc
.LFE12:
	.size	flash_get_clkdelay_from_bootheader, .-flash_get_clkdelay_from_bootheader
	.section	.tcm_code./home/quanghaictu/intern/Ai-Thinker-WB2/components/platform/hosal/bl602_hal/bl_flash.c242,"ax",@progbits
	.align	1
	.globl	bl_flash_init
	.type	bl_flash_init, @function
bl_flash_init:
.LFB14:
	.loc 1 243 1 is_stmt 1
	.cfi_startproc
	.loc 1 244 5
.LVL25:
	.loc 1 245 5
	.loc 1 243 1 is_stmt 0
	addi	sp,sp,-48
	.cfi_def_cfa_offset 48
	sw	ra,44(sp)
	sw	s0,40(sp)
	sw	s1,36(sp)
	.cfi_offset 1, -4
	.cfi_offset 8, -8
	.cfi_offset 9, -12
	addi	s0,sp,48
	.cfi_def_cfa 8, 0
	sw	s2,32(sp)
	sw	s3,28(sp)
	sw	s4,24(sp)
	.cfi_offset 18, -16
	.cfi_offset 19, -20
	.cfi_offset 20, -24
	.loc 1 245 14
	sw	zero,-44(s0)
	.loc 1 247 5 is_stmt 1
.LVL26:
.LBB6:
.LBB7:
	.loc 1 209 5
	.loc 1 210 5
	.loc 1 210 13 is_stmt 0
	sb	zero,-45(s0)
	.loc 1 211 5 is_stmt 1
	.loc 1 211 14 is_stmt 0
	sw	zero,-40(s0)
	.loc 1 212 5 is_stmt 1
	.loc 1 212 14 is_stmt 0
	sw	zero,-36(s0)
	.loc 1 214 5 is_stmt 1
.LBB8:
	.loc 1 214 14
	.loc 1 214 48 is_stmt 0
	call	bl_irq_save
.LVL27:
	mv	s3,a0
.LVL28:
	.loc 1 214 62 is_stmt 1
	.loc 1 215 5
	addi	a0,s0,-45
.LVL29:
	call	XIP_SFlash_Opt_Enter
.LVL30:
	.loc 1 216 5
	lui	s1,%hi(.LANCHOR0)
	addi	a1,s0,-36
	addi	a0,s1,%lo(.LANCHOR0)
	call	XIP_SFlash_State_Save_Ext
.LVL31:
	.loc 1 217 5
	addi	a1,s0,-40
	addi	a0,s1,%lo(.LANCHOR0)
	call	SFlash_GetJedecId
.LVL32:
	.loc 1 218 5
	li	a2,3
	addi	a1,s0,-40
	addi	a0,s0,-44
.LVL33:
	call	arch_memcpy
.LVL34:
	.loc 1 219 5
	.loc 1 219 9 is_stmt 0
	lw	a5,-40(s0)
	.loc 1 220 11
	addi	a1,s1,%lo(.LANCHOR0)
	.loc 1 219 9
	slli	a5,a5,8
	srli	a0,a5,8
	sw	a0,-40(s0)
	.loc 1 220 5 is_stmt 1
	.loc 1 220 11 is_stmt 0
	call	SF_Cfg_Get_Flash_Cfg_Need_Lock_Ext
.LVL35:
	mv	s2,a0
.LVL36:
	.loc 1 221 5 is_stmt 1
	.loc 1 221 8 is_stmt 0
	bne	a0,zero,.L23
	.loc 1 223 26
	lw	a5,-40(s0)
	addi	s4,s1,%lo(.LANCHOR0)
	.loc 1 223 9 is_stmt 1
	.loc 1 223 26 is_stmt 0
	sb	a5,13(s4)
.L23:
	.loc 1 225 5 is_stmt 1
	addi	a0,s1,%lo(.LANCHOR0)
.LVL37:
	call	flash_get_clkdelay_from_bootheader
.LVL38:
	.loc 1 228 5
	addi	a0,s1,%lo(.LANCHOR0)
	call	flash_set_qspi_enable
.LVL39:
	.loc 1 229 5
	addi	a0,s1,%lo(.LANCHOR0)
	call	flash_set_l1c_wrap
.LVL40:
	.loc 1 230 5
	lw	a1,-36(s0)
	addi	a0,s1,%lo(.LANCHOR0)
	call	XIP_SFlash_State_Restore_Ext
.LVL41:
	.loc 1 231 5
	lbu	a0,-45(s0)
	call	XIP_SFlash_Opt_Exit
.LVL42:
	.loc 1 232 5
	mv	a0,s3
	call	bl_irq_restore
.LVL43:
.LBE8:
	.loc 1 232 52
	.loc 1 234 5
.LBE7:
.LBE6:
	.loc 1 256 5
	.loc 1 257 1 is_stmt 0
	lw	ra,44(sp)
	.cfi_restore 1
	lw	s0,40(sp)
	.cfi_restore 8
	.cfi_def_cfa 2, 48
	lw	s1,36(sp)
	.cfi_restore 9
	lw	s3,28(sp)
	.cfi_restore 19
	lw	s4,24(sp)
	.cfi_restore 20
	mv	a0,s2
	lw	s2,32(sp)
	.cfi_restore 18
.LVL44:
	addi	sp,sp,48
	.cfi_def_cfa_offset 0
	jr	ra
	.cfi_endproc
.LFE14:
	.size	bl_flash_init, .-bl_flash_init
	.section	.tcm_code./home/quanghaictu/intern/Ai-Thinker-WB2/components/platform/hosal/bl602_hal/bl_flash.c269,"ax",@progbits
	.align	1
	.globl	bl_flash_erase
	.type	bl_flash_erase, @function
bl_flash_erase:
.LFB15:
	.loc 1 270 1 is_stmt 1
	.cfi_startproc
.LVL45:
	.loc 1 271 5
	.loc 1 274 5
	.loc 1 270 1 is_stmt 0
	addi	sp,sp,-48
	.cfi_def_cfa_offset 48
	sw	s0,40(sp)
	sw	s3,28(sp)
	sw	ra,44(sp)
	sw	s1,36(sp)
	sw	s2,32(sp)
	sw	s4,24(sp)
	.cfi_offset 8, -8
	.cfi_offset 19, -20
	.cfi_offset 1, -4
	.cfi_offset 9, -12
	.cfi_offset 18, -16
	.cfi_offset 20, -24
	addi	s0,sp,48
	.cfi_def_cfa 8, 0
	.loc 1 274 25
	lui	s3,%hi(.LANCHOR0)
	.loc 1 270 1
	.loc 1 274 25
	addi	a5,s3,%lo(.LANCHOR0)
	.loc 1 274 8
	lbu	a5,13(a5)
	beq	a5,zero,.L27
	mv	s4,a1
	.loc 1 279 5 is_stmt 1 discriminator 1
.LBB9:
	.loc 1 279 14 discriminator 1
	mv	s1,a0
	.loc 1 279 48 is_stmt 0 discriminator 1
	call	bl_irq_save
.LVL46:
	mv	s2,a0
.LVL47:
	.loc 1 279 62 is_stmt 1 discriminator 1
	.loc 1 280 5 discriminator 1
	addi	a0,s3,%lo(.LANCHOR0)
.LVL48:
	call	XIP_SFlash_Clear_Status_Register_Need_Lock
.LVL49:
	.loc 1 287 5 discriminator 1
	addi	a0,s0,-33
	call	XIP_SFlash_Opt_Enter
.LVL50:
	.loc 1 288 5 discriminator 1
	.loc 1 288 115 is_stmt 0 discriminator 1
	li	a5,553717760
	.loc 1 288 6 discriminator 1
	lw	a5,-1396(a5)
	addi	a2,s1,-1
	add	a2,a2,s4
	mv	a1,s1
	addi	a0,s3,%lo(.LANCHOR0)
	jalr	a5
.LVL51:
	.loc 1 292 5 is_stmt 1 discriminator 1
	lbu	a0,-33(s0)
	call	XIP_SFlash_Opt_Exit
.LVL52:
	.loc 1 294 5 discriminator 1
	mv	a0,s2
	call	bl_irq_restore
.LVL53:
.LBE9:
	.loc 1 294 52 discriminator 1
	.loc 1 296 5 discriminator 1
	.loc 1 296 12 is_stmt 0 discriminator 1
	li	a0,0
.LVL54:
.L25:
	.loc 1 297 1
	lw	ra,44(sp)
	.cfi_remember_state
	.cfi_restore 1
	lw	s0,40(sp)
	.cfi_restore 8
	.cfi_def_cfa 2, 48
	lw	s1,36(sp)
	.cfi_restore 9
	lw	s2,32(sp)
	.cfi_restore 18
	lw	s3,28(sp)
	.cfi_restore 19
	lw	s4,24(sp)
	.cfi_restore 20
	addi	sp,sp,48
	.cfi_def_cfa_offset 0
	jr	ra
.LVL55:
.L27:
	.cfi_restore_state
	.loc 1 276 16
	li	a0,-1
.LVL56:
	j	.L25
	.cfi_endproc
.LFE15:
	.size	bl_flash_erase, .-bl_flash_erase
	.section	.tcm_code./home/quanghaictu/intern/Ai-Thinker-WB2/components/platform/hosal/bl602_hal/bl_flash.c299,"ax",@progbits
	.align	1
	.globl	bl_flash_write
	.type	bl_flash_write, @function
bl_flash_write:
.LFB16:
	.loc 1 300 1 is_stmt 1
	.cfi_startproc
.LVL57:
	.loc 1 301 5
	.loc 1 304 5
	.loc 1 300 1 is_stmt 0
	addi	sp,sp,-64
	.cfi_def_cfa_offset 64
	sw	s0,56(sp)
	sw	s2,48(sp)
	sw	ra,60(sp)
	sw	s1,52(sp)
	sw	s3,44(sp)
	sw	s4,40(sp)
	.cfi_offset 8, -8
	.cfi_offset 18, -16
	.cfi_offset 1, -4
	.cfi_offset 9, -12
	.cfi_offset 19, -20
	.cfi_offset 20, -24
	addi	s0,sp,64
	.cfi_def_cfa 8, 0
	.loc 1 304 25
	lui	s2,%hi(.LANCHOR0)
	.loc 1 300 1
	.loc 1 304 25
	addi	a5,s2,%lo(.LANCHOR0)
	.loc 1 304 8
	lbu	a5,13(a5)
	.loc 1 300 1
	sw	a2,-52(s0)
	.loc 1 304 8
	beq	a5,zero,.L31
	mv	s4,a1
	.loc 1 309 5 is_stmt 1 discriminator 1
.LBB10:
	.loc 1 309 14 discriminator 1
	mv	s3,a0
	.loc 1 309 48 is_stmt 0 discriminator 1
	call	bl_irq_save
.LVL58:
	mv	s1,a0
.LVL59:
	.loc 1 309 62 is_stmt 1 discriminator 1
	.loc 1 310 5 discriminator 1
	addi	a0,s2,%lo(.LANCHOR0)
	call	XIP_SFlash_Clear_Status_Register_Need_Lock
.LVL60:
	.loc 1 318 5 discriminator 1
	addi	a0,s0,-33
	call	XIP_SFlash_Opt_Enter
.LVL61:
	.loc 1 319 5 discriminator 1
	.loc 1 319 121 is_stmt 0 discriminator 1
	li	a5,553717760
	.loc 1 319 6 discriminator 1
	lw	a5,-1392(a5)
	lw	a3,-52(s0)
	mv	a2,s4
	mv	a1,s3
	addi	a0,s2,%lo(.LANCHOR0)
	jalr	a5
.LVL62:
	.loc 1 324 5 is_stmt 1 discriminator 1
	lbu	a0,-33(s0)
	call	XIP_SFlash_Opt_Exit
.LVL63:
	.loc 1 326 5 discriminator 1
	mv	a0,s1
	call	bl_irq_restore
.LVL64:
.LBE10:
	.loc 1 326 52 discriminator 1
	.loc 1 328 5 discriminator 1
	.loc 1 328 12 is_stmt 0 discriminator 1
	li	a0,0
.LVL65:
.L29:
	.loc 1 329 1
	lw	ra,60(sp)
	.cfi_remember_state
	.cfi_restore 1
	lw	s0,56(sp)
	.cfi_restore 8
	.cfi_def_cfa 2, 64
.LVL66:
	lw	s1,52(sp)
	.cfi_restore 9
	lw	s2,48(sp)
	.cfi_restore 18
	lw	s3,44(sp)
	.cfi_restore 19
	lw	s4,40(sp)
	.cfi_restore 20
	addi	sp,sp,64
	.cfi_def_cfa_offset 0
	jr	ra
.LVL67:
.L31:
	.cfi_restore_state
	.loc 1 306 16
	li	a0,-1
.LVL68:
	j	.L29
	.cfi_endproc
.LFE16:
	.size	bl_flash_write, .-bl_flash_write
	.section	.tcm_code./home/quanghaictu/intern/Ai-Thinker-WB2/components/platform/hosal/bl602_hal/bl_flash.c331,"ax",@progbits
	.align	1
	.globl	bl_flash_read
	.type	bl_flash_read, @function
bl_flash_read:
.LFB17:
	.loc 1 332 1 is_stmt 1
	.cfi_startproc
.LVL69:
	.loc 1 333 5
	.loc 1 336 5
	.loc 1 332 1 is_stmt 0
	addi	sp,sp,-64
	.cfi_def_cfa_offset 64
	sw	s0,56(sp)
	sw	s4,40(sp)
	sw	ra,60(sp)
	sw	s1,52(sp)
	sw	s2,48(sp)
	sw	s3,44(sp)
	.cfi_offset 8, -8
	.cfi_offset 20, -24
	.cfi_offset 1, -4
	.cfi_offset 9, -12
	.cfi_offset 18, -16
	.cfi_offset 19, -20
	addi	s0,sp,64
	.cfi_def_cfa 8, 0
	.loc 1 336 25
	lui	s4,%hi(.LANCHOR0)
	.loc 1 332 1
	.loc 1 336 25
	addi	a5,s4,%lo(.LANCHOR0)
	.loc 1 336 8
	lbu	a5,13(a5)
	.loc 1 332 1
	sw	a2,-52(s0)
	.loc 1 336 8
	beq	a5,zero,.L35
	mv	s3,a1
	.loc 1 341 5 is_stmt 1 discriminator 1
.LBB11:
	.loc 1 341 14 discriminator 1
	mv	s2,a0
	.loc 1 341 48 is_stmt 0 discriminator 1
	call	bl_irq_save
.LVL70:
	mv	s1,a0
.LVL71:
	.loc 1 341 62 is_stmt 1 discriminator 1
	.loc 1 349 5 discriminator 1
	addi	a0,s0,-33
	call	XIP_SFlash_Opt_Enter
.LVL72:
	.loc 1 350 5 discriminator 1
	.loc 1 350 121 is_stmt 0 discriminator 1
	li	a5,553717760
	.loc 1 350 6 discriminator 1
	lw	a5,-1388(a5)
	lw	a3,-52(s0)
	mv	a2,s3
	mv	a1,s2
	addi	a0,s4,%lo(.LANCHOR0)
	jalr	a5
.LVL73:
	.loc 1 355 5 is_stmt 1 discriminator 1
	lbu	a0,-33(s0)
	call	XIP_SFlash_Opt_Exit
.LVL74:
	.loc 1 357 5 discriminator 1
	mv	a0,s1
	call	bl_irq_restore
.LVL75:
.LBE11:
	.loc 1 357 52 discriminator 1
	.loc 1 359 5 discriminator 1
	.loc 1 359 12 is_stmt 0 discriminator 1
	li	a0,0
.LVL76:
.L33:
	.loc 1 360 1
	lw	ra,60(sp)
	.cfi_remember_state
	.cfi_restore 1
	lw	s0,56(sp)
	.cfi_restore 8
	.cfi_def_cfa 2, 64
.LVL77:
	lw	s1,52(sp)
	.cfi_restore 9
	lw	s2,48(sp)
	.cfi_restore 18
	lw	s3,44(sp)
	.cfi_restore 19
	lw	s4,40(sp)
	.cfi_restore 20
	addi	sp,sp,64
	.cfi_def_cfa_offset 0
	jr	ra
.LVL78:
.L35:
	.cfi_restore_state
	.loc 1 338 16
	li	a0,-1
.LVL79:
	j	.L33
	.cfi_endproc
.LFE17:
	.size	bl_flash_read, .-bl_flash_read
	.section	.rodata.bl_flash_config_update.str1.4,"aMS",@progbits,1
	.align	2
.LC0:
	.string	"\033[32m======= FlashCfg magiccode @%p=======\r\n\033[0m"
	.align	2
.LC1:
	.string	"\033[32mmid \t\t0x%X\r\n\033[0m"
	.align	2
.LC2:
	.string	"\033[32mclkDelay \t0x%X\r\n\033[0m"
	.align	2
.LC3:
	.string	"\033[32mclkInvert \t0x%X\r\n\033[0m"
	.align	2
.LC4:
	.string	"\033[32msector size\t%uKBytes\r\n\033[0m"
	.align	2
.LC5:
	.string	"\033[32mpage size\t%uBytes\r\n\033[0m"
	.align	2
.LC6:
	.string	"\033[32m--------------------------------------\r\n\033[0m"
	.section	.text.bl_flash_config_update,"ax",@progbits
	.align	1
	.globl	bl_flash_config_update
	.type	bl_flash_config_update, @function
bl_flash_config_update:
.LFB19:
	.loc 1 378 1 is_stmt 1
	.cfi_startproc
	.loc 1 379 5
.LBB14:
.LBB15:
	.loc 1 364 5
	.loc 1 366 5
	.loc 1 368 5
.LBE15:
.LBE14:
	.loc 1 378 1 is_stmt 0
	addi	sp,sp,-16
	.cfi_def_cfa_offset 16
	sw	ra,12(sp)
	sw	s0,8(sp)
	sw	s1,4(sp)
	.cfi_offset 1, -4
	.cfi_offset 8, -8
	.cfi_offset 9, -12
	addi	s0,sp,16
	.cfi_def_cfa 8, 0
.LBB18:
.LBB16:
	.loc 1 368 5
	lui	a1,%hi(__boot2_flashCfg_src)
	lui	a0,%hi(.LC0)
.LBE16:
.LBE18:
	.loc 1 378 1
.LBB19:
.LBB17:
	.loc 1 368 5
	addi	a1,a1,%lo(__boot2_flashCfg_src)
	addi	a0,a0,%lo(.LC0)
	.loc 1 369 58
	lui	s1,%hi(.LANCHOR0)
	.loc 1 368 5
	call	printf
.LVL80:
	.loc 1 369 5 is_stmt 1
	.loc 1 369 58 is_stmt 0
	addi	s1,s1,%lo(.LANCHOR0)
	.loc 1 369 5
	lbu	a1,13(s1)
	lui	a0,%hi(.LC1)
	addi	a0,a0,%lo(.LC1)
	call	printf
.LVL81:
	.loc 1 370 5 is_stmt 1
	lbu	a1,2(s1)
	lui	a0,%hi(.LC2)
	addi	a0,a0,%lo(.LC2)
	call	printf
.LVL82:
	.loc 1 371 5
	lbu	a1,3(s1)
	lui	a0,%hi(.LC3)
	addi	a0,a0,%lo(.LC3)
	call	printf
.LVL83:
	.loc 1 372 5
	lbu	a1,12(s1)
	lui	a0,%hi(.LC4)
	addi	a0,a0,%lo(.LC4)
	call	printf
.LVL84:
	.loc 1 373 5
	lhu	a1,14(s1)
	lui	a0,%hi(.LC5)
	addi	a0,a0,%lo(.LC5)
	call	printf
.LVL85:
	.loc 1 374 5
	lui	a0,%hi(.LC6)
	addi	a0,a0,%lo(.LC6)
	call	printf
.LVL86:
.LBE17:
.LBE19:
	.loc 1 381 5
	.loc 1 382 1 is_stmt 0
	lw	ra,12(sp)
	.cfi_restore 1
	lw	s0,8(sp)
	.cfi_restore 8
	.cfi_def_cfa 2, 16
	lw	s1,4(sp)
	.cfi_restore 9
	li	a0,0
	addi	sp,sp,16
	.cfi_def_cfa_offset 0
	jr	ra
	.cfi_endproc
.LFE19:
	.size	bl_flash_config_update, .-bl_flash_config_update
	.section	.text.bl_flash_get_flashCfg,"ax",@progbits
	.align	1
	.globl	bl_flash_get_flashCfg
	.type	bl_flash_get_flashCfg, @function
bl_flash_get_flashCfg:
.LFB20:
	.loc 1 385 1 is_stmt 1
	.cfi_startproc
	.loc 1 386 5
	.loc 1 385 1 is_stmt 0
	addi	sp,sp,-16
	.cfi_def_cfa_offset 16
	sw	s0,12(sp)
	.cfi_offset 8, -4
	addi	s0,sp,16
	.cfi_def_cfa 8, 0
	.loc 1 387 1
	lw	s0,12(sp)
	.cfi_restore 8
	.cfi_def_cfa 2, 16
	.loc 1 386 12
	lui	a0,%hi(.LANCHOR0)
	.loc 1 387 1
	addi	a0,a0,%lo(.LANCHOR0)
	addi	sp,sp,16
	.cfi_def_cfa_offset 0
	jr	ra
	.cfi_endproc
.LFE20:
	.size	bl_flash_get_flashCfg, .-bl_flash_get_flashCfg
	.section	.text.bl_flash_read_byxip,"ax",@progbits
	.align	1
	.globl	bl_flash_read_byxip
	.type	bl_flash_read_byxip, @function
bl_flash_read_byxip:
.LFB21:
	.loc 1 390 1 is_stmt 1
	.cfi_startproc
.LVL87:
	.loc 1 391 5
	.loc 1 392 5
	.loc 1 394 5
	.loc 1 390 1 is_stmt 0
	addi	sp,sp,-32
	.cfi_def_cfa_offset 32
	sw	s0,24(sp)
	sw	s1,20(sp)
	sw	s2,16(sp)
	sw	ra,28(sp)
	.cfi_offset 8, -8
	.cfi_offset 9, -12
	.cfi_offset 18, -16
	.cfi_offset 1, -4
	addi	s0,sp,32
	.cfi_def_cfa 8, 0
	.loc 1 390 1
	sw	a2,-20(s0)
	.loc 1 394 60
	li	a5,553717760
	.loc 1 394 15
	lw	a5,-1440(a5)
	.loc 1 390 1
	mv	s1,a0
	mv	s2,a1
	.loc 1 394 15
	jalr	a5
.LVL88:
	.loc 1 396 5 is_stmt 1
	.loc 1 396 8 is_stmt 0
	bgtu	a0,s1,.L43
	.loc 1 396 25 discriminator 1
	li	a4,16777216
	mv	a5,a0
	.loc 1 399 16 discriminator 1
	li	a0,-1
.LVL89:
	.loc 1 396 25 discriminator 1
	bgeu	s1,a4,.L41
	.loc 1 402 5 is_stmt 1
.LVL90:
	.loc 1 404 5
	lw	a2,-20(s0)
	.loc 1 402 13 is_stmt 0
	li	a1,587202560
	add	a1,s1,a1
	.loc 1 404 5
	sub	a1,a1,a5
	mv	a0,s2
	call	memcpy
.LVL91:
	.loc 1 406 5 is_stmt 1
	.loc 1 406 12 is_stmt 0
	li	a0,0
.L41:
	.loc 1 407 1
	lw	ra,28(sp)
	.cfi_remember_state
	.cfi_restore 1
	lw	s0,24(sp)
	.cfi_restore 8
	.cfi_def_cfa 2, 32
.LVL92:
	lw	s1,20(sp)
	.cfi_restore 9
.LVL93:
	lw	s2,16(sp)
	.cfi_restore 18
.LVL94:
	addi	sp,sp,32
	.cfi_def_cfa_offset 0
	jr	ra
.LVL95:
.L43:
	.cfi_restore_state
	.loc 1 399 16
	li	a0,-1
.LVL96:
	j	.L41
	.cfi_endproc
.LFE21:
	.size	bl_flash_read_byxip, .-bl_flash_read_byxip
	.section	.data.g_flash_cfg,"aw"
	.align	2
	.set	.LANCHOR0,. + 0
	.type	g_flash_cfg, @object
	.size	g_flash_cfg, 84
g_flash_cfg:
	.byte	4
	.byte	1
	.byte	1
	.byte	1
	.byte	102
	.byte	-103
	.byte	-1
	.byte	3
	.byte	-97
	.byte	0
	.byte	-97
	.byte	0
	.byte	4
	.byte	-56
	.half	256
	.byte	-57
	.byte	32
	.byte	82
	.byte	-40
	.byte	6
	.byte	2
	.byte	50
	.byte	0
	.byte	11
	.byte	1
	.byte	11
	.byte	1
	.byte	59
	.byte	1
	.byte	-69
	.byte	0
	.byte	107
	.byte	1
	.byte	-21
	.byte	2
	.byte	-21
	.byte	2
	.byte	2
	.byte	80
	.byte	0
	.byte	1
	.byte	0
	.byte	1
	.byte	1
	.byte	0
	.byte	0
	.byte	1
	.byte	2
	.byte	1
	.byte	-85
	.byte	1
	.string	"\0055"
	.zero	1
	.string	"\001\001"
	.zero	1
	.byte	56
	.byte	-1
	.byte	-96
	.byte	-1
	.byte	119
	.byte	3
	.byte	2
	.byte	64
	.byte	119
	.byte	3
	.byte	2
	.byte	-16
	.half	300
	.half	1200
	.half	1200
	.half	5
	.half	20000
	.byte	20
	.byte	0
	.text
.Letext0:
	.file 2 "/home/quanghaictu/intern/Ai-Thinker-WB2/toolchain/riscv/Linux/lib/gcc/riscv64-unknown-elf/10.2.0/include/stdint-gcc.h"
	.file 3 "/home/quanghaictu/intern/Ai-Thinker-WB2/components/platform/soc/bl602/bl602_std/bl602_std/StdDriver/Inc/bl602_common.h"
	.file 4 "/home/quanghaictu/intern/Ai-Thinker-WB2/components/platform/soc/bl602/bl602_std/bl602_std/StdDriver/Inc/bl602_sf_ctrl.h"
	.file 5 "/home/quanghaictu/intern/Ai-Thinker-WB2/components/platform/soc/bl602/bl602_std/bl602_std/StdDriver/Inc/bl602_sflash.h"
	.file 6 "/home/quanghaictu/intern/Ai-Thinker-WB2/components/platform/soc/bl602/bl602_std/bl602_std/StdDriver/Inc/bl602_romdriver.h"
	.file 7 "/home/quanghaictu/intern/Ai-Thinker-WB2/toolchain/riscv/Linux/riscv64-unknown-elf/include/string.h"
	.file 8 "/home/quanghaictu/intern/Ai-Thinker-WB2/toolchain/riscv/Linux/riscv64-unknown-elf/include/stdio.h"
	.file 9 "/home/quanghaictu/intern/Ai-Thinker-WB2/components/platform/hosal/bl602_hal/bl_irq.h"
	.file 10 "/home/quanghaictu/intern/Ai-Thinker-WB2/components/platform/soc/bl602/bl602_std/bl602_std/StdDriver/Inc/bl602_xip_sflash.h"
	.file 11 "/home/quanghaictu/intern/Ai-Thinker-WB2/components/platform/soc/bl602/bl602_std/bl602_std/StdDriver/Inc/bl602_xip_sflash_ext.h"
	.file 12 "/home/quanghaictu/intern/Ai-Thinker-WB2/components/platform/soc/bl602/bl602_std/bl602_std/StdDriver/Inc/bl602_sf_cfg_ext.h"
	.file 13 "/home/quanghaictu/intern/Ai-Thinker-WB2/components/platform/soc/bl602/bl602_std/bl602_std/Common/soft_crc/softcrc.h"
	.file 14 "/home/quanghaictu/intern/Ai-Thinker-WB2/components/platform/soc/bl602/bl602_std/bl602_std/StdDriver/Inc/bl602_l1c.h"