	.file	"bl_gpio_cli.c"
	.option nopic
	.attribute arch, "rv32i2p0_m2p0_f2p0_c2p0"
	.attribute unaligned_access, 0
	.attribute stack_align, 16
	.text
.Ltext0:
	.cfi_sections	.debug_frame
	.section	.rodata.cmd_gpio_get.str1.4,"aMS",@progbits,1
	.align	2
.LC0:
	.string	"Illegal arg\r\n"
	.section	.text.cmd_gpio_get,"ax",@progbits
	.align	1
	.type	cmd_gpio_get, @function
cmd_gpio_get:
.LFB6:
	.file 1 "/home/dinhquangha/Ai-Thinker-WB2/components/platform/hosal/bl602_hal/bl_gpio_cli.c"
	.loc 1 65 1
	.cfi_startproc
.LVL0:
	.loc 1 66 5
	.loc 1 67 5
	.loc 1 69 5
	.loc 1 70 5
	.loc 1 70 8 is_stmt 0
	li	a5,2
	bne	a2,a5,.L6
	.loc 1 76 5 is_stmt 1
	.loc 1 65 1 is_stmt 0
	addi	sp,sp,-32
	.cfi_def_cfa_offset 32
	sw	s0,24(sp)
	sw	ra,28(sp)
	.cfi_offset 8, -8
	.cfi_offset 1, -4
	addi	s0,sp,32
	.cfi_def_cfa 8, 0
	.loc 1 76 13
	lw	a0,4(a3)
.LVL1:
	call	atoi
.LVL2:
	.loc 1 77 5 is_stmt 1
	.loc 1 77 8 is_stmt 0
	bge	a0,zero,.L3
	.loc 1 78 9 is_stmt 1
	.loc 1 86 1 is_stmt 0
	lw	s0,24(sp)
	.cfi_remember_state
	.cfi_restore 8
	.cfi_def_cfa 2, 32
	lw	ra,28(sp)
	.cfi_restore 1
	.loc 1 78 9
	lui	a0,%hi(.LC0)
.LVL3:
	.loc 1 86 1
	.loc 1 78 9
	addi	a0,a0,%lo(.LC0)
	.loc 1 86 1
	addi	sp,sp,32
	.cfi_def_cfa_offset 0
	.loc 1 78 9
	tail	puts
.LVL4:
.L3:
	.cfi_restore_state
	.loc 1 81 5 is_stmt 1
	.loc 1 81 11 is_stmt 0
	addi	a1,s0,-17
	andi	a0,a0,0xff
.LVL5:
	call	bl_gpio_input_get
.LVL6:
	.loc 1 85 6 is_stmt 1
	.loc 1 86 1 is_stmt 0
	lw	ra,28(sp)
	.cfi_restore 1
	lw	s0,24(sp)
	.cfi_restore 8
	.cfi_def_cfa 2, 32
	addi	sp,sp,32
	.cfi_def_cfa_offset 0
	jr	ra
.LVL7:
.L6:
	ret
	.cfi_endproc
.LFE6:
	.size	cmd_gpio_get, .-cmd_gpio_get
	.section	.text.cmd_gpio_set,"ax",@progbits
	.align	1
	.type	cmd_gpio_set, @function
cmd_gpio_set:
.LFB5:
	.loc 1 42 1 is_stmt 1
	.cfi_startproc
.LVL8:
	.loc 1 43 5
	.loc 1 45 5
	.loc 1 45 8 is_stmt 0
	li	a5,3
	bne	a2,a5,.L14
	.loc 1 42 1
	addi	sp,sp,-16
	.cfi_def_cfa_offset 16
	sw	s0,8(sp)
	sw	s1,4(sp)
	sw	s2,0(sp)
	sw	ra,12(sp)
	.cfi_offset 8, -8
	.cfi_offset 9, -12
	.cfi_offset 18, -16
	.cfi_offset 1, -4
	addi	s0,sp,16
	.cfi_def_cfa 8, 0
.LBB4:
.LBB5:
	.loc 1 51 13
	lw	a0,4(a3)
.LVL9:
	mv	s2,a3
.LVL10:
	.loc 1 51 5 is_stmt 1
	.loc 1 51 13 is_stmt 0
	call	atoi
.LVL11:
	mv	s1,a0
.LVL12:
	.loc 1 52 5 is_stmt 1
	.loc 1 52 11 is_stmt 0
	lw	a0,8(s2)
	call	atoi
.LVL13:
	.loc 1 53 5 is_stmt 1
	.loc 1 53 8 is_stmt 0
	blt	s1,zero,.L9
	.loc 1 53 19
	blt	a0,zero,.L9
	.loc 1 60 6 is_stmt 1
	.loc 1 61 5
.LBE5:
.LBE4:
	.loc 1 62 1 is_stmt 0
	lw	s0,8(sp)
	.cfi_remember_state
	.cfi_restore 8
	.cfi_def_cfa 2, 16
	lw	ra,12(sp)
	.cfi_restore 1
	lw	s2,0(sp)
	.cfi_restore 18
.LVL14:
.LBB8:
.LBB6:
	.loc 1 61 5
	snez	a1,a0
	andi	a0,s1,0xff
.LVL15:
.LBE6:
.LBE8:
	.loc 1 62 1
	lw	s1,4(sp)
	.cfi_restore 9
.LVL16:
	addi	sp,sp,16
	.cfi_def_cfa_offset 0
.LBB9:
.LBB7:
	.loc 1 61 5
	tail	bl_gpio_output_set
.LVL17:
.L9:
	.cfi_restore_state
.LBE7:
.LBE9:
	.loc 1 62 1
	lw	ra,12(sp)
	.cfi_restore 1
	lw	s0,8(sp)
	.cfi_restore 8
	.cfi_def_cfa 2, 16
	lw	s1,4(sp)
	.cfi_restore 9
.LVL18:
	lw	s2,0(sp)
	.cfi_restore 18
.LVL19:
	addi	sp,sp,16
	.cfi_def_cfa_offset 0
	jr	ra
.LVL20:
.L14:
	ret
	.cfi_endproc
.LFE5:
	.size	cmd_gpio_set, .-cmd_gpio_set
	.section	.text.cmd_gpio_func,"ax",@progbits
	.align	1
	.type	cmd_gpio_func, @function
cmd_gpio_func:
.LFB4:
	.loc 1 11 1 is_stmt 1
	.cfi_startproc
.LVL21:
	.loc 1 12 5
	.loc 1 14 5
	.loc 1 14 8 is_stmt 0
	li	a5,5
	bne	a2,a5,.L23
	.loc 1 11 1
	addi	sp,sp,-32
	.cfi_def_cfa_offset 32
	sw	ra,28(sp)
	sw	s0,24(sp)
	sw	s1,20(sp)
	.cfi_offset 1, -4
	.cfi_offset 8, -8
	.cfi_offset 9, -12
	addi	s0,sp,32
	.cfi_def_cfa 8, 0
	sw	s2,16(sp)
	sw	s3,12(sp)
	sw	s4,8(sp)
	.cfi_offset 18, -16
	.cfi_offset 19, -20
	.cfi_offset 20, -24
.LBB12:
.LBB13:
	.loc 1 20 13
	lw	a0,4(a3)
.LVL22:
	mv	s3,a3
.LVL23:
	.loc 1 20 5 is_stmt 1
	.loc 1 20 13 is_stmt 0
	call	atoi
.LVL24:
	mv	s1,a0
.LVL25:
	.loc 1 21 5 is_stmt 1
	.loc 1 21 17 is_stmt 0
	lw	a0,8(s3)
	call	atoi
.LVL26:
	mv	s4,a0
.LVL27:
	.loc 1 22 5 is_stmt 1
	.loc 1 22 14 is_stmt 0
	lw	a0,12(s3)
.LVL28:
	call	atoi
.LVL29:
	mv	s2,a0
.LVL30:
	.loc 1 23 5 is_stmt 1
	.loc 1 23 16 is_stmt 0
	lw	a0,16(s3)
.LVL31:
	call	atoi
.LVL32:
	mv	a2,a0
.LVL33:
	.loc 1 24 5 is_stmt 1
	.loc 1 24 8 is_stmt 0
	blt	s1,zero,.L17
	.loc 1 24 19
	blt	s4,zero,.L17
	.loc 1 24 36
	blt	s2,zero,.L17
	.loc 1 24 50
	blt	a0,zero,.L17
	.loc 1 33 6 is_stmt 1
	.loc 1 34 5
	.loc 1 35 9 is_stmt 0
	andi	a0,s1,0xff
.LVL34:
	snez	a1,s2
	snez	a2,a2
.LVL35:
	.loc 1 34 8
	beq	s4,zero,.L21
	.loc 1 35 9 is_stmt 1
.LBE13:
.LBE12:
	.loc 1 39 1 is_stmt 0
	lw	s0,24(sp)
	.cfi_remember_state
	.cfi_restore 8
	.cfi_def_cfa 2, 32
	lw	ra,28(sp)
	.cfi_restore 1
	lw	s1,20(sp)
	.cfi_restore 9
.LVL36:
	lw	s2,16(sp)
	.cfi_restore 18
.LVL37:
	lw	s3,12(sp)
	.cfi_restore 19
.LVL38:
	lw	s4,8(sp)
	.cfi_restore 20
.LVL39:
	addi	sp,sp,32
	.cfi_def_cfa_offset 0
.LBB16:
.LBB14:
	.loc 1 35 9
	tail	bl_gpio_enable_input
.LVL40:
.L21:
	.cfi_restore_state
	.loc 1 37 9 is_stmt 1
.LBE14:
.LBE16:
	.loc 1 39 1 is_stmt 0
	lw	s0,24(sp)
	.cfi_remember_state
	.cfi_restore 8
	.cfi_def_cfa 2, 32
	lw	ra,28(sp)
	.cfi_restore 1
	lw	s1,20(sp)
	.cfi_restore 9
.LVL41:
	lw	s2,16(sp)
	.cfi_restore 18
.LVL42:
	lw	s3,12(sp)
	.cfi_restore 19
.LVL43:
	lw	s4,8(sp)
	.cfi_restore 20
.LVL44:
	addi	sp,sp,32
	.cfi_def_cfa_offset 0
.LBB17:
.LBB15:
	.loc 1 37 9
	tail	bl_gpio_enable_output
.LVL45:
.L17:
	.cfi_restore_state
.LBE15:
.LBE17:
	.loc 1 39 1
	lw	ra,28(sp)
	.cfi_restore 1
	lw	s0,24(sp)
	.cfi_restore 8
	.cfi_def_cfa 2, 32
	lw	s1,20(sp)
	.cfi_restore 9
.LVL46:
	lw	s2,16(sp)
	.cfi_restore 18
.LVL47:
	lw	s3,12(sp)
	.cfi_restore 19
.LVL48:
	lw	s4,8(sp)
	.cfi_restore 20
.LVL49:
	addi	sp,sp,32
	.cfi_def_cfa_offset 0
	jr	ra
.LVL50:
.L23:
	ret
	.cfi_endproc
.LFE4:
	.size	cmd_gpio_func, .-cmd_gpio_func
	.section	.text.bl_gpio_cli_init,"ax",@progbits
	.align	1
	.globl	bl_gpio_cli_init
	.type	bl_gpio_cli_init, @function
bl_gpio_cli_init:
.LFB7:
	.loc 1 96 1 is_stmt 1
	.cfi_startproc
	.loc 1 101 5
	.loc 1 96 1 is_stmt 0
	addi	sp,sp,-16
	.cfi_def_cfa_offset 16
	sw	s0,12(sp)
	.cfi_offset 8, -4
	addi	s0,sp,16
	.cfi_def_cfa 8, 0
	.loc 1 102 1
	lw	s0,12(sp)
	.cfi_restore 8
	.cfi_def_cfa 2, 16
	li	a0,0
	addi	sp,sp,16
	.cfi_def_cfa_offset 0
	jr	ra
	.cfi_endproc
.LFE7:
	.size	bl_gpio_cli_init, .-bl_gpio_cli_init
	.section	.rodata.str1.4,"aMS",@progbits,1
	.align	2
.LC1:
	.string	"gpio-func"
	.align	2
.LC2:
	.string	"gpio-func pinnum 0/1[0:output, 1:input] 0/1[pullup] 0/1[pulldown]"
	.align	2
.LC3:
	.string	"gpio-set"
	.align	2
.LC4:
	.string	"gpio-set pinnum 0/1"
	.align	2
.LC5:
	.string	"gpio-get"
	.align	2
.LC6:
	.string	"gpio-get pinnum"
	.section	.static_cli_cmds,"a"
	.align	2
	.type	cmds_user, @object
	.size	cmds_user, 36
cmds_user:
	.word	.LC1
	.word	.LC2
	.word	cmd_gpio_func
	.word	.LC3
	.word	.LC4
	.word	cmd_gpio_set
	.word	.LC5
	.word	.LC6
	.word	cmd_gpio_get
	.text
.Letext0:
	.file 2 "/home/dinhquangha/Ai-Thinker-WB2/toolchain/riscv/Linux/riscv64-unknown-elf/include/machine/_default_types.h"
	.file 3 "/home/dinhquangha/Ai-Thinker-WB2/toolchain/riscv/Linux/riscv64-unknown-elf/include/sys/_stdint.h"
	.file 4 "/home/dinhquangha/Ai-Thinker-WB2/components/stage/cli/cli/include/cli.h"
	.file 5 "/home/dinhquangha/Ai-Thinker-WB2/toolchain/riscv/Linux/riscv64-unknown-elf/include/stdlib.h"
	.file 6 "/home/dinhquangha/Ai-Thinker-WB2/toolchain/riscv/Linux/riscv64-unknown-elf/include/stdio.h"
	.file 7 "/home/dinhquangha/Ai-Thinker-WB2/components/platform/hosal/bl602_hal/bl_gpio.h"