	.file	"bl_sec_aes.c"
	.option nopic
	.attribute arch, "rv32i2p0_m2p0_f2p0_c2p0"
	.attribute unaligned_access, 0
	.attribute stack_align, 16
	.text
.Ltext0:
	.cfi_sections	.debug_frame
	.section	.text.bl_sec_aes_IRQHandler,"ax",@progbits
	.align	1
	.globl	bl_sec_aes_IRQHandler
	.type	bl_sec_aes_IRQHandler, @function
bl_sec_aes_IRQHandler:
.LFB16:
	.file 1 "/home/dinhquangha/Ai-Thinker-WB2/components/platform/hosal/bl602_hal/bl_sec_aes.c"
	.loc 1 263 1
	.cfi_startproc
	.loc 1 264 5
	.loc 1 265 5
.LBB40:
.LBB41:
	.loc 1 254 5
.LVL0:
	.loc 1 255 5
	.loc 1 257 5
.LBE41:
.LBE40:
	.loc 1 263 1 is_stmt 0
	addi	sp,sp,-16
	.cfi_def_cfa_offset 16
	sw	s0,12(sp)
	.cfi_offset 8, -4
	addi	s0,sp,16
	.cfi_def_cfa 8, 0
.LBB43:
.LBB42:
	.loc 1 257 9
	li	a4,1073758208
	lw	a5,256(a4)
.LVL1:
	.loc 1 258 5 is_stmt 1
	.loc 1 258 9 is_stmt 0
	ori	a5,a5,512
.LVL2:
	.loc 1 259 5 is_stmt 1
	.loc 1 259 43 is_stmt 0
	sw	a5,256(a4)
.LVL3:
.LBE42:
.LBE43:
	.loc 1 266 1
	lw	s0,12(sp)
	.cfi_restore 8
	.cfi_def_cfa 2, 16
	addi	sp,sp,16
	.cfi_def_cfa_offset 0
	jr	ra
	.cfi_endproc
.LFE16:
	.size	bl_sec_aes_IRQHandler, .-bl_sec_aes_IRQHandler
	.section	.text.get_key_type,"ax",@progbits
	.align	1
	.type	get_key_type, @function
get_key_type:
.LFB17:
	.loc 1 269 1 is_stmt 1
	.cfi_startproc
.LVL4:
	.loc 1 270 5
	.loc 1 269 1 is_stmt 0
	addi	sp,sp,-16
	.cfi_def_cfa_offset 16
	sw	s0,12(sp)
	.cfi_offset 8, -4
	addi	s0,sp,16
	.cfi_def_cfa 8, 0
	.loc 1 270 5
	li	a5,24
	beq	a0,a5,.L5
	addi	a0,a0,-32
.LVL5:
	seqz	a0,a0
.LVL6:
.L3:
	.loc 1 279 1
	lw	s0,12(sp)
	.cfi_remember_state
	.cfi_restore 8
	.cfi_def_cfa 2, 16
	addi	sp,sp,16
	.cfi_def_cfa_offset 0
	jr	ra
.LVL7:
.L5:
	.cfi_restore_state
	.loc 1 273 20
	li	a0,2
.LVL8:
	j	.L3
	.cfi_endproc
.LFE17:
	.size	get_key_type, .-get_key_type
	.section	.text.get_cbc_mac_input_size,"ax",@progbits
	.align	1
	.type	get_cbc_mac_input_size, @function
get_cbc_mac_input_size:
.LFB22:
	.loc 1 508 1 is_stmt 1
	.cfi_startproc
.LVL9:
	.loc 1 510 5
	.loc 1 511 2
	.loc 1 513 2
	.loc 1 508 1 is_stmt 0
	addi	sp,sp,-16
	.cfi_def_cfa_offset 16
	sw	s0,12(sp)
	.cfi_offset 8, -4
	addi	s0,sp,16
	.cfi_def_cfa 8, 0
	.loc 1 510 18
	li	a4,1
	.loc 1 513 4
	beq	a1,zero,.L8
	.loc 1 516 6 is_stmt 1
.LVL10:
	.loc 1 518 3
	.loc 1 518 5 is_stmt 0
	li	a5,14
	.loc 1 516 16
	li	a4,2
	.loc 1 518 5
	bleu	a1,a5,.L8
	.loc 1 520 7 is_stmt 1
	.loc 1 520 16 is_stmt 0
	addi	a1,a1,-14
.LVL11:
	.loc 1 521 13 is_stmt 1
	.loc 1 521 34 is_stmt 0
	srli	a5,a1,4
.LVL12:
	.loc 1 522 4 is_stmt 1
	.loc 1 522 16 is_stmt 0
	andi	a1,a1,15
.LVL13:
	.loc 1 523 17
	addi	a4,a5,3
	.loc 1 522 6
	bne	a1,zero,.L8
	.loc 1 521 23
	addi	a4,a5,2
.LVL14:
.L8:
	.loc 1 528 5 is_stmt 1
	.loc 1 528 25 is_stmt 0
	srli	a5,a0,4
	.loc 1 529 13
	andi	a0,a0,15
.LVL15:
	.loc 1 528 15
	add	a5,a5,a4
.LVL16:
	.loc 1 529 2 is_stmt 1
	.loc 1 529 4 is_stmt 0
	beq	a0,zero,.L10
	.loc 1 530 3 is_stmt 1
	.loc 1 530 12 is_stmt 0
	addi	a5,a5,1
.LVL17:
.L10:
	.loc 1 532 2 is_stmt 1
	.loc 1 533 1 is_stmt 0
	lw	s0,12(sp)
	.cfi_restore 8
	.cfi_def_cfa 2, 16
	slli	a0,a5,4
	addi	sp,sp,16
	.cfi_def_cfa_offset 0
	jr	ra
	.cfi_endproc
.LFE22:
	.size	get_cbc_mac_input_size, .-get_cbc_mac_input_size
	.section	.text.get_cbc_mac_input,"ax",@progbits
	.align	1
	.type	get_cbc_mac_input, @function
get_cbc_mac_input:
.LFB18:
	.loc 1 286 1 is_stmt 1
	.cfi_startproc
.LVL18:
	.loc 1 287 5
	.loc 1 288 5
	.loc 1 289 5
	.loc 1 290 5
	.loc 1 291 5
	.loc 1 292 5
	.loc 1 293 5
	.loc 1 294 5
	.loc 1 296 5
	.loc 1 286 1 is_stmt 0
	addi	sp,sp,-64
	.cfi_def_cfa_offset 64
	sw	s0,56(sp)
	sw	s3,44(sp)
	sw	ra,60(sp)
	sw	s1,52(sp)
	sw	s2,48(sp)
	sw	s4,40(sp)
	sw	s5,36(sp)
	sw	s6,32(sp)
	sw	s7,28(sp)
	sw	s8,24(sp)
	sw	s9,20(sp)
	sw	s10,16(sp)
	.cfi_offset 8, -8
	.cfi_offset 19, -20
	.cfi_offset 1, -4
	.cfi_offset 9, -12
	.cfi_offset 18, -16
	.cfi_offset 20, -24
	.cfi_offset 21, -28
	.cfi_offset 22, -32
	.cfi_offset 23, -36
	.cfi_offset 24, -40
	.cfi_offset 25, -44
	.cfi_offset 26, -48
	addi	s0,sp,64
	.cfi_def_cfa 8, 0
	mv	s3,a5
	.loc 1 296 7
	li	a5,2
.LVL19:
	bne	a6,a5,.L19
.LVL20:
.L21:
	.loc 1 297 15
	li	a0,-1
.LVL21:
.L18:
	.loc 1 431 1
	lw	ra,60(sp)
	.cfi_remember_state
	.cfi_restore 1
	lw	s0,56(sp)
	.cfi_restore 8
	.cfi_def_cfa 2, 64
	lw	s1,52(sp)
	.cfi_restore 9
	lw	s2,48(sp)
	.cfi_restore 18
	lw	s3,44(sp)
	.cfi_restore 19
	lw	s4,40(sp)
	.cfi_restore 20
	lw	s5,36(sp)
	.cfi_restore 21
	lw	s6,32(sp)
	.cfi_restore 22
	lw	s7,28(sp)
	.cfi_restore 23
	lw	s8,24(sp)
	.cfi_restore 24
	lw	s9,20(sp)
	.cfi_restore 25
	lw	s10,16(sp)
	.cfi_restore 26
	addi	sp,sp,64
	.cfi_def_cfa_offset 0
	jr	ra
.LVL22:
.L19:
	.cfi_restore_state
	.loc 1 296 22 discriminator 1
	li	a5,16
	bgtu	a6,a5,.L21
	.loc 1 296 49 discriminator 2
	andi	a5,a6,1
	.loc 1 296 38 discriminator 2
	bne	a5,zero,.L21
	mv	s1,a4
	.loc 1 300 5 is_stmt 1
	.loc 1 300 20 is_stmt 0
	addi	a5,a2,-7
	.loc 1 300 7
	li	a4,6
.LVL23:
	mv	s2,a0
	bgtu	a5,a4,.L21
	.loc 1 303 5 is_stmt 1
	.loc 1 303 7 is_stmt 0
	li	a5,65536
	addi	a5,a5,-257
	bgtu	s1,a5,.L21
	.loc 1 332 25
	addi	a4,a6,-2
	.loc 1 331 10
	snez	a5,s1
	.loc 1 332 31
	srli	a4,a4,1
	.loc 1 331 10
	slli	a5,a5,6
	.loc 1 332 37
	slli	a4,a4,3
	.loc 1 306 18
	andi	a0,a2,0xff
.LVL24:
	.loc 1 332 10
	or	a4,a4,a5
	.loc 1 306 7
	li	s6,15
	.loc 1 333 15
	li	a5,14
	.loc 1 306 7
	sub	s6,s6,a0
	.loc 1 333 15
	sub	a0,a5,a0
	.loc 1 333 10
	or	a4,a4,a0
	.loc 1 335 5
	addi	a0,s0,-63
	.loc 1 333 10
	sb	a4,-64(s0)
	mv	s4,a3
	mv	s5,a7
	.loc 1 306 5 is_stmt 1
	.loc 1 335 5 is_stmt 0
	addi	s7,s0,-64
	call	BL602_MemCpy_Fast
.LVL25:
	.loc 1 306 7
	andi	s6,s6,0xff
.LVL26:
	.loc 1 330 5 is_stmt 1
	.loc 1 331 5
	.loc 1 332 5
	.loc 1 333 5
	.loc 1 335 5
	.loc 1 337 5
	.loc 1 337 35
	.loc 1 335 5 is_stmt 0
	mv	a4,s7
	.loc 1 337 25
	mv	a5,s2
.LVL27:
.L23:
	.loc 1 338 9 is_stmt 1 discriminator 3
	.loc 1 338 21 is_stmt 0 discriminator 3
	sb	a5,15(a4)
	.loc 1 337 42 is_stmt 1 discriminator 3
.LVL28:
	.loc 1 337 5 is_stmt 0 discriminator 3
	addi	a4,a4,-1
.LVL29:
	sub	a3,s7,a4
	andi	a3,a3,0xff
	.loc 1 337 56 discriminator 3
	srli	a5,a5,8
.LVL30:
	.loc 1 337 35 is_stmt 1 discriminator 3
	.loc 1 337 5 is_stmt 0 discriminator 3
	bgtu	s6,a3,.L23
	.loc 1 340 5 is_stmt 1
	.loc 1 340 7 is_stmt 0
	bne	a5,zero,.L21
	.loc 1 343 5 is_stmt 1
	li	a2,16
	mv	a1,s7
	mv	a0,s5
	call	BL602_MemCpy_Fast
.LVL31:
	.loc 1 349 5
	.loc 1 349 7 is_stmt 0
	beq	s1,zero,.L24
.LBB44:
	.loc 1 351 9 is_stmt 1
	.loc 1 352 9
.LVL32:
	.loc 1 353 9
	.loc 1 355 9
	li	a2,16
	li	a1,0
	mv	a0,s7
	call	BL602_MemSet
.LVL33:
	.loc 1 378 9
	.loc 1 380 9
	.loc 1 381 9
	.loc 1 380 14 is_stmt 0
	slli	a4,s1,16
	srli	a4,a4,16
	slli	a5,s1,8
	srli	a4,a4,8
	or	a5,a5,a4
	sh	a5,-64(s0)
	.loc 1 383 9 is_stmt 1
	.loc 1 383 17 is_stmt 0
	li	a5,14
	mv	s8,s1
	bleu	s1,a5,.L25
	li	s8,14
.L25:
.LVL34:
	.loc 1 384 9 is_stmt 1
	mv	a1,s4
	mv	a2,s8
	addi	a0,s0,-62
	call	BL602_MemCpy_Fast
.LVL35:
	.loc 1 385 9
	.loc 1 388 9 is_stmt 0
	li	a2,16
	mv	a1,s7
	addi	a0,s5,16
	.loc 1 385 18
	sub	s6,s1,s8
.LVL36:
	.loc 1 386 9 is_stmt 1
	.loc 1 386 13 is_stmt 0
	add	s4,s4,s8
.LVL37:
	.loc 1 388 9 is_stmt 1
	call	BL602_MemCpy_Fast
.LVL38:
	.loc 1 390 9
	.loc 1 378 25 is_stmt 0
	li	s1,1
.LVL39:
	.loc 1 394 21
	li	s9,16
	.loc 1 395 16
	li	s10,15
.LVL40:
.L26:
	.loc 1 390 14 is_stmt 1
	.loc 1 392 28 is_stmt 0
	addi	s8,s1,1
	.loc 1 390 14
	bne	s6,zero,.L29
.LVL41:
.L24:
.LBE44:
	.loc 1 412 5 is_stmt 1
	.loc 1 413 5
	.loc 1 416 5
	.loc 1 418 5
	slli	s1,s1,4
	add	s1,s5,s1
.LBB45:
	.loc 1 420 16 is_stmt 0
	li	s5,16
.LVL42:
.L30:
.LBE45:
	.loc 1 418 10 is_stmt 1
	addi	s1,s1,16
	bne	s2,zero,.L32
	.loc 1 430 12 is_stmt 0
	li	a0,0
	j	.L18
.LVL43:
.L29:
.LBB46:
	.loc 1 392 13 is_stmt 1
	.loc 1 394 13
	.loc 1 394 21 is_stmt 0
	mv	s1,s6
	bleu	s6,s9,.L27
.LVL44:
	li	s1,16
.LVL45:
.L27:
	.loc 1 395 13 is_stmt 1
	slli	s7,s8,4
	add	s7,s5,s7
	.loc 1 395 16 is_stmt 0
	bgtu	s6,s10,.L28
	.loc 1 396 17 is_stmt 1
	li	a2,16
	li	a1,0
	mv	a0,s7
	call	BL602_MemSet
.LVL46:
.L28:
	.loc 1 399 13
	mv	a2,s1
	mv	a1,s4
	mv	a0,s7
	.loc 1 401 22 is_stmt 0
	sub	s6,s6,s1
.LVL47:
	.loc 1 402 17
	add	s4,s4,s1
.LVL48:
	.loc 1 399 13
	call	BL602_MemCpy_Fast
.LVL49:
	.loc 1 401 13 is_stmt 1
	.loc 1 402 13
	.loc 1 392 28 is_stmt 0
	mv	s1,s8
.LVL50:
	j	.L26
.LVL51:
.L32:
.LBE46:
.LBB47:
	.loc 1 420 9 is_stmt 1
	.loc 1 420 16 is_stmt 0
	mv	s4,s2
	bleu	s2,s5,.L31
	li	s4,16
.L31:
.LVL52:
	.loc 1 422 9 is_stmt 1
	mv	a1,s3
	mv	a2,s4
	mv	a0,s1
	call	BL602_MemCpy_Fast
.LVL53:
	.loc 1 424 9
	.loc 1 424 13 is_stmt 0
	add	s3,s3,s4
.LVL54:
	.loc 1 425 9 is_stmt 1
	.loc 1 425 18 is_stmt 0
	sub	s2,s2,s4
.LVL55:
	.loc 1 427 9 is_stmt 1
	j	.L30
.LBE47:
	.cfi_endproc
.LFE18:
	.size	get_cbc_mac_input, .-get_cbc_mac_input
	.section	.text.bl_sec_aes_enc,"ax",@progbits
	.align	1
	.globl	bl_sec_aes_enc
	.type	bl_sec_aes_enc, @function
bl_sec_aes_enc:
.LFB8:
	.loc 1 17 1
	.cfi_startproc
.LVL56:
	.loc 1 18 5
	.loc 1 17 1 is_stmt 0
	addi	sp,sp,-16
	.cfi_def_cfa_offset 16
	sw	s0,12(sp)
	.cfi_offset 8, -4
	addi	s0,sp,16
	.cfi_def_cfa 8, 0
	.loc 1 19 1
	lw	s0,12(sp)
	.cfi_restore 8
	.cfi_def_cfa 2, 16
	li	a0,0
.LVL57:
	addi	sp,sp,16
	.cfi_def_cfa_offset 0
	jr	ra
	.cfi_endproc
.LFE8:
	.size	bl_sec_aes_enc, .-bl_sec_aes_enc
	.section	.rodata.Sec_Eng_AES_Link_Case_CBC_128.str1.4,"aMS",@progbits,1
	.align	2
.LC0:
	.string	"[CBC] AES-128-CBC case...\r\n"
	.section	.text.Sec_Eng_AES_Link_Case_CBC_128,"ax",@progbits
	.align	1
	.globl	Sec_Eng_AES_Link_Case_CBC_128
	.type	Sec_Eng_AES_Link_Case_CBC_128, @function
Sec_Eng_AES_Link_Case_CBC_128:
.LFB11:
	.loc 1 66 1 is_stmt 1
	.cfi_startproc
.LVL58:
	.loc 1 67 5
	.loc 1 68 5
	.loc 1 77 5
	.loc 1 66 1 is_stmt 0
	addi	sp,sp,-112
	.cfi_def_cfa_offset 112
	sw	ra,108(sp)
	sw	s0,104(sp)
	sw	s1,100(sp)
	.cfi_offset 1, -4
	.cfi_offset 8, -8
	.cfi_offset 9, -12
	addi	s0,sp,112
	.cfi_def_cfa 8, 0
	sw	s2,96(sp)
	.cfi_offset 18, -16
	.loc 1 66 1
	mv	s1,a0
	.loc 1 77 34
	li	a2,60
	li	a1,0
	addi	a0,s0,-76
.LVL59:
	call	memset
.LVL60:
	li	a5,73728
	addi	a5,a5,1024
	sw	a5,-76(s0)
	li	a5,50462720
	addi	a5,a5,256
	sw	a5,-64(s0)
	li	a5,117833728
	addi	a5,a5,1284
	sw	a5,-60(s0)
	li	a5,185208832
	addi	a5,a5,-1784
	sw	a5,-56(s0)
	li	a5,252579840
	addi	a5,a5,-756
	sw	a5,-52(s0)
	li	a5,370507776
	addi	a5,a5,-469
	sw	a5,-48(s0)
	li	a5,-1496141824
	addi	a5,a5,-472
	sw	a5,-44(s0)
	li	a5,-2011828224
	addi	a5,a5,1963
	sw	a5,-40(s0)
	li	a5,1011863552
	addi	a5,a5,-247
	.loc 1 102 5
	mv	a0,s1
	.loc 1 77 34
	sw	a5,-36(s0)
	.loc 1 102 5 is_stmt 1
	call	Sec_Eng_AES_Enable_Link
.LVL61:
	.loc 1 104 5
	lui	a0,%hi(.LC0)
	addi	a0,a0,%lo(.LC0)
	call	puts
.LVL62:
	.loc 1 106 5
	.loc 1 107 5
	.loc 1 45 5
	.loc 1 46 5
	.loc 1 48 5
	.loc 1 49 5
	.loc 1 51 5
	.loc 1 51 52
	.loc 1 54 5
	.loc 1 108 5
	lui	a2,%hi(.LANCHOR0)
	addi	s2,a2,%lo(.LANCHOR0)
	addi	a4,s0,-108
	addi	a1,s0,-76
	li	a3,32
	addi	a2,a2,%lo(.LANCHOR0)
	mv	a0,s1
	call	Sec_Eng_AES_Link_Work
.LVL63:
	.loc 1 109 5
	.loc 1 23 5
	.loc 1 25 5
	.loc 1 25 17
	.loc 1 36 5
	.loc 1 39 9
	.loc 1 110 5
	.loc 1 111 5
	.loc 1 45 5
	.loc 1 46 5
	.loc 1 48 5
	.loc 1 49 5
	.loc 1 51 5
	.loc 1 51 52
	.loc 1 54 5
	.loc 1 113 5
	addi	a4,s0,-108
	addi	a2,s2,32
	addi	a1,s0,-76
	li	a3,16
	mv	a0,s1
	call	Sec_Eng_AES_Link_Work
.LVL64:
	.loc 1 114 5
	.loc 1 23 5
	.loc 1 25 5
	.loc 1 25 17
	.loc 1 36 5
	.loc 1 39 9
	.loc 1 115 5
	.loc 1 116 5
	.loc 1 45 5
	.loc 1 46 5
	.loc 1 48 5
	.loc 1 49 5
	.loc 1 51 5
	.loc 1 51 52
	.loc 1 54 5
	.loc 1 118 5
	addi	a4,s0,-108
	addi	a2,s2,48
	addi	a1,s0,-76
	li	a3,16
	mv	a0,s1
	call	Sec_Eng_AES_Link_Work
.LVL65:
	.loc 1 119 5
	.loc 1 23 5
	.loc 1 25 5
	.loc 1 25 17
	.loc 1 36 5
	.loc 1 39 9
	.loc 1 120 5
	.loc 1 121 5
	.loc 1 45 5
	.loc 1 46 5
	.loc 1 48 5
	.loc 1 49 5
	.loc 1 51 5
	.loc 1 51 52
	.loc 1 54 5
	.loc 1 123 5
	mv	a0,s1
	call	Sec_Eng_AES_Disable_Link
.LVL66:
	.loc 1 124 1 is_stmt 0
	lw	ra,108(sp)
	.cfi_restore 1
	lw	s0,104(sp)
	.cfi_restore 8
	.cfi_def_cfa 2, 112
.LVL67:
	lw	s1,100(sp)
	.cfi_restore 9
.LVL68:
	lw	s2,96(sp)
	.cfi_restore 18
	addi	sp,sp,112
	.cfi_def_cfa_offset 0
	jr	ra
	.cfi_endproc
.LFE11:
	.size	Sec_Eng_AES_Link_Case_CBC_128, .-Sec_Eng_AES_Link_Case_CBC_128
	.section	.rodata.Sec_Eng_AES_Link_Case_CTR_128.str1.4,"aMS",@progbits,1
	.align	2
.LC1:
	.string	"[CTR] AES-128-CTR case...\r\n"
	.section	.text.Sec_Eng_AES_Link_Case_CTR_128,"ax",@progbits
	.align	1
	.globl	Sec_Eng_AES_Link_Case_CTR_128
	.type	Sec_Eng_AES_Link_Case_CTR_128, @function
Sec_Eng_AES_Link_Case_CTR_128:
.LFB12:
	.loc 1 127 1 is_stmt 1
	.cfi_startproc
.LVL69:
	.loc 1 128 5
	.loc 1 129 5
	.loc 1 136 5
	.loc 1 127 1 is_stmt 0
	addi	sp,sp,-112
	.cfi_def_cfa_offset 112
	sw	ra,108(sp)
	sw	s0,104(sp)
	sw	s1,100(sp)
	.cfi_offset 1, -4
	.cfi_offset 8, -8
	.cfi_offset 9, -12
	addi	s0,sp,112
	.cfi_def_cfa 8, 0
	sw	s2,96(sp)
	.cfi_offset 18, -16
	.loc 1 127 1
	mv	s1,a0
	.loc 1 136 34
	li	a2,60
	li	a1,0
	addi	a0,s0,-76
.LVL70:
	call	memset
.LVL71:
	li	a5,69632
	addi	a5,a5,1024
	sw	a5,-76(s0)
	li	a5,-202182656
	addi	a5,a5,496
	sw	a5,-64(s0)
	li	a5,-134811648
	addi	a5,a5,1524
	sw	a5,-60(s0)
	li	a5,-67436544
	addi	a5,a5,-1544
	sw	a5,-56(s0)
	li	a5,-65536
	addi	a5,a5,-516
	sw	a5,-52(s0)
	li	a5,370507776
	addi	a5,a5,-469
	sw	a5,-48(s0)
	li	a5,-1496141824
	addi	a5,a5,-472
	sw	a5,-44(s0)
	li	a5,-2011828224
	addi	a5,a5,1963
	sw	a5,-40(s0)
	li	a5,1011863552
	addi	a5,a5,-247
	.loc 1 161 5
	mv	a0,s1
	.loc 1 136 34
	sw	a5,-36(s0)
	.loc 1 161 5 is_stmt 1
	call	Sec_Eng_AES_Enable_Link
.LVL72:
	.loc 1 163 5
	lui	a0,%hi(.LC1)
	addi	a0,a0,%lo(.LC1)
	call	puts
.LVL73:
	.loc 1 164 5
	.loc 1 165 5
	.loc 1 45 5
	.loc 1 46 5
	.loc 1 48 5
	.loc 1 49 5
	.loc 1 51 5
	.loc 1 51 52
	.loc 1 54 5
	.loc 1 167 5
	lui	a2,%hi(.LANCHOR0)
	addi	s2,a2,%lo(.LANCHOR0)
	addi	a4,s0,-108
	addi	a1,s0,-76
	li	a3,32
	addi	a2,a2,%lo(.LANCHOR0)
	mv	a0,s1
	call	Sec_Eng_AES_Link_Work
.LVL74:
	.loc 1 168 5
	.loc 1 23 5
	.loc 1 25 5
	.loc 1 25 17
	.loc 1 36 5
	.loc 1 39 9
	.loc 1 170 5
	.loc 1 171 5
	.loc 1 45 5
	.loc 1 46 5
	.loc 1 48 5
	.loc 1 49 5
	.loc 1 51 5
	.loc 1 51 52
	.loc 1 54 5
	.loc 1 173 5
	addi	a4,s0,-108
	addi	a2,s2,32
	addi	a1,s0,-76
	li	a3,16
	mv	a0,s1
	call	Sec_Eng_AES_Link_Work
.LVL75:
	.loc 1 174 5
	.loc 1 23 5
	.loc 1 25 5
	.loc 1 25 17
	.loc 1 36 5
	.loc 1 39 9
	.loc 1 175 5
	.loc 1 176 5
	.loc 1 45 5
	.loc 1 46 5
	.loc 1 48 5
	.loc 1 49 5
	.loc 1 51 5
	.loc 1 51 52
	.loc 1 54 5
	.loc 1 178 5
	addi	a4,s0,-108
	addi	a2,s2,48
	addi	a1,s0,-76
	li	a3,16
	mv	a0,s1
	call	Sec_Eng_AES_Link_Work
.LVL76:
	.loc 1 179 5
	.loc 1 23 5
	.loc 1 25 5
	.loc 1 25 17
	.loc 1 36 5
	.loc 1 39 9
	.loc 1 180 5
	.loc 1 181 5
	.loc 1 45 5
	.loc 1 46 5
	.loc 1 48 5
	.loc 1 49 5
	.loc 1 51 5
	.loc 1 51 52
	.loc 1 54 5
	.loc 1 183 5
	mv	a0,s1
	call	Sec_Eng_AES_Disable_Link
.LVL77:
	.loc 1 184 1 is_stmt 0
	lw	ra,108(sp)
	.cfi_restore 1
	lw	s0,104(sp)
	.cfi_restore 8
	.cfi_def_cfa 2, 112
.LVL78:
	lw	s1,100(sp)
	.cfi_restore 9
.LVL79:
	lw	s2,96(sp)
	.cfi_restore 18
	addi	sp,sp,112
	.cfi_def_cfa_offset 0
	jr	ra
	.cfi_endproc
.LFE12:
	.size	Sec_Eng_AES_Link_Case_CTR_128, .-Sec_Eng_AES_Link_Case_CTR_128
	.section	.rodata.Sec_Eng_AES_Link_Case_ECB_128.str1.4,"aMS",@progbits,1
	.align	2
.LC2:
	.string	"[ECB] AES-128-ECB case...\r\n"
	.section	.text.Sec_Eng_AES_Link_Case_ECB_128,"ax",@progbits
	.align	1
	.globl	Sec_Eng_AES_Link_Case_ECB_128
	.type	Sec_Eng_AES_Link_Case_ECB_128, @function
Sec_Eng_AES_Link_Case_ECB_128:
.LFB13:
	.loc 1 187 1 is_stmt 1
	.cfi_startproc
.LVL80:
	.loc 1 188 5
	.loc 1 189 5
	.loc 1 196 5
	.loc 1 187 1 is_stmt 0
	addi	sp,sp,-112
	.cfi_def_cfa_offset 112
	sw	ra,108(sp)
	sw	s0,104(sp)
	sw	s1,100(sp)
	.cfi_offset 1, -4
	.cfi_offset 8, -8
	.cfi_offset 9, -12
	addi	s0,sp,112
	.cfi_def_cfa 8, 0
	sw	s2,96(sp)
	.cfi_offset 18, -16
	.loc 1 187 1
	mv	s1,a0
	.loc 1 196 34
	li	a2,60
	li	a1,0
	addi	a0,s0,-76
.LVL81:
	call	memset
.LVL82:
	li	a5,65536
	addi	a5,a5,1024
	sw	a5,-76(s0)
	li	a5,-202182656
	addi	a5,a5,496
	sw	a5,-64(s0)
	li	a5,-134811648
	addi	a5,a5,1524
	sw	a5,-60(s0)
	li	a5,-67436544
	addi	a5,a5,-1544
	sw	a5,-56(s0)
	li	a5,-65536
	addi	a5,a5,-516
	sw	a5,-52(s0)
	li	a5,370507776
	addi	a5,a5,-469
	sw	a5,-48(s0)
	li	a5,-1496141824
	addi	a5,a5,-472
	sw	a5,-44(s0)
	li	a5,-2011828224
	addi	a5,a5,1963
	sw	a5,-40(s0)
	.loc 1 221 5
	lui	a0,%hi(.LC2)
	.loc 1 196 34
	li	a5,1011863552
	addi	a5,a5,-247
	.loc 1 221 5
	addi	a0,a0,%lo(.LC2)
	.loc 1 196 34
	sw	a5,-36(s0)
	.loc 1 221 5 is_stmt 1
	call	puts
.LVL83:
	.loc 1 223 5
	mv	a0,s1
	call	Sec_Eng_AES_Enable_Link
.LVL84:
	.loc 1 225 5
	lui	a2,%hi(.LANCHOR0)
	addi	s2,a2,%lo(.LANCHOR0)
	addi	a4,s0,-108
	addi	a1,s0,-76
	li	a3,32
	addi	a2,a2,%lo(.LANCHOR0)
	mv	a0,s1
	call	Sec_Eng_AES_Link_Work
.LVL85:
	.loc 1 226 5
	.loc 1 23 5
	.loc 1 25 5
	.loc 1 25 17
	.loc 1 36 5
	.loc 1 39 9
	.loc 1 228 5
	addi	a4,s0,-108
	addi	a2,s2,32
	addi	a1,s0,-76
	li	a3,16
	mv	a0,s1
	call	Sec_Eng_AES_Link_Work
.LVL86:
	.loc 1 229 5
	.loc 1 23 5
	.loc 1 25 5
	.loc 1 25 17
	.loc 1 36 5
	.loc 1 39 9
	.loc 1 231 5
	addi	a4,s0,-108
	addi	a2,s2,48
	addi	a1,s0,-76
	li	a3,16
	mv	a0,s1
	call	Sec_Eng_AES_Link_Work
.LVL87:
	.loc 1 232 5
	.loc 1 23 5
	.loc 1 25 5
	.loc 1 25 17
	.loc 1 36 5
	.loc 1 39 9
	.loc 1 234 5
	mv	a0,s1
	call	Sec_Eng_AES_Disable_Link
.LVL88:
	.loc 1 235 1 is_stmt 0
	lw	ra,108(sp)
	.cfi_restore 1
	lw	s0,104(sp)
	.cfi_restore 8
	.cfi_def_cfa 2, 112
	lw	s1,100(sp)
	.cfi_restore 9
.LVL89:
	lw	s2,96(sp)
	.cfi_restore 18
	addi	sp,sp,112
	.cfi_def_cfa_offset 0
	jr	ra
	.cfi_endproc
.LFE13:
	.size	Sec_Eng_AES_Link_Case_ECB_128, .-Sec_Eng_AES_Link_Case_ECB_128
	.section	.text.bl_sec_aes_test,"ax",@progbits
	.align	1
	.globl	bl_sec_aes_test
	.type	bl_sec_aes_test, @function
bl_sec_aes_test:
.LFB14:
	.loc 1 238 1 is_stmt 1
	.cfi_startproc
	.loc 1 239 5
	.loc 1 238 1 is_stmt 0
	addi	sp,sp,-16
	.cfi_def_cfa_offset 16
	sw	ra,12(sp)
	sw	s0,8(sp)
	.loc 1 239 5
	lui	a1,%hi(bl_sec_aes_IRQHandler)
	.cfi_offset 1, -4
	.cfi_offset 8, -8
	.loc 1 238 1
	addi	s0,sp,16
	.cfi_def_cfa 8, 0
	.loc 1 239 5
	addi	a1,a1,%lo(bl_sec_aes_IRQHandler)
	li	a0,29
	call	bl_irq_register
.LVL90:
	.loc 1 240 5 is_stmt 1
	li	a0,29
	call	bl_irq_enable
.LVL91:
	.loc 1 241 5
	.loc 1 242 5
	li	a0,0
	call	Sec_Eng_AES_Link_Case_CBC_128
.LVL92:
	.loc 1 243 5
	.loc 1 244 5
	li	a0,0
	call	Sec_Eng_AES_Link_Case_CTR_128
.LVL93:
	.loc 1 245 5
	.loc 1 246 5
	li	a0,0
	call	Sec_Eng_AES_Link_Case_ECB_128
.LVL94:
	.loc 1 247 5
	.loc 1 248 5
	.loc 1 249 1 is_stmt 0
	lw	ra,12(sp)
	.cfi_restore 1
	lw	s0,8(sp)
	.cfi_restore 8
	.cfi_def_cfa 2, 16
	li	a0,0
	addi	sp,sp,16
	.cfi_def_cfa_offset 0
	jr	ra
	.cfi_endproc
.LFE14:
	.size	bl_sec_aes_test, .-bl_sec_aes_test
	.section	.text.bl_sec_ccm_encrypt_and_tag,"ax",@progbits
	.align	1
	.globl	bl_sec_ccm_encrypt_and_tag
	.type	bl_sec_ccm_encrypt_and_tag, @function
bl_sec_ccm_encrypt_and_tag:
.LFB24:
	.loc 1 549 1 is_stmt 1
	.cfi_startproc
.LVL95:
	.loc 1 551 2
	.loc 1 549 1 is_stmt 0
	addi	sp,sp,-112
	.cfi_def_cfa_offset 112
	sw	ra,108(sp)
	sw	s0,104(sp)
	sw	s3,92(sp)
	.cfi_offset 1, -4
	.cfi_offset 8, -8
	.cfi_offset 19, -20
	addi	s0,sp,112
	.cfi_def_cfa 8, 0
	sw	s4,88(sp)
	sw	s5,84(sp)
	sw	s6,80(sp)
	sw	s7,76(sp)
	sw	s8,72(sp)
	sw	s9,68(sp)
	sw	s10,64(sp)
	sw	s11,60(sp)
	sw	s1,100(sp)
	sw	s2,96(sp)
	.cfi_offset 20, -24
	.cfi_offset 21, -28
	.cfi_offset 22, -32
	.cfi_offset 23, -36
	.cfi_offset 24, -40
	.cfi_offset 25, -44
	.cfi_offset 26, -48
	.cfi_offset 27, -52
	.cfi_offset 9, -12
	.cfi_offset 18, -16
	.loc 1 549 1
	sw	a0,-100(s0)
	mv	s6,a1
	.loc 1 562 18
	mv	a0,a2
.LVL96:
	mv	a1,a6
.LVL97:
	.loc 1 549 1
	mv	s3,a2
	mv	s11,a3
	mv	s8,a4
	mv	s10,a5
	mv	s4,a6
	mv	s7,a7
	.loc 1 551 16
	sw	zero,-96(s0)
	sw	zero,-92(s0)
	sw	zero,-88(s0)
	sw	zero,-84(s0)
	.loc 1 552 2 is_stmt 1
	.loc 1 552 16 is_stmt 0
	sw	zero,-80(s0)
	sw	zero,-76(s0)
	sw	zero,-72(s0)
	sw	zero,-68(s0)
	.loc 1 553 2 is_stmt 1
.LVL98:
	.loc 1 554 2
	.loc 1 555 2
	.loc 1 556 2
	.loc 1 557 2
	.loc 1 558 2
	.loc 1 559 2
	.loc 1 562 5
	.loc 1 562 18 is_stmt 0
	call	get_cbc_mac_input_size
.LVL99:
	mv	s5,a0
.LVL100:
	.loc 1 564 2 is_stmt 1
	.loc 1 566 2
	.loc 1 566 12 is_stmt 0
	call	pvPortMalloc
.LVL101:
	.loc 1 568 2 is_stmt 1
	.loc 1 570 10 is_stmt 0
	li	s9,-1
	.loc 1 568 4
	beq	a0,zero,.L49
	mv	s2,a0
	.loc 1 577 2 is_stmt 1
.LVL102:
	.loc 1 578 2
	.loc 1 578 13 is_stmt 0
	mv	a0,s5
.LVL103:
	call	pvPortMalloc
.LVL104:
	mv	s1,a0
.LVL105:
	.loc 1 580 2 is_stmt 1
	.loc 1 582 10 is_stmt 0
	li	s9,-1
	.loc 1 580 4
	beq	a0,zero,.L51
	.loc 1 586 2 is_stmt 1
	mv	a2,s5
	li	a1,0
	mv	a0,s2
	call	BL602_MemSet
.LVL106:
	.loc 1 587 2
	mv	a2,s5
	li	a1,0
	mv	a0,s1
	call	BL602_MemSet
.LVL107:
	.loc 1 589 2
	.loc 1 589 8 is_stmt 0
	lw	a6,8(s0)
	mv	a7,s2
	mv	a5,s7
	mv	a4,s4
	mv	a3,s10
	mv	a2,s8
	mv	a1,s11
	mv	a0,s3
	call	get_cbc_mac_input
.LVL108:
	.loc 1 591 2 is_stmt 1
	.loc 1 591 4 is_stmt 0
	bne	a0,zero,.L51
	.loc 1 598 2 is_stmt 1
	lui	s4,%hi(crypt_handle)
.LVL109:
	li	a1,1
	addi	a0,s4,%lo(crypt_handle)
.LVL110:
	call	bflb_crypt_init
.LVL111:
	.loc 1 599 5
	.loc 1 599 43 is_stmt 0
	mv	a0,s6
	call	get_key_type
.LVL112:
	.loc 1 599 5
	lw	a1,-100(s0)
	andi	s10,a0,0xff
.LVL113:
	andi	s6,s6,0xff
.LVL114:
	addi	a4,s0,-96
	mv	a3,s6
	mv	a2,s10
	li	a6,1
	li	a5,16
	addi	a0,s4,%lo(crypt_handle)
	call	bflb_crypt_setkey
.LVL115:
	.loc 1 600 5 is_stmt 1
	.loc 1 600 8 is_stmt 0
	mv	a4,s1
	li	a3,0
	mv	a2,s5
	mv	a1,s2
	addi	a0,s4,%lo(crypt_handle)
	call	bflb_crypt_encrypt
.LVL116:
	.loc 1 600 7
	bne	a0,zero,.L51
	.loc 1 607 2 is_stmt 1
.LVL117:
.LBB55:
.LBB56:
	.loc 1 493 5
	.loc 1 495 5
	.loc 1 495 20 is_stmt 0
	addi	a5,s8,-7
	.loc 1 495 7
	li	a4,6
	bgtu	a5,a4,.L52
	.loc 1 500 5 is_stmt 1
.LVL118:
	.loc 1 501 5
	.loc 1 501 15 is_stmt 0
	lbu	a4,-80(s0)
	.loc 1 501 20
	li	a5,14
	sub	a5,a5,s8
	.loc 1 501 15
	or	a5,a5,a4
	.loc 1 502 5
	mv	a2,s8
	mv	a1,s11
	addi	a0,s0,-79
	.loc 1 501 15
	sb	a5,-80(s0)
	.loc 1 502 5 is_stmt 1
	call	BL602_MemCpy_Fast
.LVL119:
	.loc 1 504 5
.L52:
.LBE56:
.LBE55:
	.loc 1 609 2
.LBB57:
.LBB58:
	.loc 1 435 5
	.loc 1 436 5
	.loc 1 437 2
	.loc 1 439 5
	.loc 1 440 5
	.loc 1 443 5
	.loc 1 443 57 is_stmt 0
	andi	a1,s5,-16
	.loc 1 443 62
	addi	a1,a1,-16
	.loc 1 443 5
	li	a2,16
	add	a1,s1,a1
	mv	a0,s2
	call	BL602_MemCpy_Fast
.LVL120:
	.loc 1 445 5 is_stmt 1
	.loc 1 447 5
	addi	s9,s2,16
	.loc 1 447 10 is_stmt 0
	mv	s8,s3
.LVL121:
.L65:
	li	a4,16
	.loc 1 447 10 is_stmt 1
	bne	s8,zero,.L55
	.loc 1 459 5
.LVL122:
.LBE58:
.LBE57:
	.loc 1 611 2
.LBB61:
.LBB62:
	.loc 1 538 5
	.loc 1 540 2
	.loc 1 540 22 is_stmt 0
	srli	a4,s3,4
.LVL123:
	.loc 1 541 2 is_stmt 1
	.loc 1 541 13 is_stmt 0
	andi	a5,s3,15
	.loc 1 542 12
	addi	s7,a4,2
	.loc 1 541 4
	bne	a5,zero,.L57
	.loc 1 540 12
	addi	s7,a4,1
.LVL124:
.L57:
	.loc 1 544 2 is_stmt 1
.LBE62:
.LBE61:
	.loc 1 612 2
	mv	a2,s5
	li	a1,0
	mv	a0,s1
	call	BL602_MemSet
.LVL125:
	.loc 1 614 5
	li	a1,2
	addi	a0,s4,%lo(crypt_handle)
	call	bflb_crypt_init
.LVL126:
	.loc 1 615 2
	lw	a1,-100(s0)
	li	a6,1
	li	a5,16
	addi	a4,s0,-80
	mv	a3,s6
	mv	a2,s10
	addi	a0,s4,%lo(crypt_handle)
	call	bflb_crypt_setkey
.LVL127:
	.loc 1 616 2
	.loc 1 616 5 is_stmt 0
	mv	a4,s1
	li	a3,0
	slli	a2,s7,4
.LVL128:
	mv	a1,s2
	addi	a0,s4,%lo(crypt_handle)
	call	bflb_crypt_encrypt
.LVL129:
	mv	s9,a0
	.loc 1 616 4
	bne	a0,zero,.L63
	.loc 1 624 2 is_stmt 1
	lw	a2,8(s0)
	lw	a0,4(s0)
	mv	a1,s1
	call	BL602_MemCpy_Fast
.LVL130:
	.loc 1 627 2
	lw	a0,0(s0)
	mv	a2,s3
	addi	a1,s1,16
	call	BL602_MemCpy_Fast
.LVL131:
.L51:
	.loc 1 630 3
	.loc 1 631 4
	mv	a0,s2
	call	vPortFree
.LVL132:
	.loc 1 632 3
	.loc 1 632 5 is_stmt 0
	beq	s1,zero,.L49
	.loc 1 633 4 is_stmt 1
	mv	a0,s1
	call	vPortFree
.LVL133:
.L49:
	.loc 1 636 1 is_stmt 0
	lw	ra,108(sp)
	.cfi_remember_state
	.cfi_restore 1
	lw	s0,104(sp)
	.cfi_restore 8
	.cfi_def_cfa 2, 112
	lw	s1,100(sp)
	.cfi_restore 9
	lw	s2,96(sp)
	.cfi_restore 18
	lw	s3,92(sp)
	.cfi_restore 19
.LVL134:
	lw	s4,88(sp)
	.cfi_restore 20
	lw	s5,84(sp)
	.cfi_restore 21
.LVL135:
	lw	s6,80(sp)
	.cfi_restore 22
	lw	s7,76(sp)
	.cfi_restore 23
	lw	s8,72(sp)
	.cfi_restore 24
	lw	s10,64(sp)
	.cfi_restore 26
	lw	s11,60(sp)
	.cfi_restore 27
	mv	a0,s9
	lw	s9,68(sp)
	.cfi_restore 25
	addi	sp,sp,112
	.cfi_def_cfa_offset 0
	jr	ra
.LVL136:
.L55:
	.cfi_restore_state
.LBB63:
.LBB60:
.LBB59:
	.loc 1 449 9 is_stmt 1
	.loc 1 449 16 is_stmt 0
	mv	s11,s8
	bleu	s8,a4,.L54
	li	s11,16
.L54:
.LVL137:
	.loc 1 451 9 is_stmt 1
	mv	a1,s7
	mv	a0,s9
	mv	a2,s11
	call	BL602_MemCpy_Fast
.LVL138:
	.loc 1 453 9
	.loc 1 453 13 is_stmt 0
	add	s7,s7,s11
.LVL139:
	.loc 1 454 9 is_stmt 1
	.loc 1 454 18 is_stmt 0
	sub	s8,s8,s11
.LVL140:
	.loc 1 456 9 is_stmt 1
	addi	s9,s9,16
	j	.L65
.LVL141:
.L63:
.LBE59:
.LBE60:
.LBE63:
	.loc 1 618 10 is_stmt 0
	li	s9,-1
	j	.L51
	.cfi_endproc
.LFE24:
	.size	bl_sec_ccm_encrypt_and_tag, .-bl_sec_ccm_encrypt_and_tag
	.section	.text.bl_sec_ccm_auth_decrypt,"ax",@progbits
	.align	1
	.globl	bl_sec_ccm_auth_decrypt
	.type	bl_sec_ccm_auth_decrypt, @function
bl_sec_ccm_auth_decrypt:
.LFB25:
	.loc 1 640 2 is_stmt 1
	.cfi_startproc
.LVL142:
	.loc 1 641 5
	.loc 1 640 2 is_stmt 0
	addi	sp,sp,-128
	.cfi_def_cfa_offset 128
	sw	ra,124(sp)
	sw	s0,120(sp)
	sw	s2,112(sp)
	.cfi_offset 1, -4
	.cfi_offset 8, -8
	.cfi_offset 18, -16
	addi	s0,sp,128
	.cfi_def_cfa 8, 0
	sw	s4,104(sp)
	sw	s5,100(sp)
	sw	s6,96(sp)
	sw	s7,92(sp)
	sw	s8,88(sp)
	sw	s10,80(sp)
	sw	s11,76(sp)
	sw	s1,116(sp)
	sw	s3,108(sp)
	sw	s9,84(sp)
	.cfi_offset 20, -24
	.cfi_offset 21, -28
	.cfi_offset 22, -32
	.cfi_offset 23, -36
	.cfi_offset 24, -40
	.cfi_offset 26, -48
	.cfi_offset 27, -52
	.cfi_offset 9, -12
	.cfi_offset 19, -20
	.cfi_offset 25, -44
	.loc 1 640 2
	sw	a0,-116(s0)
	mv	s7,a1
	.loc 1 654 18
	mv	a0,a2
.LVL143:
	mv	a1,a6
.LVL144:
	.loc 1 640 2
	mv	s4,a2
	mv	s10,a3
	mv	s6,a4
	sw	a5,-124(s0)
	mv	s11,a6
	mv	s5,a7
	.loc 1 641 19
	sw	zero,-112(s0)
	sw	zero,-108(s0)
	sw	zero,-104(s0)
	sw	zero,-100(s0)
	.loc 1 642 5 is_stmt 1
	.loc 1 642 19 is_stmt 0
	sw	zero,-96(s0)
	sw	zero,-92(s0)
	sw	zero,-88(s0)
	sw	zero,-84(s0)
	.loc 1 643 5 is_stmt 1
	.loc 1 643 19 is_stmt 0
	sw	zero,-80(s0)
	sw	zero,-76(s0)
	sw	zero,-72(s0)
	sw	zero,-68(s0)
	.loc 1 644 5 is_stmt 1
.LVL145:
	.loc 1 645 2
	.loc 1 646 5
	.loc 1 647 5
	.loc 1 648 5
	.loc 1 649 5
	.loc 1 650 5
	.loc 1 654 5
	.loc 1 654 18 is_stmt 0
	call	get_cbc_mac_input_size
.LVL146:
	mv	s2,a0
.LVL147:
	.loc 1 655 5 is_stmt 1
	.loc 1 657 2
	.loc 1 657 12 is_stmt 0
	call	pvPortMalloc
.LVL148:
	.loc 1 659 2 is_stmt 1
	.loc 1 661 10 is_stmt 0
	li	s8,-1
	.loc 1 659 4
	beq	a0,zero,.L66
.LBB71:
.LBB72:
	.loc 1 540 22
	srli	a3,s4,4
	.loc 1 541 13
	andi	a5,s4,15
	mv	s3,a0
.LBE72:
.LBE71:
	.loc 1 665 5 is_stmt 1
.LVL149:
.LBB75:
.LBB73:
	.loc 1 538 5
	.loc 1 540 2
	.loc 1 541 2
	.loc 1 542 12 is_stmt 0
	addi	a4,a3,2
	.loc 1 541 4
	bne	a5,zero,.L69
	.loc 1 540 12
	addi	a4,a3,1
.LVL150:
.L69:
	.loc 1 544 2 is_stmt 1
	.loc 1 544 20 is_stmt 0
	slli	a5,a4,4
.LBE73:
.LBE75:
	.loc 1 669 13
	mv	a0,s2
.LVL151:
.LBB76:
.LBB74:
	.loc 1 544 20
	sw	a5,-120(s0)
.LVL152:
.LBE74:
.LBE76:
	.loc 1 668 5 is_stmt 1
	.loc 1 669 2
	.loc 1 669 13 is_stmt 0
	call	pvPortMalloc
.LVL153:
	mv	s1,a0
.LVL154:
	.loc 1 671 2 is_stmt 1
	.loc 1 673 10 is_stmt 0
	li	s8,-1
	.loc 1 671 4
	beq	a0,zero,.L70
	.loc 1 677 3 is_stmt 1
	mv	a2,s2
	li	a1,0
	mv	a0,s3
	call	BL602_MemSet
.LVL155:
	.loc 1 679 3
	mv	a2,s2
	li	a1,0
	mv	a0,s1
	call	BL602_MemSet
.LVL156:
	.loc 1 682 3
.LBB77:
.LBB78:
	.loc 1 493 5
	.loc 1 495 5
	.loc 1 495 20 is_stmt 0
	addi	a5,s6,-7
	.loc 1 495 7
	li	a4,6
	bgtu	a5,a4,.L71
	.loc 1 500 5 is_stmt 1
.LVL157:
	.loc 1 501 5
	.loc 1 501 15 is_stmt 0
	lbu	a4,-80(s0)
	.loc 1 501 20
	li	a5,14
	sub	a5,a5,s6
	.loc 1 501 15
	or	a5,a5,a4
	.loc 1 502 5
	mv	a2,s6
	mv	a1,s10
	addi	a0,s0,-79
	.loc 1 501 15
	sb	a5,-80(s0)
	.loc 1 502 5 is_stmt 1
	call	BL602_MemCpy_Fast
.LVL158:
	.loc 1 504 5
.L71:
.LBE78:
.LBE77:
	.loc 1 684 3
.LBB79:
.LBB80:
	.loc 1 464 5
	.loc 1 465 5
	.loc 1 466 5
	.loc 1 468 5
	.loc 1 469 5
	.loc 1 472 5
	lw	a2,8(s0)
	lw	a1,4(s0)
	mv	a0,s3
	addi	s8,s3,16
	call	BL602_MemCpy_Fast
.LVL159:
	.loc 1 474 5
	.loc 1 476 5
	.loc 1 476 10 is_stmt 0
	mv	s9,s4
.LVL160:
.L82:
	li	a4,16
	.loc 1 476 10 is_stmt 1
	bne	s9,zero,.L74
	.loc 1 488 5
.LVL161:
.LBE80:
.LBE79:
	.loc 1 686 3
	lui	s5,%hi(crypt_handle)
	li	a1,2
	addi	a0,s5,%lo(crypt_handle)
	call	bflb_crypt_init
.LVL162:
	.loc 1 687 3
	.loc 1 687 41 is_stmt 0
	mv	a0,s7
	call	get_key_type
.LVL163:
	.loc 1 687 3
	lw	a1,-116(s0)
	andi	s9,a0,0xff
	andi	s7,s7,0xff
.LVL164:
	li	a6,1
	li	a5,16
	addi	a4,s0,-80
	mv	a3,s7
	mv	a2,s9
	addi	a0,s5,%lo(crypt_handle)
	call	bflb_crypt_setkey
.LVL165:
	.loc 1 688 5 is_stmt 1
	.loc 1 688 8 is_stmt 0
	lw	a2,-120(s0)
	mv	a4,s1
	li	a3,0
	mv	a1,s3
	addi	a0,s5,%lo(crypt_handle)
	call	bflb_crypt_encrypt
.LVL166:
	.loc 1 690 8
	li	s8,-1
	.loc 1 688 7
	bne	a0,zero,.L70
	.loc 1 695 3 is_stmt 1
	lw	a2,8(s0)
	mv	a1,s1
	addi	a0,s0,-112
	call	BL602_MemCpy_Fast
.LVL167:
	.loc 1 698 3
	lw	a0,0(s0)
	mv	a2,s4
	addi	a1,s1,16
	call	BL602_MemCpy_Fast
.LVL168:
	.loc 1 702 3
	.loc 1 702 9 is_stmt 0
	lw	a6,8(s0)
	lw	a5,0(s0)
	lw	a3,-124(s0)
	mv	a7,s3
	mv	a4,s11
	mv	a2,s6
	mv	a1,s10
	mv	a0,s4
	call	get_cbc_mac_input
.LVL169:
	.loc 1 704 3 is_stmt 1
	.loc 1 704 5 is_stmt 0
	bne	a0,zero,.L70
	.loc 1 710 3 is_stmt 1
	mv	a2,s2
	li	a1,0
	mv	a0,s1
.LVL170:
	call	BL602_MemSet
.LVL171:
	.loc 1 713 3
	li	a1,1
	addi	a0,s5,%lo(crypt_handle)
	call	bflb_crypt_init
.LVL172:
	.loc 1 714 3
	lw	a1,-116(s0)
	addi	a4,s0,-96
	mv	a3,s7
	mv	a2,s9
	li	a6,1
	li	a5,16
	addi	a0,s5,%lo(crypt_handle)
	call	bflb_crypt_setkey
.LVL173:
	.loc 1 715 3
	.loc 1 715 6 is_stmt 0
	mv	a4,s1
	li	a3,0
	mv	a2,s2
	mv	a1,s3
	addi	a0,s5,%lo(crypt_handle)
	call	bflb_crypt_encrypt
.LVL174:
	.loc 1 715 5
	bne	a0,zero,.L70
	.loc 1 722 3 is_stmt 1
	.loc 1 722 7 is_stmt 0
	lw	a2,8(s0)
	.loc 1 722 55
	andi	a1,s2,-16
	.loc 1 722 60
	addi	a1,a1,-16
	.loc 1 722 7
	add	a1,s1,a1
	addi	a0,s0,-112
	call	BL602_MemCmp
.LVL175:
	.loc 1 722 6
	snez	a5,a0
	neg	s8,a5
.L70:
.LVL176:
	.loc 1 729 3 is_stmt 1
	.loc 1 730 7
	mv	a0,s3
	call	vPortFree
.LVL177:
	.loc 1 731 3
	.loc 1 731 5 is_stmt 0
	beq	s1,zero,.L66
	.loc 1 732 7 is_stmt 1
	mv	a0,s1
	call	vPortFree
.LVL178:
.L66:
	.loc 1 734 2 is_stmt 0
	lw	ra,124(sp)
	.cfi_remember_state
	.cfi_restore 1
	lw	s0,120(sp)
	.cfi_restore 8
	.cfi_def_cfa 2, 128
	lw	s1,116(sp)
	.cfi_restore 9
	lw	s2,112(sp)
	.cfi_restore 18
.LVL179:
	lw	s3,108(sp)
	.cfi_restore 19
	lw	s4,104(sp)
	.cfi_restore 20
.LVL180:
	lw	s5,100(sp)
	.cfi_restore 21
	lw	s6,96(sp)
	.cfi_restore 22
.LVL181:
	lw	s7,92(sp)
	.cfi_restore 23
	lw	s9,84(sp)
	.cfi_restore 25
	lw	s10,80(sp)
	.cfi_restore 26
.LVL182:
	lw	s11,76(sp)
	.cfi_restore 27
.LVL183:
	mv	a0,s8
	lw	s8,88(sp)
	.cfi_restore 24
	addi	sp,sp,128
	.cfi_def_cfa_offset 0
	jr	ra
.LVL184:
.L74:
	.cfi_restore_state
.LBB83:
.LBB82:
.LBB81:
	.loc 1 478 9 is_stmt 1
	.loc 1 478 16 is_stmt 0
	mv	a2,s9
	bleu	s9,a4,.L73
.LVL185:
	li	a2,16
.LVL186:
.L73:
	.loc 1 480 9 is_stmt 1
	mv	a1,s5
	mv	a0,s8
	sw	a2,-128(s0)
	call	BL602_MemCpy_Fast
.LVL187:
	.loc 1 482 9
	.loc 1 482 13 is_stmt 0
	lw	a2,-128(s0)
	addi	s8,s8,16
	add	s5,s5,a2
.LVL188:
	.loc 1 483 9 is_stmt 1
	.loc 1 483 18 is_stmt 0
	sub	s9,s9,a2
.LVL189:
	.loc 1 485 9 is_stmt 1
	j	.L82
.LBE81:
.LBE82:
.LBE83:
	.cfi_endproc
.LFE25:
	.size	bl_sec_ccm_auth_decrypt, .-bl_sec_ccm_auth_decrypt
	.section	.text.bl_sec_aes_ecb_encrypt,"ax",@progbits
	.align	1
	.globl	bl_sec_aes_ecb_encrypt
	.type	bl_sec_aes_ecb_encrypt, @function
bl_sec_aes_ecb_encrypt:
.LFB26:
	.loc 1 737 1
	.cfi_startproc
.LVL190:
	.loc 1 738 6
	.loc 1 737 1 is_stmt 0
	addi	sp,sp,-48
	.cfi_def_cfa_offset 48
	sw	ra,44(sp)
	sw	s0,40(sp)
	sw	s1,36(sp)
	.cfi_offset 1, -4
	.cfi_offset 8, -8
	.cfi_offset 9, -12
	addi	s0,sp,48
	.cfi_def_cfa 8, 0
	sw	s2,32(sp)
	sw	s3,28(sp)
	sw	s4,24(sp)
	sw	s5,20(sp)
	sw	s6,16(sp)
	.cfi_offset 18, -16
	.cfi_offset 19, -20
	.cfi_offset 20, -24
	.cfi_offset 21, -28
	.cfi_offset 22, -32
	.loc 1 739 6
	lui	s2,%hi(crypt_handle)
	.loc 1 737 1
	.loc 1 737 1
	mv	s1,a1
	mv	s6,a0
	.loc 1 739 6
	li	a1,0
.LVL191:
	addi	a0,s2,%lo(crypt_handle)
.LVL192:
	.loc 1 737 1
	mv	s4,a2
	mv	s3,a3
	mv	s5,a4
	.loc 1 738 14
	sw	zero,-48(s0)
	sw	zero,-44(s0)
	sw	zero,-40(s0)
	sw	zero,-36(s0)
	.loc 1 739 6 is_stmt 1
	call	bflb_crypt_init
.LVL193:
	.loc 1 740 6
	.loc 1 740 44 is_stmt 0
	mv	a0,s1
	call	get_key_type
.LVL194:
	.loc 1 740 6
	addi	a4,s0,-48
	andi	a3,s1,0xff
	andi	a2,a0,0xff
	mv	a1,s6
	li	a6,1
	li	a5,16
	addi	a0,s2,%lo(crypt_handle)
	call	bflb_crypt_setkey
.LVL195:
	.loc 1 742 6 is_stmt 1
	.loc 1 742 9 is_stmt 0
	mv	a4,s5
	mv	a2,s4
	mv	a1,s3
	addi	a0,s2,%lo(crypt_handle)
	li	a3,0
	call	bflb_crypt_encrypt
.LVL196:
	.loc 1 745 1
	lw	ra,44(sp)
	.cfi_restore 1
	lw	s0,40(sp)
	.cfi_restore 8
	.cfi_def_cfa 2, 48
	.loc 1 742 8
	snez	a0,a0
	.loc 1 745 1
	lw	s1,36(sp)
	.cfi_restore 9
.LVL197:
	lw	s2,32(sp)
	.cfi_restore 18
	lw	s3,28(sp)
	.cfi_restore 19
.LVL198:
	lw	s4,24(sp)
	.cfi_restore 20
.LVL199:
	lw	s5,20(sp)
	.cfi_restore 21
.LVL200:
	lw	s6,16(sp)
	.cfi_restore 22
.LVL201:
	neg	a0,a0
	addi	sp,sp,48
	.cfi_def_cfa_offset 0
	jr	ra
	.cfi_endproc
.LFE26:
	.size	bl_sec_aes_ecb_encrypt, .-bl_sec_aes_ecb_encrypt
	.section	.text.bl_sec_aes_ecb_decrypt,"ax",@progbits
	.align	1
	.globl	bl_sec_aes_ecb_decrypt
	.type	bl_sec_aes_ecb_decrypt, @function
bl_sec_aes_ecb_decrypt:
.LFB27:
	.loc 1 748 1 is_stmt 1
	.cfi_startproc
.LVL202:
	.loc 1 749 6
	.loc 1 748 1 is_stmt 0
	addi	sp,sp,-48
	.cfi_def_cfa_offset 48
	sw	ra,44(sp)
	sw	s0,40(sp)
	sw	s1,36(sp)
	.cfi_offset 1, -4
	.cfi_offset 8, -8
	.cfi_offset 9, -12
	addi	s0,sp,48
	.cfi_def_cfa 8, 0
	sw	s2,32(sp)
	sw	s3,28(sp)
	sw	s4,24(sp)
	sw	s5,20(sp)
	sw	s6,16(sp)
	.cfi_offset 18, -16
	.cfi_offset 19, -20
	.cfi_offset 20, -24
	.cfi_offset 21, -28
	.cfi_offset 22, -32
	.loc 1 750 6
	lui	s2,%hi(crypt_handle)
	.loc 1 748 1
	.loc 1 748 1
	mv	s1,a1
	mv	s6,a0
	.loc 1 750 6
	li	a1,0
.LVL203:
	addi	a0,s2,%lo(crypt_handle)
.LVL204:
	.loc 1 748 1
	mv	s4,a2
	mv	s3,a3
	mv	s5,a4
	.loc 1 749 14
	sw	zero,-48(s0)
	sw	zero,-44(s0)
	sw	zero,-40(s0)
	sw	zero,-36(s0)
	.loc 1 750 6 is_stmt 1
	call	bflb_crypt_init
.LVL205:
	.loc 1 751 6
	.loc 1 751 44 is_stmt 0
	mv	a0,s1
	call	get_key_type
.LVL206:
	.loc 1 751 6
	addi	a4,s0,-48
	andi	a3,s1,0xff
	andi	a2,a0,0xff
	mv	a1,s6
	li	a6,2
	li	a5,16
	addi	a0,s2,%lo(crypt_handle)
	call	bflb_crypt_setkey
.LVL207:
	.loc 1 753 6 is_stmt 1
	.loc 1 753 9 is_stmt 0
	mv	a4,s5
	mv	a2,s4
	mv	a1,s3
	addi	a0,s2,%lo(crypt_handle)
	li	a3,0
	call	bflb_crypt_encrypt
.LVL208:
	.loc 1 756 1
	lw	ra,44(sp)
	.cfi_restore 1
	lw	s0,40(sp)
	.cfi_restore 8
	.cfi_def_cfa 2, 48
	.loc 1 753 8
	snez	a0,a0
	.loc 1 756 1
	lw	s1,36(sp)
	.cfi_restore 9
.LVL209:
	lw	s2,32(sp)
	.cfi_restore 18
	lw	s3,28(sp)
	.cfi_restore 19
.LVL210:
	lw	s4,24(sp)
	.cfi_restore 20
.LVL211:
	lw	s5,20(sp)
	.cfi_restore 21
.LVL212:
	lw	s6,16(sp)
	.cfi_restore 22
.LVL213:
	neg	a0,a0
	addi	sp,sp,48
	.cfi_def_cfa_offset 0
	jr	ra
	.cfi_endproc
.LFE27:
	.size	bl_sec_aes_ecb_decrypt, .-bl_sec_aes_ecb_decrypt
	.comm	crypt_handle,1,4
	.section	.rodata.aesSrcBuf_data,"a"
	.align	2
	.set	.LANCHOR0,. + 0
	.type	aesSrcBuf_data, @object
	.size	aesSrcBuf_data, 64
aesSrcBuf_data:
	.ascii	"k\301\276\342.@\237\226\351=~\021s\223\027*k\301\276\342.@\237"
	.ascii	"\226\351=~\021s\223\027*k\301\276\342.@\237\226\351=~\021s\223"
	.ascii	"\027*k\301\276\342.@\237\226\351=~\021s\223\027*"
	.text
.Letext0:
	.file 2 "/home/dinhquangha/Ai-Thinker-WB2/toolchain/riscv/Linux/riscv64-unknown-elf/include/machine/_default_types.h"
	.file 3 "/home/dinhquangha/Ai-Thinker-WB2/toolchain/riscv/Linux/lib/gcc/riscv64-unknown-elf/10.2.0/include/stddef.h"
	.file 4 "/home/dinhquangha/Ai-Thinker-WB2/toolchain/riscv/Linux/riscv64-unknown-elf/include/sys/_stdint.h"
	.file 5 "/home/dinhquangha/Ai-Thinker-WB2/components/platform/soc/bl602/bl602_std/bl602_std/Device/Bouffalo/BL602/Peripherals/bl602.h"
	.file 6 "/home/dinhquangha/Ai-Thinker-WB2/components/platform/soc/bl602/bl602_std/bl602_std/StdDriver/Inc/bl602_sec_eng.h"
	.file 7 "/home/dinhquangha/Ai-Thinker-WB2/components/platform/soc/bl602/bl602_std/bl602_std/Common/cipher_suite/inc/bflb_crypt_port.h"
	.file 8 "/home/dinhquangha/Ai-Thinker-WB2/components/platform/soc/bl602/bl602_std/bl602_std/Common/cipher_suite/inc/bflb_crypt.h"
	.file 9 "/home/dinhquangha/Ai-Thinker-WB2/components/platform/soc/bl602/bl602_std/bl602_std/StdDriver/Inc/bl602_common.h"
	.file 10 "/home/dinhquangha/Ai-Thinker-WB2/components/platform/soc/bl602/freertos_riscv_ram/config/portable.h"
	.file 11 "/home/dinhquangha/Ai-Thinker-WB2/components/platform/hosal/bl602_hal/bl_irq.h"
	.file 12 "/home/dinhquangha/Ai-Thinker-WB2/toolchain/riscv/Linux/riscv64-unknown-elf/include/stdio.h"
	.file 13 "<built-in>"