	.file	"bl_uart.c"
	.option nopic
	.attribute arch, "rv32i2p0_m2p0_f2p0_c2p0"
	.attribute unaligned_access, 0
	.attribute stack_align, 16
	.text
.Ltext0:
	.cfi_sections	.debug_frame
	.section	.text.uart_generic_notify_handler,"ax",@progbits
	.align	1
	.type	uart_generic_notify_handler, @function
uart_generic_notify_handler:
.LFB27:
	.file 1 "/home/quanghaictu/intern/Ai-Thinker-WB2/components/platform/hosal/bl602_hal/bl_uart.c"
	.loc 1 460 1
	.cfi_startproc
.LVL0:
	.loc 1 461 5
	.loc 1 462 5
	.loc 1 463 5
	.loc 1 464 5
	.loc 1 465 5
	.loc 1 460 1 is_stmt 0
	addi	sp,sp,-32
	.cfi_def_cfa_offset 32
	.loc 1 465 14
	lui	a5,%hi(.LANCHOR0)
	.loc 1 460 1
	sw	s0,24(sp)
	sw	s1,20(sp)
	sw	s4,8(sp)
	sw	ra,28(sp)
	sw	s2,16(sp)
	sw	s3,12(sp)
	.cfi_offset 8, -8
	.cfi_offset 9, -12
	.cfi_offset 20, -24
	.cfi_offset 1, -4
	.cfi_offset 18, -16
	.cfi_offset 19, -20
	addi	s0,sp,32
	.cfi_def_cfa 8, 0
	.loc 1 465 14
	slli	a4,a0,2
	addi	a5,a5,%lo(.LANCHOR0)
	.loc 1 460 1
	.loc 1 465 14
	add	a5,a5,a4
	lw	s4,0(a5)
.LVL1:
	.loc 1 467 5 is_stmt 1
	.loc 1 460 1 is_stmt 0
	mv	s1,a0
	.loc 1 467 12
	lw	s3,32(s4)
.LVL2:
	.loc 1 468 5 is_stmt 1
	.loc 1 468 13 is_stmt 0
	lw	s2,36(s4)
.LVL3:
	.loc 1 471 5 is_stmt 1
	.loc 1 471 20 is_stmt 0
	andi	a5,s3,1
	.loc 1 471 8
	beq	a5,zero,.L2
	.loc 1 471 57 discriminator 1
	andi	a5,s2,1
	.loc 1 471 41 discriminator 1
	bne	a5,zero,.L2
	.loc 1 473 9 is_stmt 1
	.loc 1 473 47 is_stmt 0
	li	a5,1
	sw	a5,40(s4)
.L2:
	.loc 1 477 5 is_stmt 1
	.loc 1 477 20 is_stmt 0
	andi	a5,s3,2
	.loc 1 477 8
	beq	a5,zero,.L4
	.loc 1 477 57 discriminator 1
	andi	a5,s2,2
	.loc 1 477 41 discriminator 1
	bne	a5,zero,.L4
	.loc 1 479 9 is_stmt 1
	.loc 1 479 47 is_stmt 0
	li	a5,2
	.loc 1 482 12
	lui	a4,%hi(.LANCHOR1)
	addi	a4,a4,%lo(.LANCHOR1)
	.loc 1 479 47
	sw	a5,40(s4)
	.loc 1 482 9 is_stmt 1
	.loc 1 482 12 is_stmt 0
	slli	a5,s1,4
	add	a5,a4,a5
	lw	a4,0(a5)
.LVL4:
	.loc 1 483 9 is_stmt 1
	.loc 1 485 9
	.loc 1 485 12 is_stmt 0
	beq	a4,zero,.L4
	.loc 1 488 13 is_stmt 1
	lw	a0,4(a5)
.LVL5:
	jalr	a4
.LVL6:
.L4:
	.loc 1 493 5
	.loc 1 493 20 is_stmt 0
	andi	a5,s3,4
	.loc 1 493 8
	beq	a5,zero,.L6
	.loc 1 493 57 discriminator 1
	andi	a5,s2,4
	.loc 1 493 41 discriminator 1
	bne	a5,zero,.L6
	.loc 1 496 9 is_stmt 1
	.loc 1 496 12 is_stmt 0
	lui	a4,%hi(.LANCHOR1)
	addi	a4,a4,%lo(.LANCHOR1)
	slli	a5,s1,4
	add	a5,a4,a5
	lw	a4,8(a5)
.LVL7:
	.loc 1 497 9 is_stmt 1
	.loc 1 499 9
	.loc 1 499 12 is_stmt 0
	beq	a4,zero,.L6
	.loc 1 502 13 is_stmt 1
	lw	a0,12(a5)
	jalr	a4
.LVL8:
.L6:
	.loc 1 507 5
	.loc 1 507 20 is_stmt 0
	andi	a5,s3,8
	.loc 1 507 8
	beq	a5,zero,.L7
	.loc 1 507 57 discriminator 1
	andi	a5,s2,8
	.loc 1 507 41 discriminator 1
	bne	a5,zero,.L7
	.loc 1 511 9 is_stmt 1
	.loc 1 511 12 is_stmt 0
	lui	a4,%hi(.LANCHOR1)
	addi	a4,a4,%lo(.LANCHOR1)
	slli	a5,s1,4
	add	a5,a4,a5
	lw	a4,0(a5)
.LVL9:
	.loc 1 512 9 is_stmt 1
	.loc 1 514 9
	.loc 1 514 12 is_stmt 0
	beq	a4,zero,.L7
	.loc 1 517 13 is_stmt 1
	lw	a0,4(a5)
	jalr	a4
.LVL10:
.L7:
	.loc 1 522 5
	.loc 1 522 20 is_stmt 0
	andi	a5,s3,16
	.loc 1 522 8
	beq	a5,zero,.L9
	.loc 1 522 57 discriminator 1
	andi	a5,s2,16
	.loc 1 522 41 discriminator 1
	bne	a5,zero,.L9
	.loc 1 524 9 is_stmt 1
	.loc 1 527 12 is_stmt 0
	lui	a0,%hi(.LANCHOR1)
	slli	s1,s1,4
	addi	a0,a0,%lo(.LANCHOR1)
	.loc 1 524 47
	li	a5,16
	.loc 1 527 12
	add	s1,a0,s1
	.loc 1 524 47
	sw	a5,40(s4)
	.loc 1 527 9 is_stmt 1
	.loc 1 527 12 is_stmt 0
	lw	a5,0(s1)
.LVL11:
	.loc 1 528 9 is_stmt 1
	.loc 1 530 9
	.loc 1 530 12 is_stmt 0
	beq	a5,zero,.L9
	.loc 1 533 13 is_stmt 1
	lw	a0,4(s1)
	jalr	a5
.LVL12:
.L9:
	.loc 1 538 5
	.loc 1 538 20 is_stmt 0
	andi	a5,s3,32
	.loc 1 538 8
	beq	a5,zero,.L1
	.loc 1 538 57 discriminator 1
	andi	a5,s2,32
	.loc 1 538 41 discriminator 1
	bne	a5,zero,.L1
	.loc 1 540 9 is_stmt 1
	.loc 1 540 47 is_stmt 0
	li	a5,32
	sw	a5,40(s4)
	.loc 1 544 5 is_stmt 1
	.loc 1 546 5
	.loc 1 549 5
	.loc 1 551 5
	.loc 1 553 5
.L1:
	.loc 1 554 1 is_stmt 0
	lw	ra,28(sp)
	.cfi_restore 1
	lw	s0,24(sp)
	.cfi_restore 8
	.cfi_def_cfa 2, 32
	lw	s1,20(sp)
	.cfi_restore 9
	lw	s2,16(sp)
	.cfi_restore 18
.LVL13:
	lw	s3,12(sp)
	.cfi_restore 19
.LVL14:
	lw	s4,8(sp)
	.cfi_restore 20
.LVL15:
	addi	sp,sp,32
	.cfi_def_cfa_offset 0
	jr	ra
	.cfi_endproc
.LFE27:
	.size	uart_generic_notify_handler, .-uart_generic_notify_handler
	.section	.text.UART0_IRQHandler,"ax",@progbits
	.align	1
	.globl	UART0_IRQHandler
	.type	UART0_IRQHandler, @function
UART0_IRQHandler:
.LFB28:
	.loc 1 557 1 is_stmt 1
	.cfi_startproc
	.loc 1 558 5
	.loc 1 557 1 is_stmt 0
	addi	sp,sp,-16
	.cfi_def_cfa_offset 16
	sw	s0,12(sp)
	.cfi_offset 8, -4
	addi	s0,sp,16
	.cfi_def_cfa 8, 0
	.loc 1 559 1
	lw	s0,12(sp)
	.cfi_restore 8
	.cfi_def_cfa 2, 16
	.loc 1 558 5
	li	a0,0
	.loc 1 559 1
	addi	sp,sp,16
	.cfi_def_cfa_offset 0
	.loc 1 558 5
	tail	uart_generic_notify_handler
.LVL16:
	.cfi_endproc
.LFE28:
	.size	UART0_IRQHandler, .-UART0_IRQHandler
	.section	.text.UART1_IRQHandler,"ax",@progbits
	.align	1
	.globl	UART1_IRQHandler
	.type	UART1_IRQHandler, @function
UART1_IRQHandler:
.LFB29:
	.loc 1 562 1 is_stmt 1
	.cfi_startproc
	.loc 1 563 5
	.loc 1 562 1 is_stmt 0
	addi	sp,sp,-16
	.cfi_def_cfa_offset 16
	sw	s0,12(sp)
	.cfi_offset 8, -4
	addi	s0,sp,16
	.cfi_def_cfa 8, 0
	.loc 1 564 1
	lw	s0,12(sp)
	.cfi_restore 8
	.cfi_def_cfa 2, 16
	.loc 1 563 5
	li	a0,1
	.loc 1 564 1
	addi	sp,sp,16
	.cfi_def_cfa_offset 0
	.loc 1 563 5
	tail	uart_generic_notify_handler
.LVL17:
	.cfi_endproc
.LFE29:
	.size	UART1_IRQHandler, .-UART1_IRQHandler
	.section	.text.gpio_init,"ax",@progbits
	.align	1
	.type	gpio_init, @function
gpio_init:
.LFB8:
	.loc 1 30 1 is_stmt 1
	.cfi_startproc
.LVL18:
	.loc 1 31 5
	.loc 1 32 5
	.loc 1 34 5
	.loc 1 35 5
	.loc 1 36 5
	.loc 1 38 5
	.loc 1 30 1 is_stmt 0
	addi	sp,sp,-64
	.cfi_def_cfa_offset 64
	sw	ra,60(sp)
	sw	s0,56(sp)
	sw	s1,52(sp)
	.cfi_offset 1, -4
	.cfi_offset 8, -8
	.cfi_offset 9, -12
	addi	s0,sp,64
	.cfi_def_cfa 8, 0
	sw	s2,48(sp)
	sw	s3,44(sp)
	sw	s4,40(sp)
	sw	s5,36(sp)
	sw	s6,32(sp)
	sw	s7,28(sp)
	sw	s8,24(sp)
	sw	s9,20(sp)
	.cfi_offset 18, -16
	.cfi_offset 19, -20
	.cfi_offset 20, -24
	.cfi_offset 21, -28
	.cfi_offset 22, -32
	.cfi_offset 23, -36
	.cfi_offset 24, -40
	.cfi_offset 25, -44
	.loc 1 36 17
	li	a5,7
	sb	a5,-55(s0)
	.loc 1 39 18
	li	s3,2
	.loc 1 34 15
	li	a5,257
	.loc 1 30 1
	mv	s7,a0
	.loc 1 41 5
	addi	a0,s0,-56
.LVL19:
	.loc 1 30 1
	mv	s6,a1
	mv	s2,a3
	.loc 1 34 15
	sh	a5,-52(s0)
	.loc 1 30 1
	mv	s5,a2
	mv	s1,a4
	.loc 1 38 17
	sb	a2,-56(s0)
	.loc 1 39 5 is_stmt 1
	.loc 1 40 5
	.loc 1 41 5
	.loc 1 39 18 is_stmt 0
	sh	s3,-54(s0)
	.loc 1 41 5
	call	GLB_GPIO_Init
.LVL20:
	.loc 1 43 5 is_stmt 1
	.loc 1 46 5 is_stmt 0
	addi	a0,s0,-56
	.loc 1 43 17
	sb	s6,-56(s0)
	.loc 1 44 5 is_stmt 1
	.loc 1 45 5
	.loc 1 44 18 is_stmt 0
	sh	s3,-54(s0)
	.loc 1 46 5 is_stmt 1
	.loc 1 48 25 is_stmt 0
	addi	s4,s2,-1
	.loc 1 46 5
	call	GLB_GPIO_Init
.LVL21:
	.loc 1 48 5 is_stmt 1
	.loc 1 48 25 is_stmt 0
	andi	s4,s4,0xff
	.loc 1 48 8
	li	a5,253
	bgtu	s4,a5,.L42
	.loc 1 50 9 is_stmt 1
	.loc 1 53 9 is_stmt 0
	addi	a0,s0,-56
	.loc 1 50 21
	sb	s2,-56(s0)
	.loc 1 51 9 is_stmt 1
	.loc 1 52 9
	.loc 1 51 22 is_stmt 0
	sh	s3,-54(s0)
	.loc 1 53 9 is_stmt 1
	call	GLB_GPIO_Init
.LVL22:
.L42:
	.loc 1 56 5
	.loc 1 56 25 is_stmt 0
	addi	s3,s1,-1
	andi	s3,s3,0xff
	.loc 1 56 8
	li	a5,253
	bgtu	s3,a5,.L43
	.loc 1 58 9 is_stmt 1
	.loc 1 59 22 is_stmt 0
	li	a5,2
	.loc 1 61 9
	addi	a0,s0,-56
	.loc 1 58 21
	sb	s1,-56(s0)
	.loc 1 59 9 is_stmt 1
	.loc 1 60 9
	.loc 1 59 22 is_stmt 0
	sh	a5,-54(s0)
	.loc 1 61 9 is_stmt 1
	call	GLB_GPIO_Init
.LVL23:
.L43:
	.loc 1 65 5
	.loc 1 65 8 is_stmt 0
	beq	s7,zero,.L47
	.loc 1 77 20
	li	s7,4
	.loc 1 76 20
	li	s8,5
	.loc 1 75 19
	li	s9,7
	.loc 1 74 19
	li	a1,6
.L44:
.LVL24:
	.loc 1 83 5 is_stmt 1
	andi	a0,s6,7
	call	GLB_UART_Fun_Sel
.LVL25:
	.loc 1 84 5
	mv	a1,s9
	andi	a0,s5,7
	call	GLB_UART_Fun_Sel
.LVL26:
	.loc 1 86 5
	.loc 1 86 8 is_stmt 0
	li	a5,253
	bgtu	s4,a5,.L45
	.loc 1 88 9 is_stmt 1
	mv	a1,s8
	andi	a0,s2,7
	call	GLB_UART_Fun_Sel
.LVL27:
.L45:
	.loc 1 90 5
	.loc 1 90 8 is_stmt 0
	li	a5,253
	bgtu	s3,a5,.L41
	.loc 1 92 9 is_stmt 1
	mv	a1,s7
	andi	a0,s1,7
	call	GLB_UART_Fun_Sel
.LVL28:
.L41:
	.loc 1 94 1 is_stmt 0
	lw	ra,60(sp)
	.cfi_remember_state
	.cfi_restore 1
	lw	s0,56(sp)
	.cfi_restore 8
	.cfi_def_cfa 2, 64
	lw	s1,52(sp)
	.cfi_restore 9
	lw	s2,48(sp)
	.cfi_restore 18
	lw	s3,44(sp)
	.cfi_restore 19
	lw	s4,40(sp)
	.cfi_restore 20
	lw	s5,36(sp)
	.cfi_restore 21
	lw	s6,32(sp)
	.cfi_restore 22
	lw	s7,28(sp)
	.cfi_restore 23
.LVL29:
	lw	s8,24(sp)
	.cfi_restore 24
.LVL30:
	lw	s9,20(sp)
	.cfi_restore 25
.LVL31:
	addi	sp,sp,64
	.cfi_def_cfa_offset 0
	jr	ra
.L47:
	.cfi_restore_state
	.loc 1 70 20
	li	s7,0
	.loc 1 69 20
	li	s8,1
	.loc 1 68 19
	li	s9,3
	.loc 1 67 19
	li	a1,2
	j	.L44
	.cfi_endproc
.LFE8:
	.size	gpio_init, .-gpio_init
	.section	.text.bl_uart_init,"ax",@progbits
	.align	1
	.globl	bl_uart_init
	.type	bl_uart_init, @function
bl_uart_init:
.LFB9:
	.loc 1 97 1 is_stmt 1
	.cfi_startproc
.LVL32:
	.loc 1 98 5
	.loc 1 99 5
	.loc 1 101 5
	.loc 1 97 1 is_stmt 0
	addi	sp,sp,-96
	.cfi_def_cfa_offset 96
	sw	ra,92(sp)
	sw	s0,88(sp)
	sw	s1,84(sp)
	.cfi_offset 1, -4
	.cfi_offset 8, -8
	.cfi_offset 9, -12
	addi	s0,sp,96
	.cfi_def_cfa 8, 0
	sw	s2,80(sp)
	sw	s3,76(sp)
	sw	s4,72(sp)
	sw	s5,68(sp)
	sw	s6,64(sp)
	sw	s7,60(sp)
	.cfi_offset 18, -16
	.cfi_offset 19, -20
	.cfi_offset 20, -24
	.cfi_offset 21, -28
	.cfi_offset 22, -32
	.cfi_offset 23, -36
	mv	s4,a1
	.loc 1 101 19
	lui	a1,%hi(.LANCHOR2)
.LVL33:
	addi	s2,a1,%lo(.LANCHOR2)
	.loc 1 97 1
	.loc 1 101 19
	addi	a1,a1,%lo(.LANCHOR2)
	.loc 1 97 1
	mv	s1,a0
	mv	s5,a2
	.loc 1 101 19
	addi	a0,s0,-84
.LVL34:
	li	a2,36
.LVL35:
	.loc 1 97 1
	mv	s3,a5
	mv	s6,a3
	mv	s7,a4
	.loc 1 101 19
	call	memcpy
.LVL36:
	.loc 1 113 5 is_stmt 1
	.loc 1 113 23 is_stmt 0
	addi	a1,s2,36
	li	a2,12
	addi	a0,s0,-96
	.loc 1 122 11
	lui	s2,%hi(.LANCHOR3)
	.loc 1 113 23
	call	memcpy
.LVL37:
	.loc 1 122 5 is_stmt 1
	.loc 1 122 11 is_stmt 0
	addi	s2,s2,%lo(.LANCHOR3)
	.loc 1 122 8
	lbu	a5,0(s2)
	bne	a5,zero,.L50
	.loc 1 124 9 is_stmt 1
	li	a2,3
	li	a1,1
	li	a0,1
	call	GLB_Set_UART_CLK
.LVL38:
	.loc 1 125 9
	.loc 1 125 23 is_stmt 0
	li	a5,1
	sb	a5,0(s2)
.L50:
	.loc 1 129 5 is_stmt 1
	mv	a4,s7
	mv	a3,s6
	mv	a2,s5
	mv	a1,s4
	mv	a0,s1
	call	gpio_init
.LVL39:
	.loc 1 131 5
	.loc 1 132 21 is_stmt 0
	li	a5,40001536
	addi	a5,a5,-1536
	.loc 1 135 5
	li	a2,1
	li	a1,8
	mv	a0,s1
	.loc 1 132 21
	sw	a5,-84(s0)
	.loc 1 131 22
	sw	s3,-80(s0)
	.loc 1 132 5 is_stmt 1
	.loc 1 135 5
	call	UART_IntMask
.LVL40:
	.loc 1 138 5
	li	a1,2
	mv	a0,s1
	call	UART_Disable
.LVL41:
	.loc 1 141 5
	addi	a1,s0,-84
	mv	a0,s1
	call	UART_Init
.LVL42:
	.loc 1 144 5
	li	a1,1
	mv	a0,s1
	call	UART_TxFreeRun
.LVL43:
	.loc 1 147 5
	addi	a1,s0,-96
	mv	a0,s1
	call	UART_FifoConfig
.LVL44:
	.loc 1 150 5
	mv	a0,s1
	li	a1,2
	call	UART_Enable
.LVL45:
	.loc 1 152 5
	.loc 1 153 1 is_stmt 0
	lw	ra,92(sp)
	.cfi_restore 1
	lw	s0,88(sp)
	.cfi_restore 8
	.cfi_def_cfa 2, 96
	lw	s1,84(sp)
	.cfi_restore 9
	lw	s2,80(sp)
	.cfi_restore 18
	lw	s3,76(sp)
	.cfi_restore 19
.LVL46:
	lw	s4,72(sp)
	.cfi_restore 20
	lw	s5,68(sp)
	.cfi_restore 21
	lw	s6,64(sp)
	.cfi_restore 22
	lw	s7,60(sp)
	.cfi_restore 23
	li	a0,0
	addi	sp,sp,96
	.cfi_def_cfa_offset 0
	jr	ra
	.cfi_endproc
.LFE9:
	.size	bl_uart_init, .-bl_uart_init
	.section	.text.bl_uart_init_ex,"ax",@progbits
	.align	1
	.globl	bl_uart_init_ex
	.type	bl_uart_init_ex, @function
bl_uart_init_ex:
.LFB10:
	.loc 1 157 1 is_stmt 1
	.cfi_startproc
.LVL47:
	.loc 1 158 5
	.loc 1 159 5
	.loc 1 161 5
	.loc 1 157 1 is_stmt 0
	addi	sp,sp,-96
	.cfi_def_cfa_offset 96
	sw	ra,92(sp)
	sw	s0,88(sp)
	sw	s1,84(sp)
	.cfi_offset 1, -4
	.cfi_offset 8, -8
	.cfi_offset 9, -12
	addi	s0,sp,96
	.cfi_def_cfa 8, 0
	sw	s2,80(sp)
	sw	s3,76(sp)
	sw	s4,72(sp)
	sw	s5,68(sp)
	sw	s6,64(sp)
	sw	s7,60(sp)
	sw	s8,56(sp)
	sw	s9,52(sp)
	.cfi_offset 18, -16
	.cfi_offset 19, -20
	.cfi_offset 20, -24
	.cfi_offset 21, -28
	.cfi_offset 22, -32
	.cfi_offset 23, -36
	.cfi_offset 24, -40
	.cfi_offset 25, -44
	mv	s8,a1
	.loc 1 161 19
	lui	a1,%hi(.LANCHOR2)
.LVL48:
	addi	s4,a1,%lo(.LANCHOR2)
	.loc 1 157 1
	.loc 1 161 19
	addi	a1,a1,%lo(.LANCHOR2)
	.loc 1 157 1
	mv	s1,a0
	mv	s9,a2
	.loc 1 161 19
	addi	a0,s0,-84
.LVL49:
	li	a2,36
.LVL50:
	.loc 1 157 1
	mv	s7,a5
	mv	s3,a3
	mv	s2,a4
	mv	s6,a6
	mv	s5,a7
	.loc 1 161 19
	call	memcpy
.LVL51:
	.loc 1 173 5 is_stmt 1
	.loc 1 173 23 is_stmt 0
	addi	a1,s4,36
	li	a2,12
	addi	a0,s0,-96
	.loc 1 182 11
	lui	s4,%hi(.LANCHOR4)
	.loc 1 173 23
	call	memcpy
.LVL52:
	.loc 1 182 5 is_stmt 1
	.loc 1 182 11 is_stmt 0
	addi	s4,s4,%lo(.LANCHOR4)
	.loc 1 182 8
	lbu	a5,0(s4)
	bne	a5,zero,.L53
	.loc 1 184 9 is_stmt 1
	li	a2,3
	li	a1,1
	li	a0,1
	call	GLB_Set_UART_CLK
.LVL53:
	.loc 1 185 9
	.loc 1 185 23 is_stmt 0
	li	a5,1
	sb	a5,0(s4)
.L53:
	.loc 1 189 5 is_stmt 1
	mv	a3,s3
	mv	a4,s2
	mv	a2,s9
	mv	a1,s8
	mv	a0,s1
	call	gpio_init
.LVL54:
	.loc 1 191 5
	.loc 1 192 21 is_stmt 0
	li	a5,40001536
	addi	a5,a5,-1536
	sw	a5,-84(s0)
	.loc 1 195 20
	lw	a5,0(s0)
	.loc 1 197 25
	addi	s3,s3,-1
	.loc 1 191 22
	sw	s7,-80(s0)
	.loc 1 192 5 is_stmt 1
	.loc 1 193 5
	.loc 1 195 20 is_stmt 0
	sw	a5,-68(s0)
	.loc 1 193 22
	sw	s6,-76(s0)
	.loc 1 194 5 is_stmt 1
	.loc 1 194 22 is_stmt 0
	sw	s5,-72(s0)
	.loc 1 195 5 is_stmt 1
	.loc 1 197 5
	.loc 1 197 8 is_stmt 0
	andi	s3,s3,0xff
	li	a5,253
	bgtu	s3,a5,.L54
	.loc 1 199 9 is_stmt 1
	.loc 1 199 32 is_stmt 0
	li	a5,1
	sw	a5,-64(s0)
.L54:
	.loc 1 201 5 is_stmt 1
	.loc 1 201 25 is_stmt 0
	addi	s2,s2,-1
	.loc 1 201 8
	andi	s2,s2,0xff
	li	a5,253
	bgtu	s2,a5,.L55
	.loc 1 203 9 is_stmt 1
	.loc 1 203 36 is_stmt 0
	li	a5,1
	sw	a5,-56(s0)
.L55:
	.loc 1 207 5 is_stmt 1
	li	a2,1
	li	a1,8
	mv	a0,s1
	call	UART_IntMask
.LVL55:
	.loc 1 210 5
	li	a1,2
	mv	a0,s1
	call	UART_Disable
.LVL56:
	.loc 1 213 5
	addi	a1,s0,-84
	mv	a0,s1
	call	UART_Init
.LVL57:
	.loc 1 216 5
	li	a1,1
	mv	a0,s1
	call	UART_TxFreeRun
.LVL58:
	.loc 1 219 5
	addi	a1,s0,-96
	mv	a0,s1
	call	UART_FifoConfig
.LVL59:
	.loc 1 222 5
	mv	a0,s1
	li	a1,2
	call	UART_Enable
.LVL60:
	.loc 1 224 5
	.loc 1 225 1 is_stmt 0
	lw	ra,92(sp)
	.cfi_restore 1
	lw	s0,88(sp)
	.cfi_restore 8
	.cfi_def_cfa 2, 96
	lw	s1,84(sp)
	.cfi_restore 9
	lw	s2,80(sp)
	.cfi_restore 18
	lw	s3,76(sp)
	.cfi_restore 19
	lw	s4,72(sp)
	.cfi_restore 20
	lw	s5,68(sp)
	.cfi_restore 21
.LVL61:
	lw	s6,64(sp)
	.cfi_restore 22
.LVL62:
	lw	s7,60(sp)
	.cfi_restore 23
.LVL63:
	lw	s8,56(sp)
	.cfi_restore 24
	lw	s9,52(sp)
	.cfi_restore 25
	li	a0,0
	addi	sp,sp,96
	.cfi_def_cfa_offset 0
	jr	ra
	.cfi_endproc
.LFE10:
	.size	bl_uart_init_ex, .-bl_uart_init_ex
	.section	.text.bl_uart_data_send,"ax",@progbits
	.align	1
	.globl	bl_uart_data_send
	.type	bl_uart_data_send, @function
bl_uart_data_send:
.LFB11:
	.loc 1 229 1 is_stmt 1
	.cfi_startproc
.LVL64:
	.loc 1 230 5
	.loc 1 229 1 is_stmt 0
	addi	sp,sp,-32
	.cfi_def_cfa_offset 32
	.loc 1 230 14
	lui	a5,%hi(.LANCHOR0)
	.loc 1 229 1
	sw	s0,24(sp)
	sw	s1,20(sp)
	sw	s2,16(sp)
	sw	s3,12(sp)
	sw	ra,28(sp)
	.cfi_offset 8, -8
	.cfi_offset 9, -12
	.cfi_offset 18, -16
	.cfi_offset 19, -20
	.cfi_offset 1, -4
	addi	s0,sp,32
	.cfi_def_cfa 8, 0
	.loc 1 230 14
	slli	a4,a0,2
	addi	a5,a5,%lo(.LANCHOR0)
	.loc 1 229 1
	.loc 1 230 14
	add	a5,a5,a4
	lw	s3,0(a5)
.LVL65:
	.loc 1 233 5 is_stmt 1
	.loc 1 229 1 is_stmt 0
	mv	s1,a0
	mv	s2,a1
.LVL66:
.L58:
	.loc 1 235 5 is_stmt 1 discriminator 1
	.loc 1 233 11 discriminator 1
	.loc 1 233 12 is_stmt 0 discriminator 1
	mv	a0,s1
	call	UART_GetTxFifoCount
.LVL67:
	.loc 1 233 11 discriminator 1
	beq	a0,zero,.L58
	.loc 1 237 5 is_stmt 1
	.loc 1 237 44 is_stmt 0
	sb	s2,136(s3)
	.loc 1 239 5 is_stmt 1
	.loc 1 240 1 is_stmt 0
	lw	ra,28(sp)
	.cfi_restore 1
	lw	s0,24(sp)
	.cfi_restore 8
	.cfi_def_cfa 2, 32
	lw	s1,20(sp)
	.cfi_restore 9
	lw	s2,16(sp)
	.cfi_restore 18
	lw	s3,12(sp)
	.cfi_restore 19
.LVL68:
	li	a0,0
	addi	sp,sp,32
	.cfi_def_cfa_offset 0
	jr	ra
	.cfi_endproc
.LFE11:
	.size	bl_uart_data_send, .-bl_uart_data_send
	.section	.text.bl_uart_data_recv,"ax",@progbits
	.align	1
	.globl	bl_uart_data_recv
	.type	bl_uart_data_recv, @function
bl_uart_data_recv:
.LFB12:
	.loc 1 243 1 is_stmt 1
	.cfi_startproc
.LVL69:
	.loc 1 244 5
	.loc 1 245 5
	.loc 1 243 1 is_stmt 0
	addi	sp,sp,-16
	.cfi_def_cfa_offset 16
	.loc 1 245 14
	lui	a5,%hi(.LANCHOR0)
	.loc 1 243 1
	sw	s0,8(sp)
	sw	s1,4(sp)
	sw	ra,12(sp)
	.cfi_offset 8, -8
	.cfi_offset 9, -12
	.cfi_offset 1, -4
	addi	s0,sp,16
	.cfi_def_cfa 8, 0
	.loc 1 245 14
	slli	a4,a0,2
	addi	a5,a5,%lo(.LANCHOR0)
	.loc 1 243 1
	.loc 1 245 14
	add	a5,a5,a4
	lw	s1,0(a5)
.LVL70:
	.loc 1 248 5 is_stmt 1
	.loc 1 248 9 is_stmt 0
	call	UART_GetRxFifoCount
.LVL71:
	.loc 1 248 8
	beq	a0,zero,.L64
	.loc 1 250 9 is_stmt 1
	.loc 1 250 16 is_stmt 0
	lbu	a0,140(s1)
	andi	a0,a0,0xff
.LVL72:
.L62:
	.loc 1 258 1
	lw	ra,12(sp)
	.cfi_remember_state
	.cfi_restore 1
	lw	s0,8(sp)
	.cfi_restore 8
	.cfi_def_cfa 2, 16
	lw	s1,4(sp)
	.cfi_restore 9
.LVL73:
	addi	sp,sp,16
	.cfi_def_cfa_offset 0
	jr	ra
.LVL74:
.L64:
	.cfi_restore_state
	.loc 1 254 13
	li	a0,-1
.LVL75:
	.loc 1 257 5 is_stmt 1
	.loc 1 257 12 is_stmt 0
	j	.L62
	.cfi_endproc
.LFE12:
	.size	bl_uart_data_recv, .-bl_uart_data_recv
	.section	.text.bl_uart_int_rx_enable,"ax",@progbits
	.align	1
	.globl	bl_uart_int_rx_enable
	.type	bl_uart_int_rx_enable, @function
bl_uart_int_rx_enable:
.LFB13:
	.loc 1 261 1 is_stmt 1
	.cfi_startproc
.LVL76:
	.loc 1 262 5
	.loc 1 261 1 is_stmt 0
	addi	sp,sp,-16
	.cfi_def_cfa_offset 16
	sw	ra,12(sp)
	sw	s0,8(sp)
	sw	s1,4(sp)
	.cfi_offset 1, -4
	.cfi_offset 8, -8
	.cfi_offset 9, -12
	addi	s0,sp,16
	.cfi_def_cfa 8, 0
	.loc 1 262 5
	li	a1,24
	.loc 1 261 1
	mv	s1,a0
	.loc 1 262 5
	call	UART_SetRxTimeoutValue
.LVL77:
	.loc 1 263 5 is_stmt 1
	li	a2,0
	li	a1,3
	mv	a0,s1
	call	UART_IntMask
.LVL78:
	.loc 1 264 5
	li	a2,0
	li	a1,1
	mv	a0,s1
	call	UART_IntMask
.LVL79:
	.loc 1 265 5
	mv	a0,s1
	li	a2,0
	li	a1,4
	call	UART_IntMask
.LVL80:
	.loc 1 266 5
	.loc 1 267 1 is_stmt 0
	lw	ra,12(sp)
	.cfi_restore 1
	lw	s0,8(sp)
	.cfi_restore 8
	.cfi_def_cfa 2, 16
	lw	s1,4(sp)
	.cfi_restore 9
	li	a0,0
	addi	sp,sp,16
	.cfi_def_cfa_offset 0
	jr	ra
	.cfi_endproc
.LFE13:
	.size	bl_uart_int_rx_enable, .-bl_uart_int_rx_enable
	.section	.text.bl_uart_int_rx_disable,"ax",@progbits
	.align	1
	.globl	bl_uart_int_rx_disable
	.type	bl_uart_int_rx_disable, @function
bl_uart_int_rx_disable:
.LFB14:
	.loc 1 270 1 is_stmt 1
	.cfi_startproc
.LVL81:
	.loc 1 271 5
	.loc 1 270 1 is_stmt 0
	addi	sp,sp,-16
	.cfi_def_cfa_offset 16
	sw	ra,12(sp)
	sw	s0,8(sp)
	sw	s1,4(sp)
	.cfi_offset 1, -4
	.cfi_offset 8, -8
	.cfi_offset 9, -12
	addi	s0,sp,16
	.cfi_def_cfa 8, 0
	.loc 1 271 5
	li	a2,1
	li	a1,3
	.loc 1 270 1
	mv	s1,a0
	.loc 1 271 5
	call	UART_IntMask
.LVL82:
	.loc 1 272 5 is_stmt 1
	li	a2,1
	li	a1,1
	mv	a0,s1
	call	UART_IntMask
.LVL83:
	.loc 1 273 5
	mv	a0,s1
	li	a2,1
	li	a1,4
	call	UART_IntMask
.LVL84:
	.loc 1 274 5
	.loc 1 275 1 is_stmt 0
	lw	ra,12(sp)
	.cfi_restore 1
	lw	s0,8(sp)
	.cfi_restore 8
	.cfi_def_cfa 2, 16
	lw	s1,4(sp)
	.cfi_restore 9
	li	a0,0
	addi	sp,sp,16
	.cfi_def_cfa_offset 0
	jr	ra
	.cfi_endproc
.LFE14:
	.size	bl_uart_int_rx_disable, .-bl_uart_int_rx_disable
	.section	.text.bl_uart_int_tx_enable,"ax",@progbits
	.align	1
	.globl	bl_uart_int_tx_enable
	.type	bl_uart_int_tx_enable, @function
bl_uart_int_tx_enable:
.LFB15:
	.loc 1 278 1 is_stmt 1
	.cfi_startproc
.LVL85:
	.loc 1 279 5
	.loc 1 278 1 is_stmt 0
	addi	sp,sp,-16
	.cfi_def_cfa_offset 16
	sw	s0,8(sp)
	sw	ra,12(sp)
	.cfi_offset 8, -8
	.cfi_offset 1, -4
	addi	s0,sp,16
	.cfi_def_cfa 8, 0
	.loc 1 279 5
	li	a2,0
	li	a1,2
	call	UART_IntMask
.LVL86:
	.loc 1 280 5 is_stmt 1
	.loc 1 281 1 is_stmt 0
	lw	ra,12(sp)
	.cfi_restore 1
	lw	s0,8(sp)
	.cfi_restore 8
	.cfi_def_cfa 2, 16
	li	a0,0
	addi	sp,sp,16
	.cfi_def_cfa_offset 0
	jr	ra
	.cfi_endproc
.LFE15:
	.size	bl_uart_int_tx_enable, .-bl_uart_int_tx_enable
	.section	.text.bl_uart_int_tx_disable,"ax",@progbits
	.align	1
	.globl	bl_uart_int_tx_disable
	.type	bl_uart_int_tx_disable, @function
bl_uart_int_tx_disable:
.LFB16:
	.loc 1 284 1 is_stmt 1
	.cfi_startproc
.LVL87:
	.loc 1 285 5
	.loc 1 284 1 is_stmt 0
	addi	sp,sp,-16
	.cfi_def_cfa_offset 16
	sw	s0,8(sp)
	sw	ra,12(sp)
	.cfi_offset 8, -8
	.cfi_offset 1, -4
	addi	s0,sp,16
	.cfi_def_cfa 8, 0
	.loc 1 285 5
	li	a2,1
	li	a1,2
	call	UART_IntMask
.LVL88:
	.loc 1 286 5 is_stmt 1
	.loc 1 287 1 is_stmt 0
	lw	ra,12(sp)
	.cfi_restore 1
	lw	s0,8(sp)
	.cfi_restore 8
	.cfi_def_cfa 2, 16
	li	a0,0
	addi	sp,sp,16
	.cfi_def_cfa_offset 0
	jr	ra
	.cfi_endproc
.LFE16:
	.size	bl_uart_int_tx_disable, .-bl_uart_int_tx_disable
	.section	.text.bl_uart_flush,"ax",@progbits
	.align	1
	.globl	bl_uart_flush
	.type	bl_uart_flush, @function
bl_uart_flush:
.LFB17:
	.loc 1 290 1 is_stmt 1
	.cfi_startproc
.LVL89:
	.loc 1 292 5
	.loc 1 290 1 is_stmt 0
	addi	sp,sp,-16
	.cfi_def_cfa_offset 16
	sw	s0,8(sp)
	sw	s1,4(sp)
	sw	s2,0(sp)
	sw	ra,12(sp)
	.cfi_offset 8, -8
	.cfi_offset 9, -12
	.cfi_offset 18, -16
	.cfi_offset 1, -4
	addi	s0,sp,16
	.cfi_def_cfa 8, 0
	.loc 1 290 1
	mv	s1,a0
	.loc 1 292 11
	li	s2,32
.LVL90:
.L75:
	.loc 1 294 5 is_stmt 1 discriminator 1
	.loc 1 292 11 discriminator 1
	.loc 1 292 20 is_stmt 0 discriminator 1
	mv	a0,s1
	call	UART_GetTxFifoCount
.LVL91:
	.loc 1 292 11 discriminator 1
	bne	a0,s2,.L75
	.loc 1 296 11
	li	s2,1
.L76:
	.loc 1 298 5 is_stmt 1 discriminator 1
	.loc 1 296 11 discriminator 1
	.loc 1 296 12 is_stmt 0 discriminator 1
	mv	a0,s1
	call	UART_GetTxBusBusyStatus
.LVL92:
	.loc 1 296 11 discriminator 1
	beq	a0,s2,.L76
	.loc 1 300 5 is_stmt 1
	.loc 1 301 1 is_stmt 0
	lw	ra,12(sp)
	.cfi_restore 1
	lw	s0,8(sp)
	.cfi_restore 8
	.cfi_def_cfa 2, 16
	lw	s1,4(sp)
	.cfi_restore 9
	lw	s2,0(sp)
	.cfi_restore 18
	li	a0,0
	addi	sp,sp,16
	.cfi_def_cfa_offset 0
	jr	ra
	.cfi_endproc
.LFE17:
	.size	bl_uart_flush, .-bl_uart_flush
	.section	.text.bl_uart_getdefconfig,"ax",@progbits
	.align	1
	.globl	bl_uart_getdefconfig
	.type	bl_uart_getdefconfig, @function
bl_uart_getdefconfig:
.LFB18:
	.loc 1 304 1 is_stmt 1
	.cfi_startproc
.LVL93:
	.loc 1 305 5
	.loc 1 304 1 is_stmt 0
	addi	sp,sp,-16
	.cfi_def_cfa_offset 16
	sw	s0,12(sp)
	.cfi_offset 8, -4
	addi	s0,sp,16
	.cfi_def_cfa 8, 0
	.loc 1 305 8
	beq	a1,zero,.L80
	.loc 1 311 5 is_stmt 1
	.loc 1 311 13 is_stmt 0
	sb	zero,0(a1)
.L80:
	.loc 1 312 1
	lw	s0,12(sp)
	.cfi_restore 8
	.cfi_def_cfa 2, 16
	addi	sp,sp,16
	.cfi_def_cfa_offset 0
	jr	ra
	.cfi_endproc
.LFE18:
	.size	bl_uart_getdefconfig, .-bl_uart_getdefconfig
	.section	.text.bl_uart_setconfig,"ax",@progbits
	.align	1
	.globl	bl_uart_setconfig
	.type	bl_uart_setconfig, @function
bl_uart_setconfig:
.LFB19:
	.loc 1 315 1 is_stmt 1
	.cfi_startproc
.LVL94:
	.loc 1 316 5
	.loc 1 315 1 is_stmt 0
	addi	sp,sp,-80
	.cfi_def_cfa_offset 80
	sw	ra,76(sp)
	sw	s0,72(sp)
	sw	s1,68(sp)
	.cfi_offset 1, -4
	.cfi_offset 8, -8
	.cfi_offset 9, -12
	addi	s0,sp,80
	.cfi_def_cfa 8, 0
	sw	s2,64(sp)
	sw	s3,60(sp)
	.cfi_offset 18, -16
	.cfi_offset 19, -20
	mv	s3,a1
	.loc 1 316 19
	lui	a1,%hi(.LANCHOR2+48)
.LVL95:
	.loc 1 315 1
	.loc 1 315 1
	mv	s1,a0
	mv	s2,a2
	.loc 1 316 19
	addi	a1,a1,%lo(.LANCHOR2+48)
	li	a2,36
.LVL96:
	addi	a0,s0,-68
.LVL97:
	call	memcpy
.LVL98:
	.loc 1 329 5 is_stmt 1
	.loc 1 333 5 is_stmt 0
	li	a1,2
	mv	a0,s1
	.loc 1 329 22
	sw	s3,-64(s0)
	.loc 1 330 5 is_stmt 1
	.loc 1 330 20 is_stmt 0
	sw	s2,-52(s0)
	.loc 1 333 5 is_stmt 1
	call	UART_Disable
.LVL99:
	.loc 1 335 5
	addi	a1,s0,-68
	mv	a0,s1
	call	UART_Init
.LVL100:
	.loc 1 337 5
	li	a1,1
	mv	a0,s1
	call	UART_TxFreeRun
.LVL101:
	.loc 1 339 5
	mv	a0,s1
	li	a1,2
	call	UART_Enable
.LVL102:
	.loc 1 340 1 is_stmt 0
	lw	ra,76(sp)
	.cfi_restore 1
	lw	s0,72(sp)
	.cfi_restore 8
	.cfi_def_cfa 2, 80
	lw	s1,68(sp)
	.cfi_restore 9
	lw	s2,64(sp)
	.cfi_restore 18
.LVL103:
	lw	s3,60(sp)
	.cfi_restore 19
.LVL104:
	addi	sp,sp,80
	.cfi_def_cfa_offset 0
	jr	ra
	.cfi_endproc
.LFE19:
	.size	bl_uart_setconfig, .-bl_uart_setconfig
	.section	.text.bl_uart_setbaud,"ax",@progbits
	.align	1
	.globl	bl_uart_setbaud
	.type	bl_uart_setbaud, @function
bl_uart_setbaud:
.LFB20:
	.loc 1 343 1 is_stmt 1
	.cfi_startproc
.LVL105:
	.loc 1 344 5
	.loc 1 343 1 is_stmt 0
	addi	sp,sp,-16
	.cfi_def_cfa_offset 16
	sw	s0,12(sp)
	.cfi_offset 8, -4
	addi	s0,sp,16
	.cfi_def_cfa 8, 0
	.loc 1 345 1
	lw	s0,12(sp)
	.cfi_restore 8
	.cfi_def_cfa 2, 16
	.loc 1 344 5
	li	a2,0
	.loc 1 345 1
	addi	sp,sp,16
	.cfi_def_cfa_offset 0
	.loc 1 344 5
	tail	bl_uart_setconfig
.LVL106:
	.cfi_endproc
.LFE20:
	.size	bl_uart_setbaud, .-bl_uart_setbaud
	.section	.text.bl_uart_int_enable,"ax",@progbits
	.align	1
	.globl	bl_uart_int_enable
	.type	bl_uart_int_enable, @function
bl_uart_int_enable:
.LFB21:
	.loc 1 348 1 is_stmt 1
	.cfi_startproc
.LVL107:
	.loc 1 349 5
	.loc 1 348 1 is_stmt 0
	addi	sp,sp,-16
	.cfi_def_cfa_offset 16
	sw	s0,8(sp)
	sw	ra,12(sp)
	.cfi_offset 8, -8
	.cfi_offset 1, -4
	addi	s0,sp,16
	.cfi_def_cfa 8, 0
	.loc 1 349 5
	beq	a0,zero,.L91
	li	a4,1
	beq	a0,a4,.L92
	li	a0,-1
.LVL108:
.L90:
	.loc 1 374 1
	lw	ra,12(sp)
	.cfi_remember_state
	.cfi_restore 1
	lw	s0,8(sp)
	.cfi_restore 8
	.cfi_def_cfa 2, 16
	addi	sp,sp,16
	.cfi_def_cfa_offset 0
	jr	ra
.LVL109:
.L91:
	.cfi_restore_state
	.loc 1 353 9 is_stmt 1
	call	bl_uart_int_rx_enable
.LVL110:
	.loc 1 354 9
	li	a0,0
	call	bl_uart_int_tx_enable
.LVL111:
	.loc 1 355 9
	lui	a1,%hi(UART0_IRQHandler)
	li	a0,45
	addi	a1,a1,%lo(UART0_IRQHandler)
	call	bl_irq_register
.LVL112:
	.loc 1 356 9
	li	a0,45
.L95:
	.loc 1 364 9 is_stmt 0
	call	bl_irq_enable
.LVL113:
	.loc 1 366 5 is_stmt 1
	.loc 1 373 12 is_stmt 0
	li	a0,0
	.loc 1 366 5
	j	.L90
.LVL114:
.L92:
	.loc 1 361 9 is_stmt 1
	call	bl_uart_int_rx_enable
.LVL115:
	.loc 1 362 9
	li	a0,1
	call	bl_uart_int_tx_enable
.LVL116:
	.loc 1 363 9
	lui	a1,%hi(UART1_IRQHandler)
	li	a0,46
	addi	a1,a1,%lo(UART1_IRQHandler)
	call	bl_irq_register
.LVL117:
	.loc 1 364 9
	li	a0,46
	j	.L95
	.cfi_endproc
.LFE21:
	.size	bl_uart_int_enable, .-bl_uart_int_enable
	.section	.text.bl_uart_int_disable,"ax",@progbits
	.align	1
	.globl	bl_uart_int_disable
	.type	bl_uart_int_disable, @function
bl_uart_int_disable:
.LFB22:
	.loc 1 377 1
	.cfi_startproc
.LVL118:
	.loc 1 378 5
	.loc 1 377 1 is_stmt 0
	addi	sp,sp,-16
	.cfi_def_cfa_offset 16
	sw	s0,8(sp)
	sw	ra,12(sp)
	.cfi_offset 8, -8
	.cfi_offset 1, -4
	addi	s0,sp,16
	.cfi_def_cfa 8, 0
	.loc 1 378 5
	beq	a0,zero,.L97
	li	a4,1
	beq	a0,a4,.L98
	li	a0,-1
.LVL119:
.L96:
	.loc 1 403 1
	lw	ra,12(sp)
	.cfi_remember_state
	.cfi_restore 1
	lw	s0,8(sp)
	.cfi_restore 8
	.cfi_def_cfa 2, 16
	addi	sp,sp,16
	.cfi_def_cfa_offset 0
	jr	ra
.LVL120:
.L97:
	.cfi_restore_state
	.loc 1 382 9 is_stmt 1
	call	bl_uart_int_rx_disable
.LVL121:
	.loc 1 383 9
	li	a0,0
	call	bl_uart_int_tx_disable
.LVL122:
	.loc 1 384 9
	lui	a1,%hi(UART0_IRQHandler)
	li	a0,45
	addi	a1,a1,%lo(UART0_IRQHandler)
	call	bl_irq_unregister
.LVL123:
	.loc 1 385 9
	li	a0,45
.L101:
	.loc 1 393 9 is_stmt 0
	call	bl_irq_disable
.LVL124:
	.loc 1 395 5 is_stmt 1
	.loc 1 402 12 is_stmt 0
	li	a0,0
	.loc 1 395 5
	j	.L96
.LVL125:
.L98:
	.loc 1 390 9 is_stmt 1
	call	bl_uart_int_rx_disable
.LVL126:
	.loc 1 391 9
	li	a0,1
	call	bl_uart_int_tx_disable
.LVL127:
	.loc 1 392 9
	lui	a1,%hi(UART1_IRQHandler)
	li	a0,46
	addi	a1,a1,%lo(UART1_IRQHandler)
	call	bl_irq_unregister
.LVL128:
	.loc 1 393 9
	li	a0,46
	j	.L101
	.cfi_endproc
.LFE22:
	.size	bl_uart_int_disable, .-bl_uart_int_disable
	.section	.text.bl_uart_int_rx_notify_register,"ax",@progbits
	.align	1
	.globl	bl_uart_int_rx_notify_register
	.type	bl_uart_int_rx_notify_register, @function
bl_uart_int_rx_notify_register:
.LFB23:
	.loc 1 406 1
	.cfi_startproc
.LVL129:
	.loc 1 407 5
	.loc 1 406 1 is_stmt 0
	addi	sp,sp,-16
	.cfi_def_cfa_offset 16
	sw	s0,12(sp)
	.cfi_offset 8, -4
	addi	s0,sp,16
	.cfi_def_cfa 8, 0
	.loc 1 407 8
	li	a5,1
	bgtu	a0,a5,.L104
	.loc 1 413 5 is_stmt 1
	.loc 1 413 33 is_stmt 0
	slli	a5,a0,4
	lui	a0,%hi(.LANCHOR1)
.LVL130:
	addi	a0,a0,%lo(.LANCHOR1)
	add	a0,a0,a5
	sw	a1,0(a0)
	.loc 1 414 5 is_stmt 1
	.loc 1 414 37 is_stmt 0
	sw	a2,4(a0)
	.loc 1 416 5 is_stmt 1
	.loc 1 416 12 is_stmt 0
	li	a0,0
.L102:
	.loc 1 417 1
	lw	s0,12(sp)
	.cfi_remember_state
	.cfi_restore 8
	.cfi_def_cfa 2, 16
	addi	sp,sp,16
	.cfi_def_cfa_offset 0
	jr	ra
.LVL131:
.L104:
	.cfi_restore_state
	.loc 1 410 16
	li	a0,-1
.LVL132:
	j	.L102
	.cfi_endproc
.LFE23:
	.size	bl_uart_int_rx_notify_register, .-bl_uart_int_rx_notify_register
	.section	.text.bl_uart_int_tx_notify_register,"ax",@progbits
	.align	1
	.globl	bl_uart_int_tx_notify_register
	.type	bl_uart_int_tx_notify_register, @function
bl_uart_int_tx_notify_register:
.LFB24:
	.loc 1 420 1 is_stmt 1
	.cfi_startproc
.LVL133:
	.loc 1 421 5
	.loc 1 420 1 is_stmt 0
	addi	sp,sp,-16
	.cfi_def_cfa_offset 16
	sw	s0,12(sp)
	.cfi_offset 8, -4
	addi	s0,sp,16
	.cfi_def_cfa 8, 0
	.loc 1 421 8
	li	a5,1
	bgtu	a0,a5,.L108
	.loc 1 427 5 is_stmt 1
	.loc 1 427 33 is_stmt 0
	slli	a5,a0,4
	lui	a0,%hi(.LANCHOR1)
.LVL134:
	addi	a0,a0,%lo(.LANCHOR1)
	add	a0,a0,a5
	sw	a1,8(a0)
	.loc 1 428 5 is_stmt 1
	.loc 1 428 37 is_stmt 0
	sw	a2,12(a0)
	.loc 1 430 5 is_stmt 1
	.loc 1 430 12 is_stmt 0
	li	a0,0
.L106:
	.loc 1 431 1
	lw	s0,12(sp)
	.cfi_remember_state
	.cfi_restore 8
	.cfi_def_cfa 2, 16
	addi	sp,sp,16
	.cfi_def_cfa_offset 0
	jr	ra
.LVL135:
.L108:
	.cfi_restore_state
	.loc 1 424 16
	li	a0,-1
.LVL136:
	j	.L106
	.cfi_endproc
.LFE24:
	.size	bl_uart_int_tx_notify_register, .-bl_uart_int_tx_notify_register
	.section	.text.bl_uart_int_rx_notify_unregister,"ax",@progbits
	.align	1
	.globl	bl_uart_int_rx_notify_unregister
	.type	bl_uart_int_rx_notify_unregister, @function
bl_uart_int_rx_notify_unregister:
.LFB25:
	.loc 1 434 1 is_stmt 1
	.cfi_startproc
.LVL137:
	.loc 1 435 5
	.loc 1 434 1 is_stmt 0
	addi	sp,sp,-16
	.cfi_def_cfa_offset 16
	sw	s0,12(sp)
	.cfi_offset 8, -4
	addi	s0,sp,16
	.cfi_def_cfa 8, 0
	.loc 1 435 8
	li	a5,1
	bgtu	a0,a5,.L112
	.loc 1 440 5 is_stmt 1
	.loc 1 440 33 is_stmt 0
	slli	a5,a0,4
	lui	a0,%hi(.LANCHOR1)
.LVL138:
	addi	a0,a0,%lo(.LANCHOR1)
	add	a0,a0,a5
	sw	zero,0(a0)
	.loc 1 441 5 is_stmt 1
	.loc 1 441 37 is_stmt 0
	sw	zero,4(a0)
	.loc 1 443 5 is_stmt 1
	.loc 1 443 12 is_stmt 0
	li	a0,0
.L110:
	.loc 1 444 1
	lw	s0,12(sp)
	.cfi_remember_state
	.cfi_restore 8
	.cfi_def_cfa 2, 16
	addi	sp,sp,16
	.cfi_def_cfa_offset 0
	jr	ra
.LVL139:
.L112:
	.cfi_restore_state
	.loc 1 438 16
	li	a0,-1
.LVL140:
	j	.L110
	.cfi_endproc
.LFE25:
	.size	bl_uart_int_rx_notify_unregister, .-bl_uart_int_rx_notify_unregister
	.section	.text.bl_uart_int_tx_notify_unregister,"ax",@progbits
	.align	1
	.globl	bl_uart_int_tx_notify_unregister
	.type	bl_uart_int_tx_notify_unregister, @function
bl_uart_int_tx_notify_unregister:
.LFB26:
	.loc 1 447 1 is_stmt 1
	.cfi_startproc
.LVL141:
	.loc 1 448 5
	.loc 1 447 1 is_stmt 0
	addi	sp,sp,-16
	.cfi_def_cfa_offset 16
	sw	s0,12(sp)
	.cfi_offset 8, -4
	addi	s0,sp,16
	.cfi_def_cfa 8, 0
	.loc 1 448 8
	li	a5,1
	bgtu	a0,a5,.L116
	.loc 1 453 5 is_stmt 1
	.loc 1 453 33 is_stmt 0
	slli	a5,a0,4
	lui	a0,%hi(.LANCHOR1)
.LVL142:
	addi	a0,a0,%lo(.LANCHOR1)
	add	a0,a0,a5
	sw	zero,8(a0)
	.loc 1 454 5 is_stmt 1
	.loc 1 454 37 is_stmt 0
	sw	zero,12(a0)
	.loc 1 456 5 is_stmt 1
	.loc 1 456 12 is_stmt 0
	li	a0,0
.L114:
	.loc 1 457 1
	lw	s0,12(sp)
	.cfi_remember_state
	.cfi_restore 8
	.cfi_def_cfa 2, 16
	addi	sp,sp,16
	.cfi_def_cfa_offset 0
	jr	ra
.LVL143:
.L116:
	.cfi_restore_state
	.loc 1 451 16
	li	a0,-1
.LVL144:
	j	.L114
	.cfi_endproc
.LFE26:
	.size	bl_uart_int_tx_notify_unregister, .-bl_uart_int_tx_notify_unregister
	.section	.rodata
	.align	2
	.set	.LANCHOR2,. + 0
.LC0:
	.word	160000000
	.word	2000000
	.word	3
	.word	1
	.word	0
	.word	0
	.word	0
	.word	0
	.word	0
.LC1:
	.byte	16
	.byte	16
	.zero	2
	.word	0
	.word	0
.LC2:
	.word	40000000
	.word	2000000
	.word	3
	.word	1
	.word	0
	.word	0
	.word	0
	.word	0
	.word	0
	.section	.bss.g_uart_notify_arg,"aw",@nobits
	.align	2
	.set	.LANCHOR1,. + 0
	.type	g_uart_notify_arg, @object
	.size	g_uart_notify_arg, 32
g_uart_notify_arg:
	.zero	32
	.section	.sbss.uart_clk_init.0,"aw",@nobits
	.set	.LANCHOR4,. + 0
	.type	uart_clk_init.0, @object
	.size	uart_clk_init.0, 1
uart_clk_init.0:
	.zero	1
	.section	.sbss.uart_clk_init.1,"aw",@nobits
	.set	.LANCHOR3,. + 0
	.type	uart_clk_init.1, @object
	.size	uart_clk_init.1, 1
uart_clk_init.1:
	.zero	1
	.section	.srodata.uartAddr,"a"
	.align	2
	.set	.LANCHOR0,. + 0
	.type	uartAddr, @object
	.size	uartAddr, 8
uartAddr:
	.word	1073782784
	.word	1073783040
	.text
.Letext0:
	.file 2 "/home/quanghaictu/intern/Ai-Thinker-WB2/toolchain/riscv/Linux/lib/gcc/riscv64-unknown-elf/10.2.0/include/stdint-gcc.h"
	.file 3 "/home/quanghaictu/intern/Ai-Thinker-WB2/components/platform/soc/bl602/bl602_std/bl602_std/Device/Bouffalo/BL602/Peripherals/bl602.h"
	.file 4 "/home/quanghaictu/intern/Ai-Thinker-WB2/components/platform/soc/bl602/bl602_std/bl602_std/StdDriver/Inc/bl602_common.h"
	.file 5 "/home/quanghaictu/intern/Ai-Thinker-WB2/components/platform/soc/bl602/bl602_std/bl602_std/StdDriver/Inc/bl602_uart.h"
	.file 6 "/home/quanghaictu/intern/Ai-Thinker-WB2/components/platform/soc/bl602/bl602_std/bl602_std/StdDriver/Inc/bl602_gpio.h"
	.file 7 "/home/quanghaictu/intern/Ai-Thinker-WB2/components/platform/soc/bl602/bl602_std/bl602_std/StdDriver/Inc/bl602_hbn.h"
	.file 8 "/home/quanghaictu/intern/Ai-Thinker-WB2/components/platform/soc/bl602/bl602_std/bl602_std/StdDriver/Inc/bl602_glb.h"
	.file 9 "/home/quanghaictu/intern/Ai-Thinker-WB2/components/platform/hosal/bl602_hal/bl_uart.h"
	.file 10 "/home/quanghaictu/intern/Ai-Thinker-WB2/components/platform/hosal/bl602_hal/bl_irq.h"
	.file 11 "<built-in>"