	.file	"hal_ir.c"
	.option nopic
	.attribute arch, "rv32i2p0_m2p0_f2p0_c2p0"
	.attribute unaligned_access, 0
	.attribute stack_align, 16
	.text
.Ltext0:
	.cfi_sections	.debug_frame
	.section	.text.fdt32_to_cpu,"ax",@progbits
	.align	1
	.type	fdt32_to_cpu, @function
fdt32_to_cpu:
.LFB6:
	.file 1 "/home/dinhquangha/intern/Ai-Thinker-WB2/components/stage/blfdt/inc/libfdt_env.h"
	.loc 1 92 1
	.cfi_startproc
.LVL0:
	.loc 1 93 5
	.loc 1 92 1 is_stmt 0
	addi	sp,sp,-16
	.cfi_def_cfa_offset 16
	sw	s0,12(sp)
	.loc 1 93 212
	srli	a4,a0,24
	.cfi_offset 8, -4
	.loc 1 92 1
	addi	s0,sp,16
	.cfi_def_cfa 8, 0
	.loc 1 93 12
	slli	a5,a0,24
	.loc 1 92 1
	.loc 1 93 12
	or	a5,a5,a4
	.loc 1 93 112
	srli	a4,a0,8
	.loc 1 94 1
	lw	s0,12(sp)
	.cfi_restore 8
	.cfi_def_cfa 2, 16
	.loc 1 93 112
	andi	a4,a4,0xff
	.loc 1 93 163
	srli	a0,a0,16
.LVL1:
	.loc 1 93 117
	slli	a4,a4,16
	.loc 1 93 163
	andi	a0,a0,0xff
	.loc 1 93 12
	or	a5,a5,a4
	.loc 1 93 168
	slli	a0,a0,8
	.loc 1 94 1
	or	a0,a5,a0
	addi	sp,sp,16
	.cfi_def_cfa_offset 0
	jr	ra
	.cfi_endproc
.LFE6:
	.size	fdt32_to_cpu, .-fdt32_to_cpu
	.section	.rodata.hal_ir_init_from_dts.str1.4,"aMS",@progbits,1
	.align	2
.LC0:
	.string	"ctrltype"
	.align	2
.LC1:
	.string	"rx"
	.align	2
.LC2:
	.string	"status"
	.align	2
.LC3:
	.string	"okay"
	.align	2
.LC4:
	.string	"pin"
	.align	2
.LC5:
	.string	"data_check"
	.section	.text.hal_ir_init_from_dts,"ax",@progbits
	.align	1
	.globl	hal_ir_init_from_dts
	.type	hal_ir_init_from_dts, @function
hal_ir_init_from_dts:
.LFB63:
	.file 2 "/home/dinhquangha/intern/Ai-Thinker-WB2/components/platform/hosal/bl602_hal/hal_ir.c"
	.loc 2 23 1 is_stmt 1
	.cfi_startproc
.LVL2:
	.loc 2 24 5
	.loc 2 25 5
	.loc 2 23 1 is_stmt 0
	addi	sp,sp,-48
	.cfi_def_cfa_offset 48
	sw	s0,40(sp)
	sw	s1,36(sp)
	.cfi_offset 8, -8
	.cfi_offset 9, -12
	addi	s0,sp,48
	.cfi_def_cfa 8, 0
	sw	s2,32(sp)
	sw	s5,20(sp)
	sw	ra,44(sp)
	sw	s3,28(sp)
	sw	s4,24(sp)
	.loc 2 36 17
	lui	a2,%hi(.LC0)
	.loc 2 23 1
	.cfi_offset 18, -16
	.cfi_offset 21, -28
	.cfi_offset 1, -4
	.cfi_offset 19, -20
	.cfi_offset 20, -24
	.loc 2 36 17
	addi	a3,s0,-36
	addi	a2,a2,%lo(.LC0)
	.loc 2 23 1
	mv	s2,a0
.LVL3:
	.loc 2 27 5 is_stmt 1
	.loc 2 28 5
	.loc 2 23 1 is_stmt 0
	mv	s1,a1
	.loc 2 28 9
	sw	zero,-36(s0)
	.loc 2 29 5 is_stmt 1
.LVL4:
	.loc 2 30 5
	.loc 2 31 5
	.loc 2 33 5
	.loc 2 34 5
	.loc 2 36 5
	.loc 2 36 17 is_stmt 0
	call	fdt_getprop
.LVL5:
	.loc 2 37 5 is_stmt 1
	li	s5,0
	.loc 2 37 8 is_stmt 0
	beq	a0,zero,.L4
	.loc 2 40 9 is_stmt 1
	.loc 2 40 31 is_stmt 0
	lw	a0,0(a0)
.LVL6:
	call	fdt32_to_cpu
.LVL7:
	mv	s5,a0
.LVL8:
.L4:
	.loc 2 41 9 is_stmt 1
	.loc 2 44 5
	.loc 2 44 15 is_stmt 0
	lui	a2,%hi(.LC1)
	addi	a2,a2,%lo(.LC1)
	mv	a1,s1
	mv	a0,s2
	call	fdt_subnode_offset
.LVL9:
	mv	s3,a0
.LVL10:
	.loc 2 45 5 is_stmt 1
	.loc 2 45 8 is_stmt 0
	bgt	a0,zero,.L5
.LVL11:
.L7:
	.loc 2 34 9
	li	s1,0
	.loc 2 33 13
	li	s4,0
.LVL12:
.L6:
	.loc 2 75 5 is_stmt 1
	mv	a2,s1
	mv	a1,s5
	mv	a0,s4
	call	bl_ir_init
.LVL13:
	.loc 2 77 5
	.loc 2 78 1 is_stmt 0
	lw	ra,44(sp)
	.cfi_remember_state
	.cfi_restore 1
	lw	s0,40(sp)
	.cfi_restore 8
	.cfi_def_cfa 2, 48
	lw	s1,36(sp)
	.cfi_restore 9
.LVL14:
	lw	s2,32(sp)
	.cfi_restore 18
.LVL15:
	lw	s3,28(sp)
	.cfi_restore 19
.LVL16:
	lw	s4,24(sp)
	.cfi_restore 20
.LVL17:
	lw	s5,20(sp)
	.cfi_restore 21
.LVL18:
	li	a0,0
	addi	sp,sp,48
	.cfi_def_cfa_offset 0
	jr	ra
.LVL19:
.L5:
	.cfi_restore_state
	.loc 2 48 9 is_stmt 1
	.loc 2 48 22 is_stmt 0
	lui	s1,%hi(.LC2)
.LVL20:
	mv	a1,a0
	addi	a2,s1,%lo(.LC2)
	mv	a0,s2
.LVL21:
	call	fdt_stringlist_count
.LVL22:
	.loc 2 49 9 is_stmt 1
	.loc 2 49 12 is_stmt 0
	li	a5,1
	bne	a0,a5,.L7
	.loc 2 52 13 is_stmt 1
	.loc 2 52 22 is_stmt 0
	addi	a4,s0,-36
	mv	a1,s3
	li	a3,0
	addi	a2,s1,%lo(.LC2)
	mv	a0,s2
.LVL23:
	call	fdt_stringlist_get
.LVL24:
	.loc 2 53 16
	lw	a4,-36(s0)
	li	a5,4
	.loc 2 52 22
	mv	a1,a0
.LVL25:
	.loc 2 53 13 is_stmt 1
	.loc 2 53 16 is_stmt 0
	bne	a4,a5,.L7
	.loc 2 53 35 discriminator 1
	lui	a0,%hi(.LC3)
.LVL26:
	li	a2,4
	addi	a0,a0,%lo(.LC3)
	call	memcmp
.LVL27:
	mv	s1,a0
	.loc 2 53 31 discriminator 1
	bne	a0,zero,.L7
	.loc 2 57 17 is_stmt 1
	.loc 2 57 29 is_stmt 0
	lui	a2,%hi(.LC4)
	addi	a3,s0,-36
	addi	a2,a2,%lo(.LC4)
	mv	a1,s3
	mv	a0,s2
	call	fdt_getprop
.LVL28:
	.loc 2 58 17 is_stmt 1
	.loc 2 58 20 is_stmt 0
	beq	a0,zero,.L7
	.loc 2 61 21 is_stmt 1
	.loc 2 61 38 is_stmt 0
	lw	a0,0(a0)
.LVL29:
	call	fdt32_to_cpu
.LVL30:
	.loc 2 63 33
	lui	a2,%hi(.LC5)
	.loc 2 61 25
	andi	s4,a0,0xff
.LVL31:
	.loc 2 62 21 is_stmt 1
	.loc 2 63 21
	.loc 2 63 33 is_stmt 0
	addi	a3,s0,-36
	addi	a2,a2,%lo(.LC5)
	mv	a1,s3
	mv	a0,s2
	call	fdt_getprop
.LVL32:
	.loc 2 64 21 is_stmt 1
	.loc 2 64 24 is_stmt 0
	beq	a0,zero,.L6
	.loc 2 67 25 is_stmt 1
	.loc 2 67 49 is_stmt 0
	lw	a0,0(a0)
.LVL33:
	call	fdt32_to_cpu
.LVL34:
	mv	s1,a0
.LVL35:
	j	.L6
	.cfi_endproc
.LFE63:
	.size	hal_ir_init_from_dts, .-hal_ir_init_from_dts
	.section	.text.hal_ir_config,"ax",@progbits
	.align	1
	.globl	hal_ir_config
	.type	hal_ir_config, @function
hal_ir_config:
.LFB64:
	.loc 2 81 1 is_stmt 1
	.cfi_startproc
.LVL36:
	.loc 2 82 5
	.loc 2 81 1 is_stmt 0
	addi	sp,sp,-16
	.cfi_def_cfa_offset 16
	sw	s0,12(sp)
	.cfi_offset 8, -4
	addi	s0,sp,16
	.cfi_def_cfa 8, 0
	.loc 2 83 1
	lw	s0,12(sp)
	.cfi_restore 8
	.cfi_def_cfa 2, 16
	addi	sp,sp,16
	.cfi_def_cfa_offset 0
	.loc 2 82 12
	tail	bl_ir_data_check_config
.LVL37:
	.cfi_endproc
.LFE64:
	.size	hal_ir_config, .-hal_ir_config
	.section	.text.hal_irled_init,"ax",@progbits
	.align	1
	.globl	hal_irled_init
	.type	hal_irled_init, @function
hal_irled_init:
.LFB65:
	.loc 2 86 1 is_stmt 1
	.cfi_startproc
.LVL38:
	.loc 2 87 5
	.loc 2 89 5
	.loc 2 86 1 is_stmt 0
	addi	sp,sp,-16
	.cfi_def_cfa_offset 16
	sw	s0,8(sp)
	sw	s2,0(sp)
	sw	ra,12(sp)
	sw	s1,4(sp)
	.cfi_offset 8, -8
	.cfi_offset 18, -16
	.cfi_offset 1, -4
	.cfi_offset 9, -12
	addi	s0,sp,16
	.cfi_def_cfa 8, 0
	mv	s2,a0
	.loc 2 89 14
	li	a0,64
.LVL39:
	call	pvPortMalloc
.LVL40:
	.loc 2 90 5 is_stmt 1
	.loc 2 90 8 is_stmt 0
	beq	a0,zero,.L21
	.loc 2 96 29
	li	a5,11
	sb	a5,55(a0)
	.loc 2 97 30
	li	a5,12
	sb	a5,57(a0)
	.loc 2 98 26
	li	a5,1
	sb	a5,46(a0)
	.loc 2 99 26
	li	a5,4001792
	addi	a5,a5,-1792
	sw	a5,48(a0)
	.loc 2 100 33
	li	a5,513
	sh	a5,52(a0)
	.loc 2 102 23
	sw	s2,16(a0)
	mv	s1,a0
	.loc 2 96 5 is_stmt 1
	.loc 2 97 5
	.loc 2 98 5
	.loc 2 99 5
	.loc 2 100 5
	.loc 2 101 5
	.loc 2 102 5
	.loc 2 104 5
	call	bl_spi_hw_init
.LVL41:
	.loc 2 105 5
	mv	a0,s1
	call	bl_spi_dma_init
.LVL42:
	.loc 2 107 5
	.loc 2 107 12 is_stmt 0
	li	a0,0
.LVL43:
.L19:
	.loc 2 108 1
	lw	ra,12(sp)
	.cfi_remember_state
	.cfi_restore 1
	lw	s0,8(sp)
	.cfi_restore 8
	.cfi_def_cfa 2, 16
	lw	s1,4(sp)
	.cfi_restore 9
	lw	s2,0(sp)
	.cfi_restore 18
.LVL44:
	addi	sp,sp,16
	.cfi_def_cfa_offset 0
	jr	ra
.LVL45:
.L21:
	.cfi_restore_state
	.loc 2 93 16
	li	a0,-1
.LVL46:
	j	.L19
	.cfi_endproc
.LFE65:
	.size	hal_irled_init, .-hal_irled_init
	.section	.text.hal_irled_send_data,"ax",@progbits
	.align	1
	.globl	hal_irled_send_data
	.type	hal_irled_send_data, @function
hal_irled_send_data:
.LFB66:
	.loc 2 111 1 is_stmt 1
	.cfi_startproc
.LVL47:
	.loc 2 112 5
	.loc 2 113 5
	.loc 2 115 5
	.loc 2 116 9
	.loc 2 119 5
	.loc 2 111 1 is_stmt 0
	addi	sp,sp,-32
	.cfi_def_cfa_offset 32
	sw	s0,24(sp)
	sw	ra,28(sp)
	.cfi_offset 8, -8
	.cfi_offset 1, -4
	addi	s0,sp,32
	.cfi_def_cfa 8, 0
	.loc 2 111 1
	sw	a0,-24(s0)
	.loc 2 119 14
	li	a0,2
.LVL48:
	.loc 2 111 1
	sw	a1,-20(s0)
	.loc 2 119 14
	call	bl_dma_find_ctx_by_channel
.LVL49:
	.loc 2 120 5 is_stmt 1
	.loc 2 120 8 is_stmt 0
	beq	a0,zero,.L24
	.loc 2 126 5 is_stmt 1
	.loc 2 126 20 is_stmt 0
	lw	a1,-20(s0)
	.loc 2 127 11
	lw	a2,-24(s0)
	.loc 2 126 20
	sw	a1,36(a0)
	.loc 2 127 5 is_stmt 1
	.loc 2 130 1 is_stmt 0
	lw	s0,24(sp)
	.cfi_remember_state
	.cfi_restore 8
	.cfi_def_cfa 2, 32
.LVL50:
	lw	ra,28(sp)
	.cfi_restore 1
	addi	sp,sp,32
	.cfi_def_cfa_offset 0
	.loc 2 127 11
	tail	bl_spi_dma_trans
.LVL51:
.L24:
	.cfi_restore_state
	.loc 2 130 1
	lw	ra,28(sp)
	.cfi_restore 1
	lw	s0,24(sp)
	.cfi_restore 8
	.cfi_def_cfa 2, 32
	li	a0,-1
.LVL52:
	addi	sp,sp,32
	.cfi_def_cfa_offset 0
	jr	ra
	.cfi_endproc
.LFE66:
	.size	hal_irled_send_data, .-hal_irled_send_data
	.text
.Letext0:
	.file 3 "/home/dinhquangha/intern/Ai-Thinker-WB2/toolchain/riscv/Linux/riscv64-unknown-elf/include/machine/_default_types.h"
	.file 4 "/home/dinhquangha/intern/Ai-Thinker-WB2/toolchain/riscv/Linux/riscv64-unknown-elf/include/sys/_stdint.h"
	.file 5 "/home/dinhquangha/intern/Ai-Thinker-WB2/components/platform/hosal/bl602_hal/bl_ir.h"
	.file 6 "/home/dinhquangha/intern/Ai-Thinker-WB2/components/platform/hosal/bl602_hal/bl_dma.h"
	.file 7 "/home/dinhquangha/intern/Ai-Thinker-WB2/components/platform/soc/bl602/freertos_riscv_ram/config/portable.h"
	.file 8 "/home/dinhquangha/intern/Ai-Thinker-WB2/components/stage/blfdt/inc/libfdt.h"
	.file 9 "/home/dinhquangha/intern/Ai-Thinker-WB2/toolchain/riscv/Linux/riscv64-unknown-elf/include/string.h"