	.file	"hosal_flash.c"
	.option nopic
	.attribute arch, "rv32i2p0_m2p0_f2p0_c2p0"
	.attribute unaligned_access, 0
	.attribute stack_align, 16
	.text
.Ltext0:
	.cfi_sections	.debug_frame
	.section	.text.hosal_flash_open,"ax",@progbits
	.align	1
	.globl	hosal_flash_open
	.type	hosal_flash_open, @function
hosal_flash_open:
.LFB4:
	.file 1 "/home/quanghaictu/intern/Ai-Thinker-WB2/components/platform/hosal/bl602_hal/hosal_flash.c"
	.loc 1 28 1
	.cfi_startproc
.LVL0:
	.loc 1 29 2
	.loc 1 30 2
	.loc 1 31 2
	.loc 1 33 2
	.loc 1 28 1 is_stmt 0
	addi	sp,sp,-32
	.cfi_def_cfa_offset 32
	sw	s0,24(sp)
	sw	ra,28(sp)
	.cfi_offset 8, -8
	.cfi_offset 1, -4
	addi	s0,sp,32
	.cfi_def_cfa 8, 0
	mv	a2,a1
	.loc 1 33 8
	addi	a1,s0,-20
.LVL1:
	call	bl_mtd_open
.LVL2:
	.loc 1 34 2 is_stmt 1
	.loc 1 34 5 is_stmt 0
	bne	a0,zero,.L3
	.loc 1 37 2 is_stmt 1
	.loc 1 37 10 is_stmt 0
	li	a1,1
	li	a0,4
.LVL3:
	call	calloc
.LVL4:
	.loc 1 38 2 is_stmt 1
	.loc 1 39 3
	.loc 1 41 2
	.loc 1 41 19 is_stmt 0
	lw	a5,-20(s0)
	sw	a5,0(a0)
	.loc 1 42 2 is_stmt 1
.LVL5:
.L1:
	.loc 1 43 1 is_stmt 0
	lw	ra,28(sp)
	.cfi_remember_state
	.cfi_restore 1
	lw	s0,24(sp)
	.cfi_restore 8
	.cfi_def_cfa 2, 32
	addi	sp,sp,32
	.cfi_def_cfa_offset 0
	jr	ra
.LVL6:
.L3:
	.cfi_restore_state
	.loc 1 35 9
	li	a0,0
.LVL7:
	j	.L1
	.cfi_endproc
.LFE4:
	.size	hosal_flash_open, .-hosal_flash_open
	.section	.text.hosal_flash_info_get,"ax",@progbits
	.align	1
	.globl	hosal_flash_info_get
	.type	hosal_flash_info_get, @function
hosal_flash_info_get:
.LFB5:
	.loc 1 54 1 is_stmt 1
	.cfi_startproc
.LVL8:
	.loc 1 55 2
	.loc 1 57 2
	.loc 1 54 1 is_stmt 0
	addi	sp,sp,-48
	.cfi_def_cfa_offset 48
	sw	s0,40(sp)
	sw	s1,36(sp)
	.cfi_offset 8, -8
	.cfi_offset 9, -12
	addi	s0,sp,48
	.cfi_def_cfa 8, 0
	sw	s2,32(sp)
	sw	ra,44(sp)
	.cfi_offset 18, -16
	.cfi_offset 1, -4
	.loc 1 57 2
	lw	a0,0(a0)
.LVL9:
	addi	s2,s0,-44
	.loc 1 54 1
	mv	s1,a1
	.loc 1 57 2
	mv	a1,s2
.LVL10:
	call	bl_mtd_info
.LVL11:
	.loc 1 59 2 is_stmt 1
	.loc 1 60 60 is_stmt 0
	lw	a5,-20(s0)
	lw	a4,-28(s0)
	.loc 1 64 1
	lw	ra,44(sp)
	.cfi_restore 1
	.loc 1 59 35
	sw	s2,0(s1)
	.loc 1 60 2 is_stmt 1
	.loc 1 60 60 is_stmt 0
	add	a5,a5,a4
	.loc 1 60 34
	sw	a5,4(s1)
	.loc 1 61 2 is_stmt 1
	.loc 1 61 30 is_stmt 0
	lw	a5,-24(s0)
	.loc 1 64 1
	lw	s0,40(sp)
	.cfi_restore 8
	.cfi_def_cfa 2, 48
	lw	s2,32(sp)
	.cfi_restore 18
	.loc 1 61 30
	sw	a5,8(s1)
	.loc 1 63 2 is_stmt 1
	.loc 1 64 1 is_stmt 0
	li	a0,0
	lw	s1,36(sp)
	.cfi_restore 9
.LVL12:
	addi	sp,sp,48
	.cfi_def_cfa_offset 0
	jr	ra
	.cfi_endproc
.LFE5:
	.size	hosal_flash_info_get, .-hosal_flash_info_get
	.section	.text.hosal_flash_erase,"ax",@progbits
	.align	1
	.globl	hosal_flash_erase
	.type	hosal_flash_erase, @function
hosal_flash_erase:
.LFB6:
	.loc 1 81 1 is_stmt 1
	.cfi_startproc
.LVL13:
	.loc 1 82 2
	.loc 1 84 2
	.loc 1 81 1 is_stmt 0
	addi	sp,sp,-16
	.cfi_def_cfa_offset 16
	sw	s0,12(sp)
	.cfi_offset 8, -4
	addi	s0,sp,16
	.cfi_def_cfa 8, 0
	.loc 1 87 1
	lw	s0,12(sp)
	.cfi_restore 8
	.cfi_def_cfa 2, 16
	.loc 1 84 8
	lw	a0,0(a0)
.LVL14:
	.loc 1 87 1
	addi	sp,sp,16
	.cfi_def_cfa_offset 0
	.loc 1 84 8
	tail	bl_mtd_erase
.LVL15:
	.cfi_endproc
.LFE6:
	.size	hosal_flash_erase, .-hosal_flash_erase
	.section	.text.hosal_flash_write,"ax",@progbits
	.align	1
	.globl	hosal_flash_write
	.type	hosal_flash_write, @function
hosal_flash_write:
.LFB7:
	.loc 1 104 1 is_stmt 1
	.cfi_startproc
.LVL16:
	addi	sp,sp,-16
	.cfi_def_cfa_offset 16
	sw	s0,8(sp)
	sw	s1,4(sp)
	sw	ra,12(sp)
	sw	s2,0(sp)
	.cfi_offset 8, -8
	.cfi_offset 9, -12
	.cfi_offset 1, -4
	.cfi_offset 18, -16
	addi	s0,sp,16
	.cfi_def_cfa 8, 0
	.loc 1 104 1 is_stmt 0
	mv	s1,a1
	.loc 1 105 5 is_stmt 1
	.loc 1 105 14 is_stmt 0
	lw	a1,0(a1)
.LVL17:
	.loc 1 107 5 is_stmt 1
	.loc 1 108 5
	.loc 1 110 5
	.loc 1 110 8 is_stmt 0
	beq	a2,zero,.L11
	.loc 1 114 5
	lw	a0,0(a0)
.LVL18:
	mv	s2,a3
	.loc 1 114 5 is_stmt 1
	mv	a3,a2
.LVL19:
	mv	a2,s2
.LVL20:
	call	bl_mtd_write
.LVL21:
	.loc 1 116 5
	.loc 1 117 9
	.loc 1 117 18 is_stmt 0
	lw	a3,0(s1)
	.loc 1 120 12
	li	a0,0
	.loc 1 117 18
	add	a3,a3,s2
	sw	a3,0(s1)
	.loc 1 120 5 is_stmt 1
.LVL22:
.L9:
	.loc 1 121 1 is_stmt 0
	lw	ra,12(sp)
	.cfi_remember_state
	.cfi_restore 1
	lw	s0,8(sp)
	.cfi_restore 8
	.cfi_def_cfa 2, 16
	lw	s1,4(sp)
	.cfi_restore 9
.LVL23:
	lw	s2,0(sp)
	.cfi_restore 18
	addi	sp,sp,16
	.cfi_def_cfa_offset 0
	jr	ra
.LVL24:
.L11:
	.cfi_restore_state
	.loc 1 111 16
	li	a0,-1
.LVL25:
	j	.L9
	.cfi_endproc
.LFE7:
	.size	hosal_flash_write, .-hosal_flash_write
	.section	.text.hosal_flash_erase_write,"ax",@progbits
	.align	1
	.globl	hosal_flash_erase_write
	.type	hosal_flash_erase_write, @function
hosal_flash_erase_write:
.LFB8:
	.loc 1 138 1 is_stmt 1
	.cfi_startproc
.LVL26:
	.loc 1 139 5
	.loc 1 141 5
	.loc 1 138 1 is_stmt 0
	addi	sp,sp,-48
	.cfi_def_cfa_offset 48
	sw	s0,40(sp)
	sw	s1,36(sp)
	sw	s2,32(sp)
	sw	s3,28(sp)
	sw	ra,44(sp)
	.cfi_offset 8, -8
	.cfi_offset 9, -12
	.cfi_offset 18, -16
	.cfi_offset 19, -20
	.cfi_offset 1, -4
	addi	s0,sp,48
	.cfi_def_cfa 8, 0
	.loc 1 138 1
	mv	s1,a1
	.loc 1 141 11
	lw	a1,0(a1)
.LVL27:
	.loc 1 138 1
	mv	s3,a2
	.loc 1 141 11
	mv	a2,a3
.LVL28:
	.loc 1 138 1
	mv	s2,a0
	.loc 1 141 11
	sw	a3,-36(s0)
	call	hosal_flash_erase
.LVL29:
	.loc 1 142 5 is_stmt 1
	.loc 1 142 8 is_stmt 0
	bne	a0,zero,.L13
	.loc 1 145 5 is_stmt 1
	.loc 1 145 12 is_stmt 0
	lw	a3,-36(s0)
	.loc 1 146 1
	lw	s0,40(sp)
	.cfi_remember_state
	.cfi_restore 8
	.cfi_def_cfa 2, 48
.LVL30:
	lw	ra,44(sp)
	.cfi_restore 1
	.loc 1 145 12
	mv	a2,s3
	mv	a1,s1
	.loc 1 146 1
	lw	s3,28(sp)
	.cfi_restore 19
.LVL31:
	lw	s1,36(sp)
	.cfi_restore 9
.LVL32:
	.loc 1 145 12
	mv	a0,s2
.LVL33:
	.loc 1 146 1
	lw	s2,32(sp)
	.cfi_restore 18
.LVL34:
	addi	sp,sp,48
	.cfi_def_cfa_offset 0
	.loc 1 145 12
	tail	hosal_flash_write
.LVL35:
.L13:
	.cfi_restore_state
	.loc 1 146 1
	lw	ra,44(sp)
	.cfi_restore 1
	lw	s0,40(sp)
	.cfi_restore 8
	.cfi_def_cfa 2, 48
	lw	s1,36(sp)
	.cfi_restore 9
.LVL36:
	lw	s2,32(sp)
	.cfi_restore 18
.LVL37:
	lw	s3,28(sp)
	.cfi_restore 19
.LVL38:
	addi	sp,sp,48
	.cfi_def_cfa_offset 0
	jr	ra
	.cfi_endproc
.LFE8:
	.size	hosal_flash_erase_write, .-hosal_flash_erase_write
	.section	.text.hosal_flash_read,"ax",@progbits
	.align	1
	.globl	hosal_flash_read
	.type	hosal_flash_read, @function
hosal_flash_read:
.LFB9:
	.loc 1 163 1 is_stmt 1
	.cfi_startproc
.LVL39:
	.loc 1 164 5
	.loc 1 165 5
	.loc 1 163 1 is_stmt 0
	addi	sp,sp,-16
	.cfi_def_cfa_offset 16
	sw	s0,8(sp)
	sw	s1,4(sp)
	sw	ra,12(sp)
	sw	s2,0(sp)
	.cfi_offset 8, -8
	.cfi_offset 9, -12
	.cfi_offset 1, -4
	.cfi_offset 18, -16
	addi	s0,sp,16
	.cfi_def_cfa 8, 0
	.loc 1 163 1
	mv	s1,a1
	.loc 1 165 14
	lw	a1,0(a1)
.LVL40:
	.loc 1 167 5 is_stmt 1
	.loc 1 167 8 is_stmt 0
	beq	a0,zero,.L18
	.loc 1 170 16
	lw	a0,0(a0)
.LVL41:
	mv	s2,a3
	.loc 1 170 5 is_stmt 1
	.loc 1 170 16 is_stmt 0
	mv	a3,a2
.LVL42:
	mv	a2,s2
.LVL43:
	call	bl_mtd_read
.LVL44:
	.loc 1 170 8
	bne	a0,zero,.L16
	.loc 1 171 9 is_stmt 1
	.loc 1 171 18 is_stmt 0
	lw	a3,0(s1)
	add	a3,a3,s2
	sw	a3,0(s1)
.LVL45:
.L16:
	.loc 1 174 1
	lw	ra,12(sp)
	.cfi_remember_state
	.cfi_restore 1
	lw	s0,8(sp)
	.cfi_restore 8
	.cfi_def_cfa 2, 16
	lw	s1,4(sp)
	.cfi_restore 9
.LVL46:
	lw	s2,0(sp)
	.cfi_restore 18
	addi	sp,sp,16
	.cfi_def_cfa_offset 0
	jr	ra
.LVL47:
.L18:
	.cfi_restore_state
	.loc 1 168 16
	li	a0,-1
.LVL48:
	j	.L16
	.cfi_endproc
.LFE9:
	.size	hosal_flash_read, .-hosal_flash_read
	.section	.text.hosal_flash_close,"ax",@progbits
	.align	1
	.globl	hosal_flash_close
	.type	hosal_flash_close, @function
hosal_flash_close:
.LFB10:
	.loc 1 184 1 is_stmt 1
	.cfi_startproc
.LVL49:
	.loc 1 185 2
	.loc 1 184 1 is_stmt 0
	addi	sp,sp,-16
	.cfi_def_cfa_offset 16
	sw	ra,12(sp)
	sw	s0,8(sp)
	sw	s1,4(sp)
	.cfi_offset 1, -4
	.cfi_offset 8, -8
	.cfi_offset 9, -12
	addi	s0,sp,16
	.cfi_def_cfa 8, 0
	.loc 1 184 1
	mv	s1,a0
	.loc 1 185 2
	lw	a0,0(a0)
.LVL50:
	call	bl_mtd_close
.LVL51:
	.loc 1 186 2 is_stmt 1
	mv	a0,s1
	call	free
.LVL52:
	.loc 1 187 2
	.loc 1 188 1 is_stmt 0
	lw	ra,12(sp)
	.cfi_restore 1
	lw	s0,8(sp)
	.cfi_restore 8
	.cfi_def_cfa 2, 16
	lw	s1,4(sp)
	.cfi_restore 9
.LVL53:
	li	a0,0
	addi	sp,sp,16
	.cfi_def_cfa_offset 0
	jr	ra
	.cfi_endproc
.LFE10:
	.size	hosal_flash_close, .-hosal_flash_close
	.section	.text.hosal_flash_raw_read,"ax",@progbits
	.align	1
	.globl	hosal_flash_raw_read
	.type	hosal_flash_raw_read, @function
hosal_flash_raw_read:
.LFB11:
	.loc 1 202 1 is_stmt 1
	.cfi_startproc
.LVL54:
	.loc 1 203 5
	.loc 1 202 1 is_stmt 0
	mv	a5,a0
	.loc 1 203 8
	beq	a0,zero,.L24
	.loc 1 202 1
	addi	sp,sp,-16
	.cfi_def_cfa_offset 16
	sw	s0,8(sp)
	sw	ra,12(sp)
	.cfi_offset 8, -8
	.cfi_offset 1, -4
	addi	s0,sp,16
	.cfi_def_cfa 8, 0
	mv	a0,a1
.LVL55:
	.loc 1 207 5 is_stmt 1
	mv	a1,a5
.LVL56:
	call	bl_flash_read
.LVL57:
	.loc 1 209 5
	.loc 1 210 1 is_stmt 0
	lw	ra,12(sp)
	.cfi_restore 1
	lw	s0,8(sp)
	.cfi_restore 8
	.cfi_def_cfa 2, 16
	.loc 1 209 12
	li	a0,0
	.loc 1 210 1
	addi	sp,sp,16
	.cfi_def_cfa_offset 0
	jr	ra
.LVL58:
.L24:
	.loc 1 204 16
	li	a0,-1
.LVL59:
	.loc 1 210 1
	ret
	.cfi_endproc
.LFE11:
	.size	hosal_flash_raw_read, .-hosal_flash_raw_read
	.section	.text.hosal_flash_raw_write,"ax",@progbits
	.align	1
	.globl	hosal_flash_raw_write
	.type	hosal_flash_raw_write, @function
hosal_flash_raw_write:
.LFB12:
	.loc 1 224 1 is_stmt 1
	.cfi_startproc
.LVL60:
	.loc 1 225 5
	.loc 1 224 1 is_stmt 0
	mv	a5,a0
	.loc 1 225 8
	beq	a0,zero,.L31
	.loc 1 224 1
	addi	sp,sp,-16
	.cfi_def_cfa_offset 16
	sw	s0,8(sp)
	sw	ra,12(sp)
	.cfi_offset 8, -8
	.cfi_offset 1, -4
	addi	s0,sp,16
	.cfi_def_cfa 8, 0
	mv	a0,a1
.LVL61:
	.loc 1 229 5 is_stmt 1
	mv	a1,a5
.LVL62:
	call	bl_flash_write
.LVL63:
	.loc 1 231 5
	.loc 1 232 1 is_stmt 0
	lw	ra,12(sp)
	.cfi_restore 1
	lw	s0,8(sp)
	.cfi_restore 8
	.cfi_def_cfa 2, 16
	.loc 1 231 12
	li	a0,0
	.loc 1 232 1
	addi	sp,sp,16
	.cfi_def_cfa_offset 0
	jr	ra
.LVL64:
.L31:
	.loc 1 226 16
	li	a0,-1
.LVL65:
	.loc 1 232 1
	ret
	.cfi_endproc
.LFE12:
	.size	hosal_flash_raw_write, .-hosal_flash_raw_write
	.section	.text.hosal_flash_raw_erase,"ax",@progbits
	.align	1
	.globl	hosal_flash_raw_erase
	.type	hosal_flash_raw_erase, @function
hosal_flash_raw_erase:
.LFB13:
	.loc 1 245 1 is_stmt 1
	.cfi_startproc
.LVL66:
	.loc 1 246 5
	.loc 1 245 1 is_stmt 0
	addi	sp,sp,-16
	.cfi_def_cfa_offset 16
	sw	s0,12(sp)
	.cfi_offset 8, -4
	addi	s0,sp,16
	.cfi_def_cfa 8, 0
	.loc 1 247 1
	lw	s0,12(sp)
	.cfi_restore 8
	.cfi_def_cfa 2, 16
	addi	sp,sp,16
	.cfi_def_cfa_offset 0
	.loc 1 246 12
	tail	bl_flash_erase
.LVL67:
	.cfi_endproc
.LFE13:
	.size	hosal_flash_raw_erase, .-hosal_flash_raw_erase
	.text
.Letext0:
	.file 2 "/home/quanghaictu/intern/Ai-Thinker-WB2/toolchain/riscv/Linux/riscv64-unknown-elf/include/machine/_default_types.h"
	.file 3 "/home/quanghaictu/intern/Ai-Thinker-WB2/toolchain/riscv/Linux/riscv64-unknown-elf/include/sys/_stdint.h"
	.file 4 "/home/quanghaictu/intern/Ai-Thinker-WB2/components/platform/hosal/include/hosal_flash.h"
	.file 5 "/home/quanghaictu/intern/Ai-Thinker-WB2/components/sys/blmtd/include/bl_mtd.h"
	.file 6 "/home/quanghaictu/intern/Ai-Thinker-WB2/components/platform/hosal/bl602_hal/bl_flash.h"
	.file 7 "/home/quanghaictu/intern/Ai-Thinker-WB2/toolchain/riscv/Linux/riscv64-unknown-elf/include/stdlib.h"