	.file	"hosal_i2c.c"
	.option nopic
	.attribute arch, "rv32i2p0_m2p0_f2p0_c2p0"
	.attribute unaligned_access, 0
	.attribute stack_align, 16
	.text
.Ltext0:
	.cfi_sections	.debug_frame
	.globl	__udivdi3
	.section	.text.i2c_master_receive.constprop.0,"ax",@progbits
	.align	1
	.type	i2c_master_receive.constprop.0, @function
i2c_master_receive.constprop.0:
.LFB21:
	.file 1 "/home/dinhquangha/intern/Ai-Thinker-WB2/components/platform/hosal/bl602_hal/hosal_i2c.c"
	.loc 1 87 12
	.cfi_startproc
.LVL0:
	.loc 1 89 5
	.loc 1 90 5
	.loc 1 91 5
	.loc 1 92 5
	.loc 1 94 5
	.loc 1 87 12 is_stmt 0
	addi	sp,sp,-48
	.cfi_def_cfa_offset 48
	sw	ra,44(sp)
	sw	s0,40(sp)
	sw	s1,36(sp)
	.cfi_offset 1, -4
	.cfi_offset 8, -8
	.cfi_offset 9, -12
	addi	s0,sp,48
	.cfi_def_cfa 8, 0
	sw	s2,32(sp)
	sw	s3,28(sp)
	sw	s4,24(sp)
	sw	s5,20(sp)
	sw	s7,12(sp)
	sw	s8,8(sp)
	sw	s9,4(sp)
	sw	s6,16(sp)
	.cfi_offset 18, -16
	.cfi_offset 19, -20
	.cfi_offset 20, -24
	.cfi_offset 21, -28
	.cfi_offset 23, -36
	.cfi_offset 24, -40
	.cfi_offset 25, -44
	.cfi_offset 22, -32
	mv	s2,a0
	.loc 1 94 5
	li	a0,0
.LVL1:
	.loc 1 87 12
	mv	s3,a1
	.loc 1 94 5
	call	I2C_Disable
.LVL2:
	.loc 1 95 5 is_stmt 1
	mv	a2,s2
	li	a1,1
	li	a0,0
	call	I2C_Init
.LVL3:
	.loc 1 96 5
	li	a0,0
	call	I2C_Enable
.LVL4:
	.loc 1 98 5
	.loc 1 98 18 is_stmt 0
	call	bl_timer_now_us64
.LVL5:
	.loc 1 98 38
	li	a2,1000
	li	a3,0
	call	__udivdi3
.LVL6:
	.loc 1 98 16
	mv	s4,a0
	mv	s5,a1
.LVL7:
	.loc 1 100 5 is_stmt 1
	.loc 1 89 13 is_stmt 0
	li	s1,0
	.loc 1 100 11
	li	s8,3
	.loc 1 101 21
	li	s7,1073782784
	.loc 1 103 16
	li	s9,-1
.LVL8:
.L2:
	.loc 1 100 11 is_stmt 1
	.loc 1 100 15 is_stmt 0
	lhu	a5,16(s2)
	.loc 1 100 26
	sub	a4,a5,s1
	.loc 1 100 11
	bgt	a4,s8,.L20
	.loc 1 115 5 is_stmt 1
	.loc 1 115 8 is_stmt 0
	bleu	a5,s1,.L14
	.loc 1 116 21
	li	s7,1073782784
	.loc 1 118 16
	li	s8,-1
.L19:
	.loc 1 116 15 is_stmt 1
	.loc 1 116 21 is_stmt 0
	lw	s6,900(s7)
	.loc 1 116 92
	srli	s6,s6,8
	andi	s6,s6,3
	.loc 1 116 15
	beq	s6,zero,.L11
	.loc 1 126 9 is_stmt 1
	.loc 1 126 14 is_stmt 0
	lw	a5,908(s7)
.LVL9:
	.loc 1 127 9 is_stmt 1
.L12:
	.loc 1 127 15
	lhu	a4,16(s2)
	bgtu	a4,s1,.L13
.LVL10:
.L14:
	.loc 1 136 12 is_stmt 0
	li	s1,-1
.LVL11:
.L23:
	.loc 1 134 11 is_stmt 1
	.loc 1 134 12 is_stmt 0
	li	a0,0
	call	I2C_IsBusy
.LVL12:
	.loc 1 134 11
	bne	a0,zero,.L16
	.loc 1 134 34
	call	I2C_TransferEndStatus
.LVL13:
	.loc 1 134 30
	beq	a0,zero,.L16
	.loc 1 145 5 is_stmt 1
	li	a0,0
	call	I2C_Disable
.LVL14:
	.loc 1 147 5
	.loc 1 147 12 is_stmt 0
	li	a0,0
	j	.L1
.LVL15:
.L6:
	.loc 1 102 13 is_stmt 1
	.loc 1 102 24 is_stmt 0
	call	bl_timer_now_us64
.LVL16:
	.loc 1 102 44
	li	a2,1000
	li	a3,0
	call	__udivdi3
.LVL17:
	.loc 1 103 13 is_stmt 1
	.loc 1 103 16 is_stmt 0
	beq	s3,s9,.L20
	.loc 1 106 13 is_stmt 1
	.loc 1 106 27 is_stmt 0
	sub	a5,a0,s4
	sgtu	a0,a5,a0
.LVL18:
	sub	a1,a1,s5
	sub	a1,a1,a0
	.loc 1 106 16
	bgt	s6,a1,.L20
	bne	a1,zero,.L9
	bgtu	s3,a5,.L20
.LVL19:
.L9:
	.loc 1 107 17 is_stmt 1
	li	a0,0
	call	I2C_Disable
.LVL20:
	.loc 1 108 17
	.loc 1 108 24 is_stmt 0
	li	a0,-1
.L1:
	.loc 1 148 1
	lw	ra,44(sp)
	.cfi_remember_state
	.cfi_restore 1
	lw	s0,40(sp)
	.cfi_restore 8
	.cfi_def_cfa 2, 48
	lw	s1,36(sp)
	.cfi_restore 9
	lw	s2,32(sp)
	.cfi_restore 18
.LVL21:
	lw	s3,28(sp)
	.cfi_restore 19
.LVL22:
	lw	s4,24(sp)
	.cfi_restore 20
.LVL23:
	lw	s5,20(sp)
	.cfi_restore 21
	lw	s6,16(sp)
	.cfi_restore 22
	lw	s7,12(sp)
	.cfi_restore 23
	lw	s8,8(sp)
	.cfi_restore 24
	lw	s9,4(sp)
	.cfi_restore 25
	addi	sp,sp,48
	.cfi_def_cfa_offset 0
	jr	ra
.LVL24:
.L20:
	.cfi_restore_state
	.loc 1 101 15 is_stmt 1
	.loc 1 101 21 is_stmt 0
	lw	s6,900(s7)
	.loc 1 101 92
	srli	s6,s6,8
	andi	s6,s6,3
	.loc 1 101 15
	beq	s6,zero,.L6
	.loc 1 111 9 is_stmt 1
	.loc 1 112 29 is_stmt 0
	lw	a4,20(s2)
	.loc 1 111 14
	lw	a5,908(s7)
.LVL25:
	.loc 1 112 11 is_stmt 1
	.loc 1 112 29 is_stmt 0
	add	a4,a4,s1
	.loc 1 112 31
	sb	a5,0(a4)
	.loc 1 112 53 is_stmt 1
	.loc 1 112 74 is_stmt 0
	lw	a4,20(s2)
	.loc 1 112 95
	srli	a3,a5,8
	.loc 1 112 74
	add	a4,a4,s1
	.loc 1 112 76
	sb	a3,1(a4)
	.loc 1 112 103 is_stmt 1
	.loc 1 112 124 is_stmt 0
	lw	a4,20(s2)
	.loc 1 112 145
	srli	a3,a5,16
	.loc 1 112 196
	srli	a5,a5,24
.LVL26:
	.loc 1 112 124
	add	a4,a4,s1
	.loc 1 112 126
	sb	a3,2(a4)
	.loc 1 112 154 is_stmt 1
	.loc 1 112 175 is_stmt 0
	lw	a4,20(s2)
	add	a4,a4,s1
	.loc 1 113 11
	addi	s1,s1,4
.LVL27:
	.loc 1 112 177
	sb	a5,3(a4)
	.loc 1 112 206 is_stmt 1
	.loc 1 113 9
	.loc 1 113 11 is_stmt 0
	andi	s1,s1,0xff
.LVL28:
	j	.L2
.L11:
	.loc 1 117 13 is_stmt 1
	.loc 1 117 24 is_stmt 0
	call	bl_timer_now_us64
.LVL29:
	.loc 1 117 44
	li	a2,1000
	li	a3,0
	call	__udivdi3
.LVL30:
	.loc 1 118 13 is_stmt 1
	.loc 1 118 16 is_stmt 0
	beq	s3,s8,.L19
	.loc 1 121 13 is_stmt 1
	.loc 1 121 27 is_stmt 0
	sub	a5,a0,s4
	sgtu	a0,a5,a0
.LVL31:
	sub	a1,a1,s5
	sub	a1,a1,a0
	.loc 1 121 16
	bgt	s6,a1,.L19
	bne	a1,zero,.L9
	bgtu	s3,a5,.L19
	j	.L9
.LVL32:
.L13:
	.loc 1 128 13 is_stmt 1
	.loc 1 128 26 is_stmt 0
	lw	a4,20(s2)
	add	a4,a4,s1
	.loc 1 130 14
	addi	s1,s1,1
.LVL33:
	.loc 1 128 26
	sb	a5,0(a4)
	.loc 1 129 13 is_stmt 1
	.loc 1 130 14 is_stmt 0
	andi	s1,s1,0xff
	.loc 1 129 18
	srli	a5,a5,8
.LVL34:
	.loc 1 130 13 is_stmt 1
	j	.L12
.LVL35:
.L16:
	.loc 1 135 9
	.loc 1 135 20 is_stmt 0
	call	bl_timer_now_us64
.LVL36:
	.loc 1 135 40
	li	a2,1000
	li	a3,0
	call	__udivdi3
.LVL37:
	.loc 1 136 9 is_stmt 1
	.loc 1 136 12 is_stmt 0
	beq	s3,s1,.L23
	.loc 1 139 9 is_stmt 1
	.loc 1 139 23 is_stmt 0
	sub	a5,a0,s4
	sgtu	a0,a5,a0
.LVL38:
	sub	a1,a1,s5
	sub	a1,a1,a0
	.loc 1 139 12
	blt	a1,zero,.L23
	bne	a1,zero,.L9
	bgtu	s3,a5,.L23
	j	.L9
	.cfi_endproc
.LFE21:
	.size	i2c_master_receive.constprop.0, .-i2c_master_receive.constprop.0
	.section	.text.i2c_master_send.constprop.0,"ax",@progbits
	.align	1
	.type	i2c_master_send.constprop.0, @function
i2c_master_send.constprop.0:
.LFB20:
	.loc 1 27 12 is_stmt 1
	.cfi_startproc
.LVL39:
	.loc 1 29 5
	.loc 1 30 5
	.loc 1 31 5
	.loc 1 32 5
	.loc 1 34 5
	.loc 1 27 12 is_stmt 0
	addi	sp,sp,-48
	.cfi_def_cfa_offset 48
	sw	ra,44(sp)
	sw	s0,40(sp)
	sw	s1,36(sp)
	.cfi_offset 1, -4
	.cfi_offset 8, -8
	.cfi_offset 9, -12
	addi	s0,sp,48
	.cfi_def_cfa 8, 0
	sw	s2,32(sp)
	sw	s3,28(sp)
	sw	s5,20(sp)
	sw	s6,16(sp)
	sw	s8,8(sp)
	sw	s9,4(sp)
	sw	s4,24(sp)
	sw	s7,12(sp)
	.cfi_offset 18, -16
	.cfi_offset 19, -20
	.cfi_offset 21, -28
	.cfi_offset 22, -32
	.cfi_offset 24, -40
	.cfi_offset 25, -44
	.cfi_offset 20, -24
	.cfi_offset 23, -36
	mv	s5,a0
	.loc 1 34 5
	li	a0,0
.LVL40:
	.loc 1 27 12
	mv	s1,a1
	.loc 1 34 5
	call	I2C_Disable
.LVL41:
	.loc 1 35 5 is_stmt 1
	mv	a2,s5
	li	a1,0
	li	a0,0
	call	I2C_Init
.LVL42:
	.loc 1 36 5
	li	a0,0
	call	I2C_Enable
.LVL43:
	.loc 1 38 5
	.loc 1 38 18 is_stmt 0
	call	bl_timer_now_us64
.LVL44:
	.loc 1 38 38
	li	a2,1000
	li	a3,0
	call	__udivdi3
.LVL45:
	.loc 1 38 16
	mv	s2,a0
	mv	s3,a1
.LVL46:
	.loc 1 40 5 is_stmt 1
	.loc 1 30 14 is_stmt 0
	li	s6,0
	.loc 1 40 12
	li	a5,0
	.loc 1 43 25
	li	s8,1073782784
	.loc 1 45 20
	li	s9,-1
.LVL47:
.L27:
	.loc 1 40 17 is_stmt 1
	.loc 1 40 24 is_stmt 0
	lhu	a4,16(s5)
	.loc 1 40 5
	bltu	a5,a4,.L33
	.loc 1 57 5 is_stmt 1
	.loc 1 57 8 is_stmt 0
	andi	a4,a4,3
	beq	a4,zero,.L35
	.loc 1 58 21
	li	s5,1073782784
.LVL48:
	.loc 1 60 16
	li	s7,-1
.LVL49:
.L45:
	.loc 1 58 15 is_stmt 1
	.loc 1 58 21 is_stmt 0
	lw	s4,900(s5)
	.loc 1 58 92
	andi	s4,s4,3
	.loc 1 58 15
	beq	s4,zero,.L38
	.loc 1 68 9 is_stmt 1
	.loc 1 68 46 is_stmt 0
	sw	s6,904(s5)
.L35:
	.loc 1 73 12
	li	s4,-1
.L48:
	.loc 1 71 11 is_stmt 1
	.loc 1 71 12 is_stmt 0
	li	a0,0
	call	I2C_IsBusy
.LVL50:
	.loc 1 71 11
	bne	a0,zero,.L41
	.loc 1 71 34
	call	I2C_TransferEndStatus
.LVL51:
	.loc 1 71 30
	beq	a0,zero,.L41
	.loc 1 82 5 is_stmt 1
	li	a0,0
	call	I2C_Disable
.LVL52:
	.loc 1 84 5
	.loc 1 84 12 is_stmt 0
	li	a0,0
	j	.L26
.LVL53:
.L33:
	.loc 1 41 9 is_stmt 1
	.loc 1 41 27 is_stmt 0
	lw	a4,20(s5)
	.loc 1 41 38
	andi	a3,a5,3
	.loc 1 41 43
	slli	a3,a3,3
	.loc 1 41 27
	add	a4,a4,a5
	lbu	a4,0(a4)
	.loc 1 42 16
	addi	s4,a5,1
	.loc 1 42 25
	andi	a5,s4,3
.LVL54:
	.loc 1 41 31
	sll	a4,a4,a3
	.loc 1 41 14
	add	s6,s6,a4
.LVL55:
	.loc 1 42 9 is_stmt 1
	.loc 1 42 12 is_stmt 0
	bne	a5,zero,.L29
.L47:
	.loc 1 43 19 is_stmt 1
	.loc 1 43 25 is_stmt 0
	lw	s7,900(s8)
	.loc 1 43 96
	andi	s7,s7,3
	.loc 1 43 19
	beq	s7,zero,.L32
	.loc 1 53 13 is_stmt 1
	.loc 1 53 50 is_stmt 0
	sw	s6,904(s8)
	.loc 1 54 13 is_stmt 1
.LVL56:
	.loc 1 54 18 is_stmt 0
	li	s6,0
.LVL57:
.L29:
	.loc 1 40 36 is_stmt 1
	.loc 1 40 37 is_stmt 0
	andi	a5,s4,0xff
.LVL58:
	j	.L27
.LVL59:
.L32:
	.loc 1 44 17 is_stmt 1
	.loc 1 44 28 is_stmt 0
	call	bl_timer_now_us64
.LVL60:
	.loc 1 44 48
	li	a2,1000
	li	a3,0
	call	__udivdi3
.LVL61:
	.loc 1 45 17 is_stmt 1
	.loc 1 45 20 is_stmt 0
	beq	s1,s9,.L47
	.loc 1 48 17 is_stmt 1
	.loc 1 48 31 is_stmt 0
	sub	a5,a0,s2
	sgtu	a0,a5,a0
.LVL62:
	sub	a1,a1,s3
	sub	a1,a1,a0
	.loc 1 48 20
	bgt	s7,a1,.L47
	bne	a1,zero,.L36
	bgtu	s1,a5,.L47
.LVL63:
.L36:
	.loc 1 49 21 is_stmt 1
	li	a0,0
	call	I2C_Disable
.LVL64:
	.loc 1 50 21
	.loc 1 50 28 is_stmt 0
	li	a0,-1
.L26:
	.loc 1 85 1
	lw	ra,44(sp)
	.cfi_remember_state
	.cfi_restore 1
	lw	s0,40(sp)
	.cfi_restore 8
	.cfi_def_cfa 2, 48
	lw	s1,36(sp)
	.cfi_restore 9
.LVL65:
	lw	s2,32(sp)
	.cfi_restore 18
.LVL66:
	lw	s3,28(sp)
	.cfi_restore 19
	lw	s4,24(sp)
	.cfi_restore 20
	lw	s5,20(sp)
	.cfi_restore 21
	lw	s6,16(sp)
	.cfi_restore 22
.LVL67:
	lw	s7,12(sp)
	.cfi_restore 23
	lw	s8,8(sp)
	.cfi_restore 24
	lw	s9,4(sp)
	.cfi_restore 25
	addi	sp,sp,48
	.cfi_def_cfa_offset 0
	jr	ra
.LVL68:
.L38:
	.cfi_restore_state
	.loc 1 59 13 is_stmt 1
	.loc 1 59 24 is_stmt 0
	call	bl_timer_now_us64
.LVL69:
	.loc 1 59 44
	li	a2,1000
	li	a3,0
	call	__udivdi3
.LVL70:
	.loc 1 60 13 is_stmt 1
	.loc 1 60 16 is_stmt 0
	beq	s1,s7,.L45
	.loc 1 63 13 is_stmt 1
	.loc 1 63 27 is_stmt 0
	sub	a5,a0,s2
	sgtu	a0,a5,a0
.LVL71:
	sub	a1,a1,s3
	sub	a1,a1,a0
	.loc 1 63 16
	bgt	s4,a1,.L45
	bne	a1,zero,.L36
	bgtu	s1,a5,.L45
	j	.L36
.L41:
	.loc 1 72 9 is_stmt 1
	.loc 1 72 20 is_stmt 0
	call	bl_timer_now_us64
.LVL72:
	.loc 1 72 40
	li	a2,1000
	li	a3,0
	call	__udivdi3
.LVL73:
	.loc 1 73 9 is_stmt 1
	.loc 1 73 12 is_stmt 0
	beq	s1,s4,.L48
	.loc 1 76 9 is_stmt 1
	.loc 1 76 23 is_stmt 0
	sub	a5,a0,s2
	sgtu	a0,a5,a0
.LVL74:
	sub	a1,a1,s3
	sub	a1,a1,a0
	.loc 1 76 12
	blt	a1,zero,.L48
	bne	a1,zero,.L36
	bgtu	s1,a5,.L48
	j	.L36
	.cfi_endproc
.LFE20:
	.size	i2c_master_send.constprop.0, .-i2c_master_send.constprop.0
	.section	.text.hosal_i2c_init,"ax",@progbits
	.align	1
	.globl	hosal_i2c_init
	.type	hosal_i2c_init, @function
hosal_i2c_init:
.LFB10:
	.loc 1 151 1 is_stmt 1
	.cfi_startproc
.LVL75:
	.loc 1 152 5
	.loc 1 154 5
	.loc 1 154 8 is_stmt 0
	beq	a0,zero,.L53
	.loc 1 151 1 discriminator 1
	addi	sp,sp,-32
	.cfi_def_cfa_offset 32
	sw	s0,24(sp)
	sw	s1,20(sp)
	sw	ra,28(sp)
	.cfi_offset 8, -8
	.cfi_offset 9, -12
	.cfi_offset 1, -4
	addi	s0,sp,32
	.cfi_def_cfa 8, 0
	.loc 1 154 20 discriminator 1
	lbu	a5,0(a0)
	mv	s1,a0
	.loc 1 156 16 discriminator 1
	li	a0,-1
.LVL76:
	.loc 1 154 20 discriminator 1
	bne	a5,zero,.L51
	.loc 1 159 5 is_stmt 1
	.loc 1 159 30 is_stmt 0
	lbu	a5,12(s1)
	.loc 1 162 5
	li	a2,2
	addi	a1,s0,-24
	.loc 1 159 30
	sw	a5,-24(s0)
	.loc 1 160 5 is_stmt 1
	.loc 1 160 30 is_stmt 0
	lbu	a5,13(s1)
	.loc 1 162 5
	li	a0,6
	.loc 1 160 30
	sw	a5,-20(s0)
	.loc 1 162 5 is_stmt 1
	call	GLB_GPIO_Func_Init
.LVL77:
	.loc 1 163 5
	lbu	a0,0(s1)
	call	I2C_Disable
.LVL78:
	.loc 1 164 5
	lw	a0,8(s1)
	li	a1,0
	call	i2c_set_freq
.LVL79:
	.loc 1 166 5
	.loc 1 166 12 is_stmt 0
	li	a0,0
.L51:
	.loc 1 167 1
	lw	ra,28(sp)
	.cfi_restore 1
	lw	s0,24(sp)
	.cfi_restore 8
	.cfi_def_cfa 2, 32
	lw	s1,20(sp)
	.cfi_restore 9
.LVL80:
	addi	sp,sp,32
	.cfi_def_cfa_offset 0
	jr	ra
.LVL81:
.L53:
	.loc 1 156 16
	li	a0,-1
.LVL82:
	.loc 1 167 1
	ret
	.cfi_endproc
.LFE10:
	.size	hosal_i2c_init, .-hosal_i2c_init
	.section	.text.hosal_i2c_master_send,"ax",@progbits
	.align	1
	.globl	hosal_i2c_master_send
	.type	hosal_i2c_master_send, @function
hosal_i2c_master_send:
.LFB11:
	.loc 1 171 1 is_stmt 1
	.cfi_startproc
.LVL83:
	.loc 1 172 5
	.loc 1 171 1 is_stmt 0
	addi	sp,sp,-48
	.cfi_def_cfa_offset 48
	sw	s0,40(sp)
	sw	ra,44(sp)
	.cfi_offset 8, -8
	.cfi_offset 1, -4
	addi	s0,sp,48
	.cfi_def_cfa 8, 0
	.loc 1 172 22
	sw	zero,-36(s0)
	sb	zero,-32(s0)
	sw	zero,-28(s0)
	.loc 1 181 5 is_stmt 1
	.loc 1 181 8 is_stmt 0
	beq	a0,zero,.L61
	.loc 1 183 16 discriminator 1
	li	a0,-1
.LVL84:
	.loc 1 181 20 discriminator 1
	beq	a2,zero,.L59
	.loc 1 181 36 discriminator 2
	beq	a3,zero,.L59
	mv	a5,a1
	.loc 1 190 12
	addi	a0,s0,-40
	mv	a1,a4
.LVL85:
	.loc 1 186 5 is_stmt 1
	.loc 1 186 28 is_stmt 0
	sb	a5,-40(s0)
	.loc 1 187 5 is_stmt 1
	.loc 1 187 23 is_stmt 0
	sw	a2,-20(s0)
	.loc 1 188 5 is_stmt 1
	.loc 1 188 27 is_stmt 0
	sh	a3,-24(s0)
	.loc 1 190 5 is_stmt 1
	.loc 1 190 12 is_stmt 0
	call	i2c_master_send.constprop.0
.LVL86:
.L59:
	.loc 1 191 1
	lw	ra,44(sp)
	.cfi_remember_state
	.cfi_restore 1
	lw	s0,40(sp)
	.cfi_restore 8
	.cfi_def_cfa 2, 48
	addi	sp,sp,48
	.cfi_def_cfa_offset 0
	jr	ra
.LVL87:
.L61:
	.cfi_restore_state
	.loc 1 183 16
	li	a0,-1
.LVL88:
	j	.L59
	.cfi_endproc
.LFE11:
	.size	hosal_i2c_master_send, .-hosal_i2c_master_send
	.section	.text.hosal_i2c_master_recv,"ax",@progbits
	.align	1
	.globl	hosal_i2c_master_recv
	.type	hosal_i2c_master_recv, @function
hosal_i2c_master_recv:
.LFB12:
	.loc 1 195 1 is_stmt 1
	.cfi_startproc
.LVL89:
	.loc 1 196 5
	.loc 1 195 1 is_stmt 0
	addi	sp,sp,-48
	.cfi_def_cfa_offset 48
	sw	s0,40(sp)
	sw	ra,44(sp)
	.cfi_offset 8, -8
	.cfi_offset 1, -4
	addi	s0,sp,48
	.cfi_def_cfa 8, 0
	.loc 1 196 22
	sw	zero,-36(s0)
	sb	zero,-32(s0)
	sw	zero,-28(s0)
	.loc 1 205 5 is_stmt 1
	.loc 1 205 8 is_stmt 0
	beq	a0,zero,.L67
	.loc 1 207 16 discriminator 1
	li	a0,-1
.LVL90:
	.loc 1 205 20 discriminator 1
	beq	a2,zero,.L65
	.loc 1 205 36 discriminator 2
	beq	a3,zero,.L65
	mv	a5,a1
	.loc 1 214 12
	addi	a0,s0,-40
	mv	a1,a4
.LVL91:
	.loc 1 210 5 is_stmt 1
	.loc 1 210 28 is_stmt 0
	sb	a5,-40(s0)
	.loc 1 211 5 is_stmt 1
	.loc 1 211 23 is_stmt 0
	sw	a2,-20(s0)
	.loc 1 212 5 is_stmt 1
	.loc 1 212 27 is_stmt 0
	sh	a3,-24(s0)
	.loc 1 214 5 is_stmt 1
	.loc 1 214 12 is_stmt 0
	call	i2c_master_receive.constprop.0
.LVL92:
.L65:
	.loc 1 215 1
	lw	ra,44(sp)
	.cfi_remember_state
	.cfi_restore 1
	lw	s0,40(sp)
	.cfi_restore 8
	.cfi_def_cfa 2, 48
	addi	sp,sp,48
	.cfi_def_cfa_offset 0
	jr	ra
.LVL93:
.L67:
	.cfi_restore_state
	.loc 1 207 16
	li	a0,-1
.LVL94:
	j	.L65
	.cfi_endproc
.LFE12:
	.size	hosal_i2c_master_recv, .-hosal_i2c_master_recv
	.section	.text.hosal_i2c_slave_send,"ax",@progbits
	.align	1
	.globl	hosal_i2c_slave_send
	.type	hosal_i2c_slave_send, @function
hosal_i2c_slave_send:
.LFB13:
	.loc 1 218 1 is_stmt 1
	.cfi_startproc
.LVL95:
	.loc 1 219 5
	.loc 1 220 9
	.loc 1 221 9
	.loc 1 218 1 is_stmt 0
	addi	sp,sp,-16
	.cfi_def_cfa_offset 16
	sw	s0,12(sp)
	.cfi_offset 8, -4
	addi	s0,sp,16
	.cfi_def_cfa 8, 0
	.loc 1 227 1
	lw	s0,12(sp)
	.cfi_restore 8
	.cfi_def_cfa 2, 16
	li	a0,-1
.LVL96:
	addi	sp,sp,16
	.cfi_def_cfa_offset 0
	jr	ra
	.cfi_endproc
.LFE13:
	.size	hosal_i2c_slave_send, .-hosal_i2c_slave_send
	.section	.text.hosal_i2c_slave_recv,"ax",@progbits
	.align	1
	.globl	hosal_i2c_slave_recv
	.type	hosal_i2c_slave_recv, @function
hosal_i2c_slave_recv:
.LFB19:
	.cfi_startproc
	addi	sp,sp,-16
	.cfi_def_cfa_offset 16
	sw	s0,12(sp)
	.cfi_offset 8, -4
	addi	s0,sp,16
	.cfi_def_cfa 8, 0
	lw	s0,12(sp)
	.cfi_restore 8
	.cfi_def_cfa 2, 16
	li	a0,-1
	addi	sp,sp,16
	.cfi_def_cfa_offset 0
	jr	ra
	.cfi_endproc
.LFE19:
	.size	hosal_i2c_slave_recv, .-hosal_i2c_slave_recv
	.section	.text.hosal_i2c_mem_write,"ax",@progbits
	.align	1
	.globl	hosal_i2c_mem_write
	.type	hosal_i2c_mem_write, @function
hosal_i2c_mem_write:
.LFB15:
	.loc 1 244 1 is_stmt 1
	.cfi_startproc
.LVL97:
	.loc 1 245 5
	.loc 1 244 1 is_stmt 0
	addi	sp,sp,-80
	.cfi_def_cfa_offset 80
	sw	s0,72(sp)
	sw	s1,68(sp)
	sw	s2,64(sp)
	sw	s3,60(sp)
	sw	s4,56(sp)
	sw	s5,52(sp)
	sw	s6,48(sp)
	sw	s7,44(sp)
	.cfi_offset 8, -8
	.cfi_offset 9, -12
	.cfi_offset 18, -16
	.cfi_offset 19, -20
	.cfi_offset 20, -24
	.cfi_offset 21, -28
	.cfi_offset 22, -32
	.cfi_offset 23, -36
	addi	s0,sp,80
	.cfi_def_cfa 8, 0
	sw	ra,76(sp)
	mv	s6,a1
	.loc 1 245 22
	lui	a1,%hi(.LANCHOR0)
.LVL98:
	.loc 1 244 1
	.cfi_offset 1, -4
	.loc 1 244 1
	mv	s7,a0
	mv	s5,a2
	.loc 1 245 22
	addi	a1,a1,%lo(.LANCHOR0)
	li	a2,24
.LVL99:
	addi	a0,s0,-72
.LVL100:
	.loc 1 244 1
	mv	s4,a3
	mv	s2,a4
	mv	s1,a5
	mv	s3,a6
	.loc 1 245 22
	call	memcpy
.LVL101:
	.loc 1 254 5 is_stmt 1
	.loc 1 256 16 is_stmt 0
	li	a0,-1
	.loc 1 254 8
	beq	s7,zero,.L75
	.loc 1 254 20 discriminator 1
	beq	s2,zero,.L75
	.loc 1 254 36 discriminator 2
	beq	s1,zero,.L75
	.loc 1 259 5 is_stmt 1
	.loc 1 265 12 is_stmt 0
	mv	a1,s3
	addi	a0,s0,-72
	.loc 1 259 28
	sb	s6,-72(s0)
	.loc 1 260 5 is_stmt 1
	.loc 1 260 26 is_stmt 0
	sw	s5,-60(s0)
	.loc 1 261 5 is_stmt 1
	.loc 1 261 30 is_stmt 0
	sb	s4,-64(s0)
	.loc 1 262 5 is_stmt 1
	.loc 1 262 23 is_stmt 0
	sw	s2,-52(s0)
	.loc 1 263 5 is_stmt 1
	.loc 1 263 27 is_stmt 0
	sh	s1,-56(s0)
	.loc 1 265 5 is_stmt 1
	.loc 1 265 12 is_stmt 0
	call	i2c_master_send.constprop.0
.LVL102:
.L75:
	.loc 1 266 1
	lw	ra,76(sp)
	.cfi_restore 1
	lw	s0,72(sp)
	.cfi_restore 8
	.cfi_def_cfa 2, 80
	lw	s1,68(sp)
	.cfi_restore 9
	lw	s2,64(sp)
	.cfi_restore 18
.LVL103:
	lw	s3,60(sp)
	.cfi_restore 19
.LVL104:
	lw	s4,56(sp)
	.cfi_restore 20
	lw	s5,52(sp)
	.cfi_restore 21
.LVL105:
	lw	s6,48(sp)
	.cfi_restore 22
	lw	s7,44(sp)
	.cfi_restore 23
.LVL106:
	addi	sp,sp,80
	.cfi_def_cfa_offset 0
	jr	ra
	.cfi_endproc
.LFE15:
	.size	hosal_i2c_mem_write, .-hosal_i2c_mem_write
	.section	.text.hosal_i2c_mem_read,"ax",@progbits
	.align	1
	.globl	hosal_i2c_mem_read
	.type	hosal_i2c_mem_read, @function
hosal_i2c_mem_read:
.LFB16:
	.loc 1 271 1 is_stmt 1
	.cfi_startproc
.LVL107:
	.loc 1 272 5
	.loc 1 271 1 is_stmt 0
	addi	sp,sp,-80
	.cfi_def_cfa_offset 80
	sw	s0,72(sp)
	sw	s1,68(sp)
	sw	s2,64(sp)
	sw	s3,60(sp)
	sw	s4,56(sp)
	sw	s5,52(sp)
	sw	s6,48(sp)
	sw	s7,44(sp)
	.cfi_offset 8, -8
	.cfi_offset 9, -12
	.cfi_offset 18, -16
	.cfi_offset 19, -20
	.cfi_offset 20, -24
	.cfi_offset 21, -28
	.cfi_offset 22, -32
	.cfi_offset 23, -36
	addi	s0,sp,80
	.cfi_def_cfa 8, 0
	sw	ra,76(sp)
	mv	s6,a1
	.loc 1 272 22
	lui	a1,%hi(.LANCHOR0)
.LVL108:
	.loc 1 271 1
	.cfi_offset 1, -4
	.loc 1 271 1
	mv	s7,a0
	mv	s5,a2
	.loc 1 272 22
	addi	a1,a1,%lo(.LANCHOR0)
	li	a2,24
.LVL109:
	addi	a0,s0,-72
.LVL110:
	.loc 1 271 1
	mv	s4,a3
	mv	s2,a4
	mv	s1,a5
	mv	s3,a6
	.loc 1 272 22
	call	memcpy
.LVL111:
	.loc 1 281 5 is_stmt 1
	.loc 1 283 16 is_stmt 0
	li	a0,-1
	.loc 1 281 8
	beq	s7,zero,.L81
	.loc 1 281 20 discriminator 1
	beq	s2,zero,.L81
	.loc 1 281 36 discriminator 2
	beq	s1,zero,.L81
	.loc 1 286 5 is_stmt 1
	.loc 1 292 12 is_stmt 0
	mv	a1,s3
	addi	a0,s0,-72
	.loc 1 286 28
	sb	s6,-72(s0)
	.loc 1 287 5 is_stmt 1
	.loc 1 287 26 is_stmt 0
	sw	s5,-60(s0)
	.loc 1 288 5 is_stmt 1
	.loc 1 288 30 is_stmt 0
	sb	s4,-64(s0)
	.loc 1 289 5 is_stmt 1
	.loc 1 289 23 is_stmt 0
	sw	s2,-52(s0)
	.loc 1 290 5 is_stmt 1
	.loc 1 290 27 is_stmt 0
	sh	s1,-56(s0)
	.loc 1 292 5 is_stmt 1
	.loc 1 292 12 is_stmt 0
	call	i2c_master_receive.constprop.0
.LVL112:
.L81:
	.loc 1 293 1
	lw	ra,76(sp)
	.cfi_restore 1
	lw	s0,72(sp)
	.cfi_restore 8
	.cfi_def_cfa 2, 80
	lw	s1,68(sp)
	.cfi_restore 9
	lw	s2,64(sp)
	.cfi_restore 18
.LVL113:
	lw	s3,60(sp)
	.cfi_restore 19
.LVL114:
	lw	s4,56(sp)
	.cfi_restore 20
	lw	s5,52(sp)
	.cfi_restore 21
.LVL115:
	lw	s6,48(sp)
	.cfi_restore 22
	lw	s7,44(sp)
	.cfi_restore 23
.LVL116:
	addi	sp,sp,80
	.cfi_def_cfa_offset 0
	jr	ra
	.cfi_endproc
.LFE16:
	.size	hosal_i2c_mem_read, .-hosal_i2c_mem_read
	.section	.text.hosal_i2c_finalize,"ax",@progbits
	.align	1
	.globl	hosal_i2c_finalize
	.type	hosal_i2c_finalize, @function
hosal_i2c_finalize:
.LFB17:
	.loc 1 296 1 is_stmt 1
	.cfi_startproc
.LVL117:
	.loc 1 297 5
	.loc 1 297 8 is_stmt 0
	beq	a0,zero,.L89
	.loc 1 297 20 discriminator 1
	lbu	a5,0(a0)
	.loc 1 299 16 discriminator 1
	li	a0,-1
.LVL118:
	.loc 1 297 20 discriminator 1
	bne	a5,zero,.L92
	.loc 1 302 5 is_stmt 1
	.loc 1 296 1 is_stmt 0
	addi	sp,sp,-16
	.cfi_def_cfa_offset 16
	sw	s0,8(sp)
	sw	ra,12(sp)
	.cfi_offset 8, -8
	.cfi_offset 1, -4
	addi	s0,sp,16
	.cfi_def_cfa 8, 0
	.loc 1 302 5
	li	a0,0
	call	I2C_Disable
.LVL119:
	.loc 1 304 5 is_stmt 1
	.loc 1 305 1 is_stmt 0
	lw	ra,12(sp)
	.cfi_restore 1
	lw	s0,8(sp)
	.cfi_restore 8
	.cfi_def_cfa 2, 16
	.loc 1 304 12
	li	a0,0
	.loc 1 305 1
	addi	sp,sp,16
	.cfi_def_cfa_offset 0
	jr	ra
.LVL120:
.L89:
	.loc 1 299 16
	li	a0,-1
.LVL121:
	ret
.L92:
	.loc 1 305 1
	ret
	.cfi_endproc
.LFE17:
	.size	hosal_i2c_finalize, .-hosal_i2c_finalize
	.section	.rodata
	.align	2
	.set	.LANCHOR0,. + 0
.LC0:
	.byte	80
	.zero	3
	.word	0
	.byte	2
	.zero	3
	.word	0
	.half	0
	.zero	2
	.word	0
	.text
.Letext0:
	.file 2 "/home/dinhquangha/intern/Ai-Thinker-WB2/toolchain/riscv/Linux/lib/gcc/riscv64-unknown-elf/10.2.0/include/stdint-gcc.h"
	.file 3 "/home/dinhquangha/intern/Ai-Thinker-WB2/components/platform/soc/bl602/bl602_std/bl602_std/StdDriver/Inc/bl602_common.h"
	.file 4 "/home/dinhquangha/intern/Ai-Thinker-WB2/components/platform/soc/bl602/bl602_std/bl602_std/StdDriver/Inc/bl602_i2c.h"
	.file 5 "/home/dinhquangha/intern/Ai-Thinker-WB2/components/platform/soc/bl602/bl602_std/bl602_std/StdDriver/Inc/bl602_gpio.h"
	.file 6 "/home/dinhquangha/intern/Ai-Thinker-WB2/components/platform/hosal/include/hosal_i2c.h"
	.file 7 "/home/dinhquangha/intern/Ai-Thinker-WB2/components/platform/soc/bl602/bl602_std/bl602_std/StdDriver/Inc/bl602_glb.h"
	.file 8 "/home/dinhquangha/intern/Ai-Thinker-WB2/components/platform/hosal/bl602_hal/bl_i2c.h"
	.file 9 "/home/dinhquangha/intern/Ai-Thinker-WB2/components/platform/hosal/bl602_hal/bl_timer.h"
	.file 10 "<built-in>"