	.file	"dhcp.c"
	.option nopic
	.attribute arch, "rv32i2p0_m2p0_f2p0_c2p0"
	.attribute unaligned_access, 0
	.attribute stack_align, 16
	.text
.Ltext0:
	.cfi_sections	.debug_frame
	.section	.text.dhcp_set_state,"ax",@progbits
	.align	1
	.type	dhcp_set_state, @function
dhcp_set_state:
.LFB32:
	.file 1 "/home/dinhquangha/intern/Ai-Thinker-WB2/components/network/lwip/src/core/ipv4/dhcp.c"
	.loc 1 1432 1
	.cfi_startproc
.LVL0:
	.loc 1 1433 3
	.loc 1 1432 1 is_stmt 0
	addi	sp,sp,-16
	.cfi_def_cfa_offset 16
	sw	s0,12(sp)
	.cfi_offset 8, -4
	addi	s0,sp,16
	.cfi_def_cfa 8, 0
	.loc 1 1433 6
	lbu	a5,5(a0)
	beq	a5,a1,.L1
	.loc 1 1434 5 is_stmt 1
	.loc 1 1434 17 is_stmt 0
	sb	a1,5(a0)
	.loc 1 1435 5 is_stmt 1
	.loc 1 1435 17 is_stmt 0
	sb	zero,6(a0)
	.loc 1 1436 5 is_stmt 1
	.loc 1 1436 27 is_stmt 0
	sh	zero,8(a0)
.L1:
	.loc 1 1438 1
	lw	s0,12(sp)
	.cfi_restore 8
	.cfi_def_cfa 2, 16
	addi	sp,sp,16
	.cfi_def_cfa_offset 0
	jr	ra
	.cfi_endproc
.LFE32:
	.size	dhcp_set_state, .-dhcp_set_state
	.section	.text.dhcp_option_short,"ax",@progbits
	.align	1
	.type	dhcp_option_short, @function
dhcp_option_short:
.LFB35:
	.loc 1 1467 1 is_stmt 1
	.cfi_startproc
.LVL1:
	.loc 1 1468 3
	.loc 1 1468 8
	.loc 1 1468 46
	.loc 1 1468 56
	.loc 1 1469 3
	.loc 1 1467 1 is_stmt 0
	addi	sp,sp,-16
	.cfi_def_cfa_offset 16
	sw	s0,12(sp)
	.cfi_offset 8, -4
	addi	s0,sp,16
	.cfi_def_cfa 8, 0
	.loc 1 1469 30
	add	a5,a1,a0
	.loc 1 1469 57
	srli	a4,a2,8
	.loc 1 1469 32
	sb	a4,0(a5)
	.loc 1 1470 3 is_stmt 1
.LVL2:
	.loc 1 1469 26 is_stmt 0
	addi	a5,a0,1
	.loc 1 1470 26
	slli	a5,a5,16
	srli	a5,a5,16
	.loc 1 1470 30
	add	a1,a1,a5
.LVL3:
	.loc 1 1470 32
	sb	a2,0(a1)
	.loc 1 1471 3 is_stmt 1
	.loc 1 1472 1 is_stmt 0
	lw	s0,12(sp)
	.cfi_restore 8
	.cfi_def_cfa 2, 16
	.loc 1 1470 26
	addi	a0,a0,2
.LVL4:
	.loc 1 1472 1
	slli	a0,a0,16
	srli	a0,a0,16
	addi	sp,sp,16
	.cfi_def_cfa_offset 0
	jr	ra
	.cfi_endproc
.LFE35:
	.size	dhcp_option_short, .-dhcp_option_short
	.section	.text.dhcp_option_long,"ax",@progbits
	.align	1
	.type	dhcp_option_long, @function
dhcp_option_long:
.LFB36:
	.loc 1 1476 1 is_stmt 1
	.cfi_startproc
.LVL5:
	.loc 1 1477 3
	.loc 1 1477 8
	.loc 1 1477 46
	.loc 1 1477 56
	.loc 1 1478 3
	.loc 1 1476 1 is_stmt 0
	addi	sp,sp,-16
	.cfi_def_cfa_offset 16
	sw	s0,12(sp)
	.cfi_offset 8, -4
	addi	s0,sp,16
	.cfi_def_cfa 8, 0
	.loc 1 1478 30
	add	a5,a1,a0
	.loc 1 1478 62
	srli	a4,a2,24
	.loc 1 1478 32
	sb	a4,0(a5)
	.loc 1 1479 3 is_stmt 1
.LVL6:
	.loc 1 1478 26 is_stmt 0
	addi	a5,a0,1
	.loc 1 1479 26
	slli	a5,a5,16
	srli	a5,a5,16
	.loc 1 1479 30
	add	a5,a1,a5
	.loc 1 1479 62
	srli	a4,a2,16
	.loc 1 1479 32
	sb	a4,0(a5)
	.loc 1 1480 3 is_stmt 1
.LVL7:
	.loc 1 1479 26 is_stmt 0
	addi	a5,a0,2
	.loc 1 1480 26
	slli	a5,a5,16
	srli	a5,a5,16
	.loc 1 1480 30
	add	a5,a1,a5
	.loc 1 1480 62
	srli	a4,a2,8
	.loc 1 1480 32
	sb	a4,0(a5)
	.loc 1 1481 3 is_stmt 1
.LVL8:
	.loc 1 1480 26 is_stmt 0
	addi	a5,a0,3
	.loc 1 1481 26
	slli	a5,a5,16
	srli	a5,a5,16
	.loc 1 1481 30
	add	a1,a1,a5
.LVL9:
	.loc 1 1481 32
	sb	a2,0(a1)
	.loc 1 1482 3 is_stmt 1
	.loc 1 1483 1 is_stmt 0
	lw	s0,12(sp)
	.cfi_restore 8
	.cfi_def_cfa 2, 16
	.loc 1 1481 26
	addi	a0,a0,4
.LVL10:
	.loc 1 1483 1
	slli	a0,a0,16
	srli	a0,a0,16
	addi	sp,sp,16
	.cfi_def_cfa_offset 0
	jr	ra
	.cfi_endproc
.LFE36:
	.size	dhcp_option_long, .-dhcp_option_long
	.section	.text.dhcp_create_msg,"ax",@progbits
	.align	1
	.type	dhcp_create_msg, @function
dhcp_create_msg:
.LFB40:
	.loc 1 1889 1 is_stmt 1
	.cfi_startproc
.LVL11:
	.loc 1 1890 3
	.loc 1 1891 3
	.loc 1 1892 3
	.loc 1 1893 3
	.loc 1 1901 3
	.loc 1 1911 3
	.loc 1 1911 8
	.loc 1 1889 1 is_stmt 0
	addi	sp,sp,-48
	.cfi_def_cfa_offset 48
	sw	s0,40(sp)
	sw	ra,44(sp)
	sw	s1,36(sp)
	sw	s2,32(sp)
	sw	s3,28(sp)
	sw	s4,24(sp)
	sw	s5,20(sp)
	sw	s6,16(sp)
	sw	s7,12(sp)
	.cfi_offset 8, -8
	.cfi_offset 1, -4
	.cfi_offset 9, -12
	.cfi_offset 18, -16
	.cfi_offset 19, -20
	.cfi_offset 20, -24
	.cfi_offset 21, -28
	.cfi_offset 22, -32
	.cfi_offset 23, -36
	addi	s0,sp,48
	.cfi_def_cfa 8, 0
	.loc 1 1911 11
	bne	a0,zero,.L9
.LVL12:
.L11:
	.loc 1 1911 2
	li	s5,0
.L8:
	.loc 1 1965 1
	lw	ra,44(sp)
	.cfi_remember_state
	.cfi_restore 1
	lw	s0,40(sp)
	.cfi_restore 8
	.cfi_def_cfa 2, 48
	lw	s1,36(sp)
	.cfi_restore 9
	lw	s2,32(sp)
	.cfi_restore 18
	lw	s3,28(sp)
	.cfi_restore 19
	lw	s4,24(sp)
	.cfi_restore 20
	lw	s6,16(sp)
	.cfi_restore 22
	lw	s7,12(sp)
	.cfi_restore 23
	mv	a0,s5
	lw	s5,20(sp)
	.cfi_restore 21
	addi	sp,sp,48
	.cfi_def_cfa_offset 0
	jr	ra
.LVL13:
.L9:
	.cfi_restore_state
	mv	s4,a1
	.loc 1 1911 3 is_stmt 1 discriminator 2
	.loc 1 1911 12 discriminator 2
	.loc 1 1912 3 discriminator 2
	.loc 1 1912 8 discriminator 2
	.loc 1 1912 11 is_stmt 0 discriminator 2
	beq	a1,zero,.L11
	mv	s2,a0
	mv	s3,a2
	.loc 1 1913 11 discriminator 2
	li	a1,308
.LVL14:
	li	a2,640
.LVL15:
	li	a0,182
.LVL16:
	mv	s6,a3
	.loc 1 1912 3 is_stmt 1 discriminator 2
	.loc 1 1912 12 discriminator 2
	.loc 1 1913 3 discriminator 2
	.loc 1 1913 11 is_stmt 0 discriminator 2
	call	pbuf_alloc
.LVL17:
	mv	s5,a0
.LVL18:
	.loc 1 1914 3 is_stmt 1 discriminator 2
	.loc 1 1914 6 is_stmt 0 discriminator 2
	beq	a0,zero,.L11
	.loc 1 1919 3 is_stmt 1
	.loc 1 1919 8
	.loc 1 1919 58
	.loc 1 1919 68
	.loc 1 1923 3
	.loc 1 1923 6 is_stmt 0
	li	a5,3
	bne	s3,a5,.L12
	.loc 1 1923 27 discriminator 1
	lbu	a5,5(s4)
	bne	a5,s3,.L13
.L12:
	.loc 1 1925 5 is_stmt 1
	.loc 1 1925 8 is_stmt 0
	lbu	a5,6(s4)
	lui	s1,%hi(.LANCHOR0)
	addi	s1,s1,%lo(.LANCHOR0)
	bne	a5,zero,.L14
	.loc 1 1927 7 is_stmt 1
	.loc 1 1927 21 is_stmt 0
	call	bl_rand
.LVL19:
	.loc 1 1927 11
	sw	a0,0(s1)
.L14:
	.loc 1 1932 5 is_stmt 1
	.loc 1 1932 15 is_stmt 0
	lw	a5,0(s1)
	sw	a5,0(s4)
.L13:
	.loc 1 1935 55 is_stmt 1
	.loc 1 1937 3
	.loc 1 1937 11 is_stmt 0
	lw	s1,4(s5)
.LVL20:
	.loc 1 1938 3 is_stmt 1
	li	a2,308
	li	a1,0
	.loc 1 1940 15 is_stmt 0
	li	s7,1
	.loc 1 1938 3
	mv	a0,s1
	call	memset
.LVL21:
	.loc 1 1940 3 is_stmt 1
	.loc 1 1940 15 is_stmt 0
	sb	s7,0(s1)
	.loc 1 1942 3 is_stmt 1
	.loc 1 1942 18 is_stmt 0
	sb	s7,1(s1)
	.loc 1 1943 3 is_stmt 1
	.loc 1 1943 24 is_stmt 0
	lbu	a5,64(s2)
	.loc 1 1943 17
	sb	a5,2(s1)
	.loc 1 1944 3 is_stmt 1
	.loc 1 1944 18 is_stmt 0
	lw	a0,0(s4)
	call	lwip_htonl
.LVL22:
	.loc 1 1944 16
	srli	a5,a0,8
	sb	a5,5(s1)
	srli	a5,a0,16
	sb	a5,6(s1)
	srli	a5,a0,24
	sb	a5,7(s1)
	.loc 1 1948 3 is_stmt 1
	.loc 1 1944 16 is_stmt 0
	sb	a0,4(s1)
	.loc 1 1948 27
	li	a5,4
	beq	s3,a5,.L15
	.loc 1 1948 50 discriminator 2
	addi	a5,s3,-7
	andi	a5,a5,0xff
	bleu	a5,s7,.L15
	.loc 1 1948 73 discriminator 3
	li	a5,3
	bne	s3,a5,.L16
	.loc 1 1950 46
	lbu	a5,5(s4)
	addi	a5,a5,-4
	.loc 1 1949 28
	andi	a5,a5,0xff
	bgtu	a5,s7,.L16
.L15:
	.loc 1 1951 5 is_stmt 1
	.loc 1 1951 76 is_stmt 0
	lw	a5,4(s2)
	.loc 1 1951 29
	srli	a4,a5,8
	sb	a5,12(s1)
	sb	a4,13(s1)
	srli	a4,a5,16
	srli	a5,a5,24
	sb	a4,14(s1)
	sb	a5,15(s1)
.L16:
	addi	a5,s2,58
	addi	a4,s1,28
	addi	s2,s2,64
.LVL23:
.L17:
	.loc 1 1955 5 is_stmt 1 discriminator 3
	.loc 1 1955 39 is_stmt 0 discriminator 3
	lbu	a3,0(a5)
	.loc 1 1953 3 discriminator 3
	addi	a5,a5,1
.LVL24:
	addi	a4,a4,1
	.loc 1 1955 24 discriminator 3
	sb	a3,-1(a4)
	.loc 1 1953 52 is_stmt 1 discriminator 3
	.loc 1 1953 15 discriminator 3
	.loc 1 1953 3 is_stmt 0 discriminator 3
	bne	a5,s2,.L17
	.loc 1 1957 3 is_stmt 1
	.loc 1 1957 19 is_stmt 0
	li	a5,99
	sb	a5,236(s1)
	li	a4,-126
	sb	a5,239(s1)
	.loc 1 1959 3 is_stmt 1
.LVL25:
.LBB98:
.LBB99:
	.loc 1 1448 3
	.loc 1 1448 8
	.loc 1 1448 59
	.loc 1 1448 69
	.loc 1 1449 3
	.loc 1 1449 30 is_stmt 0
	li	a5,53
.LBE99:
.LBE98:
	.loc 1 1957 19
	sb	a4,237(s1)
.LBB102:
.LBB100:
	.loc 1 1449 30
	sb	a5,240(s1)
	.loc 1 1450 3 is_stmt 1
.LVL26:
.LBE100:
.LBE102:
	.loc 1 1957 19 is_stmt 0
	li	a4,83
.LBB103:
.LBB101:
	.loc 1 1450 30
	li	a5,1
	sb	a5,241(s1)
	.loc 1 1451 3 is_stmt 1
.LVL27:
.LBE101:
.LBE103:
	.loc 1 1960 3
.LBB104:
.LBB105:
	.loc 1 1460 3
	.loc 1 1460 8
	.loc 1 1460 40
	.loc 1 1460 50
	.loc 1 1461 3
.LBE105:
.LBE104:
	.loc 1 1957 19 is_stmt 0
	sb	a4,238(s1)
.LBB107:
.LBB106:
	.loc 1 1461 30
	sb	s3,242(s1)
	.loc 1 1462 3 is_stmt 1
.LVL28:
.LBE106:
.LBE107:
	.loc 1 1961 3
	.loc 1 1962 5
	.loc 1 1962 22 is_stmt 0
	li	a5,3
	sh	a5,0(s6)
	j	.L8
	.cfi_endproc
.LFE40:
	.size	dhcp_create_msg, .-dhcp_create_msg
	.section	.text.dhcp_option_hostname,"ax",@progbits
	.align	1
	.type	dhcp_option_hostname, @function
dhcp_option_hostname:
.LFB37:
	.loc 1 1488 1 is_stmt 1
	.cfi_startproc
.LVL29:
	.loc 1 1489 3
	.loc 1 1488 1 is_stmt 0
	addi	sp,sp,-32
	.cfi_def_cfa_offset 32
	sw	s0,24(sp)
	sw	s1,20(sp)
	sw	ra,28(sp)
	sw	s2,16(sp)
	sw	s3,12(sp)
	.cfi_offset 8, -8
	.cfi_offset 9, -12
	.cfi_offset 1, -4
	.cfi_offset 18, -16
	.cfi_offset 19, -20
	addi	s0,sp,32
	.cfi_def_cfa 8, 0
	.loc 1 1488 1
	mv	s1,a0
	.loc 1 1489 12
	lw	a0,52(a2)
.LVL30:
	.loc 1 1489 6
	beq	a0,zero,.L28
	mv	s2,a1
	mv	s3,a2
.LBB108:
	.loc 1 1490 5 is_stmt 1
	.loc 1 1490 22 is_stmt 0
	call	strlen
.LVL31:
	.loc 1 1491 5 is_stmt 1
	.loc 1 1491 8 is_stmt 0
	beq	a0,zero,.L28
.LBB109:
	.loc 1 1492 7 is_stmt 1
	.loc 1 1493 7
	.loc 1 1496 14 is_stmt 0
	li	a5,65
	sub	a5,a5,s1
	.loc 1 1493 19
	lw	a4,52(s3)
.LVL32:
	.loc 1 1496 7 is_stmt 1
	.loc 1 1497 7
	.loc 1 1497 12
	.loc 1 1497 43
	.loc 1 1497 53
	.loc 1 1498 7
	.loc 1 1498 11 is_stmt 0
	bleu	a5,a0,.L30
	mv	a5,a0
.LVL33:
.L30:
	.loc 1 1499 7 is_stmt 1
	.loc 1 1499 12
	.loc 1 1499 34
	.loc 1 1499 44
	.loc 1 1500 7
.LBB110:
.LBB111:
	.loc 1 1448 3
	.loc 1 1448 8
	.loc 1 1448 59
	.loc 1 1448 69
	.loc 1 1449 3
	.loc 1 1449 30 is_stmt 0
	add	a3,s2,s1
	.loc 1 1450 26
	addi	a0,s1,2
.LVL34:
	.loc 1 1449 26
	addi	s1,s1,1
.LVL35:
	.loc 1 1450 26
	slli	s1,s1,16
.LVL36:
	.loc 1 1449 30
	li	a2,12
	.loc 1 1450 26
	slli	a0,a0,16
.LVL37:
	srli	s1,s1,16
	.loc 1 1449 30
	sb	a2,0(a3)
	.loc 1 1450 3 is_stmt 1
	.loc 1 1450 26 is_stmt 0
	srli	a0,a0,16
.LVL38:
	.loc 1 1450 30
	add	s1,s2,s1
.LBE111:
.LBE110:
	.loc 1 1500 25
	sb	a5,0(s1)
.LBB113:
.LBB112:
	.loc 1 1451 3 is_stmt 1
.LVL39:
.LBE112:
.LBE113:
	.loc 1 1501 7
	add	a2,a4,a5
	.loc 1 1500 25 is_stmt 0
	mv	a3,a0
.LVL40:
.L31:
	.loc 1 1501 13 is_stmt 1
	bne	a4,a2,.L32
	add	a0,a0,a5
	slli	s1,a0,16
	srli	s1,s1,16
.LVL41:
.L28:
.LBE109:
.LBE108:
	.loc 1 1506 3
	.loc 1 1507 1 is_stmt 0
	lw	ra,28(sp)
	.cfi_remember_state
	.cfi_restore 1
	lw	s0,24(sp)
	.cfi_restore 8
	.cfi_def_cfa 2, 32
	lw	s2,16(sp)
	.cfi_restore 18
	lw	s3,12(sp)
	.cfi_restore 19
	mv	a0,s1
	lw	s1,20(sp)
	.cfi_restore 9
.LVL42:
	addi	sp,sp,32
	.cfi_def_cfa_offset 0
	jr	ra
.LVL43:
.L32:
	.cfi_restore_state
.LBB119:
.LBB118:
	.loc 1 1502 9 is_stmt 1
	.loc 1 1502 27 is_stmt 0
	lbu	a6,0(a4)
.LBB114:
.LBB115:
	.loc 1 1461 26
	addi	a1,a3,1
	.loc 1 1461 30
	add	a3,s2,a3
.LVL44:
	sb	a6,0(a3)
.LBE115:
.LBE114:
	.loc 1 1502 27
	slli	a3,a1,16
	.loc 1 1502 72
	addi	a4,a4,1
.LVL45:
.LBB117:
.LBB116:
	.loc 1 1460 3 is_stmt 1
	.loc 1 1460 8
	.loc 1 1460 40
	.loc 1 1460 50
	.loc 1 1461 3
	.loc 1 1462 3
.LBE116:
.LBE117:
	.loc 1 1502 27 is_stmt 0
	srli	a3,a3,16
	j	.L31
.LBE118:
.LBE119:
	.cfi_endproc
.LFE37:
	.size	dhcp_option_hostname, .-dhcp_option_hostname
	.section	.text.dhcp_option_trailer,"ax",@progbits
	.align	1
	.type	dhcp_option_trailer, @function
dhcp_option_trailer:
.LFB41:
	.loc 1 1975 1 is_stmt 1
	.cfi_startproc
.LVL46:
	.loc 1 1976 3
	.loc 1 1975 1 is_stmt 0
	mv	a5,a0
	addi	sp,sp,-16
	.cfi_def_cfa_offset 16
	.loc 1 1976 26
	addi	a4,a5,1
	.loc 1 1975 1
	sw	s0,12(sp)
	.loc 1 1976 26
	slli	a4,a4,16
	.cfi_offset 8, -4
	.loc 1 1975 1
	addi	s0,sp,16
	.cfi_def_cfa 8, 0
	.loc 1 1976 30
	add	a3,a1,a5
	.loc 1 1976 26
	srli	a4,a4,16
.LVL47:
	.loc 1 1975 1
	.loc 1 1975 1
	mv	a0,a2
	.loc 1 1976 30
	li	a2,-1
.LVL48:
	sb	a2,0(a3)
	.loc 1 1978 3 is_stmt 1
	add	a1,a1,a4
.LVL49:
	.loc 1 1976 26 is_stmt 0
	mv	a3,a4
	.loc 1 1978 9
	li	a2,67
.LVL50:
.L38:
	.loc 1 1978 9 is_stmt 1
	bleu	a3,a2,.L39
	.loc 1 1984 3 discriminator 2
	li	a3,68
.LVL51:
	li	a1,0
	bgtu	a4,a3,.L41
	li	a1,67
	sub	a1,a1,a5
.L41:
	.loc 1 1985 1 is_stmt 0 discriminator 2
	lw	s0,12(sp)
	.cfi_remember_state
	.cfi_restore 8
	.cfi_def_cfa 2, 16
	.loc 1 1984 3 discriminator 2
	addi	a5,a5,241
	add	a1,a5,a1
	slli	a1,a1,16
	.loc 1 1985 1 discriminator 2
	.loc 1 1984 3 discriminator 2
	srli	a1,a1,16
	.loc 1 1985 1 discriminator 2
	addi	sp,sp,16
	.cfi_def_cfa_offset 0
	.loc 1 1984 3 discriminator 2
	tail	pbuf_realloc
.LVL52:
.L39:
	.cfi_restore_state
	.loc 1 1981 5 is_stmt 1
	.loc 1 1981 28 is_stmt 0
	addi	a3,a3,1
.LVL53:
	slli	a3,a3,16
	.loc 1 1981 32
	sb	zero,0(a1)
	.loc 1 1981 28
	srli	a3,a3,16
.LVL54:
	addi	a1,a1,1
	j	.L38
	.cfi_endproc
.LFE41:
	.size	dhcp_option_trailer, .-dhcp_option_trailer
	.section	.text.dhcp_discover,"ax",@progbits
	.align	1
	.type	dhcp_discover, @function
dhcp_discover:
.LFB24:
	.loc 1 996 1 is_stmt 1
	.cfi_startproc
.LVL55:
	.loc 1 997 3
	.loc 1 996 1 is_stmt 0
	addi	sp,sp,-64
	.cfi_def_cfa_offset 64
	sw	s0,56(sp)
	sw	s3,44(sp)
	sw	ra,60(sp)
	sw	s1,52(sp)
	sw	s2,48(sp)
	.cfi_offset 8, -8
	.cfi_offset 19, -20
	.cfi_offset 1, -4
	.cfi_offset 9, -12
	.cfi_offset 18, -16
	addi	s0,sp,64
	.cfi_def_cfa 8, 0
	.loc 1 997 16
	lw	s1,40(a0)
.LVL56:
	.loc 1 998 3 is_stmt 1
	.loc 1 999 3
	.loc 1 1000 3
	.loc 1 1001 3
	.loc 1 1002 3
	.loc 1 1004 3
	.loc 1 1006 3
	.loc 1 996 1 is_stmt 0
	mv	s3,a0
	.loc 1 1007 3
	li	a1,6
	mv	a0,s1
.LVL57:
	.loc 1 1006 35
	sw	zero,28(s1)
	.loc 1 1007 3 is_stmt 1
	call	dhcp_set_state
.LVL58:
	.loc 1 1009 3
	.loc 1 1009 11 is_stmt 0
	addi	a3,s0,-34
	li	a2,1
	mv	a1,s1
	mv	a0,s3
	call	dhcp_create_msg
.LVL59:
	.loc 1 1010 3 is_stmt 1
	.loc 1 1010 6 is_stmt 0
	beq	a0,zero,.L44
.LBB120:
	.loc 1 1014 59
	lw	a1,4(a0)
	.loc 1 1014 23
	lhu	a5,-34(s0)
	mv	s2,a0
	.loc 1 1011 5 is_stmt 1
.LVL60:
	.loc 1 1012 5
	.loc 1 1014 5
	.loc 1 1014 59 is_stmt 0
	addi	a1,a1,240
.LVL61:
.LBB121:
.LBB122:
	.loc 1 1448 3 is_stmt 1
	.loc 1 1448 8
	.loc 1 1448 59
	.loc 1 1448 69
	.loc 1 1449 3
	.loc 1 1449 30 is_stmt 0
	add	a4,a1,a5
	.loc 1 1450 26
	addi	a0,a5,2
.LVL62:
	.loc 1 1449 26
	addi	a5,a5,1
.LVL63:
	.loc 1 1450 26
	slli	a5,a5,16
.LVL64:
	.loc 1 1449 30
	li	a3,57
	.loc 1 1450 26
	srli	a5,a5,16
	.loc 1 1449 30
	sb	a3,0(a4)
.LVL65:
	.loc 1 1450 3 is_stmt 1
	.loc 1 1450 30 is_stmt 0
	add	a5,a1,a5
	li	a4,2
	sb	a4,0(a5)
.LBE122:
.LBE121:
	.loc 1 1015 23
	lhu	a2,56(s3)
.LBB124:
.LBB123:
	.loc 1 1450 26
	slli	a0,a0,16
.LVL66:
	srli	a0,a0,16
.LVL67:
	.loc 1 1451 3 is_stmt 1
.LBE123:
.LBE124:
	.loc 1 1015 23 is_stmt 0
	sw	a1,-52(s0)
	.loc 1 1014 21
	sh	a0,-34(s0)
	.loc 1 1015 5 is_stmt 1
	.loc 1 1015 23 is_stmt 0
	call	dhcp_option_short
.LVL68:
	.loc 1 1017 5 is_stmt 1
.LBB125:
.LBB126:
	.loc 1 1448 3
	.loc 1 1448 8
	.loc 1 1448 59
	.loc 1 1448 69
	.loc 1 1449 3
	.loc 1 1449 30 is_stmt 0
	lw	a1,-52(s0)
	li	a4,55
.LBE126:
.LBE125:
	.loc 1 1019 25
	lui	a3,%hi(.LANCHOR1)
.LBB128:
.LBB127:
	.loc 1 1449 30
	add	a5,a1,a0
	sb	a4,0(a5)
	.loc 1 1450 3 is_stmt 1
.LVL69:
	.loc 1 1449 26 is_stmt 0
	addi	a5,a0,1
	.loc 1 1450 26
	slli	a5,a5,16
	srli	a5,a5,16
	.loc 1 1450 30
	add	a5,a1,a5
	li	a4,4
	sb	a4,0(a5)
	.loc 1 1451 3 is_stmt 1
.LVL70:
	.loc 1 1450 26 is_stmt 0
	addi	a5,a0,2
.LBE127:
.LBE128:
	.loc 1 1017 21
	sh	a5,-34(s0)
	.loc 1 1018 5 is_stmt 1
.LVL71:
	.loc 1 1018 17
	.loc 1 1019 25 is_stmt 0
	addi	a3,a3,%lo(.LANCHOR1)
	.loc 1 1017 21
	li	a5,0
	.loc 1 1018 5
	li	a2,4
.LVL72:
.L45:
	.loc 1 1019 7 is_stmt 1 discriminator 3
	.loc 1 1019 25 is_stmt 0 discriminator 3
	lhu	a4,-34(s0)
	add	a0,a3,a5
	lbu	a6,0(a0)
.LVL73:
.LBB129:
.LBB130:
	.loc 1 1460 3 is_stmt 1 discriminator 3
	.loc 1 1460 8 discriminator 3
	.loc 1 1460 40 discriminator 3
	.loc 1 1460 50 discriminator 3
	.loc 1 1461 3 discriminator 3
	.loc 1 1461 26 is_stmt 0 discriminator 3
	addi	a0,a4,1
	slli	a0,a0,16
	.loc 1 1461 30 discriminator 3
	add	a4,a1,a4
.LVL74:
	.loc 1 1461 26 discriminator 3
	srli	a0,a0,16
.LVL75:
	.loc 1 1461 30 discriminator 3
	sb	a6,0(a4)
	.loc 1 1462 3 is_stmt 1 discriminator 3
.LVL76:
.LBE130:
.LBE129:
	.loc 1 1019 23 is_stmt 0 discriminator 3
	sh	a0,-34(s0)
	.loc 1 1018 105 is_stmt 1 discriminator 3
.LVL77:
	.loc 1 1018 17 discriminator 3
	.loc 1 1018 5 is_stmt 0 discriminator 3
	addi	a5,a5,1
.LVL78:
	bne	a5,a2,.L45
	.loc 1 1021 5 is_stmt 1
	.loc 1 1022 5
	mv	a2,s2
	call	dhcp_option_trailer
.LVL79:
	.loc 1 1024 5
	.loc 1 1025 5
	lui	a0,%hi(.LANCHOR2)
	lw	a0,%lo(.LANCHOR2)(a0)
	lui	a5,%hi(ip_addr_any)
	lui	a2,%hi(ip_addr_broadcast)
	addi	a5,a5,%lo(ip_addr_any)
	mv	a4,s3
	li	a3,67
	addi	a2,a2,%lo(ip_addr_broadcast)
	mv	a1,s2
	call	udp_sendto_if_src
.LVL80:
	.loc 1 1026 5
	.loc 1 1027 5
	mv	a0,s2
	call	pbuf_free
.LVL81:
	.loc 1 1028 5
.L44:
.LBE120:
	.loc 1 1030 5
	.loc 1 1032 3
	.loc 1 1032 11 is_stmt 0
	lbu	a5,6(s1)
	.loc 1 1032 6
	li	a4,255
	beq	a5,a4,.L46
	.loc 1 1033 5 is_stmt 1
	.loc 1 1033 16 is_stmt 0
	addi	a5,a5,1
	sb	a5,6(s1)
.L46:
	.loc 1 1041 3 is_stmt 1
	.loc 1 1041 24 is_stmt 0
	lbu	a4,6(s1)
	.loc 1 1041 11
	li	a5,5
	bgtu	a4,a5,.L48
	.loc 1 1041 40 discriminator 1
	li	a5,1
	sll	a5,a5,a4
	.loc 1 1041 11 discriminator 1
	li	a4,1000
	mul	a5,a5,a4
	slli	a5,a5,16
	srli	a5,a5,16
.L47:
.LVL82:
	.loc 1 1042 3 is_stmt 1 discriminator 4
	.loc 1 1042 48 is_stmt 0 discriminator 4
	addi	a5,a5,499
.LVL83:
	slli	a5,a5,16
	srli	a5,a5,16
	.loc 1 1042 53 discriminator 4
	li	a4,500
	div	a5,a5,a4
	.loc 1 1045 1 discriminator 4
	li	a0,0
	.loc 1 1042 27 discriminator 4
	sh	a5,8(s1)
	.loc 1 1043 3 is_stmt 1 discriminator 4
	.loc 1 1044 3 discriminator 4
	.loc 1 1045 1 is_stmt 0 discriminator 4
	lw	ra,60(sp)
	.cfi_remember_state
	.cfi_restore 1
	lw	s0,56(sp)
	.cfi_restore 8
	.cfi_def_cfa 2, 64
	lw	s1,52(sp)
	.cfi_restore 9
.LVL84:
	lw	s2,48(sp)
	.cfi_restore 18
	lw	s3,44(sp)
	.cfi_restore 19
.LVL85:
	addi	sp,sp,64
	.cfi_def_cfa_offset 0
	jr	ra
.LVL86:
.L48:
	.cfi_restore_state
	.loc 1 1041 11
	li	a5,61440
	addi	a5,a5,-1440
	j	.L47
	.cfi_endproc
.LFE24:
	.size	dhcp_discover, .-dhcp_discover
	.section	.text.dhcp_check,"ax",@progbits
	.align	1
	.type	dhcp_check, @function
dhcp_check:
.LFB8:
	.loc 1 304 1 is_stmt 1
	.cfi_startproc
.LVL87:
	.loc 1 305 3
	.loc 1 304 1 is_stmt 0
	addi	sp,sp,-16
	.cfi_def_cfa_offset 16
	sw	ra,12(sp)
	sw	s0,8(sp)
	sw	s2,0(sp)
	sw	s1,4(sp)
	.cfi_offset 1, -4
	.cfi_offset 8, -8
	.cfi_offset 18, -16
	.cfi_offset 9, -12
	addi	s0,sp,16
	.cfi_def_cfa 8, 0
	.loc 1 305 16
	lw	s1,40(a0)
.LVL88:
	.loc 1 306 3 is_stmt 1
	.loc 1 307 3
	.loc 1 309 38
	.loc 1 310 3
	.loc 1 304 1 is_stmt 0
	mv	s2,a0
	.loc 1 310 3
	li	a1,8
	mv	a0,s1
.LVL89:
	call	dhcp_set_state
.LVL90:
	.loc 1 313 3 is_stmt 1
	.loc 1 313 12 is_stmt 0
	li	a2,0
	addi	a1,s1,28
	mv	a0,s2
	call	etharp_query
.LVL91:
	.loc 1 314 3 is_stmt 1
	.loc 1 315 5
	.loc 1 317 3
	.loc 1 317 11 is_stmt 0
	lbu	a5,6(s1)
	.loc 1 317 6
	li	a4,255
	beq	a5,a4,.L55
	.loc 1 318 5 is_stmt 1
	.loc 1 318 16 is_stmt 0
	addi	a5,a5,1
	sb	a5,6(s1)
.L55:
	.loc 1 320 3 is_stmt 1
.LVL92:
	.loc 1 321 3
	.loc 1 321 25 is_stmt 0
	li	a5,1
	sh	a5,8(s1)
	.loc 1 322 3 is_stmt 1
	.loc 1 323 1 is_stmt 0
	lw	ra,12(sp)
	.cfi_restore 1
	lw	s0,8(sp)
	.cfi_restore 8
	.cfi_def_cfa 2, 16
	lw	s1,4(sp)
	.cfi_restore 9
.LVL93:
	lw	s2,0(sp)
	.cfi_restore 18
.LVL94:
	addi	sp,sp,16
	.cfi_def_cfa_offset 0
	jr	ra
	.cfi_endproc
.LFE8:
	.size	dhcp_check, .-dhcp_check
	.section	.text.dhcp_bind,"ax",@progbits
	.align	1
	.type	dhcp_bind, @function
dhcp_bind:
.LFB25:
	.loc 1 1055 1 is_stmt 1
	.cfi_startproc
.LVL95:
	.loc 1 1056 3
	.loc 1 1057 3
	.loc 1 1058 3
	.loc 1 1059 3
	.loc 1 1059 8
	.loc 1 1059 11 is_stmt 0
	beq	a0,zero,.L95
	.loc 1 1055 1 discriminator 2
	addi	sp,sp,-32
	.cfi_def_cfa_offset 32
	sw	s0,24(sp)
	sw	s2,16(sp)
	sw	ra,28(sp)
	sw	s1,20(sp)
	.cfi_offset 8, -8
	.cfi_offset 18, -16
	.cfi_offset 1, -4
	.cfi_offset 9, -12
	addi	s0,sp,32
	.cfi_def_cfa 8, 0
	.loc 1 1060 8 discriminator 2
	lw	s1,40(a0)
	mv	s2,a0
	.loc 1 1059 17 is_stmt 1 discriminator 2
	.loc 1 1059 26 discriminator 2
	.loc 1 1060 3 discriminator 2
.LVL96:
	.loc 1 1061 3 discriminator 2
	.loc 1 1061 8 discriminator 2
	.loc 1 1061 11 is_stmt 0 discriminator 2
	beq	s1,zero,.L57
	.loc 1 1061 17 is_stmt 1 discriminator 2
	.loc 1 1061 26 discriminator 2
	.loc 1 1062 3 discriminator 2
	.loc 1 1065 3 discriminator 2
	.loc 1 1067 11 is_stmt 0 discriminator 2
	lw	a5,40(s1)
	.loc 1 1065 20 discriminator 2
	sh	zero,18(s1)
	.loc 1 1067 3 is_stmt 1 discriminator 2
	.loc 1 1067 6 is_stmt 0 discriminator 2
	li	a4,-1
	beq	a5,a4,.L60
	.loc 1 1069 5 is_stmt 1
	.loc 1 1070 5
	.loc 1 1070 39 is_stmt 0
	addi	a5,a5,2
.LVL97:
	.loc 1 1071 5 is_stmt 1
	.loc 1 1071 8 is_stmt 0
	li	a4,327680
	bgeu	a5,a4,.L79
	.loc 1 1070 13
	li	a4,5
	divu	a5,a5,a4
.LVL98:
	.loc 1 1074 5 is_stmt 1
	.loc 1 1074 24 is_stmt 0
	slli	a4,a5,16
	srli	a4,a4,16
	.loc 1 1075 5 is_stmt 1
	.loc 1 1075 8 is_stmt 0
	beq	a5,zero,.L62
.LVL99:
.L91:
	.loc 1 1074 22
	sh	a4,20(s1)
.L60:
	.loc 1 1078 5 is_stmt 1
	.loc 1 1082 3
	.loc 1 1082 11 is_stmt 0
	lw	a5,44(s1)
	.loc 1 1082 6
	li	a4,-1
	beq	a5,a4,.L64
	.loc 1 1084 5 is_stmt 1
	.loc 1 1085 5
	.loc 1 1085 39 is_stmt 0
	addi	a5,a5,2
.LVL100:
	.loc 1 1086 5 is_stmt 1
	.loc 1 1086 8 is_stmt 0
	li	a4,327680
	bgeu	a5,a4,.L80
	.loc 1 1085 13
	li	a4,5
	divu	a5,a5,a4
.LVL101:
	.loc 1 1089 5 is_stmt 1
	.loc 1 1089 24 is_stmt 0
	slli	a4,a5,16
	srli	a4,a4,16
	.loc 1 1090 5 is_stmt 1
	.loc 1 1090 8 is_stmt 0
	beq	a5,zero,.L66
.LVL102:
.L92:
	.loc 1 1089 22
	sh	a4,10(s1)
.L67:
	.loc 1 1093 5 is_stmt 1
	.loc 1 1094 5
	.loc 1 1094 25 is_stmt 0
	lhu	a5,10(s1)
	sh	a5,14(s1)
.L64:
	.loc 1 1097 3 is_stmt 1
	.loc 1 1097 11 is_stmt 0
	lw	a5,48(s1)
	.loc 1 1097 6
	li	a4,-1
	beq	a5,a4,.L68
	.loc 1 1098 5 is_stmt 1
	.loc 1 1099 5
	.loc 1 1099 40 is_stmt 0
	addi	a5,a5,2
.LVL103:
	.loc 1 1100 5 is_stmt 1
	.loc 1 1100 8 is_stmt 0
	li	a4,327680
	bgeu	a5,a4,.L81
	.loc 1 1099 13
	li	a4,5
	divu	a5,a5,a4
.LVL104:
	.loc 1 1103 5 is_stmt 1
	.loc 1 1103 24 is_stmt 0
	slli	a4,a5,16
	srli	a4,a4,16
	.loc 1 1104 5 is_stmt 1
	.loc 1 1104 8 is_stmt 0
	beq	a5,zero,.L70
.LVL105:
.L93:
	.loc 1 1103 22
	sh	a4,12(s1)
.L71:
	.loc 1 1107 5 is_stmt 1
	.loc 1 1108 5
	.loc 1 1108 26 is_stmt 0
	lhu	a5,12(s1)
	sh	a5,16(s1)
.L68:
	.loc 1 1112 3 is_stmt 1
	.loc 1 1112 32 is_stmt 0
	lhu	a5,12(s1)
	.loc 1 1112 6
	lhu	a4,10(s1)
	bltu	a4,a5,.L72
	.loc 1 1112 46 discriminator 1
	beq	a5,zero,.L72
	.loc 1 1113 5 is_stmt 1
	.loc 1 1113 22 is_stmt 0
	sh	zero,10(s1)
.L72:
	.loc 1 1116 3 is_stmt 1
	.loc 1 1116 6 is_stmt 0
	lbu	a5,7(s1)
	beq	a5,zero,.L73
	.loc 1 1118 5 is_stmt 1
	.loc 1 1118 21 is_stmt 0
	lw	a5,32(s1)
.L98:
.LBB131:
	.loc 1 1127 25
	sw	a5,-24(s0)
.LBE131:
	.loc 1 1131 3 is_stmt 1
	.loc 1 1131 44 is_stmt 0
	lw	a5,36(s1)
	.loc 1 1131 19
	sw	a5,-20(s0)
	.loc 1 1133 3 is_stmt 1
	.loc 1 1133 6 is_stmt 0
	bne	a5,zero,.L77
	.loc 1 1135 5 is_stmt 1
	.loc 1 1135 10
	.loc 1 1135 93
	.loc 1 1137 5
	.loc 1 1135 63 is_stmt 0
	lw	a4,-24(s0)
	lw	a5,28(s1)
	and	a5,a5,a4
	.loc 1 1137 45
	li	a4,16777216
	or	a5,a5,a4
	.loc 1 1137 23
	sw	a5,-20(s0)
.L77:
	.loc 1 1148 113 is_stmt 1
	.loc 1 1151 3
	li	a1,10
	mv	a0,s1
.LVL106:
	call	dhcp_set_state
.LVL107:
	.loc 1 1153 3
	addi	a3,s0,-20
	addi	a2,s0,-24
	addi	a1,s1,28
	mv	a0,s2
	call	netif_set_addr
.LVL108:
.L57:
	.loc 1 1155 1 is_stmt 0
	lw	ra,28(sp)
	.cfi_remember_state
	.cfi_restore 1
	lw	s0,24(sp)
	.cfi_restore 8
	.cfi_def_cfa 2, 32
	lw	s1,20(sp)
	.cfi_restore 9
.LVL109:
	lw	s2,16(sp)
	.cfi_restore 18
.LVL110:
	addi	sp,sp,32
	.cfi_def_cfa_offset 0
	jr	ra
.LVL111:
.L79:
	.cfi_restore_state
	.loc 1 1072 15
	li	a4,65536
	addi	a4,a4,-1
	j	.L91
.LVL112:
.L62:
	.loc 1 1076 7 is_stmt 1
	.loc 1 1076 24 is_stmt 0
	li	a5,1
.LVL113:
	sh	a5,20(s1)
	j	.L60
.LVL114:
.L80:
	.loc 1 1087 15
	li	a4,65536
	addi	a4,a4,-1
	j	.L92
.LVL115:
.L66:
	.loc 1 1091 7 is_stmt 1
	.loc 1 1091 24 is_stmt 0
	li	a5,1
.LVL116:
	sh	a5,10(s1)
	j	.L67
.LVL117:
.L81:
	.loc 1 1101 15
	li	a4,65536
	addi	a4,a4,-1
	j	.L93
.LVL118:
.L70:
	.loc 1 1105 7 is_stmt 1
	.loc 1 1105 24 is_stmt 0
	li	a5,1
.LVL119:
	sh	a5,12(s1)
	j	.L71
.LVL120:
.L73:
.LBB132:
	.loc 1 1121 5 is_stmt 1
	.loc 1 1121 10 is_stmt 0
	lbu	a5,28(s1)
.LVL121:
	.loc 1 1122 5 is_stmt 1
	.loc 1 1122 8 is_stmt 0
	slli	a4,a5,24
	srai	a4,a4,24
	blt	a4,zero,.L75
	.loc 1 1123 7 is_stmt 1
	.loc 1 1123 25 is_stmt 0
	li	a5,255
.LVL122:
	j	.L98
.LVL123:
.L75:
	.loc 1 1124 12 is_stmt 1
	.loc 1 1124 15 is_stmt 0
	li	a4,191
	bleu	a5,a4,.L76
	.loc 1 1125 7 is_stmt 1
	.loc 1 1125 25 is_stmt 0
	li	a5,16777216
.LVL124:
.L99:
	.loc 1 1127 25
	addi	a5,a5,-1
	j	.L98
.LVL125:
.L76:
	.loc 1 1127 7 is_stmt 1
	.loc 1 1127 25 is_stmt 0
	li	a5,65536
.LVL126:
	j	.L99
.LVL127:
.L95:
	.cfi_def_cfa_register 2
	.cfi_restore 1
	.cfi_restore 8
	.cfi_restore 9
	.cfi_restore 18
	ret
.LBE132:
	.cfi_endproc
.LFE25:
	.size	dhcp_bind, .-dhcp_bind
	.section	.text.dhcp_inc_pcb_refcount,"ax",@progbits
	.align	1
	.type	dhcp_inc_pcb_refcount, @function
dhcp_inc_pcb_refcount:
.LFB5:
	.loc 1 227 1 is_stmt 1
	.cfi_startproc
	.loc 1 228 3
	.loc 1 227 1 is_stmt 0
	addi	sp,sp,-32
	.cfi_def_cfa_offset 32
	sw	s0,24(sp)
	sw	s1,20(sp)
	sw	ra,28(sp)
	sw	s2,16(sp)
	sw	s3,12(sp)
	.cfi_offset 8, -8
	.cfi_offset 9, -12
	.cfi_offset 1, -4
	.cfi_offset 18, -16
	.cfi_offset 19, -20
	addi	s0,sp,32
	.cfi_def_cfa 8, 0
	.loc 1 228 25
	lui	s1,%hi(.LANCHOR3)
	.loc 1 227 1
	.loc 1 228 6
	lbu	a5,%lo(.LANCHOR3)(s1)
	addi	s1,s1,%lo(.LANCHOR3)
	bne	a5,zero,.L101
	.loc 1 229 5 is_stmt 1
	.loc 1 229 10
	.loc 1 229 9
	.loc 1 229 19
	.loc 1 232 5
	.loc 1 232 14 is_stmt 0
	lui	s2,%hi(.LANCHOR2)
	.loc 1 232 16
	call	udp_new
.LVL128:
	.loc 1 232 14
	addi	s2,s2,%lo(.LANCHOR2)
	sw	a0,0(s2)
	.loc 1 234 5 is_stmt 1
	.loc 1 235 14 is_stmt 0
	li	a4,-1
	.loc 1 234 8
	beq	a0,zero,.L102
	.loc 1 238 5 is_stmt 1
	.loc 1 238 31 is_stmt 0
	lbu	a4,9(a0)
	.loc 1 241 5
	lui	s3,%hi(ip_addr_any)
	li	a2,68
	.loc 1 238 31
	ori	a4,a4,32
	.loc 1 238 29
	sb	a4,9(a0)
	.loc 1 241 5 is_stmt 1
	addi	a1,s3,%lo(ip_addr_any)
	call	udp_bind
.LVL129:
	.loc 1 242 5
	lw	a0,0(s2)
	li	a2,67
	addi	a1,s3,%lo(ip_addr_any)
	call	udp_connect
.LVL130:
	.loc 1 243 5
	lw	a0,0(s2)
	lui	a1,%hi(dhcp_recv)
	li	a2,0
	addi	a1,a1,%lo(dhcp_recv)
	call	udp_recv
.LVL131:
.L101:
	.loc 1 246 3
	.loc 1 246 20 is_stmt 0
	lbu	a5,0(s1)
	.loc 1 248 10
	li	a4,0
	.loc 1 246 20
	addi	a5,a5,1
	sb	a5,0(s1)
	.loc 1 248 3 is_stmt 1
.L102:
	.loc 1 249 1 is_stmt 0
	lw	ra,28(sp)
	.cfi_restore 1
	lw	s0,24(sp)
	.cfi_restore 8
	.cfi_def_cfa 2, 32
	lw	s1,20(sp)
	.cfi_restore 9
	lw	s2,16(sp)
	.cfi_restore 18
	lw	s3,12(sp)
	.cfi_restore 19
	mv	a0,a4
	addi	sp,sp,32
	.cfi_def_cfa_offset 0
	jr	ra
	.cfi_endproc
.LFE5:
	.size	dhcp_inc_pcb_refcount, .-dhcp_inc_pcb_refcount
	.section	.text.dhcp_dec_pcb_refcount,"ax",@progbits
	.align	1
	.type	dhcp_dec_pcb_refcount, @function
dhcp_dec_pcb_refcount:
.LFB6:
	.loc 1 254 1 is_stmt 1
	.cfi_startproc
	.loc 1 255 3
	.loc 1 255 8
	.loc 1 255 42
	.loc 1 255 52
	.loc 1 256 3
	.loc 1 255 12 is_stmt 0
	lui	a4,%hi(.LANCHOR3)
	addi	a4,a4,%lo(.LANCHOR3)
	.loc 1 256 20
	lbu	a5,0(a4)
	addi	a5,a5,-1
	andi	a5,a5,0xff
	sb	a5,0(a4)
	.loc 1 258 3 is_stmt 1
	.loc 1 258 6 is_stmt 0
	bne	a5,zero,.L108
.LBB135:
.LBB136:
	.loc 1 259 5 is_stmt 1
.LBE136:
.LBE135:
	.loc 1 254 1 is_stmt 0
	addi	sp,sp,-16
	.cfi_def_cfa_offset 16
	sw	s0,8(sp)
	sw	s1,4(sp)
	sw	ra,12(sp)
	.cfi_offset 8, -8
	.cfi_offset 9, -12
	.cfi_offset 1, -4
	addi	s0,sp,16
	.cfi_def_cfa 8, 0
.LBB140:
.LBB137:
	.loc 1 259 5
	lui	s1,%hi(.LANCHOR2)
.LBE137:
.LBE140:
	.loc 1 254 1
.LBB141:
.LBB138:
	.loc 1 259 5
	addi	s1,s1,%lo(.LANCHOR2)
	lw	a0,0(s1)
	call	udp_remove
.LVL132:
	.loc 1 260 5 is_stmt 1
.LBE138:
.LBE141:
	.loc 1 262 1 is_stmt 0
	lw	ra,12(sp)
	.cfi_restore 1
	lw	s0,8(sp)
	.cfi_restore 8
	.cfi_def_cfa 2, 16
.LBB142:
.LBB139:
	.loc 1 260 14
	sw	zero,0(s1)
.LBE139:
.LBE142:
	.loc 1 262 1
	lw	s1,4(sp)
	.cfi_restore 9
	addi	sp,sp,16
	.cfi_def_cfa_offset 0
	jr	ra
.L108:
	ret
	.cfi_endproc
.LFE6:
	.size	dhcp_dec_pcb_refcount, .-dhcp_dec_pcb_refcount
	.section	.text.dhcp_reboot.isra.0,"ax",@progbits
	.align	1
	.type	dhcp_reboot.isra.0, @function
dhcp_reboot.isra.0:
.LFB48:
	.loc 1 1274 1 is_stmt 1
	.cfi_startproc
.LVL133:
	.loc 1 1276 3
	.loc 1 1274 1 is_stmt 0
	addi	sp,sp,-48
	.cfi_def_cfa_offset 48
	sw	s0,40(sp)
	sw	s4,24(sp)
	sw	ra,44(sp)
	sw	s1,36(sp)
	sw	s2,32(sp)
	sw	s3,28(sp)
	sw	s5,20(sp)
	sw	s6,16(sp)
	.cfi_offset 8, -8
	.cfi_offset 20, -24
	.cfi_offset 1, -4
	.cfi_offset 9, -12
	.cfi_offset 18, -16
	.cfi_offset 19, -20
	.cfi_offset 21, -28
	.cfi_offset 22, -32
	addi	s0,sp,48
	.cfi_def_cfa 8, 0
	.loc 1 1276 16
	lw	s2,40(a0)
.LVL134:
	.loc 1 1277 3 is_stmt 1
	.loc 1 1278 3
	.loc 1 1279 3
	.loc 1 1280 3
	.loc 1 1281 3
	.loc 1 1283 3
	.loc 1 1284 3
	.loc 1 1274 1 is_stmt 0
	mv	s4,a0
	.loc 1 1284 3
	li	a1,3
	mv	a0,s2
.LVL135:
	call	dhcp_set_state
.LVL136:
	.loc 1 1287 3 is_stmt 1
	.loc 1 1287 11 is_stmt 0
	addi	a3,s0,-34
	li	a2,3
	mv	a1,s2
	mv	a0,s4
	call	dhcp_create_msg
.LVL137:
	.loc 1 1288 3 is_stmt 1
	.loc 1 1288 6 is_stmt 0
	beq	a0,zero,.L112
.LBB143:
	.loc 1 1290 59
	lw	s1,4(a0)
	.loc 1 1290 23
	lhu	a5,-34(s0)
	mv	s3,a0
	.loc 1 1289 5 is_stmt 1
.LVL138:
	.loc 1 1290 5
	.loc 1 1290 59 is_stmt 0
	addi	s1,s1,240
.LVL139:
.LBB144:
.LBB145:
	.loc 1 1448 3 is_stmt 1
	.loc 1 1448 8
	.loc 1 1448 59
	.loc 1 1448 69
	.loc 1 1449 3
	.loc 1 1449 30 is_stmt 0
	add	a4,s1,a5
	.loc 1 1450 26
	addi	a0,a5,2
.LVL140:
	.loc 1 1449 26
	addi	a5,a5,1
.LVL141:
	.loc 1 1450 26
	slli	a5,a5,16
.LVL142:
	.loc 1 1449 30
	li	a3,57
	.loc 1 1450 26
	srli	a5,a5,16
	.loc 1 1449 30
	sb	a3,0(a4)
.LVL143:
	.loc 1 1450 3 is_stmt 1
	.loc 1 1450 30 is_stmt 0
	add	a5,s1,a5
	li	a4,2
	.loc 1 1450 26
	slli	a0,a0,16
.LVL144:
	.loc 1 1450 30
	sb	a4,0(a5)
.LBE145:
.LBE144:
	.loc 1 1291 23
	li	a2,576
	mv	a1,s1
.LBB147:
.LBB146:
	.loc 1 1450 26
	srli	a0,a0,16
.LVL145:
	.loc 1 1451 3 is_stmt 1
.LBE146:
.LBE147:
	.loc 1 1290 21 is_stmt 0
	sh	a0,-34(s0)
	.loc 1 1291 5 is_stmt 1
	.loc 1 1291 23 is_stmt 0
	call	dhcp_option_short
.LVL146:
	.loc 1 1293 5 is_stmt 1
.LBB148:
.LBB149:
	.loc 1 1448 3
	.loc 1 1448 8
	.loc 1 1448 59
	.loc 1 1448 69
	.loc 1 1449 3
	.loc 1 1449 26 is_stmt 0
	addi	a5,a0,1
	.loc 1 1450 26
	slli	a5,a5,16
	.loc 1 1449 30
	add	a4,s1,a0
	li	a3,50
	.loc 1 1450 26
	srli	a5,a5,16
	.loc 1 1449 30
	sb	a3,0(a4)
	.loc 1 1450 3 is_stmt 1
	.loc 1 1450 30 is_stmt 0
	add	a5,s1,a5
	li	s6,4
	sb	s6,0(a5)
	.loc 1 1450 26
	addi	s5,a0,2
.LBE149:
.LBE148:
	.loc 1 1294 23
	lw	a0,28(s2)
.LVL147:
.LBB151:
.LBB150:
	.loc 1 1450 26
	slli	s5,s5,16
	srli	s5,s5,16
.LVL148:
	.loc 1 1451 3 is_stmt 1
.LBE150:
.LBE151:
	.loc 1 1293 21 is_stmt 0
	sh	s5,-34(s0)
	.loc 1 1294 5 is_stmt 1
	.loc 1 1294 23 is_stmt 0
	call	lwip_htonl
.LVL149:
	mv	a2,a0
	mv	a1,s1
	mv	a0,s5
	call	dhcp_option_long
.LVL150:
	.loc 1 1296 5 is_stmt 1
.LBB152:
.LBB153:
	.loc 1 1448 3
	.loc 1 1448 8
	.loc 1 1448 59
	.loc 1 1448 69
	.loc 1 1449 3
	.loc 1 1449 30 is_stmt 0
	add	a5,s1,a0
	li	a4,55
	sb	a4,0(a5)
	.loc 1 1450 3 is_stmt 1
.LVL151:
	.loc 1 1449 26 is_stmt 0
	addi	a5,a0,1
	.loc 1 1450 26
	slli	a5,a5,16
	srli	a5,a5,16
	.loc 1 1450 30
	add	a5,s1,a5
	sb	s6,0(a5)
	.loc 1 1451 3 is_stmt 1
.LVL152:
	.loc 1 1450 26 is_stmt 0
	addi	a0,a0,2
.LBE153:
.LBE152:
	.loc 1 1298 25
	lui	a3,%hi(.LANCHOR1)
	.loc 1 1296 21
	sh	a0,-34(s0)
	.loc 1 1297 5 is_stmt 1
.LVL153:
	.loc 1 1297 17
	.loc 1 1296 21 is_stmt 0
	li	a5,0
	.loc 1 1298 25
	addi	a3,a3,%lo(.LANCHOR1)
	.loc 1 1297 5
	li	a2,4
.LVL154:
.L113:
	.loc 1 1298 7 is_stmt 1
	.loc 1 1298 25 is_stmt 0
	lhu	a4,-34(s0)
	add	a1,a3,a5
	lbu	a1,0(a1)
.LVL155:
.LBB154:
.LBB155:
	.loc 1 1460 3 is_stmt 1
	.loc 1 1460 8
	.loc 1 1460 40
	.loc 1 1460 50
	.loc 1 1461 3
	.loc 1 1461 26 is_stmt 0
	addi	a0,a4,1
	slli	a0,a0,16
	.loc 1 1461 30
	add	a4,s1,a4
.LVL156:
	.loc 1 1461 26
	srli	a0,a0,16
.LVL157:
	.loc 1 1461 30
	sb	a1,0(a4)
	.loc 1 1462 3 is_stmt 1
.LVL158:
.LBE155:
.LBE154:
	.loc 1 1298 23 is_stmt 0
	sh	a0,-34(s0)
	.loc 1 1297 105 is_stmt 1
.LVL159:
	.loc 1 1297 17
	.loc 1 1297 5 is_stmt 0
	addi	a5,a5,1
.LVL160:
	bne	a5,a2,.L113
	.loc 1 1302 5 is_stmt 1
	.loc 1 1302 23 is_stmt 0
	mv	a2,s4
	mv	a1,s1
	call	dhcp_option_hostname
.LVL161:
	.loc 1 1306 5
	mv	a2,s3
	mv	a1,s1
	.loc 1 1302 21
	sh	a0,-34(s0)
	.loc 1 1305 5 is_stmt 1
	.loc 1 1306 5
	call	dhcp_option_trailer
.LVL162:
	.loc 1 1309 5
	.loc 1 1309 14 is_stmt 0
	lui	a5,%hi(.LANCHOR2)
	lw	a0,%lo(.LANCHOR2)(a5)
	lui	a2,%hi(ip_addr_broadcast)
	mv	a4,s4
	li	a3,67
	addi	a2,a2,%lo(ip_addr_broadcast)
	mv	a1,s3
	call	udp_sendto_if
.LVL163:
	.loc 1 1310 5 is_stmt 1
	mv	a0,s3
	call	pbuf_free
.LVL164:
	.loc 1 1311 5
.L112:
.LBE143:
	.loc 1 1316 3
	.loc 1 1316 11 is_stmt 0
	lbu	a5,6(s2)
	.loc 1 1316 6
	li	a4,255
	beq	a5,a4,.L114
	.loc 1 1317 5 is_stmt 1
	.loc 1 1317 16 is_stmt 0
	addi	a5,a5,1
	sb	a5,6(s2)
.L114:
	.loc 1 1319 3 is_stmt 1
	.loc 1 1319 23 is_stmt 0
	lbu	a5,6(s2)
	.loc 1 1319 11
	li	a4,9
	bgtu	a5,a4,.L116
	li	a4,1000
	mul	a5,a5,a4
	slli	a5,a5,16
	srli	a5,a5,16
.L115:
.LVL165:
	.loc 1 1320 3 is_stmt 1
	.loc 1 1320 48 is_stmt 0
	addi	a5,a5,499
.LVL166:
	slli	a5,a5,16
	srli	a5,a5,16
	.loc 1 1320 53
	li	a4,500
	div	a5,a5,a4
	.loc 1 1320 27
	sh	a5,8(s2)
	.loc 1 1321 3 is_stmt 1
	.loc 1 1322 3
	.loc 1 1323 1 is_stmt 0
	lw	ra,44(sp)
	.cfi_remember_state
	.cfi_restore 1
	lw	s0,40(sp)
	.cfi_restore 8
	.cfi_def_cfa 2, 48
	lw	s1,36(sp)
	.cfi_restore 9
	lw	s2,32(sp)
	.cfi_restore 18
.LVL167:
	lw	s3,28(sp)
	.cfi_restore 19
	lw	s4,24(sp)
	.cfi_restore 20
.LVL168:
	lw	s5,20(sp)
	.cfi_restore 21
	lw	s6,16(sp)
	.cfi_restore 22
	addi	sp,sp,48
	.cfi_def_cfa_offset 0
	jr	ra
.LVL169:
.L116:
	.cfi_restore_state
	.loc 1 1319 11
	li	a5,8192
	addi	a5,a5,1808
	j	.L115
	.cfi_endproc
.LFE48:
	.size	dhcp_reboot.isra.0, .-dhcp_reboot.isra.0
	.section	.rodata.dhcp_handle_ack.isra.0.str1.4,"aMS",@progbits,1
	.align	2
.LC0:
	.string	" IP:%u.%u.%u.%u\r\n MASK: %u.%u.%u.%u\r\n Gateway: %u.%u.%u.%u\r\n"
	.section	.text.dhcp_handle_ack.isra.0,"ax",@progbits
	.align	1
	.type	dhcp_handle_ack.isra.0, @function
dhcp_handle_ack.isra.0:
.LFB45:
	.loc 1 599 1 is_stmt 1
	.cfi_startproc
.LVL170:
	.loc 1 601 3
	.loc 1 604 3
	.loc 1 611 3
	.loc 1 599 1 is_stmt 0
	addi	sp,sp,-80
	.cfi_def_cfa_offset 80
	sw	s0,72(sp)
	sw	s1,68(sp)
	sw	s2,64(sp)
	sw	ra,76(sp)
	sw	s3,60(sp)
	.cfi_offset 8, -8
	.cfi_offset 9, -12
	.cfi_offset 18, -16
	.cfi_offset 1, -4
	.cfi_offset 19, -20
	.loc 1 618 29
	lui	s2,%hi(dhcp_rx_options_given)
	.loc 1 599 1
	addi	s0,sp,80
	.cfi_def_cfa 8, 0
	.loc 1 618 29
	addi	a5,s2,%lo(dhcp_rx_options_given)
	.loc 1 618 6
	lbu	a5,3(a5)
	.loc 1 611 35
	sw	zero,32(a0)
	.loc 1 612 3 is_stmt 1
	.loc 1 612 35 is_stmt 0
	sw	zero,36(a0)
	.loc 1 618 3 is_stmt 1
	.loc 1 599 1 is_stmt 0
	mv	s1,a0
	addi	s2,s2,%lo(dhcp_rx_options_given)
	.loc 1 618 6
	beq	a5,zero,.L123
	.loc 1 620 5 is_stmt 1
	.loc 1 620 50 is_stmt 0
	lui	a5,%hi(dhcp_rx_options_val+12)
	.loc 1 620 28
	lw	a5,%lo(dhcp_rx_options_val+12)(a5)
	sw	a5,40(a0)
.L123:
	.loc 1 623 3 is_stmt 1
	.loc 1 623 6 is_stmt 0
	lbu	a5,4(s2)
	beq	a5,zero,.L124
	.loc 1 625 5 is_stmt 1
	.loc 1 625 50 is_stmt 0
	lui	a5,%hi(dhcp_rx_options_val+16)
	lw	a5,%lo(dhcp_rx_options_val+16)(a5)
.L125:
	sw	a5,44(s1)
	.loc 1 632 3 is_stmt 1
	.loc 1 632 6 is_stmt 0
	lbu	a5,5(s2)
	beq	a5,zero,.L126
	.loc 1 634 5 is_stmt 1
	.loc 1 634 51 is_stmt 0
	lui	a5,%hi(dhcp_rx_options_val+20)
	lw	a5,%lo(dhcp_rx_options_val+20)(a5)
.L127:
	sw	a5,48(s1)
	.loc 1 641 3 is_stmt 1
	.loc 1 641 51 is_stmt 0
	lbu	a4,17(a1)
	lbu	a5,16(a1)
	slli	a4,a4,8
	or	a4,a4,a5
	lbu	a5,18(a1)
	slli	a5,a5,16
	or	a4,a5,a4
	lbu	a5,19(a1)
	slli	a5,a5,24
	or	a5,a5,a4
	.loc 1 641 33
	sw	a5,28(s1)
	.loc 1 650 3 is_stmt 1
	.loc 1 650 6 is_stmt 0
	lbu	a5,6(s2)
	beq	a5,zero,.L128
	.loc 1 652 5 is_stmt 1
	.loc 1 652 40 is_stmt 0
	lui	a5,%hi(dhcp_rx_options_val+24)
	lw	a0,%lo(dhcp_rx_options_val+24)(a5)
.LVL171:
	call	lwip_htonl
.LVL172:
	.loc 1 653 29
	li	a5,1
	.loc 1 652 37
	sw	a0,32(s1)
	.loc 1 653 5 is_stmt 1
	.loc 1 653 29 is_stmt 0
	sb	a5,7(s1)
.L129:
	.loc 1 659 3 is_stmt 1
	.loc 1 659 6 is_stmt 0
	lbu	a5,7(s2)
	beq	a5,zero,.L130
	.loc 1 660 5 is_stmt 1
	.loc 1 660 40 is_stmt 0
	lui	a5,%hi(dhcp_rx_options_val+28)
	lw	a0,%lo(dhcp_rx_options_val+28)(a5)
	call	lwip_htonl
.LVL173:
	.loc 1 660 37
	sw	a0,36(s1)
.L130:
.LVL174:
	.loc 1 673 15 is_stmt 1
	.loc 1 673 23 is_stmt 0
	lbu	a5,8(s2)
	beq	a5,zero,.L132
.LBB156:
	.loc 1 674 5 is_stmt 1
	.loc 1 675 5
	.loc 1 675 31 is_stmt 0
	lui	s3,%hi(dhcp_rx_options_val)
	addi	s3,s3,%lo(dhcp_rx_options_val)
	lw	a0,32(s3)
	call	lwip_htonl
.LVL175:
	.loc 1 675 28
	sw	a0,-36(s0)
	.loc 1 676 5 is_stmt 1
	addi	a1,s0,-36
	li	a0,0
	call	dns_setserver
.LVL176:
.LBE156:
	.loc 1 673 88
	.loc 1 673 15
	.loc 1 673 23 is_stmt 0
	lbu	a5,9(s2)
	beq	a5,zero,.L132
.LBB157:
	.loc 1 674 5 is_stmt 1
	.loc 1 675 5
	.loc 1 675 31 is_stmt 0
	lw	a0,36(s3)
	call	lwip_htonl
.LVL177:
	.loc 1 675 28
	sw	a0,-36(s0)
	.loc 1 676 5 is_stmt 1
	addi	a1,s0,-36
	li	a0,1
	call	dns_setserver
.LVL178:
.LBE157:
	.loc 1 673 88
	.loc 1 673 15
.L132:
	.loc 1 679 13
	.loc 1 688 58 is_stmt 0
	lw	a4,36(s1)
	.loc 1 680 58
	lw	a1,28(s1)
	.loc 1 684 58
	lw	a5,32(s1)
	.loc 1 691 78
	srli	a0,a4,24
	.loc 1 679 13
	sw	a0,16(sp)
	.loc 1 690 78
	srli	a0,a4,16
	.loc 1 679 13
	andi	a0,a0,255
	sw	a0,12(sp)
	.loc 1 689 78
	srli	a0,a4,8
	.loc 1 679 13
	andi	a0,a0,255
	andi	a4,a4,255
	sw	a0,8(sp)
	sw	a4,4(sp)
	.loc 1 686 78
	srli	a7,a5,16
	.loc 1 687 78
	srli	a4,a5,24
	.loc 1 685 78
	srli	a6,a5,8
	.loc 1 682 78
	srli	a3,a1,16
	.loc 1 681 78
	srli	a2,a1,8
	.loc 1 679 13
	lui	a0,%hi(.LC0)
	sw	a4,0(sp)
	andi	a7,a7,0xff
	srli	a4,a1,24
	andi	a6,a6,0xff
	andi	a5,a5,0xff
	andi	a3,a3,0xff
	andi	a2,a2,0xff
	andi	a1,a1,0xff
	addi	a0,a0,%lo(.LC0)
	call	printf
.LVL179:
	.loc 1 693 1
	lw	ra,76(sp)
	.cfi_remember_state
	.cfi_restore 1
	lw	s0,72(sp)
	.cfi_restore 8
	.cfi_def_cfa 2, 80
	lw	s1,68(sp)
	.cfi_restore 9
.LVL180:
	lw	s2,64(sp)
	.cfi_restore 18
	lw	s3,60(sp)
	.cfi_restore 19
	addi	sp,sp,80
	.cfi_def_cfa_offset 0
	jr	ra
.LVL181:
.L124:
	.cfi_restore_state
	.loc 1 628 5 is_stmt 1
	.loc 1 628 53 is_stmt 0
	lw	a5,40(s1)
	srli	a5,a5,1
	j	.L125
.L126:
	.loc 1 637 5 is_stmt 1
	.loc 1 637 55 is_stmt 0
	lw	a4,40(s1)
	li	a5,7
	mul	a5,a5,a4
	.loc 1 637 61
	srli	a5,a5,3
	j	.L127
.L128:
	.loc 1 655 5 is_stmt 1
	.loc 1 655 29 is_stmt 0
	sb	zero,7(s1)
	j	.L129
	.cfi_endproc
.LFE45:
	.size	dhcp_handle_ack.isra.0, .-dhcp_handle_ack.isra.0
	.section	.text.dhcp_select.isra.0,"ax",@progbits
	.align	1
	.type	dhcp_select.isra.0, @function
dhcp_select.isra.0:
.LFB44:
	.loc 1 366 1 is_stmt 1
	.cfi_startproc
.LVL182:
	.loc 1 368 3
	.loc 1 369 3
	.loc 1 370 3
	.loc 1 371 3
	.loc 1 372 3
	.loc 1 373 3
	.loc 1 375 3
	.loc 1 375 8
	.loc 1 375 11 is_stmt 0
	beq	a0,zero,.L162
	.loc 1 366 1
	addi	sp,sp,-48
	.cfi_def_cfa_offset 48
	sw	s0,40(sp)
	sw	s4,24(sp)
	sw	ra,44(sp)
	sw	s1,36(sp)
	sw	s2,32(sp)
	sw	s3,28(sp)
	sw	s5,20(sp)
	sw	s6,16(sp)
	.cfi_offset 8, -8
	.cfi_offset 20, -24
	.cfi_offset 1, -4
	.cfi_offset 9, -12
	.cfi_offset 18, -16
	.cfi_offset 19, -20
	.cfi_offset 21, -28
	.cfi_offset 22, -32
	addi	s0,sp,48
	.cfi_def_cfa 8, 0
	.loc 1 376 8
	lw	s2,40(a0)
	mv	s4,a0
	.loc 1 375 25 is_stmt 1
	.loc 1 375 34
	.loc 1 376 3
.LVL183:
	.loc 1 377 3
	.loc 1 377 8
	.loc 1 377 11 is_stmt 0
	beq	s2,zero,.L144
	.loc 1 377 25 is_stmt 1
	.loc 1 377 34
	.loc 1 379 3
	.loc 1 380 3
	li	a1,1
	mv	a0,s2
.LVL184:
	call	dhcp_set_state
.LVL185:
	.loc 1 383 3
	.loc 1 383 11 is_stmt 0
	addi	a3,s0,-34
	li	a2,3
	mv	a1,s2
	mv	a0,s4
	call	dhcp_create_msg
.LVL186:
	mv	s3,a0
.LVL187:
	.loc 1 384 3 is_stmt 1
	.loc 1 384 6 is_stmt 0
	beq	a0,zero,.L146
.LBB158:
	.loc 1 385 5 is_stmt 1
.LVL188:
	.loc 1 386 5
	.loc 1 386 59 is_stmt 0
	lw	s1,4(a0)
	.loc 1 386 23
	lhu	a5,-34(s0)
.LBB159:
.LBB160:
	.loc 1 1449 30
	li	a3,57
.LBE160:
.LBE159:
	.loc 1 386 59
	addi	s1,s1,240
.LVL189:
.LBB164:
.LBB161:
	.loc 1 1448 3 is_stmt 1
	.loc 1 1448 8
	.loc 1 1448 59
	.loc 1 1448 69
	.loc 1 1449 3
	.loc 1 1449 30 is_stmt 0
	add	a4,s1,a5
	.loc 1 1450 26
	addi	a0,a5,2
.LVL190:
	.loc 1 1449 26
	addi	a5,a5,1
.LVL191:
	.loc 1 1450 26
	slli	a5,a5,16
.LVL192:
	srli	a5,a5,16
	.loc 1 1449 30
	sb	a3,0(a4)
.LVL193:
	.loc 1 1450 3 is_stmt 1
	.loc 1 1450 30 is_stmt 0
	add	a5,s1,a5
	li	a4,2
	sb	a4,0(a5)
.LBE161:
.LBE164:
	.loc 1 387 23
	lhu	a2,56(s4)
.LBB165:
.LBB162:
	.loc 1 1450 26
	slli	a0,a0,16
.LVL194:
.LBE162:
.LBE165:
	.loc 1 387 23
	mv	a1,s1
.LBB166:
.LBB163:
	.loc 1 1450 26
	srli	a0,a0,16
.LVL195:
	.loc 1 1451 3 is_stmt 1
.LBE163:
.LBE166:
	.loc 1 386 21 is_stmt 0
	sh	a0,-34(s0)
	.loc 1 387 5 is_stmt 1
	.loc 1 387 23 is_stmt 0
	call	dhcp_option_short
.LVL196:
	.loc 1 390 5 is_stmt 1
.LBB167:
.LBB168:
	.loc 1 1448 3
	.loc 1 1448 8
	.loc 1 1448 59
	.loc 1 1448 69
	.loc 1 1449 3
	.loc 1 1449 26 is_stmt 0
	addi	a5,a0,1
	.loc 1 1450 26
	slli	a5,a5,16
	.loc 1 1449 30
	add	a4,s1,a0
	li	a3,50
	.loc 1 1450 26
	srli	a5,a5,16
	.loc 1 1449 30
	sb	a3,0(a4)
	.loc 1 1450 3 is_stmt 1
	.loc 1 1450 30 is_stmt 0
	add	a5,s1,a5
	li	s6,4
	sb	s6,0(a5)
	.loc 1 1450 26
	addi	s5,a0,2
.LBE168:
.LBE167:
	.loc 1 391 23
	lw	a0,28(s2)
.LVL197:
.LBB170:
.LBB169:
	.loc 1 1450 26
	slli	s5,s5,16
	srli	s5,s5,16
.LVL198:
	.loc 1 1451 3 is_stmt 1
.LBE169:
.LBE170:
	.loc 1 390 21 is_stmt 0
	sh	s5,-34(s0)
	.loc 1 391 5 is_stmt 1
	.loc 1 391 23 is_stmt 0
	call	lwip_htonl
.LVL199:
	mv	a2,a0
	mv	a1,s1
	mv	a0,s5
	call	dhcp_option_long
.LVL200:
	.loc 1 393 5 is_stmt 1
.LBB171:
.LBB172:
	.loc 1 1448 3
	.loc 1 1448 8
	.loc 1 1448 59
	.loc 1 1448 69
	.loc 1 1449 3
	.loc 1 1449 26 is_stmt 0
	addi	a5,a0,1
	.loc 1 1450 26
	slli	a5,a5,16
	.loc 1 1449 30
	add	a4,s1,a0
	li	a3,54
	.loc 1 1450 26
	srli	a5,a5,16
	.loc 1 1449 30
	sb	a3,0(a4)
	.loc 1 1450 3 is_stmt 1
	.loc 1 1450 30 is_stmt 0
	add	a5,s1,a5
	sb	s6,0(a5)
	.loc 1 1450 26
	addi	s5,a0,2
.LBE172:
.LBE171:
	.loc 1 394 23
	lw	a0,24(s2)
.LVL201:
.LBB174:
.LBB173:
	.loc 1 1450 26
	slli	s5,s5,16
	srli	s5,s5,16
.LVL202:
	.loc 1 1451 3 is_stmt 1
.LBE173:
.LBE174:
	.loc 1 393 21 is_stmt 0
	sh	s5,-34(s0)
	.loc 1 394 5 is_stmt 1
	.loc 1 394 23 is_stmt 0
	call	lwip_htonl
.LVL203:
	mv	a2,a0
	mv	a1,s1
	mv	a0,s5
	call	dhcp_option_long
.LVL204:
	.loc 1 396 5 is_stmt 1
.LBB175:
.LBB176:
	.loc 1 1448 3
	.loc 1 1448 8
	.loc 1 1448 59
	.loc 1 1448 69
	.loc 1 1449 3
	.loc 1 1449 30 is_stmt 0
	add	a5,s1,a0
	li	a4,55
	sb	a4,0(a5)
	.loc 1 1450 3 is_stmt 1
.LVL205:
	.loc 1 1449 26 is_stmt 0
	addi	a5,a0,1
	.loc 1 1450 26
	slli	a5,a5,16
	srli	a5,a5,16
	.loc 1 1450 30
	add	a5,s1,a5
	sb	s6,0(a5)
	.loc 1 1451 3 is_stmt 1
.LVL206:
	.loc 1 1450 26 is_stmt 0
	addi	a0,a0,2
.LBE176:
.LBE175:
	.loc 1 398 25
	lui	a3,%hi(.LANCHOR1)
	.loc 1 396 21
	sh	a0,-34(s0)
	.loc 1 397 5 is_stmt 1
.LVL207:
	.loc 1 397 17
	.loc 1 396 21 is_stmt 0
	li	a5,0
	.loc 1 398 25
	addi	a3,a3,%lo(.LANCHOR1)
	.loc 1 397 5
	li	a2,4
.LVL208:
.L147:
	.loc 1 398 7 is_stmt 1
	.loc 1 398 25 is_stmt 0
	lhu	a4,-34(s0)
	add	a1,a3,a5
	lbu	a1,0(a1)
.LVL209:
.LBB177:
.LBB178:
	.loc 1 1460 3 is_stmt 1
	.loc 1 1460 8
	.loc 1 1460 40
	.loc 1 1460 50
	.loc 1 1461 3
	.loc 1 1461 26 is_stmt 0
	addi	a0,a4,1
	slli	a0,a0,16
	.loc 1 1461 30
	add	a4,s1,a4
.LVL210:
	.loc 1 1461 26
	srli	a0,a0,16
.LVL211:
	.loc 1 1461 30
	sb	a1,0(a4)
	.loc 1 1462 3 is_stmt 1
.LVL212:
.LBE178:
.LBE177:
	.loc 1 398 23 is_stmt 0
	sh	a0,-34(s0)
	.loc 1 397 105 is_stmt 1
.LVL213:
	.loc 1 397 17
	.loc 1 397 5 is_stmt 0
	addi	a5,a5,1
.LVL214:
	bne	a5,a2,.L147
	.loc 1 402 5 is_stmt 1
	.loc 1 402 23 is_stmt 0
	mv	a2,s4
	mv	a1,s1
	call	dhcp_option_hostname
.LVL215:
	.loc 1 406 5
	mv	a2,s3
	mv	a1,s1
	.loc 1 402 21
	sh	a0,-34(s0)
	.loc 1 405 5 is_stmt 1
	.loc 1 406 5
	call	dhcp_option_trailer
.LVL216:
	.loc 1 409 5
	.loc 1 409 14 is_stmt 0
	lui	a0,%hi(.LANCHOR2)
	lw	a0,%lo(.LANCHOR2)(a0)
	lui	a5,%hi(ip_addr_any)
	lui	a2,%hi(ip_addr_broadcast)
	addi	a5,a5,%lo(ip_addr_any)
	mv	a4,s4
	li	a3,67
	addi	a2,a2,%lo(ip_addr_broadcast)
	mv	a1,s3
	call	udp_sendto_if_src
.LVL217:
	.loc 1 410 5 is_stmt 1
	mv	a0,s3
	call	pbuf_free
.LVL218:
	.loc 1 411 5
.L146:
.LBE158:
	.loc 1 416 3
	.loc 1 416 11 is_stmt 0
	lbu	a5,6(s2)
	.loc 1 416 6
	li	a4,255
	beq	a5,a4,.L148
	.loc 1 417 5 is_stmt 1
	.loc 1 417 16 is_stmt 0
	addi	a5,a5,1
	sb	a5,6(s2)
.L148:
	.loc 1 419 3 is_stmt 1
	.loc 1 419 24 is_stmt 0
	lbu	a4,6(s2)
	.loc 1 419 11
	li	a5,5
	bgtu	a4,a5,.L150
	.loc 1 419 40
	li	a5,1
	sll	a5,a5,a4
	.loc 1 419 11
	li	a4,1000
	mul	a5,a5,a4
	slli	a5,a5,16
	srli	a5,a5,16
.L149:
.LVL219:
	.loc 1 420 3 is_stmt 1
	.loc 1 420 48 is_stmt 0
	addi	a5,a5,499
.LVL220:
	slli	a5,a5,16
	srli	a5,a5,16
	.loc 1 420 53
	li	a4,500
	div	a5,a5,a4
	.loc 1 420 27
	sh	a5,8(s2)
	.loc 1 421 3 is_stmt 1
	.loc 1 422 3
.LVL221:
.L144:
	.loc 1 423 1 is_stmt 0
	lw	ra,44(sp)
	.cfi_remember_state
	.cfi_restore 1
	lw	s0,40(sp)
	.cfi_restore 8
	.cfi_def_cfa 2, 48
	lw	s1,36(sp)
	.cfi_restore 9
	lw	s2,32(sp)
	.cfi_restore 18
.LVL222:
	lw	s3,28(sp)
	.cfi_restore 19
	lw	s4,24(sp)
	.cfi_restore 20
.LVL223:
	lw	s5,20(sp)
	.cfi_restore 21
	lw	s6,16(sp)
	.cfi_restore 22
	addi	sp,sp,48
	.cfi_def_cfa_offset 0
	jr	ra
.LVL224:
.L150:
	.cfi_restore_state
	.loc 1 419 11
	li	a5,61440
	addi	a5,a5,-1440
	j	.L149
.LVL225:
.L162:
	.cfi_def_cfa_register 2
	.cfi_restore 1
	.cfi_restore 8
	.cfi_restore 9
	.cfi_restore 18
	.cfi_restore 19
	.cfi_restore 20
	.cfi_restore 21
	.cfi_restore 22
	ret
	.cfi_endproc
.LFE44:
	.size	dhcp_select.isra.0, .-dhcp_select.isra.0
	.section	.text.dhcp_recv,"ax",@progbits
	.align	1
	.type	dhcp_recv, @function
dhcp_recv:
.LFB39:
	.loc 1 1769 1 is_stmt 1
	.cfi_startproc
.LVL226:
	.loc 1 1770 3
	.loc 1 1769 1 is_stmt 0
	addi	sp,sp,-112
	.cfi_def_cfa_offset 112
	sw	s0,104(sp)
	sw	s1,100(sp)
	sw	s2,96(sp)
	sw	ra,108(sp)
	sw	s3,92(sp)
	sw	s4,88(sp)
	sw	s5,84(sp)
	sw	s6,80(sp)
	sw	s7,76(sp)
	sw	s8,72(sp)
	sw	s9,68(sp)
	sw	s10,64(sp)
	sw	s11,60(sp)
	.cfi_offset 8, -8
	.cfi_offset 9, -12
	.cfi_offset 18, -16
	.cfi_offset 1, -4
	.cfi_offset 19, -20
	.cfi_offset 20, -24
	.cfi_offset 21, -28
	.cfi_offset 22, -32
	.cfi_offset 23, -36
	.cfi_offset 24, -40
	.cfi_offset 25, -44
	.cfi_offset 26, -48
	.cfi_offset 27, -52
	addi	s0,sp,112
	.cfi_def_cfa 8, 0
	.loc 1 1770 17
	lui	a5,%hi(ip_data+4)
	lw	s1,%lo(ip_data+4)(a5)
.LVL227:
	.loc 1 1771 3 is_stmt 1
	.loc 1 1769 1 is_stmt 0
	mv	s2,a2
	.loc 1 1771 16
	lw	s3,40(s1)
.LVL228:
	.loc 1 1772 3 is_stmt 1
	.loc 1 1773 3
	.loc 1 1774 3
	.loc 1 1775 3
	.loc 1 1777 3
	.loc 1 1780 3
	.loc 1 1780 6 is_stmt 0
	beq	s3,zero,.L168
	.loc 1 1780 21 discriminator 1
	lbu	a5,4(s3)
	beq	a5,zero,.L168
	.loc 1 1784 3 is_stmt 1 discriminator 1
	.loc 1 1784 8 discriminator 1
	.loc 1 1784 20 discriminator 1
	.loc 1 1784 30 discriminator 1
	.loc 1 1787 141 discriminator 1
	.loc 1 1788 3 discriminator 1
	.loc 1 1789 3 discriminator 1
	.loc 1 1791 3 discriminator 1
	.loc 1 1792 3 discriminator 1
	.loc 1 1793 3 discriminator 1
	.loc 1 1795 3 discriminator 1
	.loc 1 1795 6 is_stmt 0 discriminator 1
	lhu	a4,10(a2)
.LVL229:
	li	a5,43
	bleu	a4,a5,.L168
	.loc 1 1772 20
	lw	a5,4(a2)
	.loc 1 1800 3 is_stmt 1
	.loc 1 1800 6 is_stmt 0
	li	a4,2
	lbu	a3,0(a5)
.LVL230:
	bne	a3,a4,.L168
	.loc 1 1805 24
	lbu	a2,64(s1)
.LVL231:
	li	a4,0
	.loc 1 1805 37
	li	a3,6
.LVL232:
.L169:
	.loc 1 1805 15 is_stmt 1 discriminator 1
	.loc 1 1805 3 is_stmt 0 discriminator 1
	andi	a1,a4,0xff
	bleu	a2,a1,.L170
	.loc 1 1805 37 discriminator 3
	bne	a4,a3,.L171
.L170:
	.loc 1 1814 3 is_stmt 1
	.loc 1 1814 7 is_stmt 0
	lbu	a0,5(a5)
	lbu	a4,4(a5)
.LVL233:
	slli	a0,a0,8
	or	a0,a0,a4
	lbu	a4,6(a5)
	slli	a4,a4,16
	or	a4,a4,a0
	lbu	a0,7(a5)
	slli	a0,a0,24
	or	a0,a0,a4
	call	lwip_htonl
.LVL234:
	.loc 1 1814 6
	lw	a5,0(s3)
	bne	a0,a5,.L168
	.loc 1 1820 3 is_stmt 1
.LVL235:
.LBB189:
.LBB190:
	.loc 1 1523 3
	.loc 1 1524 3
	.loc 1 1525 3
	.loc 1 1526 3
	.loc 1 1527 3
	.loc 1 1528 3
	.loc 1 1529 3
	.loc 1 1530 3
	.loc 1 1531 3
	.loc 1 1536 3
	.loc 1 1539 3
	.loc 1 1539 4 is_stmt 0
	lui	s4,%hi(dhcp_rx_options_given)
	li	a2,10
	li	a1,0
	addi	a0,s4,%lo(dhcp_rx_options_given)
	call	memset
.LVL236:
	.loc 1 1541 3 is_stmt 1
	.loc 1 1541 6 is_stmt 0
	lhu	a4,10(s2)
	li	a5,43
	bleu	a4,a5,.L168
	.loc 1 1544 3 is_stmt 1
.LVL237:
	.loc 1 1553 3
	.loc 1 1555 3
	.loc 1 1555 19 is_stmt 0
	lhu	s7,8(s2)
.LVL238:
.LBB191:
.LBB192:
.LBB193:
	.loc 1 1681 46
	lui	s5,%hi(dhcp_rx_options_val)
.LBE193:
.LBE192:
.LBE191:
	.loc 1 1530 7
	sw	zero,-84(s0)
	.loc 1 1553 15
	li	s11,240
.LBB199:
.LBB196:
.LBB194:
	.loc 1 1681 46
	addi	s5,s5,%lo(dhcp_rx_options_val)
.LVL239:
.L172:
.LBE194:
.LBE196:
.LBE199:
	.loc 1 1557 3 is_stmt 1
	.loc 1 1558 3
	.loc 1 1558 9
	.loc 1 1553 15 is_stmt 0
	mv	s6,s2
.LVL240:
.L173:
	.loc 1 1558 41
	lhu	a5,10(s6)
	.loc 1 1558 21
	bleu	a5,s11,.L174
	.loc 1 1563 3 is_stmt 1
	.loc 1 1566 3
.LVL241:
	.loc 1 1567 3
	.loc 1 1568 3
	.loc 1 1568 11 is_stmt 0
	lw	a5,4(s6)
	mv	s8,s11
	sw	a5,-88(s0)
.LVL242:
	.loc 1 1570 3 is_stmt 1
	.loc 1 1570 9
	lui	a5,%hi(.L186)
.LVL243:
	addi	a5,a5,%lo(.L186)
	sw	a5,-92(s0)
	j	.L220
.LVL244:
.L171:
.LBE190:
.LBE189:
	.loc 1 1806 5
	.loc 1 1806 22 is_stmt 0
	add	a1,s1,a4
	.loc 1 1806 8
	addi	a4,a4,1
.LVL245:
	.loc 1 1806 46
	add	a0,a5,a4
	.loc 1 1806 22
	lbu	a1,58(a1)
	.loc 1 1806 8
	lbu	a0,27(a0)
	beq	a0,a1,.L169
.LVL246:
.L168:
	.loc 1 1877 3 is_stmt 1
	.loc 1 1878 1 is_stmt 0
	lw	s0,104(sp)
	.cfi_remember_state
	.cfi_restore 8
	.cfi_def_cfa 2, 112
	lw	ra,108(sp)
	.cfi_restore 1
	lw	s1,100(sp)
	.cfi_restore 9
.LVL247:
	lw	s3,92(sp)
	.cfi_restore 19
	lw	s4,88(sp)
	.cfi_restore 20
	lw	s5,84(sp)
	.cfi_restore 21
	lw	s6,80(sp)
	.cfi_restore 22
	lw	s7,76(sp)
	.cfi_restore 23
	lw	s8,72(sp)
	.cfi_restore 24
	lw	s9,68(sp)
	.cfi_restore 25
	lw	s10,64(sp)
	.cfi_restore 26
	lw	s11,60(sp)
	.cfi_restore 27
	.loc 1 1877 3
	mv	a0,s2
	.loc 1 1878 1
	lw	s2,96(sp)
	.cfi_restore 18
.LVL248:
	addi	sp,sp,112
	.cfi_def_cfa_offset 0
	.loc 1 1877 3
	tail	pbuf_free
.LVL249:
.L174:
	.cfi_restore_state
.LBB209:
.LBB206:
	.loc 1 1559 5 is_stmt 1
	.loc 1 1561 7 is_stmt 0
	lw	s6,0(s6)
.LVL250:
	.loc 1 1559 17
	sub	t3,s11,a5
	.loc 1 1560 21
	sub	t4,s7,a5
	.loc 1 1559 17
	slli	s11,t3,16
.LVL251:
	.loc 1 1560 21
	slli	s7,t4,16
.LVL252:
	.loc 1 1559 17
	srli	s11,s11,16
.LVL253:
	.loc 1 1560 5 is_stmt 1
	.loc 1 1560 21 is_stmt 0
	srli	s7,s7,16
.LVL254:
	.loc 1 1561 5 is_stmt 1
	.loc 1 1558 9
	bne	s6,zero,.L173
	j	.L168
.LVL255:
.L207:
.LBB200:
	.loc 1 1571 5
	.loc 1 1572 5
	.loc 1 1573 5
	.loc 1 1574 5
	.loc 1 1575 5
	.loc 1 1575 11 is_stmt 0
	addi	a3,s8,2
	slli	a3,a3,16
	srli	a3,a3,16
.LVL256:
	.loc 1 1576 5 is_stmt 1
	.loc 1 1576 8 is_stmt 0
	bltu	a3,s8,.L168
	.loc 1 1581 5 is_stmt 1
	.loc 1 1581 25 is_stmt 0
	lhu	a2,10(s6)
	.loc 1 1581 17
	addi	a1,s8,1
	.loc 1 1581 8
	bge	a1,a2,.L176
	.loc 1 1582 7 is_stmt 1
	.loc 1 1582 11 is_stmt 0
	lbu	a4,1(a4)
.LVL257:
.L177:
	.loc 1 1587 5 is_stmt 1
	.loc 1 1588 5
	li	a2,59
	bgtu	a5,a2,.L179
	li	a2,50
	bgtu	a5,a2,.L180
	li	a2,1
	beq	a5,a2,.L181
	bgtu	a5,a2,.L182
.LVL258:
.L179:
	.loc 1 1658 5
	.loc 1 1658 8 is_stmt 0
	bne	a5,zero,.L224
.LVL259:
.L183:
	.loc 1 1659 7 is_stmt 1
	.loc 1 1659 13 is_stmt 0
	slli	s8,a1,16
.LVL260:
	srli	s8,s8,16
.LVL261:
.L197:
	.loc 1 1702 5 is_stmt 1
	.loc 1 1702 20 is_stmt 0
	lhu	a5,10(s6)
	.loc 1 1702 8
	bgtu	a5,s8,.L220
	.loc 1 1703 7 is_stmt 1
	.loc 1 1703 14 is_stmt 0
	sub	a7,s8,a5
	.loc 1 1704 18
	sub	t4,s7,a5
	.loc 1 1703 14
	slli	s8,a7,16
.LVL262:
	.loc 1 1704 18
	slli	s7,t4,16
.LVL263:
	.loc 1 1703 14
	srli	s8,s8,16
.LVL264:
	.loc 1 1704 7 is_stmt 1
	.loc 1 1704 18 is_stmt 0
	srli	s7,s7,16
.LVL265:
	.loc 1 1705 7 is_stmt 1
	.loc 1 1705 10 is_stmt 0
	bgeu	s8,s7,.L168
	.loc 1 1706 9 is_stmt 1
	.loc 1 1706 11 is_stmt 0
	lw	s6,0(s6)
.LVL266:
	.loc 1 1707 9 is_stmt 1
	.loc 1 1707 14
	.loc 1 1707 17 is_stmt 0
	beq	s6,zero,.L168
	.loc 1 1707 30 is_stmt 1
	.loc 1 1707 39
	.loc 1 1708 9
	.loc 1 1708 17 is_stmt 0
	lw	a5,4(s6)
	sw	a5,-88(s0)
.LVL267:
.L220:
.LBE200:
	.loc 1 1570 21
	bgeu	s8,s7,.L206
	.loc 1 1570 57
	lw	a5,-88(s0)
	.loc 1 1570 46
	li	a3,255
	.loc 1 1570 57
	add	a4,a5,s8
	lbu	a5,0(a4)
	.loc 1 1570 46
	bne	a5,a3,.L207
.L206:
	.loc 1 1716 3 is_stmt 1
	.loc 1 1716 29 is_stmt 0
	addi	a4,s4,%lo(dhcp_rx_options_given)
	.loc 1 1716 6
	lbu	a5,0(a4)
	bne	a5,zero,.L208
.L213:
.LBB201:
	.loc 1 1730 7 is_stmt 1
.LBE201:
	.loc 1 1733 3
	.loc 1 1742 10
	.loc 1 1742 13 is_stmt 0
	lw	a5,-84(s0)
	bne	a5,zero,.L209
.LVL268:
.LBE206:
.LBE209:
	.loc 1 1826 3 is_stmt 1
	.loc 1 1828 3
	.loc 1 1828 6 is_stmt 0
	lui	a5,%hi(dhcp_rx_options_given)
	addi	a5,a5,%lo(dhcp_rx_options_given)
	lbu	a5,1(a5)
	beq	a5,zero,.L168
	.loc 1 1833 3 is_stmt 1
	.loc 1 1835 40 is_stmt 0
	lui	a5,%hi(dhcp_rx_options_val)
	addi	a5,a5,%lo(dhcp_rx_options_val)
	.loc 1 1835 12
	lbu	a4,4(a5)
	.loc 1 1837 6
	li	a3,5
	.loc 1 1833 10
	lw	a1,4(s2)
.LVL269:
	.loc 1 1835 3 is_stmt 1
	.loc 1 1837 3
	.loc 1 1837 6 is_stmt 0
	bne	a4,a3,.L214
	.loc 1 1838 5 is_stmt 1
	.loc 1 1840 5
	.loc 1 1840 13 is_stmt 0
	lbu	a5,5(s3)
	.loc 1 1840 8
	li	a4,1
.LVL270:
	bne	a5,a4,.L215
	.loc 1 1841 7 is_stmt 1
	lw	a0,40(s1)
	call	dhcp_handle_ack.isra.0
.LVL271:
	.loc 1 1843 7
	.loc 1 1843 10 is_stmt 0
	lbu	a5,65(s1)
	.loc 1 1845 9
	mv	a0,s1
	.loc 1 1843 10
	andi	a5,a5,8
	beq	a5,zero,.L260
	.loc 1 1845 9 is_stmt 1
	call	dhcp_check
.LVL272:
	j	.L168
.LVL273:
.L176:
.LBB210:
.LBB207:
.LBB202:
	.loc 1 1584 7
	.loc 1 1584 15 is_stmt 0
	lw	a4,0(s6)
	.loc 1 1584 11
	beq	a4,zero,.L178
	lw	a4,4(a4)
	lbu	a4,0(a4)
	j	.L177
.LVL274:
.L180:
	addi	a2,a5,-51
	andi	a2,a2,0xff
	li	a0,8
	bgtu	a2,a0,.L179
	lw	a0,-92(s0)
	slli	a2,a2,2
	add	a2,a2,a0
	lw	a2,0(a2)
	jr	a2
	.section	.rodata.dhcp_recv,"a",@progbits
	.align	2
	.align	2
.L186:
	.word	.L191
	.word	.L190
	.word	.L189
	.word	.L188
	.word	.L179
	.word	.L179
	.word	.L179
	.word	.L187
	.word	.L185
	.section	.text.dhcp_recv
.L182:
	.loc 1 1588 5
	li	a2,3
	beq	a5,a2,.L192
	li	a2,6
.LVL275:
.L263:
	bne	a5,a2,.L224
	.loc 1 1607 9 is_stmt 1
	.loc 1 1607 14
	.loc 1 1607 17 is_stmt 0
	andi	a5,a4,3
.LVL276:
	bne	a5,zero,.L168
	.loc 1 1607 54 is_stmt 1
	.loc 1 1607 63
	.loc 1 1609 9
	.loc 1 1609 20 is_stmt 0
	li	a2,8
	mv	a5,a4
	bleu	a4,a2,.L195
	li	a5,8
.L195:
	andi	s9,a5,0xff
	.loc 1 1610 9 is_stmt 1
	.loc 1 1610 14
	.loc 1 1610 17 is_stmt 0
	bgtu	s9,a4,.L168
	.loc 1 1611 20
	li	s10,8
	j	.L196
.LVL277:
.L181:
	.loc 1 1596 9 is_stmt 1
	.loc 1 1596 14
	.loc 1 1596 17 is_stmt 0
	li	a5,4
.LVL278:
	bne	a4,a5,.L168
	li	s9,4
	.loc 1 1597 20
	li	s10,6
.LVL279:
.L196:
	.loc 1 1661 7 is_stmt 1
	.loc 1 1661 10 is_stmt 0
	li	a2,65536
	.loc 1 1661 18
	add	a7,a4,s8
	.loc 1 1661 10
	addi	a2,a2,-3
	bgt	a7,a2,.L168
	.loc 1 1665 7 is_stmt 1
	.loc 1 1665 14 is_stmt 0
	add	a4,a3,a4
.LVL280:
	slli	s8,a4,16
.LVL281:
	srli	s8,s8,16
.LVL282:
	.loc 1 1666 7 is_stmt 1
	.loc 1 1666 10 is_stmt 0
	beq	s9,zero,.L197
.LBB197:
	.loc 1 1667 9 is_stmt 1
	addi	a4,s4,%lo(dhcp_rx_options_given)
	.loc 1 1667 15 is_stmt 0
	sw	zero,-68(s0)
	add	a4,s10,a4
.LVL283:
.L259:
.L198:
	.loc 1 1668 9 is_stmt 1
	.loc 1 1670 9
	.loc 1 1670 14
	.loc 1 1670 76
	.loc 1 1670 86
	.loc 1 1671 9
	.loc 1 1671 12 is_stmt 0
	lbu	a2,0(a4)
	.loc 1 1672 59
	li	t5,4
	.loc 1 1671 12
	bne	a2,zero,.L197
	.loc 1 1672 11 is_stmt 1
	.loc 1 1672 59 is_stmt 0
	andi	a2,s9,0xff
	bleu	s9,t5,.L200
	li	a2,4
.L200:
.LVL284:
	.loc 1 1673 11 is_stmt 1
	.loc 1 1673 15 is_stmt 0
	addi	a1,s0,-68
	mv	a0,s6
	sw	a2,-96(s0)
	sw	a4,-104(s0)
	sw	a3,-100(s0)
	call	pbuf_copy_partial
.LVL285:
	.loc 1 1673 14
	lw	a2,-96(s0)
	bne	a2,a0,.L168
	.loc 1 1676 11 is_stmt 1
	.loc 1 1676 14 is_stmt 0
	li	t5,4
	bleu	s9,t5,.L202
.LBB195:
	.loc 1 1678 13 is_stmt 1
	.loc 1 1679 13
	.loc 1 1679 18
	.loc 1 1679 21 is_stmt 0
	andi	a2,s9,3
	bne	a2,zero,.L168
	.loc 1 1679 65 is_stmt 1
	.loc 1 1679 74
	.loc 1 1680 13
	.loc 1 1680 48 is_stmt 0
	lw	a4,-104(s0)
	.loc 1 1681 49
	lw	a0,-68(s0)
	.loc 1 1680 48
	li	a5,1
	sb	a5,0(a4)
	sw	a4,-96(s0)
	.loc 1 1681 13 is_stmt 1
	.loc 1 1681 49 is_stmt 0
	call	lwip_htonl
.LVL286:
	.loc 1 1683 29
	lw	a3,-100(s0)
	.loc 1 1681 46
	slli	a2,s10,2
	add	a2,a2,s5
	.loc 1 1684 16
	lw	a4,-96(s0)
	.loc 1 1681 46
	sw	a0,0(a2)
	.loc 1 1682 13 is_stmt 1
	.loc 1 1683 29 is_stmt 0
	addi	a2,a3,4
	slli	a2,a2,16
	.loc 1 1682 24
	addi	a5,s9,-4
	.loc 1 1683 29
	srli	a2,a2,16
	.loc 1 1682 24
	andi	s9,a5,0xff
.LVL287:
	.loc 1 1683 13 is_stmt 1
	.loc 1 1684 13
	.loc 1 1684 16 is_stmt 0
	addi	a4,a4,1
	bgtu	a3,a2,.L168
	.loc 1 1688 13 is_stmt 1
.LVL288:
	.loc 1 1689 13
	.loc 1 1689 23 is_stmt 0
	addi	s10,s10,1
.LVL289:
	.loc 1 1690 13 is_stmt 1
	mv	a3,a2
	j	.L259
.LVL290:
.L192:
.LBE195:
.LBE197:
	.loc 1 1600 9
	.loc 1 1601 9
	.loc 1 1601 14
	.loc 1 1601 17 is_stmt 0
	bleu	a4,a5,.L168
	.loc 1 1602 20
	li	s10,7
	.loc 1 1600 20
	li	s9,4
	j	.L196
.LVL291:
.L191:
	.loc 1 1615 9 is_stmt 1
	.loc 1 1615 14
	.loc 1 1615 17 is_stmt 0
	li	a5,4
.LVL292:
	bne	a4,a5,.L168
	li	s9,4
	.loc 1 1616 20
	li	s10,3
	j	.L196
.LVL293:
.L190:
	.loc 1 1629 9 is_stmt 1
	.loc 1 1629 14
	.loc 1 1629 17 is_stmt 0
	li	a5,1
.LVL294:
	bne	a4,a5,.L168
	.loc 1 1629 50 is_stmt 1
	.loc 1 1629 59
	.loc 1 1631 9
	.loc 1 1631 14
	.loc 1 1631 17 is_stmt 0
	li	a5,240
	bne	s11,a5,.L168
	.loc 1 1587 16
	li	s9,1
	.loc 1 1632 20
	li	s10,0
	j	.L196
.LVL295:
.L189:
	.loc 1 1635 9 is_stmt 1
	.loc 1 1635 14
	.loc 1 1635 17 is_stmt 0
	li	a5,1
.LVL296:
	bne	a4,a5,.L168
	li	s9,1
	.loc 1 1636 20
	li	s10,1
	j	.L196
.LVL297:
.L188:
	.loc 1 1639 9 is_stmt 1
	.loc 1 1639 14
	.loc 1 1639 17 is_stmt 0
	li	a5,4
.LVL298:
	bne	a4,a5,.L168
	li	s9,4
	.loc 1 1640 20
	li	s10,2
	j	.L196
.LVL299:
.L187:
	.loc 1 1643 9 is_stmt 1
	.loc 1 1643 14
	.loc 1 1643 17 is_stmt 0
	li	a5,4
.LVL300:
	bne	a4,a5,.L168
	li	s9,4
	.loc 1 1644 20
	li	s10,4
	j	.L196
.LVL301:
.L185:
	.loc 1 1647 9 is_stmt 1
	.loc 1 1647 14
	.loc 1 1647 17 is_stmt 0
	li	a5,4
.LVL302:
	bne	a4,a5,.L168
	li	s9,4
	.loc 1 1648 20
	li	s10,5
	j	.L196
.LVL303:
.L228:
	.loc 1 1588 5
	li	a4,0
	j	.L179
.LVL304:
.L202:
.LBB198:
	.loc 1 1691 18 is_stmt 1
	.loc 1 1691 21 is_stmt 0
	bne	s9,t5,.L203
	.loc 1 1692 13 is_stmt 1
	.loc 1 1692 21 is_stmt 0
	lw	a0,-68(s0)
	call	lwip_htonl
.LVL305:
	.loc 1 1692 19
	sw	a0,-68(s0)
.L204:
	.loc 1 1697 11 is_stmt 1
	.loc 1 1697 46 is_stmt 0
	lui	a5,%hi(dhcp_rx_options_given)
	addi	a5,a5,%lo(dhcp_rx_options_given)
	add	a5,a5,s10
	li	a4,1
	sb	a4,0(a5)
	.loc 1 1698 11 is_stmt 1
	.loc 1 1698 44 is_stmt 0
	lw	a5,-68(s0)
	slli	a6,s10,2
	add	a6,s5,a6
	sw	a5,0(a6)
	j	.L197
.L203:
	.loc 1 1694 13 is_stmt 1
	.loc 1 1694 18
	.loc 1 1694 21 is_stmt 0
	li	a4,1
	bne	s9,a4,.L168
	.loc 1 1694 61 is_stmt 1
	.loc 1 1694 70
	.loc 1 1695 13
	.loc 1 1695 37 is_stmt 0
	lbu	a5,-68(s0)
	sw	a5,-68(s0)
	j	.L204
.LVL306:
.L208:
.LBE198:
.LBE202:
.LBB203:
	.loc 1 1717 5 is_stmt 1
	.loc 1 1717 11 is_stmt 0
	lw	a5,0(s5)
.LVL307:
	.loc 1 1718 5 is_stmt 1
	.loc 1 1718 54 is_stmt 0
	sb	zero,0(a4)
	.loc 1 1719 5 is_stmt 1
	.loc 1 1719 8 is_stmt 0
	li	a4,1
	beq	a5,a4,.L258
	.loc 1 1722 12 is_stmt 1
	.loc 1 1722 15 is_stmt 0
	li	a4,2
	bne	a5,a4,.L212
.LVL308:
.L209:
.LBE203:
	.loc 1 1743 28
	sw	zero,-84(s0)
.LVL309:
	.loc 1 1745 21
	li	s7,108
.LVL310:
	.loc 1 1744 17
	li	s11,44
.LVL311:
	j	.L172
.LVL312:
.L212:
.LBB204:
	.loc 1 1725 12 is_stmt 1
	.loc 1 1725 15 is_stmt 0
	li	a4,3
	bne	a5,a4,.L213
	.loc 1 1726 30
	li	a5,1
.LVL313:
	sw	a5,-84(s0)
.LVL314:
.L258:
.LBE204:
	.loc 1 1737 21
	li	s7,236
.LVL315:
	.loc 1 1736 17
	li	s11,108
.LVL316:
	j	.L172
.LVL317:
.L215:
.LBE207:
.LBE210:
	.loc 1 1856 10 is_stmt 1
	.loc 1 1856 93 is_stmt 0
	addi	a5,a5,-3
	.loc 1 1856 13
	andi	a5,a5,0xff
	li	a4,2
	bgtu	a5,a4,.L168
	.loc 1 1858 7 is_stmt 1
	lw	a0,40(s1)
	call	dhcp_handle_ack.isra.0
.LVL318:
	.loc 1 1859 7
	mv	a0,s1
.L260:
	call	dhcp_bind
.LVL319:
	j	.L168
.LVL320:
.L214:
	.loc 1 1863 8
	.loc 1 1863 11 is_stmt 0
	li	a3,6
	bne	a4,a3,.L217
	.loc 1 1864 18 discriminator 1
	lbu	a4,5(s3)
.LVL321:
	.loc 1 1863 28 discriminator 1
	li	a3,2
	addi	a5,a4,-3
.LVL322:
	andi	a5,a5,0xff
	bleu	a5,a3,.L218
	.loc 1 1864 51
	li	a5,1
	bne	a4,a5,.L168
.L218:
	.loc 1 1866 5 is_stmt 1
	.loc 1 1867 5
.LVL323:
.LBB211:
.LBB212:
	.loc 1 279 3
	.loc 1 282 81
	.loc 1 285 3
	lw	a0,40(s1)
	li	a1,12
.LVL324:
	call	dhcp_set_state
.LVL325:
	.loc 1 287 3
	lui	a1,%hi(ip_addr_any)
	addi	a3,a1,%lo(ip_addr_any)
	addi	a2,a1,%lo(ip_addr_any)
	mv	a0,s1
	addi	a1,a1,%lo(ip_addr_any)
	call	netif_set_addr
.LVL326:
	.loc 1 289 3
	mv	a0,s1
	call	dhcp_discover
.LVL327:
	.loc 1 290 1 is_stmt 0
	j	.L168
.LVL328:
.L217:
.LBE212:
.LBE211:
	.loc 1 1870 8 is_stmt 1
	.loc 1 1870 11 is_stmt 0
	li	a2,2
	bne	a4,a2,.L168
	.loc 1 1870 28 discriminator 1
	lbu	a4,5(s3)
.LVL329:
	bne	a4,a3,.L168
	.loc 1 1871 5 is_stmt 1
	.loc 1 1873 5
.LVL330:
.LBB213:
.LBB214:
	.loc 1 334 3
	.loc 1 337 81
	.loc 1 339 3
	.loc 1 339 6 is_stmt 0
	lui	a4,%hi(dhcp_rx_options_given)
	addi	a4,a4,%lo(dhcp_rx_options_given)
	lbu	a4,2(a4)
	beq	a4,zero,.L168
	.loc 1 334 16
	lw	s3,40(s1)
.LVL331:
	.loc 1 340 5 is_stmt 1
	sw	a1,-84(s0)
	.loc 1 340 27 is_stmt 0
	sh	zero,8(s3)
.LVL332:
	.loc 1 342 5 is_stmt 1
	.loc 1 342 41 is_stmt 0
	lw	a0,8(a5)
	call	lwip_htonl
.LVL333:
	.loc 1 346 53
	lw	a1,-84(s0)
	.loc 1 342 38
	sw	a0,24(s3)
	.loc 1 344 68 is_stmt 1
	.loc 1 346 5
	.loc 1 350 5 is_stmt 0
	mv	a0,s1
	.loc 1 346 53
	lbu	a4,17(a1)
	lbu	a5,16(a1)
	slli	a4,a4,8
	or	a4,a4,a5
	lbu	a5,18(a1)
	slli	a5,a5,16
	or	a4,a5,a4
	lbu	a5,19(a1)
	slli	a5,a5,24
	or	a5,a5,a4
	.loc 1 346 35
	sw	a5,28(s3)
	.loc 1 348 59 is_stmt 1
	.loc 1 350 5
	call	dhcp_select.isra.0
.LVL334:
	j	.L168
.LVL335:
.L178:
.LBE214:
.LBE213:
.LBB215:
.LBB208:
.LBB205:
	.loc 1 1587 5
	.loc 1 1588 5
	li	a4,59
	bgtu	a5,a4,.L228
	li	a4,50
	bgtu	a5,a4,.L221
	li	a4,3
	beq	a5,a4,.L168
	bgtu	a5,a4,.L222
	beq	a5,zero,.L183
	li	a4,1
	beq	a5,a4,.L168
	li	a4,0
.LVL336:
.L224:
	li	s10,-1
	li	s9,0
	j	.L196
.LVL337:
.L221:
	addi	a4,a5,-51
	andi	a4,a4,0xff
	li	a2,8
	bgtu	a4,a2,.L228
	lui	a2,%hi(.L223)
	slli	a4,a4,2
	addi	a2,a2,%lo(.L223)
	add	a4,a4,a2
	lw	a4,0(a4)
	jr	a4
	.section	.rodata.dhcp_recv
	.align	2
	.align	2
.L223:
	.word	.L168
	.word	.L168
	.word	.L168
	.word	.L168
	.word	.L228
	.word	.L228
	.word	.L228
	.word	.L168
	.word	.L168
	.section	.text.dhcp_recv
.L222:
	li	a2,6
	li	a4,0
	j	.L263
.LBE205:
.LBE208:
.LBE215:
	.cfi_endproc
.LFE39:
	.size	dhcp_recv, .-dhcp_recv
	.section	.text.dhcp_set_struct,"ax",@progbits
	.align	1
	.globl	dhcp_set_struct
	.type	dhcp_set_struct, @function
dhcp_set_struct:
.LFB17:
	.loc 1 705 1
	.cfi_startproc
.LVL338:
	.loc 1 706 3
	.loc 1 707 3
	.loc 1 707 8
	.loc 1 707 7
	.loc 1 707 17
	.loc 1 708 3
	.loc 1 708 8
	.loc 1 708 7
	.loc 1 708 17
	.loc 1 709 3
	.loc 1 709 8
	.loc 1 709 7
	.loc 1 709 17
	.loc 1 712 3
	.loc 1 705 1 is_stmt 0
	addi	sp,sp,-16
	.cfi_def_cfa_offset 16
	sw	s0,8(sp)
	sw	s1,4(sp)
	sw	s2,0(sp)
	sw	ra,12(sp)
	.cfi_offset 8, -8
	.cfi_offset 9, -12
	.cfi_offset 18, -16
	.cfi_offset 1, -4
	addi	s0,sp,16
	.cfi_def_cfa 8, 0
	mv	s1,a1
	.loc 1 705 1
	mv	s2,a0
	.loc 1 712 3
	li	a2,52
	mv	a0,s1
.LVL339:
	li	a1,0
.LVL340:
	call	memset
.LVL341:
	.loc 1 714 3 is_stmt 1
	.loc 1 715 1 is_stmt 0
	lw	ra,12(sp)
	.cfi_restore 1
	lw	s0,8(sp)
	.cfi_restore 8
	.cfi_def_cfa 2, 16
	.loc 1 714 61
	sw	s1,40(s2)
	.loc 1 715 1
	lw	s1,4(sp)
	.cfi_restore 9
.LVL342:
	lw	s2,0(sp)
	.cfi_restore 18
.LVL343:
	addi	sp,sp,16
	.cfi_def_cfa_offset 0
	jr	ra
	.cfi_endproc
.LFE17:
	.size	dhcp_set_struct, .-dhcp_set_struct
	.section	.text.dhcp_cleanup,"ax",@progbits
	.align	1
	.globl	dhcp_cleanup
	.type	dhcp_cleanup, @function
dhcp_cleanup:
.LFB18:
	.loc 1 727 1 is_stmt 1
	.cfi_startproc
.LVL344:
	.loc 1 728 3
	.loc 1 729 3
	.loc 1 729 8
	.loc 1 729 7
	.loc 1 729 17
	.loc 1 731 3
	.loc 1 727 1 is_stmt 0
	addi	sp,sp,-16
	.cfi_def_cfa_offset 16
	sw	s0,8(sp)
	sw	s1,4(sp)
	sw	ra,12(sp)
	.cfi_offset 8, -8
	.cfi_offset 9, -12
	.cfi_offset 1, -4
	addi	s0,sp,16
	.cfi_def_cfa 8, 0
	.loc 1 727 1
	mv	s1,a0
	.loc 1 731 42
	lw	a0,40(a0)
.LVL345:
	.loc 1 731 6
	beq	a0,zero,.L266
	.loc 1 732 5 is_stmt 1
	call	mem_free
.LVL346:
	.loc 1 733 5
	.loc 1 733 63 is_stmt 0
	sw	zero,40(s1)
.L266:
	.loc 1 735 1
	lw	ra,12(sp)
	.cfi_restore 1
	lw	s0,8(sp)
	.cfi_restore 8
	.cfi_def_cfa 2, 16
	lw	s1,4(sp)
	.cfi_restore 9
.LVL347:
	addi	sp,sp,16
	.cfi_def_cfa_offset 0
	jr	ra
	.cfi_endproc
.LFE18:
	.size	dhcp_cleanup, .-dhcp_cleanup
	.section	.text.dhcp_inform,"ax",@progbits
	.align	1
	.globl	dhcp_inform
	.type	dhcp_inform, @function
dhcp_inform:
.LFB20:
	.loc 1 829 1 is_stmt 1
	.cfi_startproc
.LVL348:
	.loc 1 830 3
	.loc 1 831 3
	.loc 1 832 3
	.loc 1 834 3
	.loc 1 835 3
	.loc 1 835 8
	.loc 1 835 11 is_stmt 0
	beq	a0,zero,.L283
	.loc 1 829 1 discriminator 2
	addi	sp,sp,-96
	.cfi_def_cfa_offset 96
	sw	s0,88(sp)
	sw	s2,80(sp)
	sw	ra,92(sp)
	sw	s1,84(sp)
	.cfi_offset 8, -8
	.cfi_offset 18, -16
	.cfi_offset 1, -4
	.cfi_offset 9, -12
	addi	s0,sp,96
	.cfi_def_cfa 8, 0
	mv	s2,a0
	.loc 1 835 17 is_stmt 1 discriminator 2
	.loc 1 835 26 discriminator 2
	.loc 1 837 3 discriminator 2
	.loc 1 837 7 is_stmt 0 discriminator 2
	call	dhcp_inc_pcb_refcount
.LVL349:
	.loc 1 837 6 discriminator 2
	bne	a0,zero,.L272
	.loc 1 841 3 is_stmt 1
	li	a2,52
	li	a1,0
	addi	a0,s0,-68
	call	memset
.LVL350:
	.loc 1 842 3
	li	a1,7
	addi	a0,s0,-68
	call	dhcp_set_state
.LVL351:
	.loc 1 845 3
	.loc 1 845 11 is_stmt 0
	addi	a3,s0,-70
	li	a2,8
	addi	a1,s0,-68
	mv	a0,s2
	call	dhcp_create_msg
.LVL352:
	mv	s1,a0
.LVL353:
	.loc 1 846 3 is_stmt 1
	.loc 1 846 6 is_stmt 0
	beq	a0,zero,.L274
.LBB216:
	.loc 1 847 5 is_stmt 1
.LVL354:
	.loc 1 848 5
	.loc 1 848 59 is_stmt 0
	lw	a1,4(a0)
	.loc 1 848 23
	lhu	a5,-70(s0)
.LBB217:
.LBB218:
	.loc 1 1449 30
	li	a3,57
.LBE218:
.LBE217:
	.loc 1 848 59
	addi	a1,a1,240
.LVL355:
.LBB221:
.LBB219:
	.loc 1 1448 3 is_stmt 1
	.loc 1 1448 8
	.loc 1 1448 59
	.loc 1 1448 69
	.loc 1 1449 3
	.loc 1 1449 30 is_stmt 0
	add	a4,a1,a5
	.loc 1 1450 26
	addi	a0,a5,2
	.loc 1 1449 26
	addi	a5,a5,1
.LVL356:
	.loc 1 1450 26
	slli	a5,a5,16
.LVL357:
	srli	a5,a5,16
	.loc 1 1449 30
	sb	a3,0(a4)
.LVL358:
	.loc 1 1450 3 is_stmt 1
	.loc 1 1450 30 is_stmt 0
	add	a5,a1,a5
	li	a4,2
	sb	a4,0(a5)
.LBE219:
.LBE221:
	.loc 1 849 23
	lhu	a2,56(s2)
.LBB222:
.LBB220:
	.loc 1 1450 26
	slli	a0,a0,16
.LVL359:
	srli	a0,a0,16
.LVL360:
	.loc 1 1451 3 is_stmt 1
.LBE220:
.LBE222:
	.loc 1 849 23 is_stmt 0
	sw	a1,-84(s0)
	.loc 1 848 21
	sh	a0,-70(s0)
	.loc 1 849 5 is_stmt 1
	.loc 1 849 23 is_stmt 0
	call	dhcp_option_short
.LVL361:
	.loc 1 852 5
	lw	a1,-84(s0)
	mv	a2,s1
	.loc 1 849 21
	sh	a0,-70(s0)
	.loc 1 851 5 is_stmt 1
	.loc 1 852 5
	call	dhcp_option_trailer
.LVL362:
	.loc 1 854 5
	.loc 1 856 5
	lui	a5,%hi(.LANCHOR2)
	lw	a0,%lo(.LANCHOR2)(a5)
	lui	a2,%hi(ip_addr_broadcast)
	mv	a4,s2
	li	a3,67
	addi	a2,a2,%lo(ip_addr_broadcast)
	mv	a1,s1
	call	udp_sendto_if
.LVL363:
	.loc 1 858 5
	mv	a0,s1
	call	pbuf_free
.LVL364:
.L274:
.LBE216:
	.loc 1 860 5
	.loc 1 863 3
	call	dhcp_dec_pcb_refcount
.LVL365:
.L272:
	.loc 1 864 1 is_stmt 0
	lw	ra,92(sp)
	.cfi_restore 1
	lw	s0,88(sp)
	.cfi_restore 8
	.cfi_def_cfa 2, 96
	lw	s1,84(sp)
	.cfi_restore 9
	lw	s2,80(sp)
	.cfi_restore 18
.LVL366:
	addi	sp,sp,96
	.cfi_def_cfa_offset 0
	jr	ra
.LVL367:
.L283:
	ret
	.cfi_endproc
.LFE20:
	.size	dhcp_inform, .-dhcp_inform
	.section	.text.dhcp_network_changed,"ax",@progbits
	.align	1
	.globl	dhcp_network_changed
	.type	dhcp_network_changed, @function
dhcp_network_changed:
.LFB21:
	.loc 1 873 1 is_stmt 1
	.cfi_startproc
.LVL368:
	.loc 1 874 3
	.loc 1 873 1 is_stmt 0
	addi	sp,sp,-16
	.cfi_def_cfa_offset 16
	sw	s0,12(sp)
	.cfi_offset 8, -4
	addi	s0,sp,16
	.cfi_def_cfa 8, 0
	.loc 1 874 16
	lw	a5,40(a0)
.LVL369:
	.loc 1 876 3 is_stmt 1
	.loc 1 876 6 is_stmt 0
	beq	a5,zero,.L286
	.loc 1 879 3 is_stmt 1
	.loc 1 879 15 is_stmt 0
	lbu	a4,5(a5)
	.loc 1 879 3
	li	a3,5
	bgtu	a4,a3,.L288
	li	a3,2
	bgtu	a4,a3,.L289
	beq	a4,zero,.L286
.L290:
	.loc 1 891 7 is_stmt 1
	.loc 1 891 12
	.loc 1 891 60
	.loc 1 891 70
	.loc 1 902 7
	.loc 1 902 19 is_stmt 0
	sb	zero,6(a5)
	.loc 1 903 7 is_stmt 1
	.loc 1 906 1 is_stmt 0
	lw	s0,12(sp)
	.cfi_remember_state
	.cfi_restore 8
	.cfi_def_cfa 2, 16
	addi	sp,sp,16
	.cfi_def_cfa_offset 0
	.loc 1 903 7
	tail	dhcp_discover
.LVL370:
.L288:
	.cfi_restore_state
	.loc 1 879 3
	li	a3,10
	bne	a4,a3,.L290
.L289:
	.loc 1 884 7 is_stmt 1
	.loc 1 884 19 is_stmt 0
	sb	zero,6(a5)
	.loc 1 885 7 is_stmt 1
	.loc 1 906 1 is_stmt 0
	lw	s0,12(sp)
	.cfi_remember_state
	.cfi_restore 8
	.cfi_def_cfa 2, 16
	addi	sp,sp,16
	.cfi_def_cfa_offset 0
	.loc 1 885 7
	tail	dhcp_reboot.isra.0
.LVL371:
.L286:
	.cfi_restore_state
	.loc 1 906 1
	lw	s0,12(sp)
	.cfi_restore 8
	.cfi_def_cfa 2, 16
	addi	sp,sp,16
	.cfi_def_cfa_offset 0
	jr	ra
	.cfi_endproc
.LFE21:
	.size	dhcp_network_changed, .-dhcp_network_changed
	.section	.text.dhcp_arp_reply,"ax",@progbits
	.align	1
	.globl	dhcp_arp_reply
	.type	dhcp_arp_reply, @function
dhcp_arp_reply:
.LFB22:
	.loc 1 918 1 is_stmt 1
	.cfi_startproc
.LVL372:
	.loc 1 919 3
	.loc 1 921 3
	.loc 1 921 8
	.loc 1 921 11 is_stmt 0
	beq	a0,zero,.L312
	.loc 1 918 1 discriminator 2
	addi	sp,sp,-48
	.cfi_def_cfa_offset 48
	sw	s0,40(sp)
	sw	s3,28(sp)
	sw	ra,44(sp)
	sw	s1,36(sp)
	sw	s2,32(sp)
	sw	s4,24(sp)
	sw	s5,20(sp)
	.cfi_offset 8, -8
	.cfi_offset 19, -20
	.cfi_offset 1, -4
	.cfi_offset 9, -12
	.cfi_offset 18, -16
	.cfi_offset 20, -24
	.cfi_offset 21, -28
	addi	s0,sp,48
	.cfi_def_cfa 8, 0
	.loc 1 922 8 discriminator 2
	lw	s1,40(a0)
	mv	s3,a0
	.loc 1 921 17 is_stmt 1 discriminator 2
	.loc 1 921 26 discriminator 2
	.loc 1 922 3 discriminator 2
.LVL373:
	.loc 1 923 3 discriminator 2
	.loc 1 925 3 discriminator 2
	.loc 1 925 6 is_stmt 0 discriminator 2
	beq	s1,zero,.L298
	.loc 1 925 21 discriminator 1
	lbu	a4,5(s1)
	li	a5,8
	bne	a4,a5,.L298
	.loc 1 927 41 is_stmt 1
	.loc 1 930 5
	.loc 1 930 8 is_stmt 0
	lw	a4,0(a1)
	lw	a5,28(s1)
	bne	a4,a5,.L298
	.loc 1 933 93 is_stmt 1
	.loc 1 934 7
.LVL374:
.LBB228:
.LBB229:
	.loc 1 951 3
	.loc 1 952 3
	.loc 1 953 3
	.loc 1 954 3
	.loc 1 955 3
	.loc 1 957 3
	.loc 1 958 3
	li	a1,12
.LVL375:
	mv	a0,s1
.LVL376:
	call	dhcp_set_state
.LVL377:
	.loc 1 960 3
	.loc 1 960 11 is_stmt 0
	addi	a3,s0,-34
	li	a2,4
	mv	a1,s1
	mv	a0,s3
	call	dhcp_create_msg
.LVL378:
	mv	s2,a0
.LVL379:
	.loc 1 961 3 is_stmt 1
	.loc 1 961 6 is_stmt 0
	beq	a0,zero,.L300
.LBB230:
	.loc 1 962 5 is_stmt 1
.LVL380:
	.loc 1 963 5
	.loc 1 963 59 is_stmt 0
	lw	s4,4(a0)
	.loc 1 963 23
	lhu	a5,-34(s0)
.LBB231:
.LBB232:
	.loc 1 1449 30
	li	a3,50
.LBE232:
.LBE231:
	.loc 1 963 59
	addi	s4,s4,240
.LVL381:
.LBB235:
.LBB233:
	.loc 1 1448 3 is_stmt 1
	.loc 1 1448 8
	.loc 1 1448 59
	.loc 1 1448 69
	.loc 1 1449 3
	.loc 1 1449 30 is_stmt 0
	add	a4,s4,a5
	.loc 1 1450 26
	addi	s5,a5,2
	.loc 1 1449 26
	addi	a5,a5,1
.LVL382:
	.loc 1 1450 26
	slli	a5,a5,16
.LVL383:
	srli	a5,a5,16
	.loc 1 1449 30
	sb	a3,0(a4)
.LVL384:
	.loc 1 1450 3 is_stmt 1
	.loc 1 1450 30 is_stmt 0
	add	a5,s4,a5
	li	a4,4
	sb	a4,0(a5)
.LBE233:
.LBE235:
	.loc 1 964 23
	lw	a0,28(s1)
.LVL385:
.LBB236:
.LBB234:
	.loc 1 1450 26
	slli	s5,s5,16
.LVL386:
	srli	s5,s5,16
.LVL387:
	.loc 1 1451 3 is_stmt 1
.LBE234:
.LBE236:
	.loc 1 963 21 is_stmt 0
	sh	s5,-34(s0)
	.loc 1 964 5 is_stmt 1
	.loc 1 964 23 is_stmt 0
	call	lwip_htonl
.LVL388:
	mv	a2,a0
	mv	a1,s4
	mv	a0,s5
	call	dhcp_option_long
.LVL389:
	.loc 1 967 5
	mv	a2,s2
	mv	a1,s4
	.loc 1 964 21
	sh	a0,-34(s0)
	.loc 1 966 5 is_stmt 1
	.loc 1 967 5
	call	dhcp_option_trailer
.LVL390:
	.loc 1 970 5
	.loc 1 970 14 is_stmt 0
	lui	a0,%hi(.LANCHOR2)
	lw	a0,%lo(.LANCHOR2)(a0)
	lui	a5,%hi(ip_addr_any)
	lui	a2,%hi(ip_addr_broadcast)
	addi	a5,a5,%lo(ip_addr_any)
	mv	a4,s3
	li	a3,67
	addi	a2,a2,%lo(ip_addr_broadcast)
	mv	a1,s2
	call	udp_sendto_if_src
.LVL391:
	.loc 1 971 5 is_stmt 1
	mv	a0,s2
	call	pbuf_free
.LVL392:
	.loc 1 972 5
.L300:
.LBE230:
	.loc 1 978 3
	.loc 1 978 11 is_stmt 0
	lbu	a5,6(s1)
	.loc 1 978 6
	li	a4,255
	beq	a5,a4,.L301
	.loc 1 979 5 is_stmt 1
	.loc 1 979 16 is_stmt 0
	addi	a5,a5,1
	sb	a5,6(s1)
.L301:
	.loc 1 981 3 is_stmt 1
.LVL393:
	.loc 1 982 3
	.loc 1 982 25 is_stmt 0
	li	a5,20
	sh	a5,8(s1)
	.loc 1 983 3 is_stmt 1
	.loc 1 984 3
.LVL394:
.L298:
.LBE229:
.LBE228:
	.loc 1 937 1 is_stmt 0
	lw	ra,44(sp)
	.cfi_restore 1
	lw	s0,40(sp)
	.cfi_restore 8
	.cfi_def_cfa 2, 48
	lw	s1,36(sp)
	.cfi_restore 9
.LVL395:
	lw	s2,32(sp)
	.cfi_restore 18
	lw	s3,28(sp)
	.cfi_restore 19
.LVL396:
	lw	s4,24(sp)
	.cfi_restore 20
	lw	s5,20(sp)
	.cfi_restore 21
	addi	sp,sp,48
	.cfi_def_cfa_offset 0
	jr	ra
.LVL397:
.L312:
	ret
	.cfi_endproc
.LFE22:
	.size	dhcp_arp_reply, .-dhcp_arp_reply
	.section	.text.dhcp_renew,"ax",@progbits
	.align	1
	.globl	dhcp_renew
	.type	dhcp_renew, @function
dhcp_renew:
.LFB26:
	.loc 1 1165 1 is_stmt 1
	.cfi_startproc
.LVL398:
	.loc 1 1166 3
	.loc 1 1165 1 is_stmt 0
	addi	sp,sp,-48
	.cfi_def_cfa_offset 48
	sw	ra,44(sp)
	sw	s0,40(sp)
	sw	s1,36(sp)
	sw	s4,24(sp)
	.cfi_offset 1, -4
	.cfi_offset 8, -8
	.cfi_offset 9, -12
	.cfi_offset 20, -24
	addi	s0,sp,48
	.cfi_def_cfa 8, 0
	sw	s2,32(sp)
	sw	s3,28(sp)
	.cfi_offset 18, -16
	.cfi_offset 19, -20
	.loc 1 1166 16
	lw	s2,40(a0)
.LVL399:
	.loc 1 1167 3 is_stmt 1
	.loc 1 1168 3
	.loc 1 1169 3
	.loc 1 1170 3
	.loc 1 1171 3
	.loc 1 1173 3
	.loc 1 1174 3
	.loc 1 1175 3
	.loc 1 1165 1 is_stmt 0
	mv	s4,a0
	.loc 1 1175 3
	li	a1,5
	mv	a0,s2
.LVL400:
	call	dhcp_set_state
.LVL401:
	.loc 1 1178 3 is_stmt 1
	.loc 1 1178 11 is_stmt 0
	addi	a3,s0,-34
	li	a2,3
	mv	a1,s2
	mv	a0,s4
	call	dhcp_create_msg
.LVL402:
	.loc 1 1179 3 is_stmt 1
	li	s1,-1
	.loc 1 1179 6 is_stmt 0
	beq	a0,zero,.L316
.LBB237:
	.loc 1 1181 59
	lw	s1,4(a0)
	.loc 1 1181 23
	lhu	a5,-34(s0)
	mv	s3,a0
	.loc 1 1180 5 is_stmt 1
.LVL403:
	.loc 1 1181 5
	.loc 1 1181 59 is_stmt 0
	addi	s1,s1,240
.LVL404:
.LBB238:
.LBB239:
	.loc 1 1448 3 is_stmt 1
	.loc 1 1448 8
	.loc 1 1448 59
	.loc 1 1448 69
	.loc 1 1449 3
	.loc 1 1449 30 is_stmt 0
	add	a4,s1,a5
	.loc 1 1450 26
	addi	a0,a5,2
.LVL405:
	.loc 1 1449 26
	addi	a5,a5,1
.LVL406:
	.loc 1 1450 26
	slli	a5,a5,16
.LVL407:
	.loc 1 1449 30
	li	a3,57
	.loc 1 1450 26
	srli	a5,a5,16
	.loc 1 1449 30
	sb	a3,0(a4)
.LVL408:
	.loc 1 1450 3 is_stmt 1
	.loc 1 1450 30 is_stmt 0
	add	a5,s1,a5
	li	a4,2
	sb	a4,0(a5)
.LBE239:
.LBE238:
	.loc 1 1182 23
	lhu	a2,56(s4)
.LBB241:
.LBB240:
	.loc 1 1450 26
	slli	a0,a0,16
.LVL409:
	srli	a0,a0,16
.LVL410:
	.loc 1 1451 3 is_stmt 1
.LBE240:
.LBE241:
	.loc 1 1182 23 is_stmt 0
	mv	a1,s1
	.loc 1 1181 21
	sh	a0,-34(s0)
	.loc 1 1182 5 is_stmt 1
	.loc 1 1182 23 is_stmt 0
	call	dhcp_option_short
.LVL411:
	.loc 1 1184 5 is_stmt 1
.LBB242:
.LBB243:
	.loc 1 1448 3
	.loc 1 1448 8
	.loc 1 1448 59
	.loc 1 1448 69
	.loc 1 1449 3
	.loc 1 1449 30 is_stmt 0
	add	a5,s1,a0
	li	a4,55
	sb	a4,0(a5)
	.loc 1 1450 3 is_stmt 1
.LVL412:
	.loc 1 1449 26 is_stmt 0
	addi	a5,a0,1
	.loc 1 1450 26
	slli	a5,a5,16
	srli	a5,a5,16
	.loc 1 1450 30
	add	a5,s1,a5
	li	a4,4
	sb	a4,0(a5)
	.loc 1 1451 3 is_stmt 1
.LVL413:
	.loc 1 1450 26 is_stmt 0
	addi	a0,a0,2
.LBE243:
.LBE242:
	.loc 1 1186 25
	lui	a3,%hi(.LANCHOR1)
	.loc 1 1184 21
	sh	a0,-34(s0)
	.loc 1 1185 5 is_stmt 1
.LVL414:
	.loc 1 1185 17
	.loc 1 1184 21 is_stmt 0
	li	a5,0
	.loc 1 1186 25
	addi	a3,a3,%lo(.LANCHOR1)
	.loc 1 1185 5
	li	a2,4
.LVL415:
.L317:
	.loc 1 1186 7 is_stmt 1 discriminator 3
	.loc 1 1186 25 is_stmt 0 discriminator 3
	lhu	a4,-34(s0)
	add	a1,a3,a5
	lbu	a1,0(a1)
.LVL416:
.LBB244:
.LBB245:
	.loc 1 1460 3 is_stmt 1 discriminator 3
	.loc 1 1460 8 discriminator 3
	.loc 1 1460 40 discriminator 3
	.loc 1 1460 50 discriminator 3
	.loc 1 1461 3 discriminator 3
	.loc 1 1461 26 is_stmt 0 discriminator 3
	addi	a0,a4,1
	slli	a0,a0,16
	.loc 1 1461 30 discriminator 3
	add	a4,s1,a4
.LVL417:
	.loc 1 1461 26 discriminator 3
	srli	a0,a0,16
.LVL418:
	.loc 1 1461 30 discriminator 3
	sb	a1,0(a4)
	.loc 1 1462 3 is_stmt 1 discriminator 3
.LVL419:
.LBE245:
.LBE244:
	.loc 1 1186 23 is_stmt 0 discriminator 3
	sh	a0,-34(s0)
	.loc 1 1185 105 is_stmt 1 discriminator 3
.LVL420:
	.loc 1 1185 17 discriminator 3
	.loc 1 1185 5 is_stmt 0 discriminator 3
	addi	a5,a5,1
.LVL421:
	bne	a5,a2,.L317
	.loc 1 1190 5 is_stmt 1
	.loc 1 1190 23 is_stmt 0
	mv	a1,s1
	mv	a2,s4
	call	dhcp_option_hostname
.LVL422:
	.loc 1 1194 5
	mv	a1,s1
	mv	a2,s3
	.loc 1 1190 21
	sh	a0,-34(s0)
	.loc 1 1193 5 is_stmt 1
	.loc 1 1194 5
	call	dhcp_option_trailer
.LVL423:
	.loc 1 1196 5
	.loc 1 1196 14 is_stmt 0
	lui	a5,%hi(.LANCHOR2)
	lw	a0,%lo(.LANCHOR2)(a5)
	mv	a4,s4
	li	a3,67
	addi	a2,s2,24
	mv	a1,s3
	call	udp_sendto_if
.LVL424:
	mv	s1,a0
.LVL425:
	.loc 1 1197 5 is_stmt 1
	mv	a0,s3
	call	pbuf_free
.LVL426:
	.loc 1 1199 5
.L316:
.LBE237:
	.loc 1 1204 3
	.loc 1 1204 11 is_stmt 0
	lbu	a5,6(s2)
	.loc 1 1204 6
	li	a4,255
	beq	a5,a4,.L318
	.loc 1 1205 5 is_stmt 1
	.loc 1 1205 16 is_stmt 0
	addi	a5,a5,1
	sb	a5,6(s2)
.L318:
	.loc 1 1208 3 is_stmt 1
	.loc 1 1208 23 is_stmt 0
	lbu	a5,6(s2)
	.loc 1 1208 11
	li	a4,9
	bgtu	a5,a4,.L321
	.loc 1 1208 11 discriminator 1
	li	a4,2000
	mul	a5,a5,a4
	slli	a5,a5,16
	srli	a5,a5,16
.L319:
.LVL427:
	.loc 1 1209 3 is_stmt 1 discriminator 4
	.loc 1 1209 48 is_stmt 0 discriminator 4
	addi	a5,a5,499
.LVL428:
	slli	a5,a5,16
	srli	a5,a5,16
	.loc 1 1209 53 discriminator 4
	li	a4,500
	div	a5,a5,a4
	.loc 1 1212 1 discriminator 4
	mv	a0,s1
	.loc 1 1209 27 discriminator 4
	sh	a5,8(s2)
	.loc 1 1210 3 is_stmt 1 discriminator 4
	.loc 1 1211 3 discriminator 4
	.loc 1 1212 1 is_stmt 0 discriminator 4
	lw	ra,44(sp)
	.cfi_remember_state
	.cfi_restore 1
	lw	s0,40(sp)
	.cfi_restore 8
	.cfi_def_cfa 2, 48
	lw	s1,36(sp)
	.cfi_restore 9
.LVL429:
	lw	s2,32(sp)
	.cfi_restore 18
.LVL430:
	lw	s3,28(sp)
	.cfi_restore 19
	lw	s4,24(sp)
	.cfi_restore 20
.LVL431:
	addi	sp,sp,48
	.cfi_def_cfa_offset 0
	jr	ra
.LVL432:
.L321:
	.cfi_restore_state
	.loc 1 1208 11
	li	a5,20480
	addi	a5,a5,-480
	j	.L319
	.cfi_endproc
.LFE26:
	.size	dhcp_renew, .-dhcp_renew
	.section	.text.dhcp_supplied_address,"ax",@progbits
	.align	1
	.globl	dhcp_supplied_address
	.type	dhcp_supplied_address, @function
dhcp_supplied_address:
.LFB42:
	.loc 1 1995 1 is_stmt 1
	.cfi_startproc
.LVL433:
	.loc 1 1996 3
	.loc 1 1995 1 is_stmt 0
	addi	sp,sp,-16
	.cfi_def_cfa_offset 16
	sw	s0,12(sp)
	.cfi_offset 8, -4
	addi	s0,sp,16
	.cfi_def_cfa 8, 0
	.loc 1 1996 6
	beq	a0,zero,.L328
	.loc 1 1996 61 discriminator 1
	lw	a5,40(a0)
	.loc 1 2001 10 discriminator 1
	li	a0,0
.LVL434:
	.loc 1 1996 22 discriminator 1
	beq	a5,zero,.L326
.LBB246:
	.loc 1 1997 5 is_stmt 1
.LVL435:
	.loc 1 1998 5
	.loc 1 1998 17 is_stmt 0
	lbu	a5,5(a5)
.LVL436:
	.loc 1 1998 86
	li	a4,10
	li	a0,1
	beq	a5,a4,.L327
	.loc 1 1998 86 discriminator 4
	addi	a0,a5,-4
	sltiu	a0,a0,2
.L327:
	.loc 1 1998 86 discriminator 8
	andi	a0,a0,0xff
.LVL437:
.L326:
.LBE246:
	.loc 1 2002 1
	lw	s0,12(sp)
	.cfi_remember_state
	.cfi_restore 8
	.cfi_def_cfa 2, 16
	addi	sp,sp,16
	.cfi_def_cfa_offset 0
	jr	ra
.LVL438:
.L328:
	.cfi_restore_state
	.loc 1 2001 10
	li	a0,0
.LVL439:
	j	.L326
	.cfi_endproc
.LFE42:
	.size	dhcp_supplied_address, .-dhcp_supplied_address
	.section	.text.dhcp_release_and_stop,"ax",@progbits
	.align	1
	.globl	dhcp_release_and_stop
	.type	dhcp_release_and_stop, @function
dhcp_release_and_stop:
.LFB29:
	.loc 1 1333 1 is_stmt 1
	.cfi_startproc
.LVL440:
	.loc 1 1334 3
	.loc 1 1333 1 is_stmt 0
	addi	sp,sp,-48
	.cfi_def_cfa_offset 48
	sw	s0,40(sp)
	sw	ra,44(sp)
	sw	s1,36(sp)
	sw	s2,32(sp)
	sw	s3,28(sp)
	sw	s4,24(sp)
	sw	s5,20(sp)
	.cfi_offset 8, -8
	.cfi_offset 1, -4
	.cfi_offset 9, -12
	.cfi_offset 18, -16
	.cfi_offset 19, -20
	.cfi_offset 20, -24
	.cfi_offset 21, -28
	addi	s0,sp,48
	.cfi_def_cfa 8, 0
	.loc 1 1334 16
	lw	s1,40(a0)
.LVL441:
	.loc 1 1335 3 is_stmt 1
	.loc 1 1337 3
	.loc 1 1338 3
	.loc 1 1339 3
	.loc 1 1339 6 is_stmt 0
	beq	s1,zero,.L333
	.loc 1 1344 3 is_stmt 1
	.loc 1 1344 6 is_stmt 0
	lbu	a5,5(s1)
	beq	a5,zero,.L333
	.loc 1 1348 26
	lw	a5,24(s1)
	.loc 1 1352 35
	sw	zero,28(s1)
	.loc 1 1351 34
	sw	zero,24(s1)
	.loc 1 1353 35
	sw	zero,32(s1)
	.loc 1 1354 35
	sw	zero,36(s1)
	.loc 1 1358 77
	sw	zero,48(s1)
	.loc 1 1358 51
	sw	zero,44(s1)
	.loc 1 1358 26
	sw	zero,40(s1)
	.loc 1 1359 23
	sh	zero,14(s1)
	.loc 1 1359 46
	sw	zero,16(s1)
	.loc 1 1359 84
	sh	zero,20(s1)
	mv	s3,a0
	.loc 1 1348 3 is_stmt 1
	.loc 1 1348 26 is_stmt 0
	sw	a5,-36(s0)
	.loc 1 1351 3 is_stmt 1
	.loc 1 1352 3
	.loc 1 1353 3
	.loc 1 1354 3
	.loc 1 1358 3
	.loc 1 1359 3
	.loc 1 1362 3
	.loc 1 1362 7 is_stmt 0
	call	dhcp_supplied_address
.LVL442:
	.loc 1 1362 6
	beq	a0,zero,.L335
.LBB247:
	.loc 1 1364 5 is_stmt 1
	.loc 1 1365 5
	.loc 1 1366 5
	.loc 1 1366 13 is_stmt 0
	addi	a3,s0,-38
	li	a2,7
	mv	a1,s1
	mv	a0,s3
	call	dhcp_create_msg
.LVL443:
	mv	s2,a0
.LVL444:
	.loc 1 1367 5 is_stmt 1
	.loc 1 1367 8 is_stmt 0
	beq	a0,zero,.L335
.LBB248:
	.loc 1 1368 7 is_stmt 1
.LVL445:
	.loc 1 1369 7
	.loc 1 1369 61 is_stmt 0
	lw	s4,4(a0)
	.loc 1 1369 25
	lhu	a5,-38(s0)
.LBB249:
.LBB250:
	.loc 1 1449 30
	li	a3,54
.LBE250:
.LBE249:
	.loc 1 1369 61
	addi	s4,s4,240
.LVL446:
.LBB253:
.LBB251:
	.loc 1 1448 3 is_stmt 1
	.loc 1 1448 8
	.loc 1 1448 59
	.loc 1 1448 69
	.loc 1 1449 3
	.loc 1 1449 30 is_stmt 0
	add	a4,s4,a5
	.loc 1 1450 26
	addi	s5,a5,2
	.loc 1 1449 26
	addi	a5,a5,1
.LVL447:
	.loc 1 1450 26
	slli	a5,a5,16
.LVL448:
	srli	a5,a5,16
	.loc 1 1449 30
	sb	a3,0(a4)
.LVL449:
	.loc 1 1450 3 is_stmt 1
	.loc 1 1450 30 is_stmt 0
	add	a5,s4,a5
	li	a4,4
	sb	a4,0(a5)
.LBE251:
.LBE253:
	.loc 1 1370 25
	lw	a0,-36(s0)
.LVL450:
.LBB254:
.LBB252:
	.loc 1 1450 26
	slli	s5,s5,16
.LVL451:
	srli	s5,s5,16
.LVL452:
	.loc 1 1451 3 is_stmt 1
.LBE252:
.LBE254:
	.loc 1 1369 23 is_stmt 0
	sh	s5,-38(s0)
	.loc 1 1370 7 is_stmt 1
	.loc 1 1370 25 is_stmt 0
	call	lwip_htonl
.LVL453:
	mv	a2,a0
	mv	a1,s4
	mv	a0,s5
	call	dhcp_option_long
.LVL454:
	.loc 1 1373 7
	mv	a2,s2
	mv	a1,s4
	.loc 1 1370 23
	sh	a0,-38(s0)
	.loc 1 1372 7 is_stmt 1
	.loc 1 1373 7
	call	dhcp_option_trailer
.LVL455:
	.loc 1 1375 7
	lui	a5,%hi(.LANCHOR2)
	lw	a0,%lo(.LANCHOR2)(a5)
	mv	a4,s3
	li	a3,67
	addi	a2,s0,-36
	mv	a1,s2
	call	udp_sendto_if
.LVL456:
	.loc 1 1376 7
	mv	a0,s2
	call	pbuf_free
.LVL457:
	.loc 1 1377 7
.LBE248:
	.loc 1 1380 7
.L335:
.LBE247:
	.loc 1 1385 3
	lui	a1,%hi(ip_addr_any)
	addi	a3,a1,%lo(ip_addr_any)
	addi	a2,a1,%lo(ip_addr_any)
	mv	a0,s3
	addi	a1,a1,%lo(ip_addr_any)
	call	netif_set_addr
.LVL458:
	.loc 1 1394 3
	li	a1,0
	mv	a0,s1
	call	dhcp_set_state
.LVL459:
	.loc 1 1396 3
	.loc 1 1396 6 is_stmt 0
	lbu	a5,4(s1)
	beq	a5,zero,.L333
	.loc 1 1397 5 is_stmt 1
	call	dhcp_dec_pcb_refcount
.LVL460:
	.loc 1 1398 5
	.loc 1 1398 25 is_stmt 0
	sb	zero,4(s1)
.LVL461:
.L333:
	.loc 1 1400 1
	lw	ra,44(sp)
	.cfi_restore 1
	lw	s0,40(sp)
	.cfi_restore 8
	.cfi_def_cfa 2, 48
	lw	s1,36(sp)
	.cfi_restore 9
.LVL462:
	lw	s2,32(sp)
	.cfi_restore 18
	lw	s3,28(sp)
	.cfi_restore 19
	lw	s4,24(sp)
	.cfi_restore 20
	lw	s5,20(sp)
	.cfi_restore 21
	addi	sp,sp,48
	.cfi_def_cfa_offset 0
	jr	ra
	.cfi_endproc
.LFE29:
	.size	dhcp_release_and_stop, .-dhcp_release_and_stop
	.section	.text.dhcp_start,"ax",@progbits
	.align	1
	.globl	dhcp_start
	.type	dhcp_start, @function
dhcp_start:
.LFB19:
	.loc 1 752 1 is_stmt 1
	.cfi_startproc
.LVL463:
	.loc 1 753 3
	.loc 1 754 3
	.loc 1 756 3
	.loc 1 757 3
	.loc 1 757 8
	.loc 1 752 1 is_stmt 0
	addi	sp,sp,-32
	.cfi_def_cfa_offset 32
	sw	s0,24(sp)
	sw	s1,20(sp)
	sw	ra,28(sp)
	sw	s2,16(sp)
	sw	s3,12(sp)
	.cfi_offset 8, -8
	.cfi_offset 9, -12
	.cfi_offset 1, -4
	.cfi_offset 18, -16
	.cfi_offset 19, -20
	addi	s0,sp,32
	.cfi_def_cfa 8, 0
	.loc 1 757 17
	li	s1,-16
	.loc 1 757 11
	beq	a0,zero,.L355
	.loc 1 758 11 discriminator 2
	lbu	a5,65(a0)
	mv	s2,a0
	.loc 1 757 25 is_stmt 1 discriminator 2
	.loc 1 757 34 discriminator 2
	.loc 1 758 3 discriminator 2
	.loc 1 758 8 discriminator 2
	.loc 1 757 17 is_stmt 0 discriminator 2
	li	s1,-16
	.loc 1 758 11 discriminator 2
	andi	a5,a5,1
	beq	a5,zero,.L355
	.loc 1 758 82 is_stmt 1 discriminator 2
	.loc 1 758 91 discriminator 2
	.loc 1 759 3 discriminator 2
	.loc 1 763 6 is_stmt 0 discriminator 2
	lhu	a4,56(a0)
	li	a5,575
	.loc 1 759 8 discriminator 2
	lw	s3,40(a0)
.LVL464:
	.loc 1 760 3 is_stmt 1 discriminator 2
	.loc 1 763 3 discriminator 2
	.loc 1 763 6 is_stmt 0 discriminator 2
	bgtu	a4,a5,.L356
.LVL465:
.L373:
	.loc 1 812 5 is_stmt 1
	.loc 1 812 12 is_stmt 0
	li	s1,-1
	j	.L355
.LVL466:
.L356:
	.loc 1 769 3 is_stmt 1
	.loc 1 769 6 is_stmt 0
	bne	s3,zero,.L357
	.loc 1 770 5 is_stmt 1
	.loc 1 771 5
	.loc 1 771 27 is_stmt 0
	li	a0,52
.LVL467:
	call	mem_malloc
.LVL468:
	mv	s3,a0
.LVL469:
	.loc 1 772 5 is_stmt 1
	.loc 1 772 8 is_stmt 0
	beq	a0,zero,.L373
	.loc 1 778 5 is_stmt 1
	.loc 1 778 63 is_stmt 0
	sw	a0,40(s2)
	.loc 1 779 5 is_stmt 1
.LVL470:
.L359:
	.loc 1 791 3
	li	a2,52
	li	a1,0
	mv	a0,s3
	call	memset
.LVL471:
	.loc 1 794 3
	.loc 1 796 3
	.loc 1 796 7 is_stmt 0
	call	dhcp_inc_pcb_refcount
.LVL472:
	mv	s1,a0
	.loc 1 796 6
	bne	a0,zero,.L373
	.loc 1 799 3 is_stmt 1
	.loc 1 799 23 is_stmt 0
	li	a5,1
	sb	a5,4(s3)
	.loc 1 801 3 is_stmt 1
	.loc 1 801 6 is_stmt 0
	lbu	a5,65(s2)
	andi	a5,a5,4
	bne	a5,zero,.L360
	.loc 1 803 5 is_stmt 1
	li	a1,2
	mv	a0,s3
	call	dhcp_set_state
.LVL473:
	.loc 1 804 5
.L355:
	.loc 1 815 1 is_stmt 0
	lw	ra,28(sp)
	.cfi_remember_state
	.cfi_restore 1
	lw	s0,24(sp)
	.cfi_restore 8
	.cfi_def_cfa 2, 32
	lw	s2,16(sp)
	.cfi_restore 18
	lw	s3,12(sp)
	.cfi_restore 19
	mv	a0,s1
	lw	s1,20(sp)
	.cfi_restore 9
	addi	sp,sp,32
	.cfi_def_cfa_offset 0
	jr	ra
.LVL474:
.L357:
	.cfi_restore_state
	.loc 1 782 5 is_stmt 1
	.loc 1 784 5
	.loc 1 784 8 is_stmt 0
	lbu	a5,4(s3)
	beq	a5,zero,.L359
	.loc 1 785 7 is_stmt 1
	call	dhcp_dec_pcb_refcount
.LVL475:
	j	.L359
.L360:
	.loc 1 808 3
	.loc 1 808 12 is_stmt 0
	mv	a0,s2
	call	dhcp_discover
.LVL476:
	mv	s1,a0
.LVL477:
	.loc 1 809 3 is_stmt 1
	.loc 1 809 6 is_stmt 0
	beq	a0,zero,.L355
	.loc 1 811 5 is_stmt 1
	mv	a0,s2
.LVL478:
	call	dhcp_release_and_stop
.LVL479:
	j	.L373
	.cfi_endproc
.LFE19:
	.size	dhcp_start, .-dhcp_start
	.section	.text.dhcp_coarse_tmr,"ax",@progbits
	.align	1
	.globl	dhcp_coarse_tmr
	.type	dhcp_coarse_tmr, @function
dhcp_coarse_tmr:
.LFB11:
	.loc 1 431 1
	.cfi_startproc
	.loc 1 432 3
	.loc 1 433 3
	.loc 1 435 3
	.loc 1 431 1 is_stmt 0
	addi	sp,sp,-64
	.cfi_def_cfa_offset 64
	sw	s0,56(sp)
	sw	s1,52(sp)
	sw	s4,40(sp)
	sw	s5,36(sp)
	sw	s6,32(sp)
	sw	s7,28(sp)
	sw	s8,24(sp)
	sw	ra,60(sp)
	sw	s2,48(sp)
	sw	s3,44(sp)
	sw	s9,20(sp)
	.cfi_offset 8, -8
	.cfi_offset 9, -12
	.cfi_offset 20, -24
	.cfi_offset 21, -28
	.cfi_offset 22, -32
	.cfi_offset 23, -36
	.cfi_offset 24, -40
	.cfi_offset 1, -4
	.cfi_offset 18, -16
	.cfi_offset 19, -20
	.cfi_offset 25, -44
	addi	s0,sp,64
	.cfi_def_cfa 8, 0
	.loc 1 435 16
	lui	a5,%hi(netif_list)
	lw	s1,%lo(netif_list)(a5)
.LVL480:
.LBB269:
.LBB270:
.LBB271:
.LBB272:
.LBB273:
	.loc 1 1262 11
	li	s5,8192
.LBB274:
	.loc 1 1241 25
	lui	s6,%hi(.LANCHOR1)
.LBE274:
.LBE273:
.LBE272:
.LBE271:
.LBE270:
	.loc 1 451 38
	li	s4,1
.LBB295:
.LBB293:
.LBB290:
.LBB287:
	.loc 1 1262 11
	addi	s5,s5,1808
.LBB285:
	.loc 1 1241 25
	addi	s6,s6,%lo(.LANCHOR1)
	.loc 1 1252 14
	lui	s7,%hi(.LANCHOR2)
	lui	s8,%hi(ip_addr_broadcast)
.L375:
.LBE285:
.LBE287:
.LBE290:
.LBE293:
.LBE295:
.LBE269:
	.loc 1 435 30 is_stmt 1 discriminator 1
	.loc 1 435 3 is_stmt 0 discriminator 1
	bne	s1,zero,.L386
	.loc 1 458 1
	lw	ra,60(sp)
	.cfi_remember_state
	.cfi_restore 1
	lw	s0,56(sp)
	.cfi_restore 8
	.cfi_def_cfa 2, 64
	lw	s1,52(sp)
	.cfi_restore 9
.LVL481:
	lw	s2,48(sp)
	.cfi_restore 18
	lw	s3,44(sp)
	.cfi_restore 19
	lw	s4,40(sp)
	.cfi_restore 20
	lw	s5,36(sp)
	.cfi_restore 21
	lw	s6,32(sp)
	.cfi_restore 22
	lw	s7,28(sp)
	.cfi_restore 23
	lw	s8,24(sp)
	.cfi_restore 24
	lw	s9,20(sp)
	.cfi_restore 25
	addi	sp,sp,64
	.cfi_def_cfa_offset 0
	jr	ra
.LVL482:
.L386:
	.cfi_restore_state
.LBB299:
	.loc 1 437 5 is_stmt 1
	.loc 1 437 18 is_stmt 0
	lw	a5,40(s1)
.LVL483:
	.loc 1 438 5 is_stmt 1
	.loc 1 438 8 is_stmt 0
	beq	a5,zero,.L377
	.loc 1 438 23 discriminator 1
	lbu	a4,5(a5)
	beq	a4,zero,.L377
	.loc 1 440 7 is_stmt 1
	.loc 1 440 15 is_stmt 0
	lhu	a3,20(a5)
	.loc 1 440 10
	beq	a3,zero,.L379
	.loc 1 440 32 discriminator 1
	lhu	a4,18(a5)
	addi	a4,a4,1
	slli	a4,a4,16
	srli	a4,a4,16
	.loc 1 440 28 discriminator 1
	sh	a4,18(a5)
	bne	a3,a4,.L379
	.loc 1 441 9 is_stmt 1
	.loc 1 443 9
	mv	a0,s1
	call	dhcp_release_and_stop
.LVL484:
	.loc 1 444 9
	mv	a0,s1
	call	dhcp_start
.LVL485:
.L377:
.LBE299:
	.loc 1 435 4 discriminator 2
	.loc 1 435 12 is_stmt 0 discriminator 2
	lw	s1,0(s1)
.LVL486:
	j	.L375
.LVL487:
.L379:
.LBB300:
	.loc 1 446 14 is_stmt 1
	.loc 1 446 22 is_stmt 0
	lhu	a4,16(a5)
	.loc 1 446 17
	beq	a4,zero,.L380
	.loc 1 446 63 discriminator 1
	addi	a3,a4,-1
	sh	a3,16(a5)
	.loc 1 446 39 discriminator 1
	bne	a4,s4,.L380
	.loc 1 447 9 is_stmt 1
	.loc 1 449 9
.LVL488:
.LBB296:
.LBB294:
	.loc 1 575 3
	.loc 1 575 16 is_stmt 0
	lw	s2,40(s1)
.LVL489:
	.loc 1 577 3 is_stmt 1
	.loc 1 578 3
	.loc 1 578 6 is_stmt 0
	li	a5,10
.LVL490:
	.loc 1 578 12
	lbu	a4,5(s2)
	.loc 1 578 6
	bgtu	a4,a5,.L377
	li	a5,1074
	srl	a5,a5,a4
	andi	a5,a5,1
	beq	a5,zero,.L377
	.loc 1 582 54 is_stmt 1
	.loc 1 585 5
.LVL491:
.LBB291:
.LBB288:
	.loc 1 1222 3
	.loc 1 1223 3
	.loc 1 1224 3
	.loc 1 1225 3
	.loc 1 1226 3
	.loc 1 1227 3
	.loc 1 1229 3
	.loc 1 1230 3
	li	a1,4
	mv	a0,s2
	call	dhcp_set_state
.LVL492:
	.loc 1 1233 3
	.loc 1 1233 11 is_stmt 0
	addi	a3,s0,-50
	li	a2,3
	mv	a1,s2
	mv	a0,s1
	call	dhcp_create_msg
.LVL493:
	mv	s9,a0
.LVL494:
	.loc 1 1234 3 is_stmt 1
	.loc 1 1234 6 is_stmt 0
	beq	a0,zero,.L381
.LBB286:
	.loc 1 1235 5 is_stmt 1
.LVL495:
	.loc 1 1236 5
	.loc 1 1236 59 is_stmt 0
	lw	s3,4(a0)
	.loc 1 1236 23
	lhu	a5,-50(s0)
.LBB275:
.LBB276:
	.loc 1 1449 30
	li	a3,57
.LBE276:
.LBE275:
	.loc 1 1236 59
	addi	s3,s3,240
.LVL496:
.LBB279:
.LBB277:
	.loc 1 1448 3 is_stmt 1
	.loc 1 1448 8
	.loc 1 1448 59
	.loc 1 1448 69
	.loc 1 1449 3
	.loc 1 1449 30 is_stmt 0
	add	a4,s3,a5
	.loc 1 1450 26
	addi	a0,a5,2
.LVL497:
	.loc 1 1449 26
	addi	a5,a5,1
.LVL498:
	.loc 1 1450 26
	slli	a5,a5,16
.LVL499:
	srli	a5,a5,16
	.loc 1 1449 30
	sb	a3,0(a4)
.LVL500:
	.loc 1 1450 3 is_stmt 1
	.loc 1 1450 30 is_stmt 0
	add	a5,s3,a5
	li	a4,2
	sb	a4,0(a5)
.LBE277:
.LBE279:
	.loc 1 1237 23
	lhu	a2,56(s1)
.LBB280:
.LBB278:
	.loc 1 1450 26
	slli	a0,a0,16
.LVL501:
	srli	a0,a0,16
.LVL502:
	.loc 1 1451 3 is_stmt 1
.LBE278:
.LBE280:
	.loc 1 1237 23 is_stmt 0
	mv	a1,s3
	.loc 1 1236 21
	sh	a0,-50(s0)
	.loc 1 1237 5 is_stmt 1
	.loc 1 1237 23 is_stmt 0
	call	dhcp_option_short
.LVL503:
	.loc 1 1239 5 is_stmt 1
.LBB281:
.LBB282:
	.loc 1 1448 3
	.loc 1 1448 8
	.loc 1 1448 59
	.loc 1 1448 69
	.loc 1 1449 3
	.loc 1 1449 30 is_stmt 0
	add	a5,s3,a0
	li	a4,55
	sb	a4,0(a5)
	.loc 1 1450 3 is_stmt 1
.LVL504:
	.loc 1 1449 26 is_stmt 0
	addi	a5,a0,1
	.loc 1 1450 26
	slli	a5,a5,16
	srli	a5,a5,16
	.loc 1 1450 30
	add	a5,s3,a5
	li	a4,4
	sb	a4,0(a5)
	.loc 1 1451 3 is_stmt 1
.LVL505:
	.loc 1 1450 26 is_stmt 0
	addi	a0,a0,2
.LBE282:
.LBE281:
	.loc 1 1239 21
	sh	a0,-50(s0)
	.loc 1 1240 5 is_stmt 1
.LVL506:
	.loc 1 1240 17
	.loc 1 1239 21 is_stmt 0
	li	a5,0
	.loc 1 1240 5
	li	a3,4
.LVL507:
.L382:
	.loc 1 1241 7 is_stmt 1
	.loc 1 1241 25 is_stmt 0
	lhu	a4,-50(s0)
	add	a2,s6,a5
	lbu	a2,0(a2)
.LVL508:
.LBB283:
.LBB284:
	.loc 1 1460 3 is_stmt 1
	.loc 1 1460 8
	.loc 1 1460 40
	.loc 1 1460 50
	.loc 1 1461 3
	.loc 1 1461 26 is_stmt 0
	addi	a0,a4,1
	slli	a0,a0,16
	.loc 1 1461 30
	add	a4,s3,a4
.LVL509:
	.loc 1 1461 26
	srli	a0,a0,16
.LVL510:
	.loc 1 1461 30
	sb	a2,0(a4)
	.loc 1 1462 3 is_stmt 1
.LVL511:
.LBE284:
.LBE283:
	.loc 1 1241 23 is_stmt 0
	sh	a0,-50(s0)
	.loc 1 1240 105 is_stmt 1
.LVL512:
	.loc 1 1240 17
	.loc 1 1240 5 is_stmt 0
	addi	a5,a5,1
.LVL513:
	bne	a5,a3,.L382
	.loc 1 1245 5 is_stmt 1
	.loc 1 1245 23 is_stmt 0
	mv	a2,s1
	mv	a1,s3
	call	dhcp_option_hostname
.LVL514:
	.loc 1 1249 5
	mv	a2,s9
	mv	a1,s3
	.loc 1 1245 21
	sh	a0,-50(s0)
	.loc 1 1248 5 is_stmt 1
	.loc 1 1249 5
	call	dhcp_option_trailer
.LVL515:
	.loc 1 1252 5
	.loc 1 1252 14 is_stmt 0
	lw	a0,%lo(.LANCHOR2)(s7)
	mv	a4,s1
	li	a3,67
	addi	a2,s8,%lo(ip_addr_broadcast)
	mv	a1,s9
	call	udp_sendto_if
.LVL516:
	.loc 1 1253 5 is_stmt 1
	mv	a0,s9
	call	pbuf_free
.LVL517:
	.loc 1 1254 5
.L381:
.LBE286:
	.loc 1 1259 3
	.loc 1 1259 11 is_stmt 0
	lbu	a5,6(s2)
	.loc 1 1259 6
	li	a4,255
	beq	a5,a4,.L383
	.loc 1 1260 5 is_stmt 1
	.loc 1 1260 16 is_stmt 0
	addi	a5,a5,1
	sb	a5,6(s2)
.L383:
	.loc 1 1262 3 is_stmt 1
	.loc 1 1262 23 is_stmt 0
	lbu	a4,6(s2)
	.loc 1 1262 11
	li	a3,9
	mv	a5,s5
	bgtu	a4,a3,.L384
	li	a5,1000
	mul	a5,a4,a5
	slli	a5,a5,16
	srli	a5,a5,16
.L384:
.LVL518:
	.loc 1 1263 3 is_stmt 1
	.loc 1 1263 48 is_stmt 0
	addi	a5,a5,499
.LVL519:
	slli	a5,a5,16
	.loc 1 1263 53
	li	a4,500
	.loc 1 1263 48
	srli	a5,a5,16
	.loc 1 1263 53
	div	a5,a5,a4
.LBE288:
.LBE291:
	.loc 1 587 34
	lhu	a4,18(s2)
.LBB292:
.LBB289:
	.loc 1 1263 27
	sh	a5,8(s2)
	.loc 1 1264 3 is_stmt 1
	.loc 1 1265 3
.LVL520:
.LBE289:
.LBE292:
	.loc 1 587 5
	.loc 1 587 15 is_stmt 0
	lhu	a5,20(s2)
	.loc 1 587 28
	sub	a5,a5,a4
	.loc 1 587 8
	li	a4,23
	ble	a5,a4,.L377
	.loc 1 588 7 is_stmt 1
	.loc 1 588 76 is_stmt 0
	srai	a5,a5,1
	.loc 1 588 30
	sh	a5,16(s2)
	j	.L377
.LVL521:
.L380:
.LBE294:
.LBE296:
	.loc 1 451 14 is_stmt 1
	.loc 1 451 22 is_stmt 0
	lhu	a4,14(a5)
	.loc 1 451 17
	beq	a4,zero,.L377
	.loc 1 451 61 discriminator 1
	addi	a3,a4,-1
	sh	a3,14(a5)
	.loc 1 451 38 discriminator 1
	bne	a4,s4,.L377
	.loc 1 452 9 is_stmt 1
	.loc 1 454 9
.LVL522:
.LBB297:
.LBB298:
	.loc 1 548 3
	.loc 1 548 16 is_stmt 0
	lw	s2,40(s1)
.LVL523:
	.loc 1 550 3 is_stmt 1
	.loc 1 551 3
	.loc 1 551 12 is_stmt 0
	lbu	a5,5(s2)
.LVL524:
	.loc 1 551 6
	andi	a4,a5,251
	beq	a4,s4,.L385
	.loc 1 551 46
	li	a4,10
	bne	a5,a4,.L377
.L385:
	.loc 1 556 53 is_stmt 1
	.loc 1 559 5
	mv	a0,s1
	call	dhcp_renew
.LVL525:
	.loc 1 561 5
	.loc 1 561 34 is_stmt 0
	lhu	a4,18(s2)
	.loc 1 561 15
	lhu	a5,12(s2)
	.loc 1 561 28
	sub	a5,a5,a4
	.loc 1 561 8
	li	a4,23
	ble	a5,a4,.L377
	.loc 1 562 7 is_stmt 1
	.loc 1 562 75 is_stmt 0
	srai	a5,a5,1
	.loc 1 562 29
	sh	a5,14(s2)
	j	.L377
.LBE298:
.LBE297:
.LBE300:
	.cfi_endproc
.LFE11:
	.size	dhcp_coarse_tmr, .-dhcp_coarse_tmr
	.section	.text.dhcp_fine_tmr,"ax",@progbits
	.align	1
	.globl	dhcp_fine_tmr
	.type	dhcp_fine_tmr, @function
dhcp_fine_tmr:
.LFB12:
	.loc 1 469 1 is_stmt 1
	.cfi_startproc
	.loc 1 470 3
	.loc 1 472 3
	.loc 1 469 1 is_stmt 0
	addi	sp,sp,-48
	.cfi_def_cfa_offset 48
	sw	s0,40(sp)
	sw	s1,36(sp)
	sw	s2,32(sp)
	sw	s3,28(sp)
	sw	s4,24(sp)
	sw	s5,20(sp)
	sw	s6,16(sp)
	sw	s7,12(sp)
	sw	ra,44(sp)
	.cfi_offset 8, -8
	.cfi_offset 9, -12
	.cfi_offset 18, -16
	.cfi_offset 19, -20
	.cfi_offset 20, -24
	.cfi_offset 21, -28
	.cfi_offset 22, -32
	.cfi_offset 23, -36
	.cfi_offset 1, -4
	addi	s0,sp,48
	.cfi_def_cfa 8, 0
	.loc 1 472 16
	lui	a5,%hi(netif_list)
	lw	s1,%lo(netif_list)(a5)
.LVL526:
.LBB304:
	.loc 1 477 10
	li	s2,1
.LBB305:
.LBB306:
	.loc 1 505 6
	li	s3,12
	.loc 1 505 47
	li	s4,6
	.loc 1 520 13
	li	s5,8
	.loc 1 531 13
	li	s6,3
	.loc 1 511 8
	li	s7,5
.L406:
.LBE306:
.LBE305:
.LBE304:
	.loc 1 472 30 is_stmt 1 discriminator 1
	.loc 1 472 3 is_stmt 0 discriminator 1
	bne	s1,zero,.L418
	.loc 1 488 1
	lw	ra,44(sp)
	.cfi_remember_state
	.cfi_restore 1
	lw	s0,40(sp)
	.cfi_restore 8
	.cfi_def_cfa 2, 48
	lw	s1,36(sp)
	.cfi_restore 9
.LVL527:
	lw	s2,32(sp)
	.cfi_restore 18
	lw	s3,28(sp)
	.cfi_restore 19
	lw	s4,24(sp)
	.cfi_restore 20
	lw	s5,20(sp)
	.cfi_restore 21
	lw	s6,16(sp)
	.cfi_restore 22
	lw	s7,12(sp)
	.cfi_restore 23
	addi	sp,sp,48
	.cfi_def_cfa_offset 0
	jr	ra
.LVL528:
.L418:
	.cfi_restore_state
.LBB309:
	.loc 1 473 5 is_stmt 1
	.loc 1 473 18 is_stmt 0
	lw	a4,40(s1)
.LVL529:
	.loc 1 475 5 is_stmt 1
	.loc 1 475 8 is_stmt 0
	beq	a4,zero,.L408
	.loc 1 477 7 is_stmt 1
	.loc 1 477 15 is_stmt 0
	lhu	a5,8(a4)
	.loc 1 477 10
	bleu	a5,s2,.L409
	.loc 1 478 9 is_stmt 1
	.loc 1 478 30 is_stmt 0
	addi	a5,a5,-1
	sh	a5,8(a4)
.LVL530:
.L408:
.LBE309:
	.loc 1 472 4 is_stmt 1 discriminator 2
	.loc 1 472 12 is_stmt 0 discriminator 2
	lw	s1,0(s1)
.LVL531:
	j	.L406
.LVL532:
.L409:
.LBB310:
	.loc 1 479 14 is_stmt 1
	.loc 1 479 17 is_stmt 0
	bne	a5,s2,.L408
	.loc 1 480 9 is_stmt 1
	.loc 1 480 30 is_stmt 0
	sh	zero,8(a4)
	.loc 1 482 9 is_stmt 1
	.loc 1 484 9
.LVL533:
.LBB308:
.LBB307:
	.loc 1 501 3
	.loc 1 501 16 is_stmt 0
	lw	a4,40(s1)
.LVL534:
	.loc 1 503 3 is_stmt 1
	.loc 1 505 3
	.loc 1 505 12 is_stmt 0
	lbu	a5,5(a4)
	.loc 1 505 6
	beq	a5,s3,.L411
	.loc 1 505 47
	bne	a5,s4,.L412
.L411:
	.loc 1 506 5 is_stmt 1
	.loc 1 507 5
	mv	a0,s1
.L417:
	.loc 1 535 7
	call	dhcp_discover
.LVL535:
	j	.L408
.LVL536:
.L412:
	.loc 1 509 10
	.loc 1 509 13 is_stmt 0
	bne	a5,s2,.L413
	.loc 1 510 5 is_stmt 1
	.loc 1 511 5
	.loc 1 511 8 is_stmt 0
	lbu	a5,6(a4)
	.loc 1 512 7
	mv	a0,s1
	.loc 1 511 8
	bgtu	a5,s7,.L414
	.loc 1 512 7 is_stmt 1
	call	dhcp_select.isra.0
.LVL537:
	j	.L408
.LVL538:
.L414:
	.loc 1 514 7
	.loc 1 515 7
	call	dhcp_release_and_stop
.LVL539:
	.loc 1 516 7
	mv	a0,s1
	call	dhcp_start
.LVL540:
	j	.L408
.LVL541:
.L413:
	.loc 1 520 10
	.loc 1 520 13 is_stmt 0
	bne	a5,s5,.L415
	.loc 1 521 5 is_stmt 1
	.loc 1 522 5
	.loc 1 522 8 is_stmt 0
	lbu	a5,6(a4)
	.loc 1 523 7
	mv	a0,s1
	.loc 1 522 8
	bgtu	a5,s2,.L416
	.loc 1 523 7 is_stmt 1
	call	dhcp_check
.LVL542:
	j	.L408
.LVL543:
.L416:
	.loc 1 528 7
	call	dhcp_bind
.LVL544:
	j	.L408
.LVL545:
.L415:
	.loc 1 531 10
	.loc 1 531 13 is_stmt 0
	bne	a5,s6,.L408
	.loc 1 532 5 is_stmt 1
	.loc 1 532 8 is_stmt 0
	lbu	a5,6(a4)
	.loc 1 533 7
	mv	a0,s1
	.loc 1 532 8
	bgtu	a5,s2,.L417
	.loc 1 533 7 is_stmt 1
	call	dhcp_reboot.isra.0
.LVL546:
	j	.L408
.LBE307:
.LBE308:
.LBE310:
	.cfi_endproc
.LFE12:
	.size	dhcp_fine_tmr, .-dhcp_fine_tmr
	.section	.text.dhcp_release,"ax",@progbits
	.align	1
	.globl	dhcp_release
	.type	dhcp_release, @function
dhcp_release:
.LFB30:
	.loc 1 1409 1
	.cfi_startproc
.LVL547:
	.loc 1 1410 3
	.loc 1 1409 1 is_stmt 0
	addi	sp,sp,-16
	.cfi_def_cfa_offset 16
	sw	s0,8(sp)
	sw	ra,12(sp)
	.cfi_offset 8, -8
	.cfi_offset 1, -4
	addi	s0,sp,16
	.cfi_def_cfa 8, 0
	.loc 1 1410 3
	call	dhcp_release_and_stop
.LVL548:
	.loc 1 1411 3 is_stmt 1
	.loc 1 1412 1 is_stmt 0
	lw	ra,12(sp)
	.cfi_restore 1
	lw	s0,8(sp)
	.cfi_restore 8
	.cfi_def_cfa 2, 16
	li	a0,0
	addi	sp,sp,16
	.cfi_def_cfa_offset 0
	jr	ra
	.cfi_endproc
.LFE30:
	.size	dhcp_release, .-dhcp_release
	.section	.text.dhcp_stop,"ax",@progbits
	.align	1
	.globl	dhcp_stop
	.type	dhcp_stop, @function
dhcp_stop:
.LFB31:
	.loc 1 1421 1 is_stmt 1
	.cfi_startproc
.LVL549:
	.loc 1 1422 3
	.loc 1 1421 1 is_stmt 0
	addi	sp,sp,-16
	.cfi_def_cfa_offset 16
	sw	s0,12(sp)
	.cfi_offset 8, -4
	addi	s0,sp,16
	.cfi_def_cfa 8, 0
	.loc 1 1423 1
	lw	s0,12(sp)
	.cfi_restore 8
	.cfi_def_cfa 2, 16
	addi	sp,sp,16
	.cfi_def_cfa_offset 0
	.loc 1 1422 3
	tail	dhcp_release_and_stop
.LVL550:
	.cfi_endproc
.LFE31:
	.size	dhcp_stop, .-dhcp_stop
	.comm	dhcp_rx_options_given,10,4
	.comm	dhcp_rx_options_val,40,4
	.section	.sbss.dhcp_pcb,"aw",@nobits
	.align	2
	.set	.LANCHOR2,. + 0
	.type	dhcp_pcb, @object
	.size	dhcp_pcb, 4
dhcp_pcb:
	.zero	4
	.section	.sbss.dhcp_pcb_refcount,"aw",@nobits
	.set	.LANCHOR3,. + 0
	.type	dhcp_pcb_refcount, @object
	.size	dhcp_pcb_refcount, 1
dhcp_pcb_refcount:
	.zero	1
	.section	.sbss.xid.0,"aw",@nobits
	.align	2
	.set	.LANCHOR0,. + 0
	.type	xid.0, @object
	.size	xid.0, 4
xid.0:
	.zero	4
	.section	.srodata.dhcp_discover_request_options,"a"
	.align	2
	.set	.LANCHOR1,. + 0
	.type	dhcp_discover_request_options, @object
	.size	dhcp_discover_request_options, 4
dhcp_discover_request_options:
	.ascii	"\001\003\034\006"
	.text
.Letext0:
	.file 2 "/home/dinhquangha/intern/Ai-Thinker-WB2/toolchain/riscv/Linux/riscv64-unknown-elf/include/machine/_default_types.h"
	.file 3 "/home/dinhquangha/intern/Ai-Thinker-WB2/toolchain/riscv/Linux/lib/gcc/riscv64-unknown-elf/10.2.0/include/stddef.h"
	.file 4 "/home/dinhquangha/intern/Ai-Thinker-WB2/toolchain/riscv/Linux/riscv64-unknown-elf/include/sys/_stdint.h"
	.file 5 "/home/dinhquangha/intern/Ai-Thinker-WB2/components/network/lwip/src/include/lwip/arch.h"
	.file 6 "/home/dinhquangha/intern/Ai-Thinker-WB2/components/network/lwip/src/include/lwip/memp.h"
	.file 7 "/home/dinhquangha/intern/Ai-Thinker-WB2/components/network/lwip/src/include/lwip/err.h"
	.file 8 "/home/dinhquangha/intern/Ai-Thinker-WB2/components/network/lwip/src/include/lwip/pbuf.h"
	.file 9 "/home/dinhquangha/intern/Ai-Thinker-WB2/components/network/lwip/src/include/lwip/ip4_addr.h"
	.file 10 "/home/dinhquangha/intern/Ai-Thinker-WB2/components/network/lwip/src/include/lwip/ip_addr.h"
	.file 11 "/home/dinhquangha/intern/Ai-Thinker-WB2/components/network/lwip/src/include/lwip/netif.h"
	.file 12 "/home/dinhquangha/intern/Ai-Thinker-WB2/components/network/lwip/src/include/lwip/prot/ip4.h"
	.file 13 "/home/dinhquangha/intern/Ai-Thinker-WB2/components/network/lwip/src/include/lwip/ip.h"
	.file 14 "/home/dinhquangha/intern/Ai-Thinker-WB2/components/network/lwip/src/include/lwip/udp.h"
	.file 15 "/home/dinhquangha/intern/Ai-Thinker-WB2/components/network/lwip/src/include/lwip/dhcp.h"
	.file 16 "/home/dinhquangha/intern/Ai-Thinker-WB2/components/network/lwip/src/include/lwip/prot/dhcp.h"
	.file 17 "/home/dinhquangha/intern/Ai-Thinker-WB2/components/network/lwip/src/include/lwip/prot/iana.h"
	.file 18 "/home/dinhquangha/intern/Ai-Thinker-WB2/components/network/lwip/lwip-port/config/lwipopts.h"
	.file 19 "/home/dinhquangha/intern/Ai-Thinker-WB2/toolchain/riscv/Linux/riscv64-unknown-elf/include/string.h"
	.file 20 "/home/dinhquangha/intern/Ai-Thinker-WB2/components/network/lwip/src/include/lwip/def.h"
	.file 21 "/home/dinhquangha/intern/Ai-Thinker-WB2/components/network/lwip/src/include/lwip/mem.h"
	.file 22 "/home/dinhquangha/intern/Ai-Thinker-WB2/components/network/lwip/src/include/lwip/etharp.h"
	.file 23 "/home/dinhquangha/intern/Ai-Thinker-WB2/components/network/lwip/src/include/lwip/dns.h"
	.file 24 "/home/dinhquangha/intern/Ai-Thinker-WB2/toolchain/riscv/Linux/riscv64-unknown-elf/include/stdio.h"