	.file	"altcp_tcp.c"
	.option nopic
	.attribute arch, "rv32i2p0_m2p0_f2p0_c2p0"
	.attribute unaligned_access, 0
	.attribute stack_align, 16
	.text
.Ltext0:
	.cfi_sections	.debug_frame
	.section	.text.altcp_tcp_connected,"ax",@progbits
	.align	1
	.type	altcp_tcp_connected, @function
altcp_tcp_connected:
.LFB6:
	.file 1 "/home/dinhquangha/Ai-Thinker-WB2/components/network/lwip/src/core/altcp_tcp.c"
	.loc 1 90 1
	.cfi_startproc
.LVL0:
	.loc 1 91 3
	.loc 1 92 3
	.loc 1 90 1 is_stmt 0
	addi	sp,sp,-16
	.cfi_def_cfa_offset 16
	sw	s0,12(sp)
	.cfi_offset 8, -4
	addi	s0,sp,16
	.cfi_def_cfa 8, 0
	.loc 1 92 6
	beq	a0,zero,.L2
	.loc 1 94 13
	lw	a5,20(a0)
	mv	a1,a0
.LVL1:
	.loc 1 93 5 is_stmt 1
	.loc 1 93 10
	.loc 1 93 15
	.loc 1 93 47
	.loc 1 93 57
	.loc 1 93 62
	.loc 1 93 74
	.loc 1 93 79
	.loc 1 93 84
	.loc 1 93 9
	.loc 1 93 19
	.loc 1 93 24
	.loc 1 93 43
	.loc 1 93 55
	.loc 1 94 5
	.loc 1 94 8 is_stmt 0
	beq	a5,zero,.L2
	.loc 1 95 7 is_stmt 1
	.loc 1 99 1 is_stmt 0
	lw	s0,12(sp)
	.cfi_remember_state
	.cfi_restore 8
	.cfi_def_cfa 2, 16
	.loc 1 95 14
	lw	a0,8(a0)
.LVL2:
	.loc 1 99 1
	addi	sp,sp,16
	.cfi_def_cfa_offset 0
	.loc 1 95 14
	jr	a5
.LVL3:
.L2:
	.cfi_restore_state
	.loc 1 99 1
	lw	s0,12(sp)
	.cfi_restore 8
	.cfi_def_cfa 2, 16
	li	a0,0
.LVL4:
	addi	sp,sp,16
	.cfi_def_cfa_offset 0
	jr	ra
	.cfi_endproc
.LFE6:
	.size	altcp_tcp_connected, .-altcp_tcp_connected
	.section	.text.altcp_tcp_sent,"ax",@progbits
	.align	1
	.type	altcp_tcp_sent, @function
altcp_tcp_sent:
.LFB8:
	.loc 1 120 1 is_stmt 1
	.cfi_startproc
.LVL5:
	.loc 1 121 3
	.loc 1 122 3
	.loc 1 120 1 is_stmt 0
	addi	sp,sp,-16
	.cfi_def_cfa_offset 16
	sw	s0,12(sp)
	.cfi_offset 8, -4
	addi	s0,sp,16
	.cfi_def_cfa 8, 0
	.loc 1 122 6
	beq	a0,zero,.L9
	.loc 1 124 13
	lw	a5,28(a0)
	mv	a1,a0
.LVL6:
	.loc 1 123 5 is_stmt 1
	.loc 1 123 10
	.loc 1 123 15
	.loc 1 123 47
	.loc 1 123 57
	.loc 1 123 62
	.loc 1 123 74
	.loc 1 123 79
	.loc 1 123 84
	.loc 1 123 9
	.loc 1 123 19
	.loc 1 123 24
	.loc 1 123 43
	.loc 1 123 55
	.loc 1 124 5
	.loc 1 124 8 is_stmt 0
	beq	a5,zero,.L9
	.loc 1 125 7 is_stmt 1
	.loc 1 129 1 is_stmt 0
	lw	s0,12(sp)
	.cfi_remember_state
	.cfi_restore 8
	.cfi_def_cfa 2, 16
	.loc 1 125 14
	lw	a0,8(a0)
.LVL7:
	.loc 1 129 1
	addi	sp,sp,16
	.cfi_def_cfa_offset 0
	.loc 1 125 14
	jr	a5
.LVL8:
.L9:
	.cfi_restore_state
	.loc 1 129 1
	lw	s0,12(sp)
	.cfi_restore 8
	.cfi_def_cfa 2, 16
	li	a0,0
.LVL9:
	addi	sp,sp,16
	.cfi_def_cfa_offset 0
	jr	ra
	.cfi_endproc
.LFE8:
	.size	altcp_tcp_sent, .-altcp_tcp_sent
	.section	.text.altcp_tcp_poll,"ax",@progbits
	.align	1
	.type	altcp_tcp_poll, @function
altcp_tcp_poll:
.LFB9:
	.loc 1 133 1 is_stmt 1
	.cfi_startproc
.LVL10:
	.loc 1 134 3
	.loc 1 135 3
	.loc 1 133 1 is_stmt 0
	addi	sp,sp,-16
	.cfi_def_cfa_offset 16
	sw	s0,12(sp)
	.cfi_offset 8, -4
	addi	s0,sp,16
	.cfi_def_cfa 8, 0
	.loc 1 135 6
	beq	a0,zero,.L16
	.loc 1 137 13
	lw	a5,32(a0)
	mv	a1,a0
.LVL11:
	.loc 1 136 5 is_stmt 1
	.loc 1 136 10
	.loc 1 136 15
	.loc 1 136 47
	.loc 1 136 57
	.loc 1 136 62
	.loc 1 136 74
	.loc 1 136 79
	.loc 1 136 84
	.loc 1 136 9
	.loc 1 136 19
	.loc 1 136 24
	.loc 1 136 43
	.loc 1 136 55
	.loc 1 137 5
	.loc 1 137 8 is_stmt 0
	beq	a5,zero,.L16
	.loc 1 138 7 is_stmt 1
	.loc 1 142 1 is_stmt 0
	lw	s0,12(sp)
	.cfi_remember_state
	.cfi_restore 8
	.cfi_def_cfa 2, 16
	.loc 1 138 14
	lw	a0,8(a0)
.LVL12:
	.loc 1 142 1
	addi	sp,sp,16
	.cfi_def_cfa_offset 0
	.loc 1 138 14
	jr	a5
.LVL13:
.L16:
	.cfi_restore_state
	.loc 1 142 1
	lw	s0,12(sp)
	.cfi_restore 8
	.cfi_def_cfa 2, 16
	li	a0,0
.LVL14:
	addi	sp,sp,16
	.cfi_def_cfa_offset 0
	jr	ra
	.cfi_endproc
.LFE9:
	.size	altcp_tcp_poll, .-altcp_tcp_poll
	.section	.text.altcp_tcp_mss,"ax",@progbits
	.align	1
	.type	altcp_tcp_mss, @function
altcp_tcp_mss:
.LFB27:
	.loc 1 374 1 is_stmt 1
	.cfi_startproc
.LVL15:
	.loc 1 375 3
	.loc 1 376 3
	.loc 1 374 1 is_stmt 0
	addi	sp,sp,-16
	.cfi_def_cfa_offset 16
	sw	s0,12(sp)
	.cfi_offset 8, -4
	addi	s0,sp,16
	.cfi_def_cfa 8, 0
	.loc 1 376 6
	beq	a0,zero,.L24
	.loc 1 379 3 is_stmt 1
	.loc 1 379 8
	.loc 1 379 13
	.loc 1 379 7
	.loc 1 379 17
	.loc 1 379 22
	.loc 1 379 41
	.loc 1 380 3
.LVL16:
	.loc 1 381 3
	.loc 1 381 16 is_stmt 0
	lw	a5,12(a0)
	lhu	a0,54(a5)
.LVL17:
.L23:
	.loc 1 382 1
	lw	s0,12(sp)
	.cfi_remember_state
	.cfi_restore 8
	.cfi_def_cfa 2, 16
	addi	sp,sp,16
	.cfi_def_cfa_offset 0
	jr	ra
.LVL18:
.L24:
	.cfi_restore_state
	.loc 1 377 12
	li	a0,0
.LVL19:
	j	.L23
	.cfi_endproc
.LFE27:
	.size	altcp_tcp_mss, .-altcp_tcp_mss
	.section	.text.altcp_tcp_sndbuf,"ax",@progbits
	.align	1
	.type	altcp_tcp_sndbuf, @function
altcp_tcp_sndbuf:
.LFB28:
	.loc 1 386 1 is_stmt 1
	.cfi_startproc
.LVL20:
	.loc 1 387 3
	.loc 1 388 3
	.loc 1 386 1 is_stmt 0
	addi	sp,sp,-16
	.cfi_def_cfa_offset 16
	sw	s0,12(sp)
	.cfi_offset 8, -4
	addi	s0,sp,16
	.cfi_def_cfa 8, 0
	.loc 1 388 6
	beq	a0,zero,.L28
	.loc 1 391 3 is_stmt 1
	.loc 1 391 8
	.loc 1 391 13
	.loc 1 391 7
	.loc 1 391 17
	.loc 1 391 22
	.loc 1 391 41
	.loc 1 392 3
.LVL21:
	.loc 1 393 3
	.loc 1 393 17 is_stmt 0
	lw	a5,12(a0)
	lhu	a0,104(a5)
.LVL22:
.L27:
	.loc 1 394 1
	lw	s0,12(sp)
	.cfi_remember_state
	.cfi_restore 8
	.cfi_def_cfa 2, 16
	addi	sp,sp,16
	.cfi_def_cfa_offset 0
	jr	ra
.LVL23:
.L28:
	.cfi_restore_state
	.loc 1 389 12
	li	a0,0
.LVL24:
	j	.L27
	.cfi_endproc
.LFE28:
	.size	altcp_tcp_sndbuf, .-altcp_tcp_sndbuf
	.section	.text.altcp_tcp_sndqueuelen,"ax",@progbits
	.align	1
	.type	altcp_tcp_sndqueuelen, @function
altcp_tcp_sndqueuelen:
.LFB29:
	.loc 1 398 1 is_stmt 1
	.cfi_startproc
.LVL25:
	.loc 1 399 3
	.loc 1 400 3
	.loc 1 398 1 is_stmt 0
	addi	sp,sp,-16
	.cfi_def_cfa_offset 16
	sw	s0,12(sp)
	.cfi_offset 8, -4
	addi	s0,sp,16
	.cfi_def_cfa 8, 0
	.loc 1 400 6
	beq	a0,zero,.L32
	.loc 1 403 3 is_stmt 1
	.loc 1 403 8
	.loc 1 403 13
	.loc 1 403 7
	.loc 1 403 17
	.loc 1 403 22
	.loc 1 403 41
	.loc 1 404 3
.LVL26:
	.loc 1 405 3
	.loc 1 405 16 is_stmt 0
	lw	a5,12(a0)
	lhu	a0,106(a5)
.LVL27:
.L31:
	.loc 1 406 1
	lw	s0,12(sp)
	.cfi_remember_state
	.cfi_restore 8
	.cfi_def_cfa 2, 16
	addi	sp,sp,16
	.cfi_def_cfa_offset 0
	jr	ra
.LVL28:
.L32:
	.cfi_restore_state
	.loc 1 401 12
	li	a0,0
.LVL29:
	j	.L31
	.cfi_endproc
.LFE29:
	.size	altcp_tcp_sndqueuelen, .-altcp_tcp_sndqueuelen
	.section	.text.altcp_tcp_nagle_disable,"ax",@progbits
	.align	1
	.type	altcp_tcp_nagle_disable, @function
altcp_tcp_nagle_disable:
.LFB30:
	.loc 1 410 1 is_stmt 1
	.cfi_startproc
.LVL30:
	.loc 1 411 3
	.loc 1 410 1 is_stmt 0
	addi	sp,sp,-16
	.cfi_def_cfa_offset 16
	sw	s0,12(sp)
	.cfi_offset 8, -4
	addi	s0,sp,16
	.cfi_def_cfa 8, 0
	.loc 1 411 6
	beq	a0,zero,.L34
	.loc 1 411 19 discriminator 1
	lw	a5,12(a0)
	.loc 1 411 12 discriminator 1
	beq	a5,zero,.L34
.LBB4:
	.loc 1 412 5 is_stmt 1
.LVL31:
	.loc 1 413 5
	.loc 1 413 10
	.loc 1 413 15
	.loc 1 413 9
	.loc 1 413 19
	.loc 1 413 24
	.loc 1 413 43
	.loc 1 414 5
	.loc 1 414 10
	.loc 1 414 25 is_stmt 0
	lhu	a4,30(a5)
	ori	a4,a4,64
	.loc 1 414 23
	sh	a4,30(a5)
	.loc 1 414 70 is_stmt 1
.LVL32:
.L34:
.LBE4:
	.loc 1 416 1 is_stmt 0
	lw	s0,12(sp)
	.cfi_restore 8
	.cfi_def_cfa 2, 16
	addi	sp,sp,16
	.cfi_def_cfa_offset 0
	jr	ra
	.cfi_endproc
.LFE30:
	.size	altcp_tcp_nagle_disable, .-altcp_tcp_nagle_disable
	.section	.text.altcp_tcp_nagle_enable,"ax",@progbits
	.align	1
	.type	altcp_tcp_nagle_enable, @function
altcp_tcp_nagle_enable:
.LFB31:
	.loc 1 420 1 is_stmt 1
	.cfi_startproc
.LVL33:
	.loc 1 421 3
	.loc 1 420 1 is_stmt 0
	addi	sp,sp,-16
	.cfi_def_cfa_offset 16
	sw	s0,12(sp)
	.cfi_offset 8, -4
	addi	s0,sp,16
	.cfi_def_cfa 8, 0
	.loc 1 421 6
	beq	a0,zero,.L43
	.loc 1 421 19 discriminator 1
	lw	a5,12(a0)
	.loc 1 421 12 discriminator 1
	beq	a5,zero,.L43
.LBB5:
	.loc 1 422 5 is_stmt 1
.LVL34:
	.loc 1 423 5
	.loc 1 423 10
	.loc 1 423 15
	.loc 1 423 9
	.loc 1 423 19
	.loc 1 423 24
	.loc 1 423 43
	.loc 1 424 5
	.loc 1 424 10
	.loc 1 424 25 is_stmt 0
	lhu	a4,30(a5)
	andi	a4,a4,-65
	.loc 1 424 23
	sh	a4,30(a5)
	.loc 1 424 95 is_stmt 1
.LVL35:
.L43:
.LBE5:
	.loc 1 426 1 is_stmt 0
	lw	s0,12(sp)
	.cfi_restore 8
	.cfi_def_cfa 2, 16
	addi	sp,sp,16
	.cfi_def_cfa_offset 0
	jr	ra
	.cfi_endproc
.LFE31:
	.size	altcp_tcp_nagle_enable, .-altcp_tcp_nagle_enable
	.section	.text.altcp_tcp_nagle_disabled,"ax",@progbits
	.align	1
	.type	altcp_tcp_nagle_disabled, @function
altcp_tcp_nagle_disabled:
.LFB32:
	.loc 1 430 1 is_stmt 1
	.cfi_startproc
.LVL36:
	.loc 1 431 3
	.loc 1 430 1 is_stmt 0
	addi	sp,sp,-16
	.cfi_def_cfa_offset 16
	sw	s0,12(sp)
	.cfi_offset 8, -4
	addi	s0,sp,16
	.cfi_def_cfa 8, 0
	.loc 1 431 6
	beq	a0,zero,.L54
	.loc 1 431 19 discriminator 1
	lw	a5,12(a0)
	.loc 1 436 10 discriminator 1
	li	a0,0
.LVL37:
	.loc 1 431 12 discriminator 1
	beq	a5,zero,.L52
.LBB6:
	.loc 1 432 5 is_stmt 1
.LVL38:
	.loc 1 433 5
	.loc 1 433 10
	.loc 1 433 15
	.loc 1 433 9
	.loc 1 433 19
	.loc 1 433 24
	.loc 1 433 43
	.loc 1 434 5
	.loc 1 434 38 is_stmt 0
	lhu	a0,30(a5)
	srli	a0,a0,6
	andi	a0,a0,1
.LVL39:
.L52:
.LBE6:
	.loc 1 437 1
	lw	s0,12(sp)
	.cfi_remember_state
	.cfi_restore 8
	.cfi_def_cfa 2, 16
	addi	sp,sp,16
	.cfi_def_cfa_offset 0
	jr	ra
.LVL40:
.L54:
	.cfi_restore_state
	.loc 1 436 10
	li	a0,0
.LVL41:
	j	.L52
	.cfi_endproc
.LFE32:
	.size	altcp_tcp_nagle_disabled, .-altcp_tcp_nagle_disabled
	.section	.text.altcp_tcp_dealloc,"ax",@progbits
	.align	1
	.type	altcp_tcp_dealloc, @function
altcp_tcp_dealloc:
.LFB34:
	.loc 1 451 1 is_stmt 1
	.cfi_startproc
.LVL42:
	.loc 1 452 3
	.loc 1 453 3
	.loc 1 453 8
	.loc 1 453 13
	.loc 1 453 7
	.loc 1 453 17
	.loc 1 453 22
	.loc 1 453 41
	.loc 1 451 1 is_stmt 0
	addi	sp,sp,-16
	.cfi_def_cfa_offset 16
	sw	s0,12(sp)
	.cfi_offset 8, -4
	addi	s0,sp,16
	.cfi_def_cfa 8, 0
	.loc 1 455 1
	lw	s0,12(sp)
	.cfi_restore 8
	.cfi_def_cfa 2, 16
	addi	sp,sp,16
	.cfi_def_cfa_offset 0
	jr	ra
	.cfi_endproc
.LFE34:
	.size	altcp_tcp_dealloc, .-altcp_tcp_dealloc
	.section	.text.altcp_tcp_get_ip,"ax",@progbits
	.align	1
	.type	altcp_tcp_get_ip, @function
altcp_tcp_get_ip:
.LFB36:
	.loc 1 470 1 is_stmt 1
	.cfi_startproc
.LVL43:
	.loc 1 471 3
	.loc 1 470 1 is_stmt 0
	addi	sp,sp,-16
	.cfi_def_cfa_offset 16
	sw	s0,12(sp)
	.cfi_offset 8, -4
	addi	s0,sp,16
	.cfi_def_cfa 8, 0
	.loc 1 471 6
	beq	a0,zero,.L61
.LBB7:
	.loc 1 472 5 is_stmt 1
	.loc 1 472 21 is_stmt 0
	lw	a0,12(a0)
.LVL44:
	.loc 1 473 5 is_stmt 1
	.loc 1 473 10
	.loc 1 473 15
	.loc 1 473 9
	.loc 1 473 19
	.loc 1 473 24
	.loc 1 473 43
	.loc 1 474 5
	.loc 1 474 8 is_stmt 0
	beq	a0,zero,.L61
	.loc 1 475 7 is_stmt 1
	.loc 1 475 10 is_stmt 0
	bne	a1,zero,.L61
	.loc 1 478 9 is_stmt 1
	.loc 1 478 16 is_stmt 0
	addi	a0,a0,4
.LVL45:
.L61:
.LBE7:
	.loc 1 483 1
	lw	s0,12(sp)
	.cfi_restore 8
	.cfi_def_cfa 2, 16
	addi	sp,sp,16
	.cfi_def_cfa_offset 0
	jr	ra
	.cfi_endproc
.LFE36:
	.size	altcp_tcp_get_ip, .-altcp_tcp_get_ip
	.section	.text.altcp_tcp_get_port,"ax",@progbits
	.align	1
	.type	altcp_tcp_get_port, @function
altcp_tcp_get_port:
.LFB37:
	.loc 1 487 1 is_stmt 1
	.cfi_startproc
.LVL46:
	.loc 1 488 3
	.loc 1 487 1 is_stmt 0
	addi	sp,sp,-16
	.cfi_def_cfa_offset 16
	sw	s0,12(sp)
	.cfi_offset 8, -4
	addi	s0,sp,16
	.cfi_def_cfa 8, 0
	.loc 1 488 6
	beq	a0,zero,.L73
.LBB8:
	.loc 1 489 5 is_stmt 1
	.loc 1 489 21 is_stmt 0
	lw	a5,12(a0)
.LVL47:
	.loc 1 490 5 is_stmt 1
	.loc 1 490 10
	.loc 1 490 15
	.loc 1 490 9
	.loc 1 490 19
	.loc 1 490 24
	.loc 1 490 43
	.loc 1 491 5
.LBE8:
	.loc 1 499 10 is_stmt 0
	li	a0,0
.LVL48:
.LBB9:
	.loc 1 491 8
	beq	a5,zero,.L71
	.loc 1 492 7 is_stmt 1
	.loc 1 492 10 is_stmt 0
	beq	a1,zero,.L72
	.loc 1 493 9 is_stmt 1
	.loc 1 493 19 is_stmt 0
	lhu	a0,26(a5)
.LVL49:
.L71:
.LBE9:
	.loc 1 500 1
	lw	s0,12(sp)
	.cfi_remember_state
	.cfi_restore 8
	.cfi_def_cfa 2, 16
	addi	sp,sp,16
	.cfi_def_cfa_offset 0
	jr	ra
.LVL50:
.L72:
	.cfi_restore_state
.LBB10:
	.loc 1 495 9 is_stmt 1
	.loc 1 495 19 is_stmt 0
	lhu	a0,28(a5)
	j	.L71
.LVL51:
.L73:
.LBE10:
	.loc 1 499 10
	li	a0,0
.LVL52:
	j	.L71
	.cfi_endproc
.LFE37:
	.size	altcp_tcp_get_port, .-altcp_tcp_get_port
	.section	.text.altcp_tcp_setup_callbacks,"ax",@progbits
	.align	1
	.type	altcp_tcp_setup_callbacks, @function
altcp_tcp_setup_callbacks:
.LFB12:
	.loc 1 171 1 is_stmt 1
	.cfi_startproc
.LVL53:
	.loc 1 172 3
	.loc 1 171 1 is_stmt 0
	addi	sp,sp,-16
	.cfi_def_cfa_offset 16
	sw	ra,12(sp)
	sw	s0,8(sp)
	sw	s1,4(sp)
	.cfi_offset 1, -4
	.cfi_offset 8, -8
	.cfi_offset 9, -12
	addi	s0,sp,16
	.cfi_def_cfa 8, 0
	mv	s1,a1
	.loc 1 172 3
	mv	a1,a0
.LVL54:
	mv	a0,s1
.LVL55:
	call	tcp_arg
.LVL56:
	.loc 1 173 3 is_stmt 1
	lui	a1,%hi(altcp_tcp_recv)
	mv	a0,s1
	addi	a1,a1,%lo(altcp_tcp_recv)
	call	tcp_recv
.LVL57:
	.loc 1 174 3
	lui	a1,%hi(altcp_tcp_sent)
	mv	a0,s1
	addi	a1,a1,%lo(altcp_tcp_sent)
	call	tcp_sent
.LVL58:
	.loc 1 175 3
	.loc 1 178 1 is_stmt 0
	lw	s0,8(sp)
	.cfi_restore 8
	.cfi_def_cfa 2, 16
	lw	ra,12(sp)
	.cfi_restore 1
	.loc 1 175 3
	mv	a0,s1
	.loc 1 178 1
	lw	s1,4(sp)
	.cfi_restore 9
.LVL59:
	.loc 1 175 3
	lui	a1,%hi(altcp_tcp_err)
	.loc 1 178 1
	.loc 1 175 3
	addi	a1,a1,%lo(altcp_tcp_err)
	.loc 1 178 1
	addi	sp,sp,16
	.cfi_def_cfa_offset 0
	.loc 1 175 3
	tail	tcp_err
.LVL60:
	.cfi_endproc
.LFE12:
	.size	altcp_tcp_setup_callbacks, .-altcp_tcp_setup_callbacks
	.section	.text.altcp_tcp_accept,"ax",@progbits
	.align	1
	.type	altcp_tcp_accept, @function
altcp_tcp_accept:
.LFB5:
	.loc 1 74 1 is_stmt 1
	.cfi_startproc
.LVL61:
	.loc 1 75 3
	.loc 1 76 3
	.loc 1 76 6 is_stmt 0
	beq	a0,zero,.L80
	.loc 1 74 1 discriminator 1
	addi	sp,sp,-32
	.cfi_def_cfa_offset 32
	sw	s0,24(sp)
	sw	s1,20(sp)
	sw	ra,28(sp)
	sw	s2,16(sp)
	sw	s3,12(sp)
	sw	s4,8(sp)
	.cfi_offset 8, -8
	.cfi_offset 9, -12
	.cfi_offset 1, -4
	.cfi_offset 18, -16
	.cfi_offset 19, -20
	.cfi_offset 20, -24
	addi	s0,sp,32
	.cfi_def_cfa 8, 0
	.loc 1 76 19 discriminator 1
	lw	a5,16(a0)
	mv	s1,a0
	beq	a5,zero,.L81
	mv	s3,a1
	mv	s4,a2
.LBB14:
	.loc 1 78 5 is_stmt 1
	.loc 1 78 34 is_stmt 0
	call	altcp_alloc
.LVL62:
	mv	s2,a0
.LVL63:
	.loc 1 79 5 is_stmt 1
	.loc 1 79 8 is_stmt 0
	beq	a0,zero,.L82
	.loc 1 82 5 is_stmt 1
.LVL64:
.LBB15:
.LBB16:
	.loc 1 183 3
	mv	a1,s3
	call	altcp_tcp_setup_callbacks
.LVL65:
	.loc 1 184 3
	.loc 1 185 13 is_stmt 0
	lui	a5,%hi(.LANCHOR0)
	addi	a5,a5,%lo(.LANCHOR0)
	.loc 1 184 15
	sw	s3,12(s2)
	.loc 1 185 3 is_stmt 1
	.loc 1 185 13 is_stmt 0
	sw	a5,0(s2)
.LVL66:
.LBE16:
.LBE15:
	.loc 1 83 5 is_stmt 1
.LBE14:
	.loc 1 86 1 is_stmt 0
	lw	s0,24(sp)
	.cfi_restore 8
	.cfi_def_cfa 2, 32
.LBB17:
	.loc 1 83 12
	lw	a5,16(s1)
	lw	a0,8(s1)
.LBE17:
	.loc 1 86 1
	lw	ra,28(sp)
	.cfi_restore 1
	lw	s1,20(sp)
	.cfi_restore 9
.LVL67:
	lw	s3,12(sp)
	.cfi_restore 19
.LVL68:
.LBB18:
	.loc 1 83 12
	mv	a2,s4
	mv	a1,s2
.LBE18:
	.loc 1 86 1
	lw	s4,8(sp)
	.cfi_restore 20
	lw	s2,16(sp)
	.cfi_restore 18
.LVL69:
	addi	sp,sp,32
	.cfi_def_cfa_offset 0
.LBB19:
	.loc 1 83 12
	jr	a5
.LVL70:
.L80:
.LBE19:
	.loc 1 85 10
	li	a0,-16
.LVL71:
	.loc 1 86 1
	ret
.LVL72:
.L81:
	.cfi_def_cfa_register 8
	.cfi_offset 1, -4
	.cfi_offset 8, -8
	.cfi_offset 9, -12
	.cfi_offset 18, -16
	.cfi_offset 19, -20
	.cfi_offset 20, -24
	.loc 1 85 10
	li	a0,-16
.LVL73:
.L79:
	.loc 1 86 1
	lw	ra,28(sp)
	.cfi_remember_state
	.cfi_restore 1
	lw	s0,24(sp)
	.cfi_restore 8
	.cfi_def_cfa 2, 32
	lw	s1,20(sp)
	.cfi_restore 9
.LVL74:
	lw	s2,16(sp)
	.cfi_restore 18
	lw	s3,12(sp)
	.cfi_restore 19
	lw	s4,8(sp)
	.cfi_restore 20
	addi	sp,sp,32
	.cfi_def_cfa_offset 0
	jr	ra
.LVL75:
.L82:
	.cfi_restore_state
.LBB20:
	.loc 1 80 14
	li	a0,-1
.LVL76:
	j	.L79
.LBE20:
	.cfi_endproc
.LFE5:
	.size	altcp_tcp_accept, .-altcp_tcp_accept
	.section	.text.altcp_tcp_err,"ax",@progbits
	.align	1
	.type	altcp_tcp_err, @function
altcp_tcp_err:
.LFB10:
	.loc 1 146 1 is_stmt 1
	.cfi_startproc
.LVL77:
	.loc 1 147 3
	.loc 1 148 3
	.loc 1 148 6 is_stmt 0
	beq	a0,zero,.L87
	.loc 1 146 1
	addi	sp,sp,-16
	.cfi_def_cfa_offset 16
	sw	s0,8(sp)
	sw	s1,4(sp)
	sw	ra,12(sp)
	.cfi_offset 8, -8
	.cfi_offset 9, -12
	.cfi_offset 1, -4
	addi	s0,sp,16
	.cfi_def_cfa 8, 0
	.loc 1 150 13
	lw	a5,36(a0)
	.loc 1 149 17
	sw	zero,12(a0)
	mv	s1,a0
	.loc 1 149 5 is_stmt 1
	.loc 1 150 5
	.loc 1 150 8 is_stmt 0
	beq	a5,zero,.L89
	.loc 1 151 7 is_stmt 1
	lw	a0,8(a0)
.LVL78:
	jalr	a5
.LVL79:
.L89:
	.loc 1 153 5
	.loc 1 155 1 is_stmt 0
	lw	s0,8(sp)
	.cfi_restore 8
	.cfi_def_cfa 2, 16
	lw	ra,12(sp)
	.cfi_restore 1
	.loc 1 153 5
	mv	a0,s1
	.loc 1 155 1
	lw	s1,4(sp)
	.cfi_restore 9
.LVL80:
	addi	sp,sp,16
	.cfi_def_cfa_offset 0
	.loc 1 153 5
	tail	altcp_free
.LVL81:
.L87:
	ret
	.cfi_endproc
.LFE10:
	.size	altcp_tcp_err, .-altcp_tcp_err
	.section	.text.altcp_tcp_get_tcp_addrinfo,"ax",@progbits
	.align	1
	.type	altcp_tcp_get_tcp_addrinfo, @function
altcp_tcp_get_tcp_addrinfo:
.LFB35:
	.loc 1 459 1 is_stmt 1
	.cfi_startproc
.LVL82:
	.loc 1 460 3
	.loc 1 459 1 is_stmt 0
	addi	sp,sp,-16
	.cfi_def_cfa_offset 16
	sw	s0,12(sp)
	.cfi_offset 8, -4
	addi	s0,sp,16
	.cfi_def_cfa 8, 0
	.loc 1 460 6
	beq	a0,zero,.L97
.LBB21:
	.loc 1 461 5 is_stmt 1
.LVL83:
	.loc 1 462 5
	.loc 1 462 10
	.loc 1 462 15
	.loc 1 462 9
	.loc 1 462 19
	.loc 1 462 24
	.loc 1 462 43
	.loc 1 463 5
.LBE21:
	.loc 1 466 1 is_stmt 0
	lw	s0,12(sp)
	.cfi_remember_state
	.cfi_restore 8
	.cfi_def_cfa 2, 16
.LBB22:
	.loc 1 463 12
	lw	a0,12(a0)
.LVL84:
.LBE22:
	.loc 1 466 1
	addi	sp,sp,16
	.cfi_def_cfa_offset 0
.LBB23:
	.loc 1 463 12
	tail	tcp_tcp_get_tcp_addrinfo
.LVL85:
.L97:
	.cfi_restore_state
.LBE23:
	.loc 1 466 1
	lw	s0,12(sp)
	.cfi_restore 8
	.cfi_def_cfa 2, 16
	li	a0,-6
.LVL86:
	addi	sp,sp,16
	.cfi_def_cfa_offset 0
	jr	ra
	.cfi_endproc
.LFE35:
	.size	altcp_tcp_get_tcp_addrinfo, .-altcp_tcp_get_tcp_addrinfo
	.section	.text.altcp_tcp_setprio,"ax",@progbits
	.align	1
	.type	altcp_tcp_setprio, @function
altcp_tcp_setprio:
.LFB33:
	.loc 1 441 1 is_stmt 1
	.cfi_startproc
.LVL87:
	.loc 1 442 3
	.loc 1 441 1 is_stmt 0
	addi	sp,sp,-16
	.cfi_def_cfa_offset 16
	sw	s0,12(sp)
	.cfi_offset 8, -4
	addi	s0,sp,16
	.cfi_def_cfa 8, 0
	.loc 1 442 6
	beq	a0,zero,.L99
.LBB24:
	.loc 1 443 5 is_stmt 1
.LVL88:
	.loc 1 444 5
	.loc 1 444 10
	.loc 1 444 15
	.loc 1 444 9
	.loc 1 444 19
	.loc 1 444 24
	.loc 1 444 43
	.loc 1 445 5
.LBE24:
	.loc 1 447 1 is_stmt 0
	lw	s0,12(sp)
	.cfi_remember_state
	.cfi_restore 8
	.cfi_def_cfa 2, 16
.LBB25:
	.loc 1 445 5
	lw	a0,12(a0)
.LVL89:
.LBE25:
	.loc 1 447 1
	addi	sp,sp,16
	.cfi_def_cfa_offset 0
.LBB26:
	.loc 1 445 5
	tail	tcp_setprio
.LVL90:
.L99:
	.cfi_restore_state
.LBE26:
	.loc 1 447 1
	lw	s0,12(sp)
	.cfi_restore 8
	.cfi_def_cfa 2, 16
	addi	sp,sp,16
	.cfi_def_cfa_offset 0
	jr	ra
	.cfi_endproc
.LFE33:
	.size	altcp_tcp_setprio, .-altcp_tcp_setprio
	.section	.text.altcp_tcp_output,"ax",@progbits
	.align	1
	.type	altcp_tcp_output, @function
altcp_tcp_output:
.LFB26:
	.loc 1 362 1 is_stmt 1
	.cfi_startproc
.LVL91:
	.loc 1 363 3
	.loc 1 364 3
	.loc 1 362 1 is_stmt 0
	addi	sp,sp,-16
	.cfi_def_cfa_offset 16
	sw	s0,12(sp)
	.cfi_offset 8, -4
	addi	s0,sp,16
	.cfi_def_cfa 8, 0
	.loc 1 364 6
	beq	a0,zero,.L103
	.loc 1 367 3 is_stmt 1
	.loc 1 367 8
	.loc 1 367 13
	.loc 1 367 7
	.loc 1 367 17
	.loc 1 367 22
	.loc 1 367 41
	.loc 1 368 3
.LVL92:
	.loc 1 369 3
	.loc 1 370 1 is_stmt 0
	lw	s0,12(sp)
	.cfi_remember_state
	.cfi_restore 8
	.cfi_def_cfa 2, 16
	.loc 1 369 10
	lw	a0,12(a0)
.LVL93:
	.loc 1 370 1
	addi	sp,sp,16
	.cfi_def_cfa_offset 0
	.loc 1 369 10
	tail	tcp_output
.LVL94:
.L103:
	.cfi_restore_state
	.loc 1 370 1
	lw	s0,12(sp)
	.cfi_restore 8
	.cfi_def_cfa 2, 16
	li	a0,-6
.LVL95:
	addi	sp,sp,16
	.cfi_def_cfa_offset 0
	jr	ra
	.cfi_endproc
.LFE26:
	.size	altcp_tcp_output, .-altcp_tcp_output
	.section	.text.altcp_tcp_write,"ax",@progbits
	.align	1
	.type	altcp_tcp_write, @function
altcp_tcp_write:
.LFB25:
	.loc 1 350 1 is_stmt 1
	.cfi_startproc
.LVL96:
	.loc 1 351 3
	.loc 1 352 3
	.loc 1 350 1 is_stmt 0
	addi	sp,sp,-16
	.cfi_def_cfa_offset 16
	sw	s0,12(sp)
	.cfi_offset 8, -4
	addi	s0,sp,16
	.cfi_def_cfa 8, 0
	.loc 1 352 6
	beq	a0,zero,.L106
	.loc 1 355 3 is_stmt 1
	.loc 1 355 8
	.loc 1 355 13
	.loc 1 355 7
	.loc 1 355 17
	.loc 1 355 22
	.loc 1 355 41
	.loc 1 356 3
.LVL97:
	.loc 1 357 3
	.loc 1 358 1 is_stmt 0
	lw	s0,12(sp)
	.cfi_remember_state
	.cfi_restore 8
	.cfi_def_cfa 2, 16
	.loc 1 357 10
	lw	a0,12(a0)
.LVL98:
	.loc 1 358 1
	addi	sp,sp,16
	.cfi_def_cfa_offset 0
	.loc 1 357 10
	tail	tcp_write
.LVL99:
.L106:
	.cfi_restore_state
	.loc 1 358 1
	lw	s0,12(sp)
	.cfi_restore 8
	.cfi_def_cfa 2, 16
	li	a0,-6
.LVL100:
	addi	sp,sp,16
	.cfi_def_cfa_offset 0
	jr	ra
	.cfi_endproc
.LFE25:
	.size	altcp_tcp_write, .-altcp_tcp_write
	.section	.text.altcp_tcp_shutdown,"ax",@progbits
	.align	1
	.type	altcp_tcp_shutdown, @function
altcp_tcp_shutdown:
.LFB24:
	.loc 1 338 1 is_stmt 1
	.cfi_startproc
.LVL101:
	.loc 1 339 3
	.loc 1 340 3
	.loc 1 338 1 is_stmt 0
	addi	sp,sp,-16
	.cfi_def_cfa_offset 16
	sw	s0,12(sp)
	.cfi_offset 8, -4
	addi	s0,sp,16
	.cfi_def_cfa 8, 0
	.loc 1 340 6
	beq	a0,zero,.L109
	.loc 1 343 3 is_stmt 1
	.loc 1 343 8
	.loc 1 343 13
	.loc 1 343 7
	.loc 1 343 17
	.loc 1 343 22
	.loc 1 343 41
	.loc 1 344 3
.LVL102:
	.loc 1 345 3
	.loc 1 346 1 is_stmt 0
	lw	s0,12(sp)
	.cfi_remember_state
	.cfi_restore 8
	.cfi_def_cfa 2, 16
	.loc 1 345 10
	lw	a0,12(a0)
.LVL103:
	.loc 1 346 1
	addi	sp,sp,16
	.cfi_def_cfa_offset 0
	.loc 1 345 10
	tail	tcp_shutdown
.LVL104:
.L109:
	.cfi_restore_state
	.loc 1 346 1
	lw	s0,12(sp)
	.cfi_restore 8
	.cfi_def_cfa 2, 16
	li	a0,-6
.LVL105:
	addi	sp,sp,16
	.cfi_def_cfa_offset 0
	jr	ra
	.cfi_endproc
.LFE24:
	.size	altcp_tcp_shutdown, .-altcp_tcp_shutdown
	.section	.text.altcp_tcp_close,"ax",@progbits
	.align	1
	.type	altcp_tcp_close, @function
altcp_tcp_close:
.LFB23:
	.loc 1 311 1 is_stmt 1
	.cfi_startproc
.LVL106:
	.loc 1 312 3
	.loc 1 313 3
	.loc 1 311 1 is_stmt 0
	addi	sp,sp,-32
	.cfi_def_cfa_offset 32
	sw	s0,24(sp)
	sw	s3,12(sp)
	sw	ra,28(sp)
	sw	s1,20(sp)
	sw	s2,16(sp)
	sw	s4,8(sp)
	.cfi_offset 8, -8
	.cfi_offset 19, -20
	.cfi_offset 1, -4
	.cfi_offset 9, -12
	.cfi_offset 18, -16
	.cfi_offset 20, -24
	addi	s0,sp,32
	.cfi_def_cfa 8, 0
	.loc 1 314 12
	li	s3,-6
	.loc 1 313 6
	beq	a0,zero,.L112
	.loc 1 317 7
	lw	s1,12(a0)
	mv	s2,a0
	.loc 1 316 3 is_stmt 1
	.loc 1 316 8
	.loc 1 316 13
	.loc 1 316 7
	.loc 1 316 17
	.loc 1 316 22
	.loc 1 316 41
	.loc 1 317 3
.LVL107:
	.loc 1 318 3
	.loc 1 318 6 is_stmt 0
	beq	s1,zero,.L113
.LBB30:
	.loc 1 319 5 is_stmt 1
	.loc 1 320 5
.LBB31:
.LBB32:
	.loc 1 162 3 is_stmt 0
	li	a1,0
	mv	a0,s1
.LVL108:
.LBE32:
.LBE31:
	.loc 1 320 17
	lw	s4,144(s1)
.LVL109:
	.loc 1 321 5 is_stmt 1
.LBB34:
.LBB33:
	.loc 1 162 3
	call	tcp_arg
.LVL110:
	.loc 1 163 3
	li	a1,0
	mv	a0,s1
	call	tcp_recv
.LVL111:
	.loc 1 164 3
	li	a1,0
	mv	a0,s1
	call	tcp_sent
.LVL112:
	.loc 1 165 3
	li	a1,0
	mv	a0,s1
	call	tcp_err
.LVL113:
	.loc 1 166 3
	lbu	a2,33(s1)
	li	a1,0
	mv	a0,s1
	call	tcp_poll
.LVL114:
.LBE33:
.LBE34:
	.loc 1 322 5
	.loc 1 322 11 is_stmt 0
	mv	a0,s1
	call	tcp_close
.LVL115:
	mv	s3,a0
.LVL116:
	.loc 1 323 5 is_stmt 1
	.loc 1 323 8 is_stmt 0
	beq	a0,zero,.L114
	.loc 1 325 7 is_stmt 1
	mv	a1,s1
	mv	a0,s2
.LVL117:
	call	altcp_tcp_setup_callbacks
.LVL118:
	.loc 1 327 7
	lbu	a2,33(s1)
	mv	a1,s4
	mv	a0,s1
	call	tcp_poll
.LVL119:
	.loc 1 328 7
.L112:
.LBE30:
	.loc 1 334 1 is_stmt 0
	lw	ra,28(sp)
	.cfi_remember_state
	.cfi_restore 1
	lw	s0,24(sp)
	.cfi_restore 8
	.cfi_def_cfa 2, 32
	lw	s1,20(sp)
	.cfi_restore 9
	lw	s2,16(sp)
	.cfi_restore 18
	lw	s4,8(sp)
	.cfi_restore 20
	mv	a0,s3
	lw	s3,12(sp)
	.cfi_restore 19
	addi	sp,sp,32
	.cfi_def_cfa_offset 0
	jr	ra
.LVL120:
.L114:
	.cfi_restore_state
.LBB35:
	.loc 1 330 5 is_stmt 1
	.loc 1 330 17 is_stmt 0
	sw	zero,12(s2)
.LVL121:
.L113:
.LBE35:
	.loc 1 332 3 is_stmt 1
	mv	a0,s2
	call	altcp_free
.LVL122:
	.loc 1 333 3
	.loc 1 333 10 is_stmt 0
	li	s3,0
	j	.L112
	.cfi_endproc
.LFE23:
	.size	altcp_tcp_close, .-altcp_tcp_close
	.section	.text.altcp_tcp_abort,"ax",@progbits
	.align	1
	.type	altcp_tcp_abort, @function
altcp_tcp_abort:
.LFB22:
	.loc 1 299 1 is_stmt 1
	.cfi_startproc
.LVL123:
	.loc 1 300 3
	.loc 1 299 1 is_stmt 0
	addi	sp,sp,-16
	.cfi_def_cfa_offset 16
	sw	s0,12(sp)
	.cfi_offset 8, -4
	addi	s0,sp,16
	.cfi_def_cfa 8, 0
	.loc 1 300 6
	beq	a0,zero,.L120
.LBB36:
	.loc 1 301 5 is_stmt 1
	.loc 1 301 21 is_stmt 0
	lw	a0,12(a0)
.LVL124:
	.loc 1 302 5 is_stmt 1
	.loc 1 302 10
	.loc 1 302 15
	.loc 1 302 9
	.loc 1 302 19
	.loc 1 302 24
	.loc 1 302 43
	.loc 1 303 5
	.loc 1 303 8 is_stmt 0
	beq	a0,zero,.L120
	.loc 1 304 7 is_stmt 1
.LBE36:
	.loc 1 307 1 is_stmt 0
	lw	s0,12(sp)
	.cfi_remember_state
	.cfi_restore 8
	.cfi_def_cfa 2, 16
	addi	sp,sp,16
	.cfi_def_cfa_offset 0
.LBB37:
	.loc 1 304 7
	tail	tcp_abort
.LVL125:
.L120:
	.cfi_restore_state
.LBE37:
	.loc 1 307 1
	lw	s0,12(sp)
	.cfi_restore 8
	.cfi_def_cfa 2, 16
	addi	sp,sp,16
	.cfi_def_cfa_offset 0
	jr	ra
	.cfi_endproc
.LFE22:
	.size	altcp_tcp_abort, .-altcp_tcp_abort
	.section	.text.altcp_tcp_listen,"ax",@progbits
	.align	1
	.type	altcp_tcp_listen, @function
altcp_tcp_listen:
.LFB21:
	.loc 1 280 1 is_stmt 1
	.cfi_startproc
.LVL126:
	.loc 1 281 3
	.loc 1 282 3
	.loc 1 283 3
	.loc 1 280 1 is_stmt 0
	addi	sp,sp,-16
	.cfi_def_cfa_offset 16
	sw	s0,8(sp)
	sw	ra,12(sp)
	sw	s1,4(sp)
	.cfi_offset 8, -8
	.cfi_offset 1, -4
	.cfi_offset 9, -12
	addi	s0,sp,16
	.cfi_def_cfa 8, 0
	.loc 1 283 6
	bne	a0,zero,.L130
.LVL127:
.L132:
	.loc 1 284 11
	li	s1,0
.L131:
	.loc 1 295 1
	lw	ra,12(sp)
	.cfi_remember_state
	.cfi_restore 1
	lw	s0,8(sp)
	.cfi_restore 8
	.cfi_def_cfa 2, 16
	mv	a0,s1
	lw	s1,4(sp)
	.cfi_restore 9
	addi	sp,sp,16
	.cfi_def_cfa_offset 0
	jr	ra
.LVL128:
.L130:
	.cfi_restore_state
	mv	s1,a0
	.loc 1 286 3 is_stmt 1
	.loc 1 286 8
	.loc 1 286 13
	.loc 1 286 7
	.loc 1 286 17
	.loc 1 286 22
	.loc 1 286 41
	.loc 1 287 3
.LVL129:
	.loc 1 288 3
	.loc 1 288 10 is_stmt 0
	lw	a0,12(a0)
.LVL130:
	call	tcp_listen_with_backlog_and_err
.LVL131:
	.loc 1 289 3 is_stmt 1
	.loc 1 289 6 is_stmt 0
	beq	a0,zero,.L132
	.loc 1 290 5 is_stmt 1
	.loc 1 291 5 is_stmt 0
	lui	a1,%hi(altcp_tcp_accept)
	.loc 1 290 17
	sw	a0,12(s1)
	.loc 1 291 5 is_stmt 1
	addi	a1,a1,%lo(altcp_tcp_accept)
	call	tcp_accept
.LVL132:
	.loc 1 292 5
	.loc 1 292 12 is_stmt 0
	j	.L131
	.cfi_endproc
.LFE21:
	.size	altcp_tcp_listen, .-altcp_tcp_listen
	.section	.text.altcp_tcp_connect,"ax",@progbits
	.align	1
	.type	altcp_tcp_connect, @function
altcp_tcp_connect:
.LFB20:
	.loc 1 267 1 is_stmt 1
	.cfi_startproc
.LVL133:
	.loc 1 268 3
	.loc 1 269 3
	.loc 1 267 1 is_stmt 0
	addi	sp,sp,-16
	.cfi_def_cfa_offset 16
	sw	s0,12(sp)
	.cfi_offset 8, -4
	addi	s0,sp,16
	.cfi_def_cfa 8, 0
	.loc 1 269 6
	beq	a0,zero,.L138
	.loc 1 272 3 is_stmt 1
	.loc 1 272 8
	.loc 1 272 13
	.loc 1 272 7
	.loc 1 272 17
	.loc 1 272 22
	.loc 1 272 41
	.loc 1 273 3
	.loc 1 273 19 is_stmt 0
	sw	a3,20(a0)
	.loc 1 274 3 is_stmt 1
.LVL134:
	.loc 1 275 3
	.loc 1 276 1 is_stmt 0
	lw	s0,12(sp)
	.cfi_remember_state
	.cfi_restore 8
	.cfi_def_cfa 2, 16
	.loc 1 275 10
	lw	a0,12(a0)
.LVL135:
	lui	a3,%hi(altcp_tcp_connected)
.LVL136:
	.loc 1 276 1
	.loc 1 275 10
	addi	a3,a3,%lo(altcp_tcp_connected)
	.loc 1 276 1
	addi	sp,sp,16
	.cfi_def_cfa_offset 0
	.loc 1 275 10
	tail	tcp_connect
.LVL137:
.L138:
	.cfi_restore_state
	.loc 1 276 1
	lw	s0,12(sp)
	.cfi_restore 8
	.cfi_def_cfa 2, 16
	li	a0,-6
.LVL138:
	addi	sp,sp,16
	.cfi_def_cfa_offset 0
	jr	ra
	.cfi_endproc
.LFE20:
	.size	altcp_tcp_connect, .-altcp_tcp_connect
	.section	.text.altcp_tcp_bind,"ax",@progbits
	.align	1
	.type	altcp_tcp_bind, @function
altcp_tcp_bind:
.LFB19:
	.loc 1 255 1 is_stmt 1
	.cfi_startproc
.LVL139:
	.loc 1 256 3
	.loc 1 257 3
	.loc 1 255 1 is_stmt 0
	addi	sp,sp,-16
	.cfi_def_cfa_offset 16
	sw	s0,12(sp)
	.cfi_offset 8, -4
	addi	s0,sp,16
	.cfi_def_cfa 8, 0
	.loc 1 257 6
	beq	a0,zero,.L141
	.loc 1 260 3 is_stmt 1
	.loc 1 260 8
	.loc 1 260 13
	.loc 1 260 7
	.loc 1 260 17
	.loc 1 260 22
	.loc 1 260 41
	.loc 1 261 3
.LVL140:
	.loc 1 262 3
	.loc 1 263 1 is_stmt 0
	lw	s0,12(sp)
	.cfi_remember_state
	.cfi_restore 8
	.cfi_def_cfa 2, 16
	.loc 1 262 10
	lw	a0,12(a0)
.LVL141:
	.loc 1 263 1
	addi	sp,sp,16
	.cfi_def_cfa_offset 0
	.loc 1 262 10
	tail	tcp_bind
.LVL142:
.L141:
	.cfi_restore_state
	.loc 1 263 1
	lw	s0,12(sp)
	.cfi_restore 8
	.cfi_def_cfa 2, 16
	li	a0,-6
.LVL143:
	addi	sp,sp,16
	.cfi_def_cfa_offset 0
	jr	ra
	.cfi_endproc
.LFE19:
	.size	altcp_tcp_bind, .-altcp_tcp_bind
	.section	.text.altcp_tcp_recved,"ax",@progbits
	.align	1
	.type	altcp_tcp_recved, @function
altcp_tcp_recved:
.LFB18:
	.loc 1 245 1 is_stmt 1
	.cfi_startproc
.LVL144:
	.loc 1 246 3
	.loc 1 245 1 is_stmt 0
	addi	sp,sp,-16
	.cfi_def_cfa_offset 16
	sw	s0,12(sp)
	.cfi_offset 8, -4
	addi	s0,sp,16
	.cfi_def_cfa 8, 0
	.loc 1 246 6
	beq	a0,zero,.L143
.LBB38:
	.loc 1 247 5 is_stmt 1
.LVL145:
	.loc 1 248 5
	.loc 1 248 10
	.loc 1 248 15
	.loc 1 248 9
	.loc 1 248 19
	.loc 1 248 24
	.loc 1 248 43
	.loc 1 249 5
.LBE38:
	.loc 1 251 1 is_stmt 0
	lw	s0,12(sp)
	.cfi_remember_state
	.cfi_restore 8
	.cfi_def_cfa 2, 16
.LBB39:
	.loc 1 249 5
	lw	a0,12(a0)
.LVL146:
.LBE39:
	.loc 1 251 1
	addi	sp,sp,16
	.cfi_def_cfa_offset 0
.LBB40:
	.loc 1 249 5
	tail	tcp_recved
.LVL147:
.L143:
	.cfi_restore_state
.LBE40:
	.loc 1 251 1
	lw	s0,12(sp)
	.cfi_restore 8
	.cfi_def_cfa 2, 16
	addi	sp,sp,16
	.cfi_def_cfa_offset 0
	jr	ra
	.cfi_endproc
.LFE18:
	.size	altcp_tcp_recved, .-altcp_tcp_recved
	.section	.text.altcp_tcp_recv,"ax",@progbits
	.align	1
	.type	altcp_tcp_recv, @function
altcp_tcp_recv:
.LFB7:
	.loc 1 103 1 is_stmt 1
	.cfi_startproc
.LVL148:
	mv	a1,a0
.LVL149:
	mv	a0,a2
.LVL150:
	.loc 1 104 3
	.loc 1 105 3
	.loc 1 105 6 is_stmt 0
	beq	a1,zero,.L147
	.loc 1 106 5 is_stmt 1
	.loc 1 106 10
	.loc 1 106 15
	.loc 1 106 47
	.loc 1 106 57
	.loc 1 106 62
	.loc 1 106 74
	.loc 1 106 79
	.loc 1 106 84
	.loc 1 106 9
	.loc 1 106 19
	.loc 1 106 24
	.loc 1 106 43
	.loc 1 106 55
	.loc 1 107 5
	.loc 1 107 13 is_stmt 0
	lw	a5,24(a1)
	.loc 1 107 8
	beq	a5,zero,.L147
	.loc 1 108 7 is_stmt 1
	.loc 1 108 14 is_stmt 0
	lw	a0,8(a1)
	jr	a5
.LVL151:
.L147:
.LBB43:
.LBB44:
	.loc 1 111 3 is_stmt 1
	.loc 1 111 6 is_stmt 0
	beq	a0,zero,.L158
	.loc 1 113 5 is_stmt 1
.LBE44:
.LBE43:
	.loc 1 103 1 is_stmt 0
	addi	sp,sp,-16
	.cfi_def_cfa_offset 16
	sw	s0,8(sp)
	sw	ra,12(sp)
	.cfi_offset 8, -8
	.cfi_offset 1, -4
	addi	s0,sp,16
	.cfi_def_cfa 8, 0
.LBB46:
.LBB45:
	.loc 1 113 5
	call	pbuf_free
.LVL152:
.LBE45:
.LBE46:
	.loc 1 116 1
	lw	ra,12(sp)
	.cfi_restore 1
	lw	s0,8(sp)
	.cfi_restore 8
	.cfi_def_cfa 2, 16
	li	a0,0
	addi	sp,sp,16
	.cfi_def_cfa_offset 0
	jr	ra
.LVL153:
.L158:
	li	a0,0
.LVL154:
	ret
	.cfi_endproc
.LFE7:
	.size	altcp_tcp_recv, .-altcp_tcp_recv
	.section	.text.altcp_tcp_set_poll,"ax",@progbits
	.align	1
	.type	altcp_tcp_set_poll, @function
altcp_tcp_set_poll:
.LFB17:
	.loc 1 235 1 is_stmt 1
	.cfi_startproc
.LVL155:
	.loc 1 236 3
	.loc 1 235 1 is_stmt 0
	addi	sp,sp,-16
	.cfi_def_cfa_offset 16
	sw	s0,12(sp)
	.cfi_offset 8, -4
	addi	s0,sp,16
	.cfi_def_cfa 8, 0
	.loc 1 236 6
	beq	a0,zero,.L161
	.loc 1 241 1
	lw	s0,12(sp)
	.cfi_remember_state
	.cfi_restore 8
	.cfi_def_cfa 2, 16
.LBB50:
.LBB51:
	.loc 1 239 5
	lw	a0,12(a0)
.LVL156:
	mv	a2,a1
.LVL157:
	.loc 1 237 5 is_stmt 1
	.loc 1 238 5
	.loc 1 238 10
	.loc 1 238 15
	.loc 1 238 9
	.loc 1 238 19
	.loc 1 238 24
	.loc 1 238 43
	.loc 1 239 5
	lui	a1,%hi(altcp_tcp_poll)
.LVL158:
.LBE51:
.LBE50:
	.loc 1 241 1 is_stmt 0
.LBB54:
.LBB52:
	.loc 1 239 5
	addi	a1,a1,%lo(altcp_tcp_poll)
.LBE52:
.LBE54:
	.loc 1 241 1
	addi	sp,sp,16
	.cfi_def_cfa_offset 0
.LBB55:
.LBB53:
	.loc 1 239 5
	tail	tcp_poll
.LVL159:
.L161:
	.cfi_restore_state
.LBE53:
.LBE55:
	.loc 1 241 1
	lw	s0,12(sp)
	.cfi_restore 8
	.cfi_def_cfa 2, 16
	addi	sp,sp,16
	.cfi_def_cfa_offset 0
	jr	ra
	.cfi_endproc
.LFE17:
	.size	altcp_tcp_set_poll, .-altcp_tcp_set_poll
	.section	.text.altcp_tcp_new_ip_type,"ax",@progbits
	.align	1
	.globl	altcp_tcp_new_ip_type
	.type	altcp_tcp_new_ip_type, @function
altcp_tcp_new_ip_type:
.LFB14:
	.loc 1 190 1 is_stmt 1
	.cfi_startproc
.LVL160:
	.loc 1 193 3
	.loc 1 190 1 is_stmt 0
	addi	sp,sp,-16
	.cfi_def_cfa_offset 16
	sw	s0,8(sp)
	sw	s1,4(sp)
	sw	ra,12(sp)
	sw	s2,0(sp)
	.cfi_offset 8, -8
	.cfi_offset 9, -12
	.cfi_offset 1, -4
	.cfi_offset 18, -16
	addi	s0,sp,16
	.cfi_def_cfa 8, 0
	.loc 1 193 26
	call	tcp_new_ip_type
.LVL161:
	.loc 1 194 3 is_stmt 1
	.loc 1 204 9 is_stmt 0
	li	s1,0
	.loc 1 194 6
	beq	a0,zero,.L164
	mv	s2,a0
.LBB59:
	.loc 1 195 5 is_stmt 1
	.loc 1 195 29 is_stmt 0
	call	altcp_alloc
.LVL162:
	mv	s1,a0
.LVL163:
	.loc 1 196 5 is_stmt 1
	.loc 1 196 8 is_stmt 0
	beq	a0,zero,.L166
	.loc 1 197 7 is_stmt 1
.LVL164:
.LBB60:
.LBB61:
	.loc 1 183 3
	mv	a1,s2
	call	altcp_tcp_setup_callbacks
.LVL165:
	.loc 1 184 3
	.loc 1 185 13 is_stmt 0
	lui	a5,%hi(.LANCHOR0)
	addi	a5,a5,%lo(.LANCHOR0)
	.loc 1 184 15
	sw	s2,12(s1)
	.loc 1 185 3 is_stmt 1
	.loc 1 185 13 is_stmt 0
	sw	a5,0(s1)
.LVL166:
.L164:
.LBE61:
.LBE60:
.LBE59:
	.loc 1 205 1
	lw	ra,12(sp)
	.cfi_remember_state
	.cfi_restore 1
	lw	s0,8(sp)
	.cfi_restore 8
	.cfi_def_cfa 2, 16
	lw	s2,0(sp)
	.cfi_restore 18
	mv	a0,s1
	lw	s1,4(sp)
	.cfi_restore 9
	addi	sp,sp,16
	.cfi_def_cfa_offset 0
	jr	ra
.LVL167:
.L166:
	.cfi_restore_state
.LBB62:
	.loc 1 201 7 is_stmt 1
	mv	a0,s2
	call	tcp_close
.LVL168:
	j	.L164
.LBE62:
	.cfi_endproc
.LFE14:
	.size	altcp_tcp_new_ip_type, .-altcp_tcp_new_ip_type
	.section	.text.altcp_tcp_alloc,"ax",@progbits
	.align	1
	.globl	altcp_tcp_alloc
	.type	altcp_tcp_alloc, @function
altcp_tcp_alloc:
.LFB15:
	.loc 1 213 1
	.cfi_startproc
.LVL169:
	.loc 1 214 3
	.loc 1 215 3
	.loc 1 213 1 is_stmt 0
	addi	sp,sp,-16
	.cfi_def_cfa_offset 16
	sw	s0,12(sp)
	.cfi_offset 8, -4
	addi	s0,sp,16
	.cfi_def_cfa 8, 0
	.loc 1 216 1
	lw	s0,12(sp)
	.cfi_restore 8
	.cfi_def_cfa 2, 16
	.loc 1 215 10
	mv	a0,a1
.LVL170:
	.loc 1 216 1
	addi	sp,sp,16
	.cfi_def_cfa_offset 0
	.loc 1 215 10
	tail	altcp_tcp_new_ip_type
.LVL171:
	.cfi_endproc
.LFE15:
	.size	altcp_tcp_alloc, .-altcp_tcp_alloc
	.section	.text.altcp_tcp_wrap,"ax",@progbits
	.align	1
	.globl	altcp_tcp_wrap
	.type	altcp_tcp_wrap, @function
altcp_tcp_wrap:
.LFB16:
	.loc 1 220 1 is_stmt 1
	.cfi_startproc
.LVL172:
	.loc 1 221 3
	.loc 1 220 1 is_stmt 0
	addi	sp,sp,-16
	.cfi_def_cfa_offset 16
	sw	s0,8(sp)
	sw	s1,4(sp)
	sw	ra,12(sp)
	sw	s2,0(sp)
	.cfi_offset 8, -8
	.cfi_offset 9, -12
	.cfi_offset 1, -4
	.cfi_offset 18, -16
	addi	s0,sp,16
	.cfi_def_cfa 8, 0
	.loc 1 228 9
	li	s1,0
	.loc 1 221 6
	beq	a0,zero,.L171
	mv	s2,a0
.LBB66:
	.loc 1 222 5 is_stmt 1
	.loc 1 222 29 is_stmt 0
	call	altcp_alloc
.LVL173:
	mv	s1,a0
.LVL174:
	.loc 1 223 5 is_stmt 1
	.loc 1 223 8 is_stmt 0
	beq	a0,zero,.L171
	.loc 1 224 7 is_stmt 1
.LVL175:
.LBB67:
.LBB68:
	.loc 1 183 3
	mv	a1,s2
	call	altcp_tcp_setup_callbacks
.LVL176:
	.loc 1 184 3
	.loc 1 185 13 is_stmt 0
	lui	a5,%hi(.LANCHOR0)
	addi	a5,a5,%lo(.LANCHOR0)
	.loc 1 184 15
	sw	s2,12(s1)
	.loc 1 185 3 is_stmt 1
	.loc 1 185 13 is_stmt 0
	sw	a5,0(s1)
.LVL177:
.L171:
.LBE68:
.LBE67:
.LBE66:
	.loc 1 229 1
	lw	ra,12(sp)
	.cfi_restore 1
	lw	s0,8(sp)
	.cfi_restore 8
	.cfi_def_cfa 2, 16
	lw	s2,0(sp)
	.cfi_restore 18
	mv	a0,s1
	lw	s1,4(sp)
	.cfi_restore 9
	addi	sp,sp,16
	.cfi_def_cfa_offset 0
	jr	ra
	.cfi_endproc
.LFE16:
	.size	altcp_tcp_wrap, .-altcp_tcp_wrap
	.globl	altcp_tcp_functions
	.section	.rodata.altcp_tcp_functions,"a"
	.align	2
	.set	.LANCHOR0,. + 0
	.type	altcp_tcp_functions, @object
	.size	altcp_tcp_functions, 84
altcp_tcp_functions:
	.word	altcp_tcp_set_poll
	.word	altcp_tcp_recved
	.word	altcp_tcp_bind
	.word	altcp_tcp_connect
	.word	altcp_tcp_listen
	.word	altcp_tcp_abort
	.word	altcp_tcp_close
	.word	altcp_tcp_shutdown
	.word	altcp_tcp_write
	.word	altcp_tcp_output
	.word	altcp_tcp_mss
	.word	altcp_tcp_sndbuf
	.word	altcp_tcp_sndqueuelen
	.word	altcp_tcp_nagle_disable
	.word	altcp_tcp_nagle_enable
	.word	altcp_tcp_nagle_disabled
	.word	altcp_tcp_setprio
	.word	altcp_tcp_dealloc
	.word	altcp_tcp_get_tcp_addrinfo
	.word	altcp_tcp_get_ip
	.word	altcp_tcp_get_port
	.text
.Letext0:
	.file 2 "/home/dinhquangha/Ai-Thinker-WB2/toolchain/riscv/Linux/riscv64-unknown-elf/include/machine/_default_types.h"
	.file 3 "/home/dinhquangha/Ai-Thinker-WB2/toolchain/riscv/Linux/riscv64-unknown-elf/include/sys/_stdint.h"
	.file 4 "/home/dinhquangha/Ai-Thinker-WB2/components/network/lwip/src/include/lwip/arch.h"
	.file 5 "/home/dinhquangha/Ai-Thinker-WB2/components/network/lwip/src/include/lwip/tcpbase.h"
	.file 6 "/home/dinhquangha/Ai-Thinker-WB2/components/network/lwip/src/include/lwip/err.h"
	.file 7 "/home/dinhquangha/Ai-Thinker-WB2/components/network/lwip/src/include/lwip/pbuf.h"
	.file 8 "/home/dinhquangha/Ai-Thinker-WB2/components/network/lwip/src/include/lwip/ip4_addr.h"
	.file 9 "/home/dinhquangha/Ai-Thinker-WB2/components/network/lwip/src/include/lwip/ip_addr.h"
	.file 10 "/home/dinhquangha/Ai-Thinker-WB2/components/network/lwip/src/include/lwip/altcp.h"
	.file 11 "/home/dinhquangha/Ai-Thinker-WB2/components/network/lwip/src/include/lwip/priv/altcp_priv.h"
	.file 12 "/home/dinhquangha/Ai-Thinker-WB2/components/network/lwip/src/include/lwip/memp.h"
	.file 13 "/home/dinhquangha/Ai-Thinker-WB2/components/network/lwip/src/include/lwip/netif.h"
	.file 14 "/home/dinhquangha/Ai-Thinker-WB2/components/network/lwip/src/include/lwip/tcp.h"