	.file	"atomic_c.c"
	.option nopic
	.attribute arch, "rv32i2p0_m2p0_f2p0_c2p0"
	.attribute unaligned_access, 0
	.attribute stack_align, 16
	.text
.Ltext0:
	.cfi_sections	.debug_frame
	.section	.text.atomic_cas,"ax",@progbits
	.align	1
	.globl	atomic_cas
	.type	atomic_cas, @function
atomic_cas:
.LFB26:
	.file 1 "/home/quanghaictu/intern/Ai-Thinker-WB2/components/network/ble/blestack/src/common/atomic_c.c"
	.loc 1 48 1
	.cfi_startproc
.LVL0:
	.loc 1 49 2
	.loc 1 50 2
	.loc 1 52 2
	.loc 1 48 1 is_stmt 0
	addi	sp,sp,-32
	.cfi_def_cfa_offset 32
	sw	s0,24(sp)
	sw	s1,20(sp)
	sw	s2,16(sp)
	sw	s3,12(sp)
	sw	ra,28(sp)
	.cfi_offset 8, -8
	.cfi_offset 9, -12
	.cfi_offset 18, -16
	.cfi_offset 19, -20
	.cfi_offset 1, -4
	addi	s0,sp,32
	.cfi_def_cfa 8, 0
	.loc 1 48 1
	mv	s1,a0
	mv	s3,a1
	mv	s2,a2
	.loc 1 52 8
	call	irq_lock
.LVL1:
	.loc 1 54 2 is_stmt 1
	.loc 1 54 5 is_stmt 0
	lw	a5,0(s1)
	bne	a5,s3,.L3
	.loc 1 55 3 is_stmt 1
	.loc 1 55 11 is_stmt 0
	sw	s2,0(s1)
	.loc 1 56 3 is_stmt 1
.LVL2:
	.loc 1 56 7 is_stmt 0
	li	s1,1
.LVL3:
.L2:
	.loc 1 59 2 is_stmt 1
	call	irq_unlock
.LVL4:
	.loc 1 61 2
	.loc 1 62 1 is_stmt 0
	lw	ra,28(sp)
	.cfi_remember_state
	.cfi_restore 1
	lw	s0,24(sp)
	.cfi_restore 8
	.cfi_def_cfa 2, 32
	lw	s2,16(sp)
	.cfi_restore 18
.LVL5:
	lw	s3,12(sp)
	.cfi_restore 19
.LVL6:
	mv	a0,s1
	lw	s1,20(sp)
	.cfi_restore 9
.LVL7:
	addi	sp,sp,32
	.cfi_def_cfa_offset 0
	jr	ra
.LVL8:
.L3:
	.cfi_restore_state
	.loc 1 50 6
	li	s1,0
.LVL9:
	j	.L2
	.cfi_endproc
.LFE26:
	.size	atomic_cas, .-atomic_cas
	.section	.text.atomic_add,"ax",@progbits
	.align	1
	.globl	atomic_add
	.type	atomic_add, @function
atomic_add:
.LFB27:
	.loc 1 78 1 is_stmt 1
	.cfi_startproc
.LVL10:
	.loc 1 79 2
	.loc 1 80 2
	.loc 1 82 2
	.loc 1 78 1 is_stmt 0
	addi	sp,sp,-32
	.cfi_def_cfa_offset 32
	sw	ra,28(sp)
	sw	s0,24(sp)
	sw	s1,20(sp)
	sw	s2,16(sp)
	sw	s3,12(sp)
	.cfi_offset 1, -4
	.cfi_offset 8, -8
	.cfi_offset 9, -12
	.cfi_offset 18, -16
	.cfi_offset 19, -20
	addi	s0,sp,32
	.cfi_def_cfa 8, 0
	.loc 1 78 1
	mv	s2,a0
	mv	s1,a1
	.loc 1 82 8
	call	irq_lock
.LVL11:
	.loc 1 84 2 is_stmt 1
	.loc 1 84 6 is_stmt 0
	lw	s3,0(s2)
.LVL12:
	.loc 1 85 2 is_stmt 1
	.loc 1 85 10 is_stmt 0
	add	s1,s3,s1
.LVL13:
	sw	s1,0(s2)
	.loc 1 87 2 is_stmt 1
	call	irq_unlock
.LVL14:
	.loc 1 89 2
	.loc 1 90 1 is_stmt 0
	lw	ra,28(sp)
	.cfi_restore 1
	lw	s0,24(sp)
	.cfi_restore 8
	.cfi_def_cfa 2, 32
	lw	s1,20(sp)
	.cfi_restore 9
	lw	s2,16(sp)
	.cfi_restore 18
.LVL15:
	mv	a0,s3
	lw	s3,12(sp)
	.cfi_restore 19
.LVL16:
	addi	sp,sp,32
	.cfi_def_cfa_offset 0
	jr	ra
	.cfi_endproc
.LFE27:
	.size	atomic_add, .-atomic_add
	.section	.text.atomic_sub,"ax",@progbits
	.align	1
	.globl	atomic_sub
	.type	atomic_sub, @function
atomic_sub:
.LFB28:
	.loc 1 106 1 is_stmt 1
	.cfi_startproc
.LVL17:
	.loc 1 107 2
	.loc 1 108 2
	.loc 1 110 2
	.loc 1 106 1 is_stmt 0
	addi	sp,sp,-32
	.cfi_def_cfa_offset 32
	sw	ra,28(sp)
	sw	s0,24(sp)
	sw	s1,20(sp)
	sw	s2,16(sp)
	sw	s3,12(sp)
	.cfi_offset 1, -4
	.cfi_offset 8, -8
	.cfi_offset 9, -12
	.cfi_offset 18, -16
	.cfi_offset 19, -20
	addi	s0,sp,32
	.cfi_def_cfa 8, 0
	.loc 1 106 1
	mv	s2,a0
	mv	s1,a1
	.loc 1 110 8
	call	irq_lock
.LVL18:
	.loc 1 112 2 is_stmt 1
	.loc 1 112 6 is_stmt 0
	lw	s3,0(s2)
.LVL19:
	.loc 1 113 2 is_stmt 1
	.loc 1 113 10 is_stmt 0
	sub	s1,s3,s1
.LVL20:
	sw	s1,0(s2)
	.loc 1 115 2 is_stmt 1
	call	irq_unlock
.LVL21:
	.loc 1 117 2
	.loc 1 118 1 is_stmt 0
	lw	ra,28(sp)
	.cfi_restore 1
	lw	s0,24(sp)
	.cfi_restore 8
	.cfi_def_cfa 2, 32
	lw	s1,20(sp)
	.cfi_restore 9
	lw	s2,16(sp)
	.cfi_restore 18
.LVL22:
	mv	a0,s3
	lw	s3,12(sp)
	.cfi_restore 19
.LVL23:
	addi	sp,sp,32
	.cfi_def_cfa_offset 0
	jr	ra
	.cfi_endproc
.LFE28:
	.size	atomic_sub, .-atomic_sub
	.section	.text.atomic_inc,"ax",@progbits
	.align	1
	.globl	atomic_inc
	.type	atomic_inc, @function
atomic_inc:
.LFB29:
	.loc 1 132 1 is_stmt 1
	.cfi_startproc
.LVL24:
	.loc 1 133 2
	.loc 1 134 2
	.loc 1 136 2
	.loc 1 132 1 is_stmt 0
	addi	sp,sp,-16
	.cfi_def_cfa_offset 16
	sw	ra,12(sp)
	sw	s0,8(sp)
	sw	s1,4(sp)
	sw	s2,0(sp)
	.cfi_offset 1, -4
	.cfi_offset 8, -8
	.cfi_offset 9, -12
	.cfi_offset 18, -16
	addi	s0,sp,16
	.cfi_def_cfa 8, 0
	.loc 1 132 1
	mv	s1,a0
	.loc 1 136 8
	call	irq_lock
.LVL25:
	.loc 1 138 2 is_stmt 1
	.loc 1 138 6 is_stmt 0
	lw	s2,0(s1)
.LVL26:
	.loc 1 139 2 is_stmt 1
	.loc 1 139 11 is_stmt 0
	addi	a5,s2,1
	sw	a5,0(s1)
	.loc 1 141 2 is_stmt 1
	call	irq_unlock
.LVL27:
	.loc 1 143 2
	.loc 1 144 1 is_stmt 0
	lw	ra,12(sp)
	.cfi_restore 1
	lw	s0,8(sp)
	.cfi_restore 8
	.cfi_def_cfa 2, 16
	lw	s1,4(sp)
	.cfi_restore 9
.LVL28:
	mv	a0,s2
	lw	s2,0(sp)
	.cfi_restore 18
.LVL29:
	addi	sp,sp,16
	.cfi_def_cfa_offset 0
	jr	ra
	.cfi_endproc
.LFE29:
	.size	atomic_inc, .-atomic_inc
	.section	.text.atomic_dec,"ax",@progbits
	.align	1
	.globl	atomic_dec
	.type	atomic_dec, @function
atomic_dec:
.LFB30:
	.loc 1 158 1 is_stmt 1
	.cfi_startproc
.LVL30:
	.loc 1 159 2
	.loc 1 160 2
	.loc 1 162 2
	.loc 1 158 1 is_stmt 0
	addi	sp,sp,-16
	.cfi_def_cfa_offset 16
	sw	ra,12(sp)
	sw	s0,8(sp)
	sw	s1,4(sp)
	sw	s2,0(sp)
	.cfi_offset 1, -4
	.cfi_offset 8, -8
	.cfi_offset 9, -12
	.cfi_offset 18, -16
	addi	s0,sp,16
	.cfi_def_cfa 8, 0
	.loc 1 158 1
	mv	s1,a0
	.loc 1 162 8
	call	irq_lock
.LVL31:
	.loc 1 164 2 is_stmt 1
	.loc 1 164 6 is_stmt 0
	lw	s2,0(s1)
.LVL32:
	.loc 1 165 2 is_stmt 1
	.loc 1 165 11 is_stmt 0
	addi	a5,s2,-1
	sw	a5,0(s1)
	.loc 1 167 2 is_stmt 1
	call	irq_unlock
.LVL33:
	.loc 1 169 2
	.loc 1 170 1 is_stmt 0
	lw	ra,12(sp)
	.cfi_restore 1
	lw	s0,8(sp)
	.cfi_restore 8
	.cfi_def_cfa 2, 16
	lw	s1,4(sp)
	.cfi_restore 9
.LVL34:
	mv	a0,s2
	lw	s2,0(sp)
	.cfi_restore 18
.LVL35:
	addi	sp,sp,16
	.cfi_def_cfa_offset 0
	jr	ra
	.cfi_endproc
.LFE30:
	.size	atomic_dec, .-atomic_dec
	.section	.text.atomic_get,"ax",@progbits
	.align	1
	.globl	atomic_get
	.type	atomic_get, @function
atomic_get:
.LFB31:
	.loc 1 185 1 is_stmt 1
	.cfi_startproc
.LVL36:
	.loc 1 186 2
	.loc 1 185 1 is_stmt 0
	addi	sp,sp,-16
	.cfi_def_cfa_offset 16
	sw	s0,12(sp)
	.cfi_offset 8, -4
	addi	s0,sp,16
	.cfi_def_cfa 8, 0
	.loc 1 187 1
	lw	s0,12(sp)
	.cfi_restore 8
	.cfi_def_cfa 2, 16
	lw	a0,0(a0)
.LVL37:
	addi	sp,sp,16
	.cfi_def_cfa_offset 0
	jr	ra
	.cfi_endproc
.LFE31:
	.size	atomic_get, .-atomic_get
	.section	.text.atomic_set,"ax",@progbits
	.align	1
	.globl	atomic_set
	.type	atomic_set, @function
atomic_set:
.LFB32:
	.loc 1 202 1 is_stmt 1
	.cfi_startproc
.LVL38:
	.loc 1 203 2
	.loc 1 204 2
	.loc 1 206 2
	.loc 1 202 1 is_stmt 0
	addi	sp,sp,-32
	.cfi_def_cfa_offset 32
	sw	ra,28(sp)
	sw	s0,24(sp)
	sw	s1,20(sp)
	sw	s2,16(sp)
	sw	s3,12(sp)
	.cfi_offset 1, -4
	.cfi_offset 8, -8
	.cfi_offset 9, -12
	.cfi_offset 18, -16
	.cfi_offset 19, -20
	addi	s0,sp,32
	.cfi_def_cfa 8, 0
	.loc 1 202 1
	mv	s1,a0
	mv	s2,a1
	.loc 1 206 8
	call	irq_lock
.LVL39:
	.loc 1 208 2 is_stmt 1
	.loc 1 208 6 is_stmt 0
	lw	s3,0(s1)
.LVL40:
	.loc 1 209 2 is_stmt 1
	.loc 1 209 10 is_stmt 0
	sw	s2,0(s1)
	.loc 1 211 2 is_stmt 1
	call	irq_unlock
.LVL41:
	.loc 1 213 2
	.loc 1 214 1 is_stmt 0
	lw	ra,28(sp)
	.cfi_restore 1
	lw	s0,24(sp)
	.cfi_restore 8
	.cfi_def_cfa 2, 32
	lw	s1,20(sp)
	.cfi_restore 9
.LVL42:
	lw	s2,16(sp)
	.cfi_restore 18
.LVL43:
	mv	a0,s3
	lw	s3,12(sp)
	.cfi_restore 19
.LVL44:
	addi	sp,sp,32
	.cfi_def_cfa_offset 0
	jr	ra
	.cfi_endproc
.LFE32:
	.size	atomic_set, .-atomic_set
	.section	.text.atomic_clear,"ax",@progbits
	.align	1
	.globl	atomic_clear
	.type	atomic_clear, @function
atomic_clear:
.LFB33:
	.loc 1 229 1 is_stmt 1
	.cfi_startproc
.LVL45:
	.loc 1 230 2
	.loc 1 231 2
	.loc 1 233 2
	.loc 1 229 1 is_stmt 0
	addi	sp,sp,-16
	.cfi_def_cfa_offset 16
	sw	ra,12(sp)
	sw	s0,8(sp)
	sw	s1,4(sp)
	sw	s2,0(sp)
	.cfi_offset 1, -4
	.cfi_offset 8, -8
	.cfi_offset 9, -12
	.cfi_offset 18, -16
	addi	s0,sp,16
	.cfi_def_cfa 8, 0
	.loc 1 229 1
	mv	s1,a0
	.loc 1 233 8
	call	irq_lock
.LVL46:
	.loc 1 235 2 is_stmt 1
	.loc 1 235 6 is_stmt 0
	lw	s2,0(s1)
.LVL47:
	.loc 1 236 2 is_stmt 1
	.loc 1 236 10 is_stmt 0
	sw	zero,0(s1)
	.loc 1 238 2 is_stmt 1
	call	irq_unlock
.LVL48:
	.loc 1 240 2
	.loc 1 241 1 is_stmt 0
	lw	ra,12(sp)
	.cfi_restore 1
	lw	s0,8(sp)
	.cfi_restore 8
	.cfi_def_cfa 2, 16
	lw	s1,4(sp)
	.cfi_restore 9
.LVL49:
	mv	a0,s2
	lw	s2,0(sp)
	.cfi_restore 18
.LVL50:
	addi	sp,sp,16
	.cfi_def_cfa_offset 0
	jr	ra
	.cfi_endproc
.LFE33:
	.size	atomic_clear, .-atomic_clear
	.section	.text.atomic_or,"ax",@progbits
	.align	1
	.globl	atomic_or
	.type	atomic_or, @function
atomic_or:
.LFB34:
	.loc 1 257 1 is_stmt 1
	.cfi_startproc
.LVL51:
	.loc 1 258 2
	.loc 1 259 2
	.loc 1 261 2
	.loc 1 257 1 is_stmt 0
	addi	sp,sp,-32
	.cfi_def_cfa_offset 32
	sw	ra,28(sp)
	sw	s0,24(sp)
	sw	s1,20(sp)
	sw	s2,16(sp)
	sw	s3,12(sp)
	.cfi_offset 1, -4
	.cfi_offset 8, -8
	.cfi_offset 9, -12
	.cfi_offset 18, -16
	.cfi_offset 19, -20
	addi	s0,sp,32
	.cfi_def_cfa 8, 0
	.loc 1 257 1
	mv	s2,a0
	mv	s1,a1
	.loc 1 261 8
	call	irq_lock
.LVL52:
	.loc 1 263 2 is_stmt 1
	.loc 1 263 6 is_stmt 0
	lw	s3,0(s2)
.LVL53:
	.loc 1 264 2 is_stmt 1
	.loc 1 264 10 is_stmt 0
	or	s1,s3,s1
.LVL54:
	sw	s1,0(s2)
	.loc 1 266 2 is_stmt 1
	call	irq_unlock
.LVL55:
	.loc 1 268 2
	.loc 1 269 1 is_stmt 0
	lw	ra,28(sp)
	.cfi_restore 1
	lw	s0,24(sp)
	.cfi_restore 8
	.cfi_def_cfa 2, 32
	lw	s1,20(sp)
	.cfi_restore 9
	lw	s2,16(sp)
	.cfi_restore 18
.LVL56:
	mv	a0,s3
	lw	s3,12(sp)
	.cfi_restore 19
.LVL57:
	addi	sp,sp,32
	.cfi_def_cfa_offset 0
	jr	ra
	.cfi_endproc
.LFE34:
	.size	atomic_or, .-atomic_or
	.section	.text.atomic_xor,"ax",@progbits
	.align	1
	.globl	atomic_xor
	.type	atomic_xor, @function
atomic_xor:
.LFB35:
	.loc 1 285 1 is_stmt 1
	.cfi_startproc
.LVL58:
	.loc 1 286 2
	.loc 1 287 2
	.loc 1 289 2
	.loc 1 285 1 is_stmt 0
	addi	sp,sp,-32
	.cfi_def_cfa_offset 32
	sw	ra,28(sp)
	sw	s0,24(sp)
	sw	s1,20(sp)
	sw	s2,16(sp)
	sw	s3,12(sp)
	.cfi_offset 1, -4
	.cfi_offset 8, -8
	.cfi_offset 9, -12
	.cfi_offset 18, -16
	.cfi_offset 19, -20
	addi	s0,sp,32
	.cfi_def_cfa 8, 0
	.loc 1 285 1
	mv	s2,a0
	mv	s1,a1
	.loc 1 289 8
	call	irq_lock
.LVL59:
	.loc 1 291 2 is_stmt 1
	.loc 1 291 6 is_stmt 0
	lw	s3,0(s2)
.LVL60:
	.loc 1 292 2 is_stmt 1
	.loc 1 292 10 is_stmt 0
	xor	s1,s3,s1
.LVL61:
	sw	s1,0(s2)
	.loc 1 294 2 is_stmt 1
	call	irq_unlock
.LVL62:
	.loc 1 296 2
	.loc 1 297 1 is_stmt 0
	lw	ra,28(sp)
	.cfi_restore 1
	lw	s0,24(sp)
	.cfi_restore 8
	.cfi_def_cfa 2, 32
	lw	s1,20(sp)
	.cfi_restore 9
	lw	s2,16(sp)
	.cfi_restore 18
.LVL63:
	mv	a0,s3
	lw	s3,12(sp)
	.cfi_restore 19
.LVL64:
	addi	sp,sp,32
	.cfi_def_cfa_offset 0
	jr	ra
	.cfi_endproc
.LFE35:
	.size	atomic_xor, .-atomic_xor
	.section	.text.atomic_and,"ax",@progbits
	.align	1
	.globl	atomic_and
	.type	atomic_and, @function
atomic_and:
.LFB36:
	.loc 1 313 1 is_stmt 1
	.cfi_startproc
.LVL65:
	.loc 1 314 2
	.loc 1 315 2
	.loc 1 317 2
	.loc 1 313 1 is_stmt 0
	addi	sp,sp,-32
	.cfi_def_cfa_offset 32
	sw	ra,28(sp)
	sw	s0,24(sp)
	sw	s1,20(sp)
	sw	s2,16(sp)
	sw	s3,12(sp)
	.cfi_offset 1, -4
	.cfi_offset 8, -8
	.cfi_offset 9, -12
	.cfi_offset 18, -16
	.cfi_offset 19, -20
	addi	s0,sp,32
	.cfi_def_cfa 8, 0
	.loc 1 313 1
	mv	s2,a0
	mv	s1,a1
	.loc 1 317 8
	call	irq_lock
.LVL66:
	.loc 1 319 2 is_stmt 1
	.loc 1 319 6 is_stmt 0
	lw	s3,0(s2)
.LVL67:
	.loc 1 320 2 is_stmt 1
	.loc 1 320 10 is_stmt 0
	and	s1,s3,s1
.LVL68:
	sw	s1,0(s2)
	.loc 1 322 2 is_stmt 1
	call	irq_unlock
.LVL69:
	.loc 1 324 2
	.loc 1 325 1 is_stmt 0
	lw	ra,28(sp)
	.cfi_restore 1
	lw	s0,24(sp)
	.cfi_restore 8
	.cfi_def_cfa 2, 32
	lw	s1,20(sp)
	.cfi_restore 9
	lw	s2,16(sp)
	.cfi_restore 18
.LVL70:
	mv	a0,s3
	lw	s3,12(sp)
	.cfi_restore 19
.LVL71:
	addi	sp,sp,32
	.cfi_def_cfa_offset 0
	jr	ra
	.cfi_endproc
.LFE36:
	.size	atomic_and, .-atomic_and
	.section	.text.atomic_nand,"ax",@progbits
	.align	1
	.globl	atomic_nand
	.type	atomic_nand, @function
atomic_nand:
.LFB37:
	.loc 1 341 1 is_stmt 1
	.cfi_startproc
.LVL72:
	.loc 1 342 2
	.loc 1 343 2
	.loc 1 345 2
	.loc 1 341 1 is_stmt 0
	addi	sp,sp,-32
	.cfi_def_cfa_offset 32
	sw	ra,28(sp)
	sw	s0,24(sp)
	sw	s1,20(sp)
	sw	s2,16(sp)
	sw	s3,12(sp)
	.cfi_offset 1, -4
	.cfi_offset 8, -8
	.cfi_offset 9, -12
	.cfi_offset 18, -16
	.cfi_offset 19, -20
	addi	s0,sp,32
	.cfi_def_cfa 8, 0
	.loc 1 341 1
	mv	s2,a0
	mv	s1,a1
	.loc 1 345 8
	call	irq_lock
.LVL73:
	.loc 1 347 2 is_stmt 1
	.loc 1 347 6 is_stmt 0
	lw	s3,0(s2)
.LVL74:
	.loc 1 348 2 is_stmt 1
	.loc 1 348 22 is_stmt 0
	and	s1,s3,s1
.LVL75:
	.loc 1 348 12
	not	s1,s1
	.loc 1 348 10
	sw	s1,0(s2)
	.loc 1 350 2 is_stmt 1
	call	irq_unlock
.LVL76:
	.loc 1 352 2
	.loc 1 353 1 is_stmt 0
	lw	ra,28(sp)
	.cfi_restore 1
	lw	s0,24(sp)
	.cfi_restore 8
	.cfi_def_cfa 2, 32
	lw	s1,20(sp)
	.cfi_restore 9
	lw	s2,16(sp)
	.cfi_restore 18
.LVL77:
	mv	a0,s3
	lw	s3,12(sp)
	.cfi_restore 19
.LVL78:
	addi	sp,sp,32
	.cfi_def_cfa_offset 0
	jr	ra
	.cfi_endproc
.LFE37:
	.size	atomic_nand, .-atomic_nand
	.text
.Letext0:
	.file 2 "/home/quanghaictu/intern/Ai-Thinker-WB2/components/network/ble/blestack/src/common/include/atomic.h"
	.file 3 "/home/quanghaictu/intern/Ai-Thinker-WB2/components/network/ble/blestack/src/port/include/bl_port.h"