	.file	"buf.c"
	.option nopic
	.attribute arch, "rv32i2p0_m2p0_f2p0_c2p0"
	.attribute unaligned_access, 0
	.attribute stack_align, 16
	.text
.Ltext0:
	.cfi_sections	.debug_frame
	.section	.text.fixed_data_unref,"ax",@progbits
	.align	1
	.type	fixed_data_unref, @function
fixed_data_unref:
.LFB92:
	.file 1 "/home/dinhquangha/intern/Ai-Thinker-WB2/components/network/ble/blestack/src/common/buf.c"
	.loc 1 364 1
	.cfi_startproc
.LVL0:
	.loc 1 366 1
	.loc 1 364 1 is_stmt 0
	addi	sp,sp,-16
	.cfi_def_cfa_offset 16
	sw	s0,12(sp)
	.cfi_offset 8, -4
	addi	s0,sp,16
	.cfi_def_cfa 8, 0
	.loc 1 366 1
	lw	s0,12(sp)
	.cfi_restore 8
	.cfi_def_cfa 2, 16
	addi	sp,sp,16
	.cfi_def_cfa_offset 0
	jr	ra
	.cfi_endproc
.LFE92:
	.size	fixed_data_unref, .-fixed_data_unref
	.section	.text.net_buf_destroy,"ax",@progbits
	.align	1
	.type	net_buf_destroy, @function
net_buf_destroy:
.LFB51:
	.file 2 "/home/dinhquangha/intern/Ai-Thinker-WB2/components/network/ble/blestack/src/common/include/net/buf.h"
	.loc 2 995 1 is_stmt 1
	.cfi_startproc
.LVL1:
	.loc 2 996 2
.LBB108:
.LBB109:
	.loc 1 245 5
.LBE109:
.LBE108:
	.loc 2 998 2
	.loc 2 995 1 is_stmt 0
	addi	sp,sp,-16
	.cfi_def_cfa_offset 16
	sw	s0,12(sp)
.LVL2:
	.cfi_offset 8, -4
	addi	s0,sp,16
	.cfi_def_cfa 8, 0
	.loc 2 996 30
	lbu	a5,6(a0)
	.loc 2 999 1
	lw	s0,12(sp)
	.cfi_restore 8
	.cfi_def_cfa 2, 16
	.loc 2 995 1
	mv	a1,a0
.LBB111:
.LBB110:
	.loc 1 245 30
	slli	a4,a5,2
	lui	a5,%hi(.LANCHOR0)
	addi	a5,a5,%lo(.LANCHOR0)
	add	a5,a5,a4
.LBE110:
.LBE111:
	.loc 2 998 2
	lw	a0,0(a5)
.LVL3:
	.loc 2 999 1
	addi	sp,sp,16
	.cfi_def_cfa_offset 0
	.loc 2 998 2
	tail	k_queue_prepend
.LVL4:
	.cfi_endproc
.LFE51:
	.size	net_buf_destroy, .-net_buf_destroy
	.section	.text.net_buf_init,"ax",@progbits
	.align	1
	.globl	net_buf_init
	.type	net_buf_init, @function
net_buf_init:
.LFB84:
	.loc 1 165 1 is_stmt 1
	.cfi_startproc
.LVL5:
	.loc 1 166 5
	.loc 1 167 5
	.loc 1 165 1 is_stmt 0
	addi	sp,sp,-32
	.cfi_def_cfa_offset 32
	sw	ra,28(sp)
	sw	s0,24(sp)
	sw	s1,20(sp)
	.cfi_offset 1, -4
	.cfi_offset 8, -8
	.cfi_offset 9, -12
	addi	s0,sp,32
	.cfi_def_cfa 8, 0
	sw	s2,16(sp)
	sw	s3,12(sp)
	sw	s4,8(sp)
	sw	s5,4(sp)
	.cfi_offset 18, -16
	.cfi_offset 19, -20
	.cfi_offset 20, -24
	.cfi_offset 21, -28
	.loc 1 165 1
	mv	s1,a0
	.loc 1 167 52
	li	a0,8
.LVL6:
	.loc 1 165 1
	mv	s2,a1
	mv	s3,a2
	mv	s5,a3
	.loc 1 167 52
	call	k_malloc
.LVL7:
	mv	s4,a0
	.loc 1 167 21
	sw	a0,20(s1)
	.loc 1 168 5 is_stmt 1
	.loc 1 168 64 is_stmt 0
	li	a0,8
	call	k_malloc
.LVL8:
	.loc 1 168 33
	sw	a0,4(s4)
	.loc 1 170 5 is_stmt 1
	.loc 1 214 36 is_stmt 0
	mul	a0,s2,s3
	.loc 1 170 54
	lw	a4,20(s1)
	.loc 1 172 25
	lui	a5,%hi(.LANCHOR1)
	addi	a5,a5,%lo(.LANCHOR1)
	.loc 1 170 15
	lw	s4,4(a4)
.LVL9:
	.loc 1 172 5 is_stmt 1
	.loc 1 172 25 is_stmt 0
	sw	a5,0(a4)
	.loc 1 173 5 is_stmt 1
	.loc 1 173 26 is_stmt 0
	sw	s3,0(s4)
	.loc 1 214 5 is_stmt 1
	.loc 1 214 36 is_stmt 0
	call	k_malloc
.LVL10:
	.loc 1 214 26
	sw	a0,4(s4)
	.loc 1 216 5 is_stmt 1
	.loc 1 216 42 is_stmt 0
	li	a0,24
	mul	a0,s2,a0
	call	k_malloc
.LVL11:
	.loc 1 225 1
	lw	s0,24(sp)
	.cfi_restore 8
	.cfi_def_cfa 2, 32
	.loc 1 216 22
	sw	a0,24(s1)
	.loc 1 217 5 is_stmt 1
	.loc 1 217 25 is_stmt 0
	sh	s2,12(s1)
	.loc 1 218 5 is_stmt 1
	.loc 1 218 28 is_stmt 0
	sh	s2,14(s1)
	.loc 1 222 5 is_stmt 1
	.loc 1 222 23 is_stmt 0
	sw	s5,16(s1)
	.loc 1 224 5 is_stmt 1
	.loc 1 225 1 is_stmt 0
	lw	ra,28(sp)
	.cfi_restore 1
	lw	s3,12(sp)
	.cfi_restore 19
.LVL12:
	lw	s4,8(sp)
	.cfi_restore 20
.LVL13:
	lw	s5,4(sp)
	.cfi_restore 21
.LVL14:
	.loc 1 224 5
	mv	a1,s2
	mv	a0,s1
	.loc 1 225 1
	lw	s2,16(sp)
	.cfi_restore 18
	lw	s1,20(sp)
	.cfi_restore 9
.LVL15:
	addi	sp,sp,32
	.cfi_def_cfa_offset 0
	.loc 1 224 5
	tail	k_queue_init
.LVL16:
	.cfi_endproc
.LFE84:
	.size	net_buf_init, .-net_buf_init
	.section	.text.net_buf_deinit,"ax",@progbits
	.align	1
	.globl	net_buf_deinit
	.type	net_buf_deinit, @function
net_buf_deinit:
.LFB85:
	.loc 1 228 1 is_stmt 1
	.cfi_startproc
.LVL17:
	.loc 1 229 5
	.loc 1 230 5
	.loc 1 228 1 is_stmt 0
	addi	sp,sp,-16
	.cfi_def_cfa_offset 16
	sw	ra,12(sp)
	sw	s0,8(sp)
	sw	s1,4(sp)
	.cfi_offset 1, -4
	.cfi_offset 8, -8
	.cfi_offset 9, -12
	addi	s0,sp,16
	.cfi_def_cfa 8, 0
	.loc 1 228 1
	mv	s1,a0
	.loc 1 230 5
	call	bt_delete_queue
.LVL18:
	.loc 1 232 5 is_stmt 1
	.loc 1 234 5
	.loc 1 232 32 is_stmt 0
	lw	a5,20(s1)
	.loc 1 234 21
	lw	a5,4(a5)
	.loc 1 234 5
	lw	a0,4(a5)
	call	k_free
.LVL19:
	.loc 1 236 5 is_stmt 1
	lw	a0,24(s1)
	call	k_free
.LVL20:
	.loc 1 237 5
	lw	a5,20(s1)
	lw	a0,4(a5)
	call	k_free
.LVL21:
	.loc 1 238 5
	.loc 1 239 1 is_stmt 0
	lw	s0,8(sp)
	.cfi_restore 8
	.cfi_def_cfa 2, 16
	.loc 1 238 5
	lw	a0,20(s1)
	.loc 1 239 1
	lw	ra,12(sp)
	.cfi_restore 1
	lw	s1,4(sp)
	.cfi_restore 9
.LVL22:
	addi	sp,sp,16
	.cfi_def_cfa_offset 0
	.loc 1 238 5
	tail	k_free
.LVL23:
	.cfi_endproc
.LFE85:
	.size	net_buf_deinit, .-net_buf_deinit
	.section	.text.net_buf_pool_get,"ax",@progbits
	.align	1
	.globl	net_buf_pool_get
	.type	net_buf_pool_get, @function
net_buf_pool_get:
.LFB86:
	.loc 1 243 1 is_stmt 1
	.cfi_startproc
.LVL24:
	.loc 1 245 5
	.loc 1 243 1 is_stmt 0
	addi	sp,sp,-16
	.cfi_def_cfa_offset 16
	sw	s0,12(sp)
	.cfi_offset 8, -4
	addi	s0,sp,16
	.cfi_def_cfa 8, 0
	.loc 1 249 1
	lw	s0,12(sp)
	.cfi_restore 8
	.cfi_def_cfa 2, 16
	.loc 1 245 30
	slli	a5,a0,2
	lui	a0,%hi(.LANCHOR0)
.LVL25:
	addi	a0,a0,%lo(.LANCHOR0)
	add	a0,a0,a5
	.loc 1 249 1
	lw	a0,0(a0)
	addi	sp,sp,16
	.cfi_def_cfa_offset 0
	jr	ra
	.cfi_endproc
.LFE86:
	.size	net_buf_pool_get, .-net_buf_pool_get
	.section	.text.net_buf_id,"ax",@progbits
	.align	1
	.globl	net_buf_id
	.type	net_buf_id, @function
net_buf_id:
.LFB88:
	.loc 1 269 1 is_stmt 1
	.cfi_startproc
.LVL26:
	.loc 1 270 2
.LBB112:
.LBB113:
	.loc 1 245 5
.LBE113:
.LBE112:
	.loc 1 272 2
	.loc 1 269 1 is_stmt 0
	addi	sp,sp,-16
	.cfi_def_cfa_offset 16
	sw	s0,12(sp)
.LVL27:
	.cfi_offset 8, -4
	addi	s0,sp,16
	.cfi_def_cfa 8, 0
	.loc 1 270 30
	lbu	a5,6(a0)
	.loc 1 273 1
	lw	s0,12(sp)
	.cfi_restore 8
	.cfi_def_cfa 2, 16
.LBB115:
.LBB114:
	.loc 1 245 30
	slli	a4,a5,2
	lui	a5,%hi(.LANCHOR0)
	addi	a5,a5,%lo(.LANCHOR0)
	add	a5,a5,a4
.LBE114:
.LBE115:
	.loc 1 272 19
	lw	a5,0(a5)
	.loc 1 272 13
	lw	a5,24(a5)
	.loc 1 273 1
	addi	sp,sp,16
	.cfi_def_cfa_offset 0
	.loc 1 272 13
	sub	a0,a0,a5
.LVL28:
	.loc 1 273 1
	li	a5,-1431654400
	.loc 1 272 13
	srai	a0,a0,3
	.loc 1 273 1
	addi	a5,a5,-1365
	mul	a0,a0,a5
	jr	ra
	.cfi_endproc
.LFE88:
	.size	net_buf_id, .-net_buf_id
	.section	.text.fixed_data_alloc,"ax",@progbits
	.align	1
	.type	fixed_data_alloc, @function
fixed_data_alloc:
.LFB91:
	.loc 1 354 1 is_stmt 1
	.cfi_startproc
.LVL29:
	.loc 1 355 2
.LBB116:
.LBB117:
	.loc 1 245 5
.LBE117:
.LBE116:
	.loc 1 356 2
	.loc 1 354 1 is_stmt 0
	addi	sp,sp,-16
	.cfi_def_cfa_offset 16
	sw	s0,8(sp)
.LVL30:
	sw	ra,12(sp)
	sw	s1,4(sp)
	.cfi_offset 8, -8
	.cfi_offset 1, -4
	.cfi_offset 9, -12
	addi	s0,sp,16
	.cfi_def_cfa 8, 0
	.loc 1 355 30
	lbu	a5,6(a0)
.LBB119:
.LBB118:
	.loc 1 245 30
	slli	a4,a5,2
	lui	a5,%hi(.LANCHOR0)
	addi	a5,a5,%lo(.LANCHOR0)
	add	a5,a5,a4
.LBE118:
.LBE119:
	.loc 1 356 47
	lw	a5,0(a5)
	.loc 1 356 35
	lw	a5,20(a5)
	lw	s1,4(a5)
.LVL31:
	.loc 1 358 2 is_stmt 1
	.loc 1 358 63 is_stmt 0
	lw	a5,0(a1)
	lw	a4,0(s1)
	bleu	a5,a4,.L14
	mv	a5,a4
.L14:
	.loc 1 358 8
	sw	a5,0(a1)
	.loc 1 360 2 is_stmt 1
	.loc 1 360 47 is_stmt 0
	call	net_buf_id
.LVL32:
	.loc 1 360 45
	lw	a5,0(s1)
	.loc 1 361 1
	lw	ra,12(sp)
	.cfi_restore 1
	lw	s0,8(sp)
	.cfi_restore 8
	.cfi_def_cfa 2, 16
	.loc 1 360 45
	mul	a0,a0,a5
	.loc 1 360 26
	lw	a5,4(s1)
	.loc 1 361 1
	lw	s1,4(sp)
	.cfi_restore 9
.LVL33:
	addi	sp,sp,16
	.cfi_def_cfa_offset 0
	add	a0,a5,a0
	jr	ra
	.cfi_endproc
.LFE91:
	.size	fixed_data_alloc, .-fixed_data_alloc
	.section	.text.net_buf_reset,"ax",@progbits
	.align	1
	.globl	net_buf_reset
	.type	net_buf_reset, @function
net_buf_reset:
.LFB90:
	.loc 1 288 1 is_stmt 1
	.cfi_startproc
.LVL34:
	.loc 1 289 2
	.loc 1 290 2
	.loc 1 292 2
.LBB120:
.LBB121:
	.loc 2 176 2
.LBE121:
.LBE120:
	.loc 1 288 1 is_stmt 0
	addi	sp,sp,-16
	.cfi_def_cfa_offset 16
	sw	s0,12(sp)
	.cfi_offset 8, -4
	addi	s0,sp,16
	.cfi_def_cfa 8, 0
.LBB124:
.LBB122:
	.loc 2 177 12
	lw	a5,16(a0)
.LBE122:
.LBE124:
	.loc 1 293 1
	lw	s0,12(sp)
	.cfi_restore 8
	.cfi_def_cfa 2, 16
.LBB125:
.LBB123:
	.loc 2 176 11
	sh	zero,12(a0)
	.loc 2 177 2 is_stmt 1
	.loc 2 177 12 is_stmt 0
	sw	a5,8(a0)
.LVL35:
.LBE123:
.LBE125:
	.loc 1 293 1
	addi	sp,sp,16
	.cfi_def_cfa_offset 0
	jr	ra
	.cfi_endproc
.LFE90:
	.size	net_buf_reset, .-net_buf_reset
	.section	.text.net_buf_alloc_len,"ax",@progbits
	.align	1
	.globl	net_buf_alloc_len
	.type	net_buf_alloc_len, @function
net_buf_alloc_len:
.LFB96:
	.loc 1 446 1 is_stmt 1
	.cfi_startproc
.LVL36:
	.loc 1 447 2
	.loc 1 446 1 is_stmt 0
	addi	sp,sp,-48
	.cfi_def_cfa_offset 48
	sw	ra,44(sp)
	sw	s0,40(sp)
	sw	s2,32(sp)
	.cfi_offset 1, -4
	.cfi_offset 8, -8
	.cfi_offset 18, -16
	addi	s0,sp,48
	.cfi_def_cfa 8, 0
	sw	s3,28(sp)
	sw	s4,24(sp)
	sw	s1,36(sp)
	sw	s5,20(sp)
	sw	s6,16(sp)
	.cfi_offset 19, -20
	.cfi_offset 20, -24
	.cfi_offset 9, -12
	.cfi_offset 21, -28
	.cfi_offset 22, -32
	.loc 1 446 1
	mv	s2,a0
	sw	a1,-36(s0)
	mv	s3,a2
	.loc 1 447 22
	call	k_uptime_get_32
.LVL37:
	mv	s4,a0
.LVL38:
	.loc 1 448 2 is_stmt 1
	.loc 1 449 2
	.loc 1 451 2
	.loc 1 454 21
	.loc 1 465 2
	.loc 1 465 8 is_stmt 0
	call	irq_lock
.LVL39:
	.loc 1 470 2 is_stmt 1
	.loc 1 470 10 is_stmt 0
	lhu	a5,14(s2)
	.loc 1 470 5
	beq	a5,zero,.L19
.LBB139:
	.loc 1 477 6
	lhu	a4,12(s2)
	mv	s5,a0
	.loc 1 471 3 is_stmt 1
	.loc 1 477 3
	.loc 1 477 6 is_stmt 0
	bleu	a4,a5,.L20
	.loc 1 478 4 is_stmt 1
	.loc 1 478 10 is_stmt 0
	li	a1,0
	mv	a0,s2
.LVL40:
	call	k_queue_get
.LVL41:
	mv	s1,a0
.LVL42:
	.loc 1 479 4 is_stmt 1
	.loc 1 479 7 is_stmt 0
	beq	a0,zero,.L20
	.loc 1 480 5 is_stmt 1
	mv	a0,s5
	call	irq_unlock
.LVL43:
	.loc 1 481 5
.L21:
.LBE139:
	.loc 1 529 2
	.loc 1 531 2
	.loc 1 531 5 is_stmt 0
	lw	a5,-36(s0)
	beq	a5,zero,.L25
	.loc 1 532 3 is_stmt 1
	.loc 1 532 20 is_stmt 0
	addi	a5,s3,1
	.loc 1 532 6
	li	a4,1
	bleu	a5,a4,.L26
.LBB148:
	.loc 1 533 4 is_stmt 1
	.loc 1 533 17 is_stmt 0
	call	k_uptime_get_32
.LVL44:
	.loc 1 535 4 is_stmt 1
	.loc 1 533 10 is_stmt 0
	sub	a0,a0,s4
.LVL45:
	.loc 1 535 49
	bleu	a0,s3,.L27
	mv	a0,s3
.LVL46:
.L27:
	.loc 1 535 12
	sub	s3,s3,a0
.LVL47:
.L26:
.LBE148:
	.loc 1 538 3 is_stmt 1
.LBB149:
.LBB150:
	.loc 1 415 2
.LBB151:
.LBB152:
	.loc 1 245 5
.LBE152:
.LBE151:
	.loc 1 417 2
	.loc 1 415 30 is_stmt 0
	lbu	a5,6(s1)
	.loc 1 417 9
	mv	a2,s3
	addi	a1,s0,-36
.LVL48:
.LBB154:
.LBB153:
	.loc 1 245 30
	slli	a4,a5,2
	lui	a5,%hi(.LANCHOR0)
	addi	a5,a5,%lo(.LANCHOR0)
	add	a5,a5,a4
.LBE153:
.LBE154:
	.loc 1 417 13
	lw	a5,0(a5)
	.loc 1 417 9
	mv	a0,s1
	.loc 1 417 20
	lw	a5,20(a5)
	.loc 1 417 24
	lw	a5,0(a5)
	.loc 1 417 9
	lw	a5,0(a5)
	jalr	a5
.LVL49:
.LBE150:
.LBE149:
	.loc 1 538 14
	sw	a0,16(s1)
	.loc 1 539 3 is_stmt 1
	.loc 1 539 6 is_stmt 0
	bne	a0,zero,.L28
	.loc 1 541 20 is_stmt 1
	.loc 1 542 4
	mv	a0,s1
	call	net_buf_destroy
.LVL50:
	.loc 1 543 4
	.loc 1 543 10 is_stmt 0
	li	s1,0
.LVL51:
	j	.L18
.LVL52:
.L20:
.LBB155:
	.loc 1 485 3 is_stmt 1
	.loc 1 485 22 is_stmt 0
	lhu	s6,14(s2)
	.loc 1 486 3
	mv	a0,s5
	.loc 1 485 36
	addi	a5,s6,-1
	sh	a5,14(s2)
.LVL53:
	.loc 1 486 3 is_stmt 1
	call	irq_unlock
.LVL54:
	.loc 1 488 3
.LBB140:
.LBB141:
	.loc 1 278 2
	.loc 1 280 2
	.loc 1 280 26 is_stmt 0
	lhu	s1,12(s2)
	.loc 1 280 21
	li	a5,24
.LBB142:
.LBB143:
	.loc 1 256 16
	li	a4,0
.LBE143:
.LBE142:
	.loc 1 280 38
	sub	s1,s1,s6
	.loc 1 280 21
	mul	a5,s1,a5
	.loc 1 280 6
	lw	s1,24(s2)
.LBB146:
.LBB144:
	.loc 1 256 5
	li	a3,4
.LBE144:
.LBE146:
	.loc 1 280 6
	add	s1,s1,a5
.LVL55:
	.loc 1 282 2 is_stmt 1
.LBB147:
.LBB145:
	.loc 1 256 21
	lui	a5,%hi(.LANCHOR0)
	addi	a5,a5,%lo(.LANCHOR0)
.LVL56:
.L23:
	.loc 1 257 9
	.loc 1 257 12 is_stmt 0
	lw	a2,0(a5)
	beq	s2,a2,.L22
	.loc 1 256 63 is_stmt 1
	.loc 1 256 68 is_stmt 0
	addi	a4,a4,1
.LVL57:
	.loc 1 256 21 is_stmt 1
	.loc 1 256 5 is_stmt 0
	addi	a5,a5,4
	bne	a4,a3,.L23
.L22:
	.loc 1 261 5 is_stmt 1
	.loc 1 262 5
.LVL58:
.LBE145:
.LBE147:
	.loc 1 282 15 is_stmt 0
	sb	a4,6(s1)
	.loc 1 284 2 is_stmt 1
.LVL59:
.LBE141:
.LBE140:
	.loc 1 489 3
	j	.L21
.LVL60:
.L19:
.LBE155:
	.loc 1 492 2
	call	irq_unlock
.LVL61:
	.loc 1 521 2
	.loc 1 521 8 is_stmt 0
	mv	a1,s3
	mv	a0,s2
	call	k_queue_get
.LVL62:
	mv	s1,a0
.LVL63:
	.loc 1 523 2 is_stmt 1
	.loc 1 523 5 is_stmt 0
	bne	a0,zero,.L21
.LVL64:
.L18:
	.loc 1 561 1
	lw	ra,44(sp)
	.cfi_remember_state
	.cfi_restore 1
	lw	s0,40(sp)
	.cfi_restore 8
	.cfi_def_cfa 2, 48
	lw	s2,32(sp)
	.cfi_restore 18
.LVL65:
	lw	s3,28(sp)
	.cfi_restore 19
.LVL66:
	lw	s4,24(sp)
	.cfi_restore 20
.LVL67:
	lw	s5,20(sp)
	.cfi_restore 21
	lw	s6,16(sp)
	.cfi_restore 22
	mv	a0,s1
	lw	s1,36(sp)
	.cfi_restore 9
	addi	sp,sp,48
	.cfi_def_cfa_offset 0
	jr	ra
.LVL68:
.L25:
	.cfi_restore_state
	.loc 1 546 3 is_stmt 1
	.loc 1 546 14 is_stmt 0
	sw	zero,16(s1)
.L28:
	.loc 1 549 2 is_stmt 1
	.loc 1 550 2
	.loc 1 551 2
	.loc 1 549 11 is_stmt 0
	li	a5,1
	.loc 1 551 13
	sw	zero,0(s1)
	.loc 1 549 11
	sh	a5,4(s1)
	.loc 1 552 2 is_stmt 1
	.loc 1 552 12 is_stmt 0
	lw	a5,-36(s0)
.LBB156:
.LBB157:
.LBB158:
	.loc 2 176 11
	sh	zero,12(s1)
.LBE158:
.LBE157:
.LBE156:
	.loc 1 552 12
	sh	a5,14(s1)
	.loc 1 553 2 is_stmt 1
.LVL69:
	.loc 1 289 2
	.loc 1 290 2
	.loc 1 292 2
.LBB161:
.LBB160:
.LBB159:
	.loc 2 176 2
	.loc 2 177 2
	.loc 2 177 12 is_stmt 0
	lw	a5,16(s1)
	sw	a5,8(s1)
.LVL70:
.LBE159:
.LBE160:
.LBE161:
	.loc 1 560 2 is_stmt 1
	.loc 1 560 9 is_stmt 0
	j	.L18
	.cfi_endproc
.LFE96:
	.size	net_buf_alloc_len, .-net_buf_alloc_len
	.section	.text.net_buf_alloc_fixed,"ax",@progbits
	.align	1
	.globl	net_buf_alloc_fixed
	.type	net_buf_alloc_fixed, @function
net_buf_alloc_fixed:
.LFB97:
	.loc 1 575 1 is_stmt 1
	.cfi_startproc
.LVL71:
	.loc 1 576 2
	.loc 1 578 2
	.loc 1 575 1 is_stmt 0
	addi	sp,sp,-16
	.cfi_def_cfa_offset 16
	sw	s0,12(sp)
.LVL72:
	.cfi_offset 8, -4
	addi	s0,sp,16
	.cfi_def_cfa 8, 0
	.loc 1 576 35
	lw	a5,20(a0)
	.loc 1 579 1
	lw	s0,12(sp)
	.cfi_restore 8
	.cfi_def_cfa 2, 16
	.loc 1 575 1
	mv	a2,a1
	.loc 1 578 9
	lw	a5,4(a5)
	lw	a1,0(a5)
.LVL73:
	.loc 1 579 1
	addi	sp,sp,16
	.cfi_def_cfa_offset 0
	.loc 1 578 9
	tail	net_buf_alloc_len
.LVL74:
	.cfi_endproc
.LFE97:
	.size	net_buf_alloc_fixed, .-net_buf_alloc_fixed
	.section	.text.net_buf_alloc_with_data,"ax",@progbits
	.align	1
	.globl	net_buf_alloc_with_data
	.type	net_buf_alloc_with_data, @function
net_buf_alloc_with_data:
.LFB98:
	.loc 1 592 1 is_stmt 1
	.cfi_startproc
.LVL75:
	.loc 1 593 2
	.loc 1 598 2
	.loc 1 592 1 is_stmt 0
	addi	sp,sp,-16
	.cfi_def_cfa_offset 16
	sw	s0,8(sp)
	sw	s1,4(sp)
	sw	s2,0(sp)
	sw	ra,12(sp)
	.cfi_offset 8, -8
	.cfi_offset 9, -12
	.cfi_offset 18, -16
	.cfi_offset 1, -4
	addi	s0,sp,16
	.cfi_def_cfa 8, 0
	mv	s2,a1
	mv	s1,a2
	.loc 1 598 8
	mv	a2,a3
.LVL76:
	li	a1,0
.LVL77:
	call	net_buf_alloc_len
.LVL78:
	.loc 1 600 2 is_stmt 1
	.loc 1 600 5 is_stmt 0
	beq	a0,zero,.L39
	.loc 1 604 2 is_stmt 1
	.loc 1 606 12 is_stmt 0
	slli	a2,s1,16
	srli	a2,a2,16
	.loc 1 608 13
	li	a5,2
	.loc 1 604 13
	sw	s2,16(a0)
	.loc 1 605 2 is_stmt 1
	.loc 1 605 12 is_stmt 0
	sw	s2,8(a0)
	.loc 1 606 2 is_stmt 1
	.loc 1 606 12 is_stmt 0
	sh	a2,14(a0)
	.loc 1 607 2 is_stmt 1
	.loc 1 607 11 is_stmt 0
	sh	a2,12(a0)
	.loc 1 608 2 is_stmt 1
	.loc 1 608 13 is_stmt 0
	sb	a5,5(a0)
	.loc 1 610 2 is_stmt 1
.L39:
	.loc 1 611 1 is_stmt 0
	lw	ra,12(sp)
	.cfi_restore 1
	lw	s0,8(sp)
	.cfi_restore 8
	.cfi_def_cfa 2, 16
	lw	s1,4(sp)
	.cfi_restore 9
.LVL79:
	lw	s2,0(sp)
	.cfi_restore 18
.LVL80:
	addi	sp,sp,16
	.cfi_def_cfa_offset 0
	jr	ra
	.cfi_endproc
.LFE98:
	.size	net_buf_alloc_with_data, .-net_buf_alloc_with_data
	.section	.text.net_buf_get,"ax",@progbits
	.align	1
	.globl	net_buf_get
	.type	net_buf_get, @function
net_buf_get:
.LFB99:
	.loc 1 619 1 is_stmt 1
	.cfi_startproc
.LVL81:
	.loc 1 620 2
	.loc 1 622 2
	.loc 1 624 2
	.loc 1 619 1 is_stmt 0
	addi	sp,sp,-32
	.cfi_def_cfa_offset 32
	sw	s0,24(sp)
	sw	s1,20(sp)
	sw	s2,16(sp)
	sw	s3,12(sp)
	sw	ra,28(sp)
	.cfi_offset 8, -8
	.cfi_offset 9, -12
	.cfi_offset 18, -16
	.cfi_offset 19, -20
	.cfi_offset 1, -4
	addi	s0,sp,32
	.cfi_def_cfa 8, 0
	.loc 1 619 1
	mv	s3,a0
	.loc 1 624 8
	call	k_queue_get
.LVL82:
	mv	s2,a0
.LVL83:
	.loc 1 625 2 is_stmt 1
	mv	s1,a0
	.loc 1 625 5 is_stmt 0
	bne	a0,zero,.L47
.LVL84:
.L45:
	.loc 1 644 1
	lw	ra,28(sp)
	.cfi_remember_state
	.cfi_restore 1
	lw	s0,24(sp)
	.cfi_restore 8
	.cfi_def_cfa 2, 32
	lw	s1,20(sp)
	.cfi_restore 9
	lw	s3,12(sp)
	.cfi_restore 19
.LVL85:
	mv	a0,s2
	lw	s2,16(sp)
	.cfi_restore 18
.LVL86:
	addi	sp,sp,32
	.cfi_def_cfa_offset 0
	jr	ra
.LVL87:
.L48:
	.cfi_restore_state
	.loc 1 633 3 is_stmt 1 discriminator 3
	.loc 1 633 17 is_stmt 0 discriminator 3
	li	a1,0
	mv	a0,s3
	call	k_queue_get
.LVL88:
	.loc 1 637 15 discriminator 3
	lbu	a5,5(s1)
	.loc 1 633 15 discriminator 3
	sw	a0,0(s1)
	.loc 1 634 3 is_stmt 1 discriminator 3
	.loc 1 637 3 discriminator 3
	.loc 1 637 15 is_stmt 0 discriminator 3
	andi	a5,a5,-2
	sb	a5,5(s1)
	.loc 1 632 49 is_stmt 1 discriminator 3
.LVL89:
	.loc 1 632 54 is_stmt 0 discriminator 3
	mv	s1,a0
.LVL90:
.L47:
	.loc 1 632 19 is_stmt 1 discriminator 1
	.loc 1 632 2 is_stmt 0 discriminator 1
	lbu	a5,5(s1)
	andi	a5,a5,1
	bne	a5,zero,.L48
	.loc 1 641 2 is_stmt 1
	.loc 1 641 14 is_stmt 0
	sw	zero,0(s1)
	.loc 1 643 2 is_stmt 1
	.loc 1 643 9 is_stmt 0
	j	.L45
	.cfi_endproc
.LFE99:
	.size	net_buf_get, .-net_buf_get
	.section	.text.net_buf_simple_init_with_data,"ax",@progbits
	.align	1
	.globl	net_buf_simple_init_with_data
	.type	net_buf_simple_init_with_data, @function
net_buf_simple_init_with_data:
.LFB100:
	.loc 1 648 1 is_stmt 1
	.cfi_startproc
.LVL91:
	.loc 1 649 2
	.loc 1 648 1 is_stmt 0
	addi	sp,sp,-16
	.cfi_def_cfa_offset 16
	sw	s0,12(sp)
	.cfi_offset 8, -4
	addi	s0,sp,16
	.cfi_def_cfa 8, 0
	.loc 1 653 1
	lw	s0,12(sp)
	.cfi_restore 8
	.cfi_def_cfa 2, 16
	.loc 1 651 12
	slli	a2,a2,16
.LVL92:
	srli	a2,a2,16
	.loc 1 649 13
	sw	a1,8(a0)
	.loc 1 650 2 is_stmt 1
	.loc 1 650 12 is_stmt 0
	sw	a1,0(a0)
	.loc 1 651 2 is_stmt 1
	.loc 1 651 12 is_stmt 0
	sh	a2,6(a0)
	.loc 1 652 2 is_stmt 1
	.loc 1 652 11 is_stmt 0
	sh	a2,4(a0)
	.loc 1 653 1
	addi	sp,sp,16
	.cfi_def_cfa_offset 0
	jr	ra
	.cfi_endproc
.LFE100:
	.size	net_buf_simple_init_with_data, .-net_buf_simple_init_with_data
	.section	.text.net_buf_simple_reserve,"ax",@progbits
	.align	1
	.globl	net_buf_simple_reserve
	.type	net_buf_simple_reserve, @function
net_buf_simple_reserve:
.LFB101:
	.loc 1 656 1 is_stmt 1
	.cfi_startproc
.LVL93:
	.loc 1 657 2
	.loc 1 658 2
	.loc 1 659 2
	.loc 1 661 2
	.loc 1 656 1 is_stmt 0
	addi	sp,sp,-16
	.cfi_def_cfa_offset 16
	sw	s0,12(sp)
	.cfi_offset 8, -4
	addi	s0,sp,16
	.cfi_def_cfa 8, 0
	.loc 1 661 25
	lw	a5,8(a0)
	.loc 1 662 1
	lw	s0,12(sp)
	.cfi_restore 8
	.cfi_def_cfa 2, 16
	.loc 1 661 25
	add	a5,a5,a1
	.loc 1 661 12
	sw	a5,0(a0)
	.loc 1 662 1
	addi	sp,sp,16
	.cfi_def_cfa_offset 0
	jr	ra
	.cfi_endproc
.LFE101:
	.size	net_buf_simple_reserve, .-net_buf_simple_reserve
	.section	.text.net_buf_slist_put,"ax",@progbits
	.align	1
	.globl	net_buf_slist_put
	.type	net_buf_slist_put, @function
net_buf_slist_put:
.LFB102:
	.loc 1 665 1 is_stmt 1
	.cfi_startproc
.LVL94:
	.loc 1 666 2
	.loc 1 667 2
	.loc 1 669 2
	.loc 1 670 2
	.loc 1 672 2
	.loc 1 665 1 is_stmt 0
	addi	sp,sp,-32
	.cfi_def_cfa_offset 32
	sw	s0,24(sp)
	sw	s1,20(sp)
	sw	s2,16(sp)
	sw	s3,12(sp)
	sw	ra,28(sp)
	.cfi_offset 8, -8
	.cfi_offset 9, -12
	.cfi_offset 18, -16
	.cfi_offset 19, -20
	.cfi_offset 1, -4
	addi	s0,sp,32
	.cfi_def_cfa 8, 0
	.loc 1 665 1
	mv	s1,a0
	mv	s3,a1
	.loc 1 672 12
	mv	s2,a1
.LVL95:
.L58:
	.loc 1 672 19 is_stmt 1 discriminator 1
	.loc 1 672 23 is_stmt 0 discriminator 1
	lw	a4,0(s2)
	.loc 1 672 2 discriminator 1
	bne	a4,zero,.L59
	.loc 1 676 2 is_stmt 1
	.loc 1 676 8 is_stmt 0
	call	irq_lock
.LVL96:
	.loc 1 677 2 is_stmt 1
.LBB164:
.LBB165:
	.file 3 "/home/dinhquangha/intern/Ai-Thinker-WB2/components/network/ble/blestack/src/common/include/misc/slist.h"
	.loc 3 317 2
	.loc 3 317 11 is_stmt 0
	lw	a5,4(s1)
	.loc 3 317 5
	bne	a5,zero,.L60
	.loc 3 318 3 is_stmt 1
	.loc 3 318 14 is_stmt 0
	sw	s3,0(s1)
	.loc 3 319 3 is_stmt 1
.L63:
	.loc 3 322 3
.LBE165:
.LBE164:
	.loc 1 679 1 is_stmt 0
	lw	s0,24(sp)
	.cfi_remember_state
	.cfi_restore 8
	.cfi_def_cfa 2, 32
.LBB168:
.LBB166:
	.loc 3 322 14
	sw	s2,4(s1)
.LVL97:
.LBE166:
.LBE168:
	.loc 1 678 2 is_stmt 1
	.loc 1 679 1 is_stmt 0
	lw	ra,28(sp)
	.cfi_restore 1
	lw	s1,20(sp)
	.cfi_restore 9
.LVL98:
	lw	s2,16(sp)
	.cfi_restore 18
.LVL99:
	lw	s3,12(sp)
	.cfi_restore 19
.LVL100:
	addi	sp,sp,32
	.cfi_def_cfa_offset 0
	.loc 1 678 2
	tail	irq_unlock
.LVL101:
.L59:
	.cfi_restore_state
	.loc 1 673 3 is_stmt 1 discriminator 3
	.loc 1 673 15 is_stmt 0 discriminator 3
	lbu	a5,5(s2)
	ori	a5,a5,1
	sb	a5,5(s2)
	.loc 1 672 32 is_stmt 1 discriminator 3
.LVL102:
	.loc 1 673 15 is_stmt 0 discriminator 3
	mv	s2,a4
	j	.L58
.LVL103:
.L60:
.LBB169:
.LBB167:
	.loc 3 321 3 is_stmt 1
	.loc 3 321 20 is_stmt 0
	sw	s3,0(a5)
	j	.L63
.LBE167:
.LBE169:
	.cfi_endproc
.LFE102:
	.size	net_buf_slist_put, .-net_buf_slist_put
	.section	.text.net_buf_slist_get,"ax",@progbits
	.align	1
	.globl	net_buf_slist_get
	.type	net_buf_slist_get, @function
net_buf_slist_get:
.LFB103:
	.loc 1 682 1 is_stmt 1
	.cfi_startproc
.LVL104:
	.loc 1 683 2
	.loc 1 684 2
	.loc 1 686 2
	.loc 1 688 2
	.loc 1 682 1 is_stmt 0
	addi	sp,sp,-32
	.cfi_def_cfa_offset 32
	sw	s0,24(sp)
	sw	s1,20(sp)
	sw	s3,12(sp)
	sw	ra,28(sp)
	sw	s2,16(sp)
	.cfi_offset 8, -8
	.cfi_offset 9, -12
	.cfi_offset 19, -20
	.cfi_offset 1, -4
	.cfi_offset 18, -16
	addi	s0,sp,32
	.cfi_def_cfa 8, 0
	mv	s1,a0
	.loc 1 688 8
	call	irq_lock
.LVL105:
	.loc 1 689 2 is_stmt 1
.LBB182:
.LBB183:
	.loc 3 399 2
.LBB184:
.LBB185:
	.loc 3 209 2
	.loc 3 209 15 is_stmt 0
	lw	s3,0(s1)
.LVL106:
.LBE185:
.LBE184:
	.loc 3 399 40
	beq	s3,zero,.L65
.LVL107:
.LBB186:
.LBB187:
	.loc 3 378 2 is_stmt 1
	.loc 3 380 2
	.loc 3 380 19 is_stmt 0
	lw	a5,0(s3)
	.loc 3 381 5
	lw	a4,4(s1)
	.loc 3 380 13
	sw	a5,0(s1)
	.loc 3 381 2 is_stmt 1
	.loc 3 381 5 is_stmt 0
	bne	s3,a4,.L65
	.loc 3 382 3 is_stmt 1
	.loc 3 382 14 is_stmt 0
	sw	a5,4(s1)
.LVL108:
.L65:
.LBE187:
.LBE186:
.LBE183:
.LBE182:
	.loc 1 690 2 is_stmt 1
	call	irq_unlock
.LVL109:
	.loc 1 692 2
	mv	s2,s3
	.loc 1 692 5 is_stmt 0
	bne	s3,zero,.L67
.LVL110:
.L64:
	.loc 1 712 1
	lw	ra,28(sp)
	.cfi_remember_state
	.cfi_restore 1
	lw	s0,24(sp)
	.cfi_restore 8
	.cfi_def_cfa 2, 32
	lw	s1,20(sp)
	.cfi_restore 9
.LVL111:
	lw	s2,16(sp)
	.cfi_restore 18
	mv	a0,s3
	lw	s3,12(sp)
	.cfi_restore 19
	addi	sp,sp,32
	.cfi_def_cfa_offset 0
	jr	ra
.LVL112:
.L69:
	.cfi_restore_state
	.loc 1 698 3 is_stmt 1 discriminator 3
	.loc 1 698 9 is_stmt 0 discriminator 3
	call	irq_lock
.LVL113:
	.loc 1 699 3 is_stmt 1 discriminator 3
.LBB188:
.LBB189:
	.loc 3 399 2 discriminator 3
.LBB190:
.LBB191:
	.loc 3 209 2 discriminator 3
	.loc 3 209 15 is_stmt 0 discriminator 3
	lw	a5,0(s1)
.LVL114:
.LBE191:
.LBE190:
	.loc 3 399 40 discriminator 3
	beq	a5,zero,.L68
.LVL115:
.LBB192:
.LBB193:
	.loc 3 378 2 is_stmt 1
	.loc 3 380 2
	.loc 3 380 19 is_stmt 0
	lw	a4,0(a5)
	.loc 3 381 5
	lw	a3,4(s1)
	.loc 3 380 13
	sw	a4,0(s1)
	.loc 3 381 2 is_stmt 1
	.loc 3 381 5 is_stmt 0
	bne	a5,a3,.L68
	.loc 3 382 3 is_stmt 1
	.loc 3 382 14 is_stmt 0
	sw	a4,4(s1)
.LVL116:
.L68:
.LBE193:
.LBE192:
.LBE189:
.LBE188:
	.loc 1 699 15
	sw	a5,0(s2)
	.loc 1 700 3 is_stmt 1
	call	irq_unlock
.LVL117:
	.loc 1 702 3
	.loc 1 705 3
	.loc 1 705 15 is_stmt 0
	lbu	a5,5(s2)
	andi	a5,a5,-2
	sb	a5,5(s2)
	.loc 1 697 49 is_stmt 1
	.loc 1 697 54 is_stmt 0
	lw	s2,0(s2)
.LVL118:
.L67:
	.loc 1 697 19 is_stmt 1 discriminator 1
	.loc 1 697 2 is_stmt 0 discriminator 1
	lbu	a5,5(s2)
	andi	a5,a5,1
	bne	a5,zero,.L69
	.loc 1 709 2 is_stmt 1
	.loc 1 709 14 is_stmt 0
	sw	zero,0(s2)
	.loc 1 711 2 is_stmt 1
	.loc 1 711 9 is_stmt 0
	j	.L64
	.cfi_endproc
.LFE103:
	.size	net_buf_slist_get, .-net_buf_slist_get
	.section	.text.net_buf_put,"ax",@progbits
	.align	1
	.globl	net_buf_put
	.type	net_buf_put, @function
net_buf_put:
.LFB104:
	.loc 1 715 1 is_stmt 1
	.cfi_startproc
.LVL119:
	.loc 1 716 2
	.loc 1 718 2
	.loc 1 719 2
	.loc 1 721 2
	.loc 1 715 1 is_stmt 0
	addi	sp,sp,-16
	.cfi_def_cfa_offset 16
	sw	s0,12(sp)
	.cfi_offset 8, -4
	addi	s0,sp,16
	.cfi_def_cfa 8, 0
	.loc 1 721 12
	mv	a2,a1
.LVL120:
.L81:
	.loc 1 721 19 is_stmt 1 discriminator 1
	.loc 1 721 23 is_stmt 0 discriminator 1
	lw	a4,0(a2)
	.loc 1 721 2 discriminator 1
	bne	a4,zero,.L82
	.loc 1 725 2 is_stmt 1
	.loc 1 726 1 is_stmt 0
	lw	s0,12(sp)
	.cfi_remember_state
	.cfi_restore 8
	.cfi_def_cfa 2, 16
	addi	sp,sp,16
	.cfi_def_cfa_offset 0
	.loc 1 725 2
	tail	k_queue_append_list
.LVL121:
.L82:
	.cfi_restore_state
	.loc 1 722 3 is_stmt 1 discriminator 3
	.loc 1 722 15 is_stmt 0 discriminator 3
	lbu	a5,5(a2)
	ori	a5,a5,1
	sb	a5,5(a2)
	.loc 1 721 32 is_stmt 1 discriminator 3
.LVL122:
	.loc 1 722 15 is_stmt 0 discriminator 3
	mv	a2,a4
	j	.L81
	.cfi_endproc
.LFE104:
	.size	net_buf_put, .-net_buf_put
	.section	.text.net_buf_unref,"ax",@progbits
	.align	1
	.globl	net_buf_unref
	.type	net_buf_unref, @function
net_buf_unref:
.LFB105:
	.loc 1 733 1 is_stmt 1
	.cfi_startproc
.LVL123:
	.loc 1 734 2
	.loc 1 736 2
	.loc 1 733 1 is_stmt 0
	addi	sp,sp,-32
	.cfi_def_cfa_offset 32
	sw	s0,24(sp)
	sw	s1,20(sp)
	sw	s2,16(sp)
	sw	s3,12(sp)
	sw	ra,28(sp)
	sw	s4,8(sp)
	sw	s5,4(sp)
	.cfi_offset 8, -8
	.cfi_offset 9, -12
	.cfi_offset 18, -16
	.cfi_offset 19, -20
	.cfi_offset 1, -4
	.cfi_offset 20, -24
	.cfi_offset 21, -28
	addi	s0,sp,32
	.cfi_def_cfa 8, 0
	lui	s2,%hi(.LANCHOR0)
.LBB201:
	.loc 1 781 6
	lui	s3,%hi(hci_rx_pool)
.LBE201:
	.loc 1 733 1
	.loc 1 733 1
	mv	s1,a0
	addi	s2,s2,%lo(.LANCHOR0)
.LBB210:
	.loc 1 781 6
	addi	s3,s3,%lo(hci_rx_pool)
.LVL124:
.L85:
.LBE210:
	.loc 1 736 8 is_stmt 1
	bne	s1,zero,.L91
	.loc 1 788 1 is_stmt 0
	lw	ra,28(sp)
	.cfi_remember_state
	.cfi_restore 1
	lw	s0,24(sp)
	.cfi_restore 8
	.cfi_def_cfa 2, 32
	lw	s1,20(sp)
	.cfi_restore 9
.LVL125:
	lw	s2,16(sp)
	.cfi_restore 18
	lw	s3,12(sp)
	.cfi_restore 19
	lw	s4,8(sp)
	.cfi_restore 20
	lw	s5,4(sp)
	.cfi_restore 21
	addi	sp,sp,32
	.cfi_def_cfa_offset 0
	jr	ra
.LVL126:
.L91:
	.cfi_restore_state
.LBB211:
	.loc 1 737 3 is_stmt 1
	.loc 1 737 19 is_stmt 0
	lw	s4,0(s1)
.LVL127:
	.loc 1 738 3 is_stmt 1
	.loc 1 748 33
	.loc 1 750 3
	.loc 1 750 22 is_stmt 0
	call	irq_lock
.LVL128:
	.loc 1 751 3 is_stmt 1
	.loc 1 751 7 is_stmt 0
	lbu	a5,4(s1)
	addi	a5,a5,-1
	andi	a5,a5,0xff
	.loc 1 751 6
	sb	a5,4(s1)
	beq	a5,zero,.L86
	.loc 1 752 4 is_stmt 1
.LBE211:
	.loc 1 788 1 is_stmt 0
	lw	s0,24(sp)
	.cfi_remember_state
	.cfi_restore 8
	.cfi_def_cfa 2, 32
	lw	ra,28(sp)
	.cfi_restore 1
	lw	s1,20(sp)
	.cfi_restore 9
.LVL129:
	lw	s2,16(sp)
	.cfi_restore 18
	lw	s3,12(sp)
	.cfi_restore 19
	lw	s4,8(sp)
	.cfi_restore 20
.LVL130:
	lw	s5,4(sp)
	.cfi_restore 21
	addi	sp,sp,32
	.cfi_def_cfa_offset 0
.LBB212:
	.loc 1 752 4
	tail	irq_unlock
.LVL131:
.L86:
	.cfi_restore_state
	.loc 1 755 3 is_stmt 1
	call	irq_unlock
.LVL132:
	.loc 1 757 3
	.loc 1 757 10 is_stmt 0
	lw	a1,16(s1)
	.loc 1 757 6
	beq	a1,zero,.L87
	.loc 1 758 4 is_stmt 1
.LVL133:
.LBB202:
.LBB203:
	.loc 1 429 2
.LBB204:
.LBB205:
	.loc 1 245 5
.LBE205:
.LBE204:
	.loc 1 431 2
	.loc 1 431 5 is_stmt 0
	lbu	a5,5(s1)
	andi	a5,a5,2
	bne	a5,zero,.L88
	.loc 1 435 2 is_stmt 1
	.loc 1 429 30 is_stmt 0
	lbu	a5,6(s1)
	.loc 1 435 2
	mv	a0,s1
.LBB207:
.LBB206:
	.loc 1 245 30
	slli	a5,a5,2
	add	a5,s2,a5
.LBE206:
.LBE207:
	.loc 1 435 6
	lw	a5,0(a5)
	.loc 1 435 13
	lw	a5,20(a5)
	.loc 1 435 17
	lw	a5,0(a5)
	.loc 1 435 2
	lw	a5,8(a5)
	jalr	a5
.LVL134:
.L88:
.LBE203:
.LBE202:
	.loc 1 759 4 is_stmt 1
	.loc 1 759 15 is_stmt 0
	sw	zero,16(s1)
.L87:
	.loc 1 762 3 is_stmt 1
	.loc 1 765 10 is_stmt 0
	lbu	a5,6(s1)
	.loc 1 762 13
	sw	zero,8(s1)
	.loc 1 763 3 is_stmt 1
	.loc 1 763 14 is_stmt 0
	sw	zero,0(s1)
	.loc 1 765 3 is_stmt 1
.LVL135:
.LBB208:
.LBB209:
	.loc 1 245 5
	.loc 1 245 30 is_stmt 0
	slli	a5,a5,2
.LVL136:
	add	a5,s2,a5
	lw	s5,0(a5)
.LVL137:
.LBE209:
.LBE208:
	.loc 1 772 3 is_stmt 1
	.loc 1 773 4 is_stmt 0
	mv	a0,s1
	.loc 1 772 11
	lw	a5,16(s5)
	.loc 1 772 6
	beq	a5,zero,.L89
	.loc 1 773 4 is_stmt 1
	jalr	a5
.LVL138:
.L90:
	.loc 1 778 3
	.loc 1 781 3
	.loc 1 781 6 is_stmt 0
	bne	s5,s3,.L92
	.loc 1 783 4 is_stmt 1
.LBE212:
	.loc 1 788 1 is_stmt 0
	lw	s0,24(sp)
	.cfi_remember_state
	.cfi_restore 8
	.cfi_def_cfa 2, 32
	lw	ra,28(sp)
	.cfi_restore 1
	lw	s1,20(sp)
	.cfi_restore 9
	lw	s2,16(sp)
	.cfi_restore 18
	lw	s3,12(sp)
	.cfi_restore 19
	lw	s4,8(sp)
	.cfi_restore 20
.LVL139:
	lw	s5,4(sp)
	.cfi_restore 21
.LVL140:
	addi	sp,sp,32
	.cfi_def_cfa_offset 0
.LBB213:
	.loc 1 783 4
	tail	bl_trigger_queued_msg
.LVL141:
.L89:
	.cfi_restore_state
	.loc 1 775 4 is_stmt 1
	call	net_buf_destroy
.LVL142:
	j	.L90
.LVL143:
.L92:
	.loc 1 778 7 is_stmt 0
	mv	s1,s4
	j	.L85
.LBE213:
	.cfi_endproc
.LFE105:
	.size	net_buf_unref, .-net_buf_unref
	.section	.text.net_buf_ref,"ax",@progbits
	.align	1
	.globl	net_buf_ref
	.type	net_buf_ref, @function
net_buf_ref:
.LFB106:
	.loc 1 791 1 is_stmt 1
	.cfi_startproc
.LVL144:
	.loc 1 792 2
	.loc 1 795 35
	.loc 1 797 2
	.loc 1 791 1 is_stmt 0
	addi	sp,sp,-16
	.cfi_def_cfa_offset 16
	sw	ra,12(sp)
	sw	s0,8(sp)
	sw	s1,4(sp)
	.cfi_offset 1, -4
	.cfi_offset 8, -8
	.cfi_offset 9, -12
	addi	s0,sp,16
	.cfi_def_cfa 8, 0
	.loc 1 791 1
	mv	s1,a0
	.loc 1 797 21
	call	irq_lock
.LVL145:
	.loc 1 798 2 is_stmt 1
	.loc 1 798 10 is_stmt 0
	lbu	a5,4(s1)
	addi	a5,a5,1
	sb	a5,4(s1)
	.loc 1 799 2 is_stmt 1
	call	irq_unlock
.LVL146:
	.loc 1 800 2
	.loc 1 801 1 is_stmt 0
	lw	ra,12(sp)
	.cfi_restore 1
	lw	s0,8(sp)
	.cfi_restore 8
	.cfi_def_cfa 2, 16
	mv	a0,s1
	lw	s1,4(sp)
	.cfi_restore 9
.LVL147:
	addi	sp,sp,16
	.cfi_def_cfa_offset 0
	jr	ra
	.cfi_endproc
.LFE106:
	.size	net_buf_ref, .-net_buf_ref
	.section	.text.net_buf_frag_last,"ax",@progbits
	.align	1
	.globl	net_buf_frag_last
	.type	net_buf_frag_last, @function
net_buf_frag_last:
.LFB108:
	.loc 1 850 1 is_stmt 1
	.cfi_startproc
.LVL148:
	addi	sp,sp,-16
	.cfi_def_cfa_offset 16
	sw	s0,12(sp)
	.cfi_offset 8, -4
	addi	s0,sp,16
	.cfi_def_cfa 8, 0
	mv	a5,a0
	.loc 1 851 2
	.loc 1 853 2
.L100:
.LVL149:
	.loc 1 853 8
	mv	a0,a5
	.loc 1 853 12 is_stmt 0
	lw	a5,0(a5)
.LVL150:
	.loc 1 853 8
	bne	a5,zero,.L100
	.loc 1 857 2 is_stmt 1
	.loc 1 858 1 is_stmt 0
	lw	s0,12(sp)
	.cfi_restore 8
	.cfi_def_cfa 2, 16
	addi	sp,sp,16
	.cfi_def_cfa_offset 0
	jr	ra
	.cfi_endproc
.LFE108:
	.size	net_buf_frag_last, .-net_buf_frag_last
	.section	.text.net_buf_frag_insert,"ax",@progbits
	.align	1
	.globl	net_buf_frag_insert
	.type	net_buf_frag_insert, @function
net_buf_frag_insert:
.LFB109:
	.loc 1 861 1 is_stmt 1
	.cfi_startproc
.LVL151:
	.loc 1 862 2
	.loc 1 863 2
	.loc 1 865 2
	.loc 1 861 1 is_stmt 0
	addi	sp,sp,-16
	.cfi_def_cfa_offset 16
	sw	s0,12(sp)
	.cfi_offset 8, -4
	addi	s0,sp,16
	.cfi_def_cfa 8, 0
	.loc 1 865 12
	lw	a4,0(a0)
	.loc 1 865 5
	beq	a4,zero,.L104
	mv	a5,a1
.L105:
.LVL152:
.LBB214:
.LBB215:
	.loc 1 853 8 is_stmt 1
	mv	a3,a5
	.loc 1 853 12 is_stmt 0
	lw	a5,0(a5)
.LVL153:
	.loc 1 853 8
	bne	a5,zero,.L105
	.loc 1 857 2 is_stmt 1
.LVL154:
.LBE215:
.LBE214:
	.loc 1 866 34 is_stmt 0
	sw	a4,0(a3)
.L104:
	.loc 1 869 2 is_stmt 1
	.loc 1 870 1 is_stmt 0
	lw	s0,12(sp)
	.cfi_restore 8
	.cfi_def_cfa 2, 16
	.loc 1 869 16
	sw	a1,0(a0)
	.loc 1 870 1
	addi	sp,sp,16
	.cfi_def_cfa_offset 0
	jr	ra
	.cfi_endproc
.LFE109:
	.size	net_buf_frag_insert, .-net_buf_frag_insert
	.section	.text.net_buf_frag_add,"ax",@progbits
	.align	1
	.globl	net_buf_frag_add
	.type	net_buf_frag_add, @function
net_buf_frag_add:
.LFB110:
	.loc 1 873 1 is_stmt 1
	.cfi_startproc
.LVL155:
	.loc 1 874 2
	.loc 1 876 2
	.loc 1 876 5 is_stmt 0
	bne	a0,zero,.L116
	.loc 1 877 3 is_stmt 1
	.loc 1 877 10 is_stmt 0
	mv	a0,a1
.LVL156:
	tail	net_buf_ref
.LVL157:
.L116:
	.loc 1 873 1
	addi	sp,sp,-16
	.cfi_def_cfa_offset 16
	sw	s0,8(sp)
	sw	s1,4(sp)
	sw	ra,12(sp)
	.cfi_offset 8, -8
	.cfi_offset 9, -12
	.cfi_offset 1, -4
	addi	s0,sp,16
	.cfi_def_cfa 8, 0
	mv	s1,a0
	mv	a5,a0
.LVL158:
.L112:
.LBB221:
.LBB222:
.LBB223:
.LBB224:
	.loc 1 853 8 is_stmt 1
	mv	a0,a5
	.loc 1 853 12 is_stmt 0
	lw	a5,0(a5)
.LVL159:
	.loc 1 853 8
	bne	a5,zero,.L112
	.loc 1 857 2 is_stmt 1
.LVL160:
.LBE224:
.LBE223:
	.loc 1 880 2 is_stmt 0
	call	net_buf_frag_insert
.LVL161:
	.loc 1 882 2 is_stmt 1
.LBE222:
.LBE221:
	.loc 1 883 1 is_stmt 0
	lw	ra,12(sp)
	.cfi_restore 1
	lw	s0,8(sp)
	.cfi_restore 8
	.cfi_def_cfa 2, 16
	mv	a0,s1
	lw	s1,4(sp)
	.cfi_restore 9
.LVL162:
	addi	sp,sp,16
	.cfi_def_cfa_offset 0
	jr	ra
	.cfi_endproc
.LFE110:
	.size	net_buf_frag_add, .-net_buf_frag_add
	.section	.text.net_buf_frag_del,"ax",@progbits
	.align	1
	.globl	net_buf_frag_del
	.type	net_buf_frag_del, @function
net_buf_frag_del:
.LFB111:
	.loc 1 892 1 is_stmt 1
	.cfi_startproc
.LVL163:
	.loc 1 893 2
	.loc 1 895 2
	.loc 1 897 2
	.loc 1 892 1 is_stmt 0
	addi	sp,sp,-16
	.cfi_def_cfa_offset 16
	sw	s0,8(sp)
	sw	ra,12(sp)
	sw	s1,4(sp)
	.cfi_offset 8, -8
	.cfi_offset 1, -4
	.cfi_offset 9, -12
	addi	s0,sp,16
	.cfi_def_cfa 8, 0
	mv	a5,a0
	.loc 1 892 1
	mv	a0,a1
.LVL164:
	.loc 1 897 5
	beq	a5,zero,.L120
	.loc 1 900 23
	lw	a4,0(a1)
	.loc 1 898 3 is_stmt 1
	.loc 1 899 3
	.loc 1 900 3
	.loc 1 900 17 is_stmt 0
	sw	a4,0(a5)
.L120:
	.loc 1 903 2 is_stmt 1
	.loc 1 903 12 is_stmt 0
	lw	s1,0(a0)
.LVL165:
	.loc 1 905 2 is_stmt 1
	.loc 1 905 14 is_stmt 0
	sw	zero,0(a0)
	.loc 1 910 2 is_stmt 1
	call	net_buf_unref
.LVL166:
	.loc 1 913 2
	.loc 1 914 1 is_stmt 0
	lw	ra,12(sp)
	.cfi_restore 1
	lw	s0,8(sp)
	.cfi_restore 8
	.cfi_def_cfa 2, 16
	mv	a0,s1
	lw	s1,4(sp)
	.cfi_restore 9
.LVL167:
	addi	sp,sp,16
	.cfi_def_cfa_offset 0
	jr	ra
	.cfi_endproc
.LFE111:
	.size	net_buf_frag_del, .-net_buf_frag_del
	.section	.text.net_buf_linearize,"ax",@progbits
	.align	1
	.globl	net_buf_linearize
	.type	net_buf_linearize, @function
net_buf_linearize:
.LFB112:
	.loc 1 918 1 is_stmt 1
	.cfi_startproc
.LVL168:
	addi	sp,sp,-32
	.cfi_def_cfa_offset 32
	sw	s0,24(sp)
	sw	s1,20(sp)
	sw	s2,16(sp)
	sw	s5,4(sp)
	sw	ra,28(sp)
	sw	s3,12(sp)
	sw	s4,8(sp)
	.cfi_offset 8, -8
	.cfi_offset 9, -12
	.cfi_offset 18, -16
	.cfi_offset 21, -28
	.cfi_offset 1, -4
	.cfi_offset 19, -20
	.cfi_offset 20, -24
	addi	s0,sp,32
	.cfi_def_cfa 8, 0
	mv	s5,a0
	mv	s1,a1
	mv	s2,a2
	.loc 1 919 2
	.loc 1 920 2
	.loc 1 921 2
	.loc 1 923 2
.LVL169:
	.loc 1 925 2
	.loc 1 928 2
.L126:
	.loc 1 928 8
	beq	s2,zero,.L133
	.loc 1 928 31 is_stmt 0 discriminator 1
	lhu	a5,12(s2)
	.loc 1 928 14 discriminator 1
	bleu	a5,a3,.L128
	.loc 1 923 6
	bleu	s1,a4,.L129
	mv	s1,a4
.L129:
	li	s4,0
.LVL170:
.L130:
	.loc 1 935 14 discriminator 1
	beq	s1,zero,.L125
	.loc 1 936 3 is_stmt 1
	.loc 1 936 28 is_stmt 0
	lhu	s3,12(s2)
	.loc 1 936 34
	sub	s3,s3,a3
	.loc 1 936 11
	bleu	s3,s1,.L131
	mv	s3,s1
.L131:
.LVL171:
	.loc 1 937 3 is_stmt 1
	.loc 1 937 43 is_stmt 0
	lw	a1,8(s2)
	.loc 1 937 3
	add	a0,s5,s4
	mv	a2,s3
	add	a1,a1,a3
	call	memcpy
.LVL172:
	.loc 1 939 3 is_stmt 1
	.loc 1 943 8 is_stmt 0
	lw	s2,0(s2)
.LVL173:
	.loc 1 939 10
	add	s4,s4,s3
.LVL174:
	.loc 1 942 3 is_stmt 1
	.loc 1 942 7 is_stmt 0
	sub	s1,s1,s3
.LVL175:
	.loc 1 943 3 is_stmt 1
	.loc 1 946 3
	.loc 1 935 8
	.loc 1 946 10 is_stmt 0
	li	a3,0
	.loc 1 935 8
	bne	s2,zero,.L130
.LVL176:
.L125:
	.loc 1 950 1
	lw	ra,28(sp)
	.cfi_remember_state
	.cfi_restore 1
	lw	s0,24(sp)
	.cfi_restore 8
	.cfi_def_cfa 2, 32
	lw	s1,20(sp)
	.cfi_restore 9
	lw	s2,16(sp)
	.cfi_restore 18
	lw	s3,12(sp)
	.cfi_restore 19
	lw	s5,4(sp)
	.cfi_restore 21
.LVL177:
	mv	a0,s4
	lw	s4,8(sp)
	.cfi_restore 20
	addi	sp,sp,32
	.cfi_def_cfa_offset 0
	jr	ra
.LVL178:
.L128:
	.cfi_restore_state
	.loc 1 929 3 is_stmt 1
	.loc 1 930 8 is_stmt 0
	lw	s2,0(s2)
.LVL179:
	.loc 1 929 10
	sub	a3,a3,a5
.LVL180:
	.loc 1 930 3 is_stmt 1
	j	.L126
.L133:
	li	s4,0
.LVL181:
	.loc 1 949 2
	.loc 1 949 9 is_stmt 0
	j	.L125
	.cfi_endproc
.LFE112:
	.size	net_buf_linearize, .-net_buf_linearize
	.section	.text.net_buf_simple_clone,"ax",@progbits
	.align	1
	.globl	net_buf_simple_clone
	.type	net_buf_simple_clone, @function
net_buf_simple_clone:
.LFB114:
	.loc 1 1004 1 is_stmt 1
	.cfi_startproc
.LVL182:
	.loc 1 1005 2
	.loc 1 1004 1 is_stmt 0
	addi	sp,sp,-16
	.cfi_def_cfa_offset 16
	sw	s0,12(sp)
	.cfi_offset 8, -4
	addi	s0,sp,16
	.cfi_def_cfa 8, 0
	.loc 1 1006 1
	lw	s0,12(sp)
	.cfi_restore 8
	.cfi_def_cfa 2, 16
	.loc 1 1004 1
	mv	a5,a1
	.loc 1 1005 2
	li	a2,12
	mv	a1,a0
.LVL183:
	.loc 1 1006 1
	.loc 1 1005 2
	mv	a0,a5
.LVL184:
	.loc 1 1006 1
	addi	sp,sp,16
	.cfi_def_cfa_offset 0
	.loc 1 1005 2
	tail	memcpy
.LVL185:
	.cfi_endproc
.LFE114:
	.size	net_buf_simple_clone, .-net_buf_simple_clone
	.section	.text.net_buf_simple_add,"ax",@progbits
	.align	1
	.globl	net_buf_simple_add
	.type	net_buf_simple_add, @function
net_buf_simple_add:
.LFB115:
	.loc 1 1009 1 is_stmt 1
	.cfi_startproc
.LVL186:
	.loc 1 1010 2
.LBB225:
.LBB226:
	.loc 2 470 2
.LBE226:
.LBE225:
	.loc 1 1009 1 is_stmt 0
	addi	sp,sp,-16
	.cfi_def_cfa_offset 16
	sw	s0,12(sp)
	.cfi_offset 8, -4
	addi	s0,sp,16
	.cfi_def_cfa 8, 0
.LBB228:
.LBB227:
	.loc 2 470 24
	lhu	a5,4(a0)
	.loc 2 470 19
	lw	a4,0(a0)
.LVL187:
.LBE227:
.LBE228:
	.loc 1 1012 2 is_stmt 1
	.loc 1 1014 2
	.loc 1 1016 2
	.loc 1 1016 11 is_stmt 0
	add	a1,a5,a1
.LVL188:
	sh	a1,4(a0)
	.loc 1 1017 2 is_stmt 1
	.loc 1 1018 1 is_stmt 0
	lw	s0,12(sp)
	.cfi_restore 8
	.cfi_def_cfa 2, 16
	add	a0,a4,a5
.LVL189:
	addi	sp,sp,16
	.cfi_def_cfa_offset 0
	jr	ra
	.cfi_endproc
.LFE115:
	.size	net_buf_simple_add, .-net_buf_simple_add
	.section	.text.net_buf_simple_add_mem,"ax",@progbits
	.align	1
	.globl	net_buf_simple_add_mem
	.type	net_buf_simple_add_mem, @function
net_buf_simple_add_mem:
.LFB116:
	.loc 1 1022 1 is_stmt 1
	.cfi_startproc
.LVL190:
	.loc 1 1023 2
	.loc 1 1025 2
.LBB229:
.LBB230:
	.loc 1 1010 2
.LBB231:
.LBB232:
	.loc 2 470 2
.LBE232:
.LBE231:
.LBE230:
.LBE229:
	.loc 1 1022 1 is_stmt 0
	addi	sp,sp,-16
	.cfi_def_cfa_offset 16
	sw	s0,12(sp)
	.cfi_offset 8, -4
	addi	s0,sp,16
	.cfi_def_cfa 8, 0
.LBB236:
.LBB235:
.LBB234:
.LBB233:
	.loc 2 470 24
	lhu	a4,4(a0)
	.loc 2 470 19
	lw	a3,0(a0)
.LVL191:
.LBE233:
.LBE234:
	.loc 1 1012 2 is_stmt 1
	.loc 1 1014 2
	.loc 1 1016 2
	.loc 1 1016 11 is_stmt 0
	add	a5,a4,a2
	sh	a5,4(a0)
	.loc 1 1017 2 is_stmt 1
.LVL192:
.LBE235:
.LBE236:
	.loc 1 1026 1 is_stmt 0
	lw	s0,12(sp)
	.cfi_restore 8
	.cfi_def_cfa 2, 16
	.loc 1 1025 9
	add	a0,a3,a4
.LVL193:
	.loc 1 1026 1
	addi	sp,sp,16
	.cfi_def_cfa_offset 0
	.loc 1 1025 9
	tail	memcpy
.LVL194:
	.cfi_endproc
.LFE116:
	.size	net_buf_simple_add_mem, .-net_buf_simple_add_mem
	.section	.text.net_buf_clone,"ax",@progbits
	.align	1
	.globl	net_buf_clone
	.type	net_buf_clone, @function
net_buf_clone:
.LFB107:
	.loc 1 804 1 is_stmt 1
	.cfi_startproc
.LVL195:
	.loc 1 805 2
	.loc 1 804 1 is_stmt 0
	addi	sp,sp,-64
	.cfi_def_cfa_offset 64
	sw	ra,60(sp)
	sw	s0,56(sp)
	sw	s1,52(sp)
	sw	s2,48(sp)
	sw	s3,44(sp)
	sw	s4,40(sp)
	sw	s5,36(sp)
	sw	s6,32(sp)
	sw	s7,28(sp)
	.cfi_offset 1, -4
	.cfi_offset 8, -8
	.cfi_offset 9, -12
	.cfi_offset 18, -16
	.cfi_offset 19, -20
	.cfi_offset 20, -24
	.cfi_offset 21, -28
	.cfi_offset 22, -32
	.cfi_offset 23, -36
	addi	s0,sp,64
	.cfi_def_cfa 8, 0
	.loc 1 804 1
	mv	s3,a1
	mv	s2,a0
	.loc 1 805 22
	call	k_uptime_get_32
.LVL196:
	.loc 1 811 9
	lbu	a5,6(s2)
.LBB251:
.LBB252:
	.loc 1 245 30
	lui	s4,%hi(.LANCHOR0)
	addi	s5,s4,%lo(.LANCHOR0)
	slli	a5,a5,2
	add	a5,s5,a5
	lw	s7,0(a5)
.LBE252:
.LBE251:
	.loc 1 805 22
	mv	s6,a0
.LVL197:
	.loc 1 806 2 is_stmt 1
	.loc 1 807 2
	.loc 1 809 2
	.loc 1 811 2
.LBB254:
.LBB253:
	.loc 1 245 5
.LBE253:
.LBE254:
	.loc 1 813 2
	.loc 1 813 10 is_stmt 0
	mv	a2,s3
	li	a1,0
	mv	a0,s7
.LVL198:
	call	net_buf_alloc_len
.LVL199:
	mv	s1,a0
.LVL200:
	.loc 1 814 2 is_stmt 1
	.loc 1 814 5 is_stmt 0
	beq	a0,zero,.L144
	.loc 1 821 17
	lw	a5,20(s7)
	addi	s4,s4,%lo(.LANCHOR0)
	.loc 1 821 2 is_stmt 1
	.loc 1 821 21 is_stmt 0
	lw	a5,0(a5)
	.loc 1 821 5
	lw	a5,4(a5)
	beq	a5,zero,.L146
	.loc 1 821 27 discriminator 1
	lbu	a5,5(s2)
	andi	a5,a5,2
	bne	a5,zero,.L146
	.loc 1 822 3 is_stmt 1
.LVL201:
.LBB255:
.LBB256:
	.loc 1 422 2
.LBB257:
.LBB258:
	.loc 1 245 5
.LBE258:
.LBE257:
	.loc 1 424 2
	.loc 1 422 30 is_stmt 0
	lbu	a5,6(s2)
	.loc 1 424 9
	lw	a1,16(s2)
	mv	a0,s2
.LBB260:
.LBB259:
	.loc 1 245 30
	slli	a5,a5,2
	add	s5,s5,a5
.LBE259:
.LBE260:
	.loc 1 424 13
	lw	a5,0(s5)
	.loc 1 424 20
	lw	a5,20(a5)
	.loc 1 424 24
	lw	a5,0(a5)
	.loc 1 424 9
	lw	a5,4(a5)
	jalr	a5
.LVL202:
.LBE256:
.LBE255:
	.loc 1 822 16
	sw	a0,16(s1)
	.loc 1 823 3 is_stmt 1
	.loc 1 823 20 is_stmt 0
	lw	a5,8(s2)
	.loc 1 823 15
	sw	a5,8(s1)
	.loc 1 824 3 is_stmt 1
	.loc 1 824 19 is_stmt 0
	lhu	a5,12(s2)
	.loc 1 824 14
	sh	a5,12(s1)
	.loc 1 825 3 is_stmt 1
	.loc 1 825 20 is_stmt 0
	lhu	a5,14(s2)
	.loc 1 825 15
	sh	a5,14(s1)
.LVL203:
.L144:
	.loc 1 847 1
	lw	ra,60(sp)
	.cfi_remember_state
	.cfi_restore 1
	lw	s0,56(sp)
	.cfi_restore 8
	.cfi_def_cfa 2, 64
	lw	s2,48(sp)
	.cfi_restore 18
.LVL204:
	lw	s3,44(sp)
	.cfi_restore 19
.LVL205:
	lw	s4,40(sp)
	.cfi_restore 20
	lw	s5,36(sp)
	.cfi_restore 21
	lw	s6,32(sp)
	.cfi_restore 22
.LVL206:
	lw	s7,28(sp)
	.cfi_restore 23
.LVL207:
	mv	a0,s1
	lw	s1,52(sp)
	.cfi_restore 9
	addi	sp,sp,64
	.cfi_def_cfa_offset 0
	jr	ra
.LVL208:
.L146:
	.cfi_restore_state
.LBB261:
	.loc 1 827 3 is_stmt 1
	.loc 1 827 20 is_stmt 0
	lhu	a5,14(s2)
	.loc 1 829 6
	li	a4,1
	.loc 1 827 20
	sw	a5,-52(s0)
	.loc 1 829 3 is_stmt 1
	.loc 1 829 20 is_stmt 0
	addi	a5,s3,1
	.loc 1 829 6
	bleu	a5,a4,.L147
.LBB262:
	.loc 1 830 4 is_stmt 1
	.loc 1 830 17 is_stmt 0
	call	k_uptime_get_32
.LVL209:
	.loc 1 832 4 is_stmt 1
	.loc 1 830 10 is_stmt 0
	sub	a0,a0,s6
.LVL210:
	.loc 1 832 49
	bleu	a0,s3,.L148
	mv	a0,s3
.LVL211:
.L148:
	.loc 1 832 12
	sub	s3,s3,a0
.LVL212:
.L147:
.LBE262:
	.loc 1 835 3 is_stmt 1
.LBB263:
.LBB264:
	.loc 1 415 2
.LBB265:
.LBB266:
	.loc 1 245 5
.LBE266:
.LBE265:
	.loc 1 417 2
	.loc 1 415 30 is_stmt 0
	lbu	a5,6(s1)
	.loc 1 417 9
	mv	a2,s3
	addi	a1,s0,-52
.LVL213:
.LBB268:
.LBB267:
	.loc 1 245 30
	slli	a5,a5,2
	add	s4,s4,a5
.LBE267:
.LBE268:
	.loc 1 417 13
	lw	a5,0(s4)
	.loc 1 417 9
	mv	a0,s1
	.loc 1 417 20
	lw	a5,20(a5)
	.loc 1 417 24
	lw	a5,0(a5)
	.loc 1 417 9
	lw	a5,0(a5)
	jalr	a5
.LVL214:
.LBE264:
.LBE263:
	.loc 1 835 16
	sw	a0,16(s1)
	.loc 1 836 3 is_stmt 1
	.loc 1 836 6 is_stmt 0
	beq	a0,zero,.L149
	.loc 1 836 29 discriminator 1
	lw	a5,-52(s0)
	.loc 1 836 34 discriminator 1
	lhu	a4,14(s2)
	.loc 1 836 21 discriminator 1
	bleu	a4,a5,.L150
.L149:
	.loc 1 837 4 is_stmt 1
	mv	a0,s1
	call	net_buf_destroy
.LVL215:
	.loc 1 838 4
	.loc 1 838 10 is_stmt 0
	li	s1,0
.LVL216:
	j	.L144
.LVL217:
.L150:
	.loc 1 841 3 is_stmt 1
	.loc 1 841 15 is_stmt 0
	sh	a5,14(s1)
	.loc 1 842 3 is_stmt 1
.LVL218:
.LBB269:
.LBB270:
	.loc 1 1204 2
	.loc 1 1204 19 is_stmt 0
	lw	a5,8(s2)
	lw	a4,16(s2)
	sub	a5,a5,a4
.LBE270:
.LBE269:
	.loc 1 842 30
	add	a0,a0,a5
	.loc 1 842 15
	sw	a0,8(s1)
	.loc 1 843 3 is_stmt 1
	lhu	a2,12(s2)
	lw	a1,8(s2)
	addi	a0,s1,8
	call	net_buf_simple_add_mem
.LVL219:
	j	.L144
.LBE261:
	.cfi_endproc
.LFE107:
	.size	net_buf_clone, .-net_buf_clone
	.section	.text.net_buf_simple_add_u8,"ax",@progbits
	.align	1
	.globl	net_buf_simple_add_u8
	.type	net_buf_simple_add_u8, @function
net_buf_simple_add_u8:
.LFB117:
	.loc 1 1029 1
	.cfi_startproc
.LVL220:
	.loc 1 1030 2
	.loc 1 1032 2
	.loc 1 1034 2
.LBB271:
.LBB272:
	.loc 1 1010 2
.LBB273:
.LBB274:
	.loc 2 470 2
.LBE274:
.LBE273:
.LBE272:
.LBE271:
	.loc 1 1029 1 is_stmt 0
	addi	sp,sp,-16
	.cfi_def_cfa_offset 16
	sw	s0,12(sp)
	.cfi_offset 8, -4
	addi	s0,sp,16
	.cfi_def_cfa 8, 0
.LBB281:
.LBB279:
.LBB277:
.LBB275:
	.loc 2 470 24
	lhu	a4,4(a0)
.LBE275:
.LBE277:
.LBE279:
.LBE281:
	.loc 1 1029 1
	mv	a5,a0
.LBB282:
.LBB280:
.LBB278:
.LBB276:
	.loc 2 470 19
	lw	a0,0(a0)
.LVL221:
	add	a0,a0,a4
.LVL222:
.LBE276:
.LBE278:
	.loc 1 1012 2 is_stmt 1
	.loc 1 1014 2
	.loc 1 1016 2
	.loc 1 1016 11 is_stmt 0
	addi	a4,a4,1
	sh	a4,4(a5)
	.loc 1 1017 2 is_stmt 1
.LVL223:
.LBE280:
.LBE282:
	.loc 1 1035 2
	.loc 1 1035 6 is_stmt 0
	sb	a1,0(a0)
	.loc 1 1037 2 is_stmt 1
	.loc 1 1038 1 is_stmt 0
	lw	s0,12(sp)
	.cfi_restore 8
	.cfi_def_cfa 2, 16
	addi	sp,sp,16
	.cfi_def_cfa_offset 0
	jr	ra
	.cfi_endproc
.LFE117:
	.size	net_buf_simple_add_u8, .-net_buf_simple_add_u8
	.section	.text.net_buf_simple_add_le16,"ax",@progbits
	.align	1
	.globl	net_buf_simple_add_le16
	.type	net_buf_simple_add_le16, @function
net_buf_simple_add_le16:
.LFB118:
	.loc 1 1041 1 is_stmt 1
	.cfi_startproc
.LVL224:
	.loc 1 1042 2
	.loc 1 1044 2
.LBB283:
.LBB284:
	.loc 1 1010 2
.LBB285:
.LBB286:
	.loc 2 470 2
.LBE286:
.LBE285:
.LBE284:
.LBE283:
	.loc 1 1041 1 is_stmt 0
	addi	sp,sp,-16
	.cfi_def_cfa_offset 16
	sw	s0,12(sp)
	.cfi_offset 8, -4
	addi	s0,sp,16
	.cfi_def_cfa 8, 0
.LBB290:
.LBB289:
.LBB288:
.LBB287:
	.loc 2 470 24
	lhu	a4,4(a0)
	.loc 2 470 19
	lw	a5,0(a0)
	add	a5,a5,a4
.LVL225:
.LBE287:
.LBE288:
	.loc 1 1012 2 is_stmt 1
	.loc 1 1014 2
	.loc 1 1016 2
	.loc 1 1016 11 is_stmt 0
	addi	a4,a4,2
	sh	a4,4(a0)
	.loc 1 1017 2 is_stmt 1
.LVL226:
.LBE289:
.LBE290:
.LBB291:
.LBB292:
	.file 4 "/home/dinhquangha/intern/Ai-Thinker-WB2/components/network/ble/blestack/src/common/include/misc/byteorder.h"
	.loc 4 204 2
	.loc 4 204 9 is_stmt 0
	sb	a1,0(a5)
	.loc 4 205 2 is_stmt 1
	.loc 4 205 9 is_stmt 0
	srli	a1,a1,8
.LVL227:
	sb	a1,1(a5)
.LVL228:
.LBE292:
.LBE291:
	.loc 1 1045 1
	lw	s0,12(sp)
	.cfi_restore 8
	.cfi_def_cfa 2, 16
	addi	sp,sp,16
	.cfi_def_cfa_offset 0
	jr	ra
	.cfi_endproc
.LFE118:
	.size	net_buf_simple_add_le16, .-net_buf_simple_add_le16
	.section	.text.net_buf_simple_add_be16,"ax",@progbits
	.align	1
	.globl	net_buf_simple_add_be16
	.type	net_buf_simple_add_be16, @function
net_buf_simple_add_be16:
.LFB119:
	.loc 1 1048 1 is_stmt 1
	.cfi_startproc
.LVL229:
	.loc 1 1049 2
	.loc 1 1051 2
.LBB293:
.LBB294:
	.loc 1 1010 2
.LBB295:
.LBB296:
	.loc 2 470 2
.LBE296:
.LBE295:
.LBE294:
.LBE293:
	.loc 1 1048 1 is_stmt 0
	addi	sp,sp,-16
	.cfi_def_cfa_offset 16
	sw	s0,12(sp)
	.cfi_offset 8, -4
	addi	s0,sp,16
	.cfi_def_cfa 8, 0
.LBB300:
.LBB299:
.LBB298:
.LBB297:
	.loc 2 470 24
	lhu	a4,4(a0)
	.loc 2 470 19
	lw	a5,0(a0)
	add	a5,a5,a4
.LVL230:
.LBE297:
.LBE298:
	.loc 1 1012 2 is_stmt 1
	.loc 1 1014 2
	.loc 1 1016 2
	.loc 1 1016 11 is_stmt 0
	addi	a4,a4,2
	sh	a4,4(a0)
	.loc 1 1017 2 is_stmt 1
.LVL231:
.LBE299:
.LBE300:
.LBB301:
.LBB302:
	.loc 4 159 2
	.loc 4 159 9 is_stmt 0
	srli	a4,a1,8
	sb	a4,0(a5)
	.loc 4 160 2 is_stmt 1
	.loc 4 160 9 is_stmt 0
	sb	a1,1(a5)
.LVL232:
.LBE302:
.LBE301:
	.loc 1 1052 1
	lw	s0,12(sp)
	.cfi_restore 8
	.cfi_def_cfa 2, 16
	addi	sp,sp,16
	.cfi_def_cfa_offset 0
	jr	ra
	.cfi_endproc
.LFE119:
	.size	net_buf_simple_add_be16, .-net_buf_simple_add_be16
	.section	.text.net_buf_simple_add_le24,"ax",@progbits
	.align	1
	.globl	net_buf_simple_add_le24
	.type	net_buf_simple_add_le24, @function
net_buf_simple_add_le24:
.LFB120:
	.loc 1 1055 1 is_stmt 1
	.cfi_startproc
.LVL233:
	.loc 1 1056 2
	.loc 1 1058 2
.LBB311:
.LBB312:
	.loc 1 1010 2
.LBB313:
.LBB314:
	.loc 2 470 2
.LBE314:
.LBE313:
.LBE312:
.LBE311:
	.loc 1 1055 1 is_stmt 0
	addi	sp,sp,-16
	.cfi_def_cfa_offset 16
	sw	s0,12(sp)
	.cfi_offset 8, -4
	addi	s0,sp,16
	.cfi_def_cfa 8, 0
.LBB318:
.LBB317:
.LBB316:
.LBB315:
	.loc 2 470 24
	lhu	a4,4(a0)
	.loc 2 470 19
	lw	a5,0(a0)
	add	a5,a5,a4
.LVL234:
.LBE315:
.LBE316:
	.loc 1 1012 2 is_stmt 1
	.loc 1 1014 2
	.loc 1 1016 2
	.loc 1 1016 11 is_stmt 0
	addi	a4,a4,3
	sh	a4,4(a0)
	.loc 1 1017 2 is_stmt 1
.LVL235:
.LBE317:
.LBE318:
.LBB319:
.LBB320:
	.loc 4 219 2
.LBB321:
.LBB322:
	.loc 4 204 2
	.loc 4 205 9 is_stmt 0
	slli	a4,a1,16
	srli	a4,a4,16
	.loc 4 204 9
	sb	a1,0(a5)
	.loc 4 205 2 is_stmt 1
	.loc 4 205 9 is_stmt 0
	srli	a4,a4,8
.LBE322:
.LBE321:
	.loc 4 220 15
	srli	a1,a1,16
.LVL236:
.LBB324:
.LBB323:
	.loc 4 205 9
	sb	a4,1(a5)
.LVL237:
.LBE323:
.LBE324:
	.loc 4 220 2 is_stmt 1
	.loc 4 220 9 is_stmt 0
	sb	a1,2(a5)
.LVL238:
.LBE320:
.LBE319:
	.loc 1 1059 1
	lw	s0,12(sp)
	.cfi_restore 8
	.cfi_def_cfa 2, 16
	addi	sp,sp,16
	.cfi_def_cfa_offset 0
	jr	ra
	.cfi_endproc
.LFE120:
	.size	net_buf_simple_add_le24, .-net_buf_simple_add_le24
	.section	.text.net_buf_simple_add_be24,"ax",@progbits
	.align	1
	.globl	net_buf_simple_add_be24
	.type	net_buf_simple_add_be24, @function
net_buf_simple_add_be24:
.LFB121:
	.loc 1 1062 1 is_stmt 1
	.cfi_startproc
.LVL239:
	.loc 1 1063 2
	.loc 1 1065 2
.LBB333:
.LBB334:
	.loc 1 1010 2
.LBB335:
.LBB336:
	.loc 2 470 2
.LBE336:
.LBE335:
.LBE334:
.LBE333:
	.loc 1 1062 1 is_stmt 0
	addi	sp,sp,-16
	.cfi_def_cfa_offset 16
	sw	s0,12(sp)
	.cfi_offset 8, -4
	addi	s0,sp,16
	.cfi_def_cfa 8, 0
.LBB340:
.LBB339:
.LBB338:
.LBB337:
	.loc 2 470 24
	lhu	a4,4(a0)
	.loc 2 470 19
	lw	a5,0(a0)
	add	a5,a5,a4
.LVL240:
.LBE337:
.LBE338:
	.loc 1 1012 2 is_stmt 1
	.loc 1 1014 2
	.loc 1 1016 2
	.loc 1 1016 11 is_stmt 0
	addi	a4,a4,3
	sh	a4,4(a0)
	.loc 1 1017 2 is_stmt 1
.LVL241:
.LBE339:
.LBE340:
.LBB341:
.LBB342:
	.loc 4 174 2
	.loc 4 174 15 is_stmt 0
	srli	a4,a1,16
	.loc 4 174 9
	sb	a4,0(a5)
	.loc 4 175 2 is_stmt 1
.LVL242:
.LBB343:
.LBB344:
	.loc 4 159 2
	.loc 4 159 9 is_stmt 0
	slli	a4,a1,16
	srli	a4,a4,16
	srli	a4,a4,8
	sb	a4,1(a5)
	.loc 4 160 2 is_stmt 1
	.loc 4 160 9 is_stmt 0
	sb	a1,2(a5)
.LVL243:
.LBE344:
.LBE343:
.LBE342:
.LBE341:
	.loc 1 1066 1
	lw	s0,12(sp)
	.cfi_restore 8
	.cfi_def_cfa 2, 16
	addi	sp,sp,16
	.cfi_def_cfa_offset 0
	jr	ra
	.cfi_endproc
.LFE121:
	.size	net_buf_simple_add_be24, .-net_buf_simple_add_be24
	.section	.text.net_buf_simple_add_le32,"ax",@progbits
	.align	1
	.globl	net_buf_simple_add_le32
	.type	net_buf_simple_add_le32, @function
net_buf_simple_add_le32:
.LFB122:
	.loc 1 1069 1 is_stmt 1
	.cfi_startproc
.LVL244:
	.loc 1 1070 2
	.loc 1 1072 2
.LBB355:
.LBB356:
	.loc 1 1010 2
.LBB357:
.LBB358:
	.loc 2 470 2
.LBE358:
.LBE357:
.LBE356:
.LBE355:
	.loc 1 1069 1 is_stmt 0
	addi	sp,sp,-16
	.cfi_def_cfa_offset 16
	sw	s0,12(sp)
	.cfi_offset 8, -4
	addi	s0,sp,16
	.cfi_def_cfa 8, 0
.LBB362:
.LBB361:
.LBB360:
.LBB359:
	.loc 2 470 24
	lhu	a4,4(a0)
	.loc 2 470 19
	lw	a5,0(a0)
	add	a5,a5,a4
.LVL245:
.LBE359:
.LBE360:
	.loc 1 1012 2 is_stmt 1
	.loc 1 1014 2
	.loc 1 1016 2
	.loc 1 1016 11 is_stmt 0
	addi	a4,a4,4
	sh	a4,4(a0)
	.loc 1 1017 2 is_stmt 1
.LVL246:
.LBE361:
.LBE362:
.LBB363:
.LBB364:
	.loc 4 234 2
.LBB365:
.LBB366:
	.loc 4 204 2
	.loc 4 205 9 is_stmt 0
	slli	a4,a1,16
	.loc 4 204 9
	sb	a1,0(a5)
	.loc 4 205 2 is_stmt 1
	.loc 4 205 9 is_stmt 0
	srli	a4,a4,16
.LBE366:
.LBE365:
	.loc 4 235 19
	srli	a1,a1,16
.LVL247:
.LBB369:
.LBB370:
	.loc 4 204 9
	sb	a1,2(a5)
.LBE370:
.LBE369:
.LBB373:
.LBB367:
	.loc 4 205 9
	srli	a4,a4,8
.LBE367:
.LBE373:
.LBB374:
.LBB371:
	srli	a1,a1,8
.LBE371:
.LBE374:
.LBB375:
.LBB368:
	sb	a4,1(a5)
.LVL248:
.LBE368:
.LBE375:
	.loc 4 235 2 is_stmt 1
.LBB376:
.LBB372:
	.loc 4 204 2
	.loc 4 205 2
	.loc 4 205 9 is_stmt 0
	sb	a1,3(a5)
.LVL249:
.LBE372:
.LBE376:
.LBE364:
.LBE363:
	.loc 1 1073 1
	lw	s0,12(sp)
	.cfi_restore 8
	.cfi_def_cfa 2, 16
	addi	sp,sp,16
	.cfi_def_cfa_offset 0
	jr	ra
	.cfi_endproc
.LFE122:
	.size	net_buf_simple_add_le32, .-net_buf_simple_add_le32
	.section	.text.net_buf_simple_add_be32,"ax",@progbits
	.align	1
	.globl	net_buf_simple_add_be32
	.type	net_buf_simple_add_be32, @function
net_buf_simple_add_be32:
.LFB123:
	.loc 1 1076 1 is_stmt 1
	.cfi_startproc
.LVL250:
	.loc 1 1077 2
	.loc 1 1079 2
.LBB387:
.LBB388:
	.loc 1 1010 2
.LBB389:
.LBB390:
	.loc 2 470 2
.LBE390:
.LBE389:
.LBE388:
.LBE387:
	.loc 1 1076 1 is_stmt 0
	addi	sp,sp,-16
	.cfi_def_cfa_offset 16
	sw	s0,12(sp)
	.cfi_offset 8, -4
	addi	s0,sp,16
	.cfi_def_cfa 8, 0
.LBB397:
.LBB395:
.LBB393:
.LBB391:
	.loc 2 470 24
	lhu	a4,4(a0)
	.loc 2 470 19
	lw	a5,0(a0)
.LBE391:
.LBE393:
.LBE395:
.LBE397:
.LBB398:
.LBB399:
.LBB400:
.LBB401:
	.loc 4 159 9
	srli	a3,a1,24
.LBE401:
.LBE400:
.LBE399:
.LBE398:
.LBB411:
.LBB396:
.LBB394:
.LBB392:
	.loc 2 470 19
	add	a5,a5,a4
.LVL251:
.LBE392:
.LBE394:
	.loc 1 1012 2 is_stmt 1
	.loc 1 1014 2
	.loc 1 1016 2
	.loc 1 1016 11 is_stmt 0
	addi	a4,a4,4
	sh	a4,4(a0)
	.loc 1 1017 2 is_stmt 1
.LVL252:
.LBE396:
.LBE411:
.LBB412:
.LBB410:
	.loc 4 189 2
	.loc 4 189 19 is_stmt 0
	srli	a4,a1,16
.LVL253:
.LBB404:
.LBB402:
	.loc 4 159 2 is_stmt 1
	.loc 4 160 9 is_stmt 0
	sb	a4,1(a5)
.LBE402:
.LBE404:
.LBB405:
.LBB406:
	.loc 4 159 9
	slli	a4,a1,16
.LVL254:
	srli	a4,a4,16
	srli	a4,a4,8
.LBE406:
.LBE405:
.LBB408:
.LBB403:
	sb	a3,0(a5)
	.loc 4 160 2 is_stmt 1
.LVL255:
.LBE403:
.LBE408:
	.loc 4 190 2
.LBB409:
.LBB407:
	.loc 4 159 2
	.loc 4 159 9 is_stmt 0
	sb	a4,2(a5)
	.loc 4 160 2 is_stmt 1
	.loc 4 160 9 is_stmt 0
	sb	a1,3(a5)
.LVL256:
.LBE407:
.LBE409:
.LBE410:
.LBE412:
	.loc 1 1080 1
	lw	s0,12(sp)
	.cfi_restore 8
	.cfi_def_cfa 2, 16
	addi	sp,sp,16
	.cfi_def_cfa_offset 0
	jr	ra
	.cfi_endproc
.LFE123:
	.size	net_buf_simple_add_be32, .-net_buf_simple_add_be32
	.section	.text.net_buf_simple_push,"ax",@progbits
	.align	1
	.globl	net_buf_simple_push
	.type	net_buf_simple_push, @function
net_buf_simple_push:
.LFB124:
	.loc 1 1083 1 is_stmt 1
	.cfi_startproc
.LVL257:
	.loc 1 1084 2
	.loc 1 1086 2
	.loc 1 1088 2
	.loc 1 1083 1 is_stmt 0
	addi	sp,sp,-16
	.cfi_def_cfa_offset 16
	sw	s0,12(sp)
	.cfi_offset 8, -4
	addi	s0,sp,16
	.cfi_def_cfa 8, 0
	.loc 1 1083 1
	mv	a5,a0
	.loc 1 1089 11
	lhu	a4,4(a5)
	.loc 1 1088 12
	lw	a0,0(a0)
.LVL258:
	.loc 1 1091 1
	lw	s0,12(sp)
	.cfi_restore 8
	.cfi_def_cfa 2, 16
	.loc 1 1088 12
	sub	a0,a0,a1
	.loc 1 1089 11
	add	a1,a1,a4
.LVL259:
	.loc 1 1088 12
	sw	a0,0(a5)
	.loc 1 1089 2 is_stmt 1
	.loc 1 1089 11 is_stmt 0
	sh	a1,4(a5)
	.loc 1 1090 2 is_stmt 1
	.loc 1 1091 1 is_stmt 0
	addi	sp,sp,16
	.cfi_def_cfa_offset 0
	jr	ra
	.cfi_endproc
.LFE124:
	.size	net_buf_simple_push, .-net_buf_simple_push
	.section	.text.net_buf_simple_push_le16,"ax",@progbits
	.align	1
	.globl	net_buf_simple_push_le16
	.type	net_buf_simple_push_le16, @function
net_buf_simple_push_le16:
.LFB125:
	.loc 1 1094 1 is_stmt 1
	.cfi_startproc
.LVL260:
	.loc 1 1095 2
	.loc 1 1097 2
.LBB413:
.LBB414:
	.loc 1 1084 2
	.loc 1 1086 2
	.loc 1 1088 2
.LBE414:
.LBE413:
	.loc 1 1094 1 is_stmt 0
	addi	sp,sp,-16
	.cfi_def_cfa_offset 16
	sw	s0,12(sp)
	.cfi_offset 8, -4
	addi	s0,sp,16
	.cfi_def_cfa 8, 0
.LBB416:
.LBB415:
	.loc 1 1088 12
	lw	a5,0(a0)
	addi	a4,a5,-2
	sw	a4,0(a0)
	.loc 1 1089 2 is_stmt 1
	.loc 1 1089 11 is_stmt 0
	lhu	a4,4(a0)
	addi	a4,a4,2
	sh	a4,4(a0)
	.loc 1 1090 2 is_stmt 1
.LVL261:
.LBE415:
.LBE416:
.LBB417:
.LBB418:
	.loc 4 204 2
	.loc 4 204 9 is_stmt 0
	sb	a1,-2(a5)
.LVL262:
	.loc 4 205 2 is_stmt 1
	.loc 4 205 9 is_stmt 0
	srli	a1,a1,8
.LVL263:
	sb	a1,-1(a5)
.LVL264:
.LBE418:
.LBE417:
	.loc 1 1098 1
	lw	s0,12(sp)
	.cfi_restore 8
	.cfi_def_cfa 2, 16
	addi	sp,sp,16
	.cfi_def_cfa_offset 0
	jr	ra
	.cfi_endproc
.LFE125:
	.size	net_buf_simple_push_le16, .-net_buf_simple_push_le16
	.section	.text.net_buf_simple_push_be16,"ax",@progbits
	.align	1
	.globl	net_buf_simple_push_be16
	.type	net_buf_simple_push_be16, @function
net_buf_simple_push_be16:
.LFB126:
	.loc 1 1101 1 is_stmt 1
	.cfi_startproc
.LVL265:
	.loc 1 1102 2
	.loc 1 1104 2
.LBB419:
.LBB420:
	.loc 1 1084 2
	.loc 1 1086 2
	.loc 1 1088 2
.LBE420:
.LBE419:
	.loc 1 1101 1 is_stmt 0
	addi	sp,sp,-16
	.cfi_def_cfa_offset 16
	sw	s0,12(sp)
	.cfi_offset 8, -4
	addi	s0,sp,16
	.cfi_def_cfa 8, 0
.LBB422:
.LBB421:
	.loc 1 1088 12
	lw	a5,0(a0)
	addi	a4,a5,-2
	sw	a4,0(a0)
	.loc 1 1089 2 is_stmt 1
	.loc 1 1089 11 is_stmt 0
	lhu	a4,4(a0)
	addi	a4,a4,2
	sh	a4,4(a0)
	.loc 1 1090 2 is_stmt 1
.LVL266:
.LBE421:
.LBE422:
.LBB423:
.LBB424:
	.loc 4 159 2
	.loc 4 159 9 is_stmt 0
	srli	a4,a1,8
	sb	a4,-2(a5)
.LVL267:
	.loc 4 160 2 is_stmt 1
	.loc 4 160 9 is_stmt 0
	sb	a1,-1(a5)
.LVL268:
.LBE424:
.LBE423:
	.loc 1 1105 1
	lw	s0,12(sp)
	.cfi_restore 8
	.cfi_def_cfa 2, 16
	addi	sp,sp,16
	.cfi_def_cfa_offset 0
	jr	ra
	.cfi_endproc
.LFE126:
	.size	net_buf_simple_push_be16, .-net_buf_simple_push_be16
	.section	.text.net_buf_simple_push_u8,"ax",@progbits
	.align	1
	.globl	net_buf_simple_push_u8
	.type	net_buf_simple_push_u8, @function
net_buf_simple_push_u8:
.LFB127:
	.loc 1 1108 1 is_stmt 1
	.cfi_startproc
.LVL269:
	.loc 1 1109 2
.LBB425:
.LBB426:
	.loc 1 1084 2
	.loc 1 1086 2
	.loc 1 1088 2
.LBE426:
.LBE425:
	.loc 1 1108 1 is_stmt 0
	addi	sp,sp,-16
	.cfi_def_cfa_offset 16
	sw	s0,12(sp)
	.cfi_offset 8, -4
	addi	s0,sp,16
	.cfi_def_cfa 8, 0
.LBB428:
.LBB427:
	.loc 1 1088 12
	lw	a4,0(a0)
	addi	a5,a4,-1
	sw	a5,0(a0)
	.loc 1 1089 2 is_stmt 1
	.loc 1 1089 11 is_stmt 0
	lhu	a5,4(a0)
	addi	a5,a5,1
	sh	a5,4(a0)
	.loc 1 1090 2 is_stmt 1
.LVL270:
.LBE427:
.LBE428:
	.loc 1 1111 2
	.loc 1 1111 8 is_stmt 0
	sb	a1,-1(a4)
.LVL271:
	.loc 1 1112 1
	lw	s0,12(sp)
	.cfi_restore 8
	.cfi_def_cfa 2, 16
	addi	sp,sp,16
	.cfi_def_cfa_offset 0
	jr	ra
	.cfi_endproc
.LFE127:
	.size	net_buf_simple_push_u8, .-net_buf_simple_push_u8
	.section	.text.net_buf_simple_push_le24,"ax",@progbits
	.align	1
	.globl	net_buf_simple_push_le24
	.type	net_buf_simple_push_le24, @function
net_buf_simple_push_le24:
.LFB128:
	.loc 1 1115 1 is_stmt 1
	.cfi_startproc
.LVL272:
	.loc 1 1116 2
	.loc 1 1118 2
.LBB435:
.LBB436:
	.loc 1 1084 2
	.loc 1 1086 2
	.loc 1 1088 2
.LBE436:
.LBE435:
	.loc 1 1115 1 is_stmt 0
	addi	sp,sp,-16
	.cfi_def_cfa_offset 16
	sw	s0,12(sp)
	.cfi_offset 8, -4
	addi	s0,sp,16
	.cfi_def_cfa 8, 0
.LBB438:
.LBB437:
	.loc 1 1088 12
	lw	a5,0(a0)
	addi	a4,a5,-3
	sw	a4,0(a0)
	.loc 1 1089 2 is_stmt 1
	.loc 1 1089 11 is_stmt 0
	lhu	a4,4(a0)
	addi	a4,a4,3
	sh	a4,4(a0)
	.loc 1 1090 2 is_stmt 1
.LVL273:
.LBE437:
.LBE438:
.LBB439:
.LBB440:
	.loc 4 219 2
.LBB441:
.LBB442:
	.loc 4 204 2
	.loc 4 205 9 is_stmt 0
	slli	a4,a1,16
	srli	a4,a4,16
	.loc 4 204 9
	sb	a1,-3(a5)
.LVL274:
	.loc 4 205 2 is_stmt 1
	.loc 4 205 9 is_stmt 0
	srli	a4,a4,8
.LBE442:
.LBE441:
	.loc 4 220 15
	srli	a1,a1,16
.LVL275:
.LBB444:
.LBB443:
	.loc 4 205 9
	sb	a4,-2(a5)
.LVL276:
.LBE443:
.LBE444:
	.loc 4 220 2 is_stmt 1
	.loc 4 220 9 is_stmt 0
	sb	a1,-1(a5)
.LVL277:
.LBE440:
.LBE439:
	.loc 1 1119 1
	lw	s0,12(sp)
	.cfi_restore 8
	.cfi_def_cfa 2, 16
	addi	sp,sp,16
	.cfi_def_cfa_offset 0
	jr	ra
	.cfi_endproc
.LFE128:
	.size	net_buf_simple_push_le24, .-net_buf_simple_push_le24
	.section	.text.net_buf_simple_push_be24,"ax",@progbits
	.align	1
	.globl	net_buf_simple_push_be24
	.type	net_buf_simple_push_be24, @function
net_buf_simple_push_be24:
.LFB129:
	.loc 1 1122 1 is_stmt 1
	.cfi_startproc
.LVL278:
	.loc 1 1123 2
	.loc 1 1125 2
.LBB451:
.LBB452:
	.loc 1 1084 2
	.loc 1 1086 2
	.loc 1 1088 2
.LBE452:
.LBE451:
	.loc 1 1122 1 is_stmt 0
	addi	sp,sp,-16
	.cfi_def_cfa_offset 16
	sw	s0,12(sp)
	.cfi_offset 8, -4
	addi	s0,sp,16
	.cfi_def_cfa 8, 0
.LBB454:
.LBB453:
	.loc 1 1088 12
	lw	a5,0(a0)
	addi	a4,a5,-3
	sw	a4,0(a0)
	.loc 1 1089 2 is_stmt 1
	.loc 1 1089 11 is_stmt 0
	lhu	a4,4(a0)
	addi	a4,a4,3
	sh	a4,4(a0)
	.loc 1 1090 2 is_stmt 1
.LVL279:
.LBE453:
.LBE454:
.LBB455:
.LBB456:
	.loc 4 174 2
	.loc 4 174 15 is_stmt 0
	srli	a4,a1,16
	.loc 4 174 9
	sb	a4,-3(a5)
.LVL280:
	.loc 4 175 2 is_stmt 1
.LBB457:
.LBB458:
	.loc 4 159 2
	.loc 4 159 9 is_stmt 0
	slli	a4,a1,16
	srli	a4,a4,16
	srli	a4,a4,8
	sb	a4,-2(a5)
	.loc 4 160 2 is_stmt 1
	.loc 4 160 9 is_stmt 0
	sb	a1,-1(a5)
.LVL281:
.LBE458:
.LBE457:
.LBE456:
.LBE455:
	.loc 1 1126 1
	lw	s0,12(sp)
	.cfi_restore 8
	.cfi_def_cfa 2, 16
	addi	sp,sp,16
	.cfi_def_cfa_offset 0
	jr	ra
	.cfi_endproc
.LFE129:
	.size	net_buf_simple_push_be24, .-net_buf_simple_push_be24
	.section	.text.net_buf_simple_pull,"ax",@progbits
	.align	1
	.globl	net_buf_simple_pull
	.type	net_buf_simple_pull, @function
net_buf_simple_pull:
.LFB130:
	.loc 1 1129 1 is_stmt 1
	.cfi_startproc
.LVL282:
	.loc 1 1130 2
	.loc 1 1132 2
	.loc 1 1134 2
	.loc 1 1129 1 is_stmt 0
	addi	sp,sp,-16
	.cfi_def_cfa_offset 16
	sw	s0,12(sp)
	.cfi_offset 8, -4
	addi	s0,sp,16
	.cfi_def_cfa 8, 0
	.loc 1 1134 11
	lhu	a4,4(a0)
	.loc 1 1129 1
	mv	a5,a0
	.loc 1 1134 11
	sub	a4,a4,a1
	sh	a4,4(a0)
	.loc 1 1135 2 is_stmt 1
	.loc 1 1135 19 is_stmt 0
	lw	a0,0(a0)
.LVL283:
	.loc 1 1136 1
	lw	s0,12(sp)
	.cfi_restore 8
	.cfi_def_cfa 2, 16
	.loc 1 1135 19
	add	a0,a0,a1
	sw	a0,0(a5)
	.loc 1 1136 1
	addi	sp,sp,16
	.cfi_def_cfa_offset 0
	jr	ra
	.cfi_endproc
.LFE130:
	.size	net_buf_simple_pull, .-net_buf_simple_pull
	.section	.text.net_buf_simple_pull_mem,"ax",@progbits
	.align	1
	.globl	net_buf_simple_pull_mem
	.type	net_buf_simple_pull_mem, @function
net_buf_simple_pull_mem:
.LFB131:
	.loc 1 1139 1 is_stmt 1
	.cfi_startproc
.LVL284:
	.loc 1 1140 2
	.loc 1 1139 1 is_stmt 0
	addi	sp,sp,-16
	.cfi_def_cfa_offset 16
	sw	s0,12(sp)
	.cfi_offset 8, -4
	addi	s0,sp,16
	.cfi_def_cfa 8, 0
	.loc 1 1139 1
	mv	a5,a0
	.loc 1 1146 11
	lhu	a4,4(a5)
	.loc 1 1140 8
	lw	a0,0(a0)
.LVL285:
	.loc 1 1142 2 is_stmt 1
	.loc 1 1144 2
	.loc 1 1146 2
	.loc 1 1150 1 is_stmt 0
	lw	s0,12(sp)
	.cfi_restore 8
	.cfi_def_cfa 2, 16
	.loc 1 1146 11
	sub	a4,a4,a1
	.loc 1 1147 12
	add	a1,a0,a1
.LVL286:
	.loc 1 1146 11
	sh	a4,4(a5)
	.loc 1 1147 2 is_stmt 1
	.loc 1 1147 12 is_stmt 0
	sw	a1,0(a5)
	.loc 1 1149 2 is_stmt 1
	.loc 1 1150 1 is_stmt 0
	addi	sp,sp,16
	.cfi_def_cfa_offset 0
	jr	ra
	.cfi_endproc
.LFE131:
	.size	net_buf_simple_pull_mem, .-net_buf_simple_pull_mem
	.section	.text.net_buf_simple_pull_u8,"ax",@progbits
	.align	1
	.globl	net_buf_simple_pull_u8
	.type	net_buf_simple_pull_u8, @function
net_buf_simple_pull_u8:
.LFB132:
	.loc 1 1153 1 is_stmt 1
	.cfi_startproc
.LVL287:
	.loc 1 1154 2
	.loc 1 1156 2
	.loc 1 1153 1 is_stmt 0
	addi	sp,sp,-16
	.cfi_def_cfa_offset 16
	sw	s0,8(sp)
	sw	ra,12(sp)
	sw	s1,4(sp)
	.cfi_offset 8, -8
	.cfi_offset 1, -4
	.cfi_offset 9, -12
	addi	s0,sp,16
	.cfi_def_cfa 8, 0
	.loc 1 1156 6
	lw	a5,0(a0)
	.loc 1 1157 2
	li	a1,1
	.loc 1 1156 6
	lbu	s1,0(a5)
.LVL288:
	.loc 1 1157 2 is_stmt 1
	call	net_buf_simple_pull
.LVL289:
	.loc 1 1159 2
	.loc 1 1160 1 is_stmt 0
	lw	ra,12(sp)
	.cfi_restore 1
	lw	s0,8(sp)
	.cfi_restore 8
	.cfi_def_cfa 2, 16
	mv	a0,s1
	lw	s1,4(sp)
	.cfi_restore 9
.LVL290:
	addi	sp,sp,16
	.cfi_def_cfa_offset 0
	jr	ra
	.cfi_endproc
.LFE132:
	.size	net_buf_simple_pull_u8, .-net_buf_simple_pull_u8
	.section	.text.net_buf_simple_pull_le16,"ax",@progbits
	.align	1
	.globl	net_buf_simple_pull_le16
	.type	net_buf_simple_pull_le16, @function
net_buf_simple_pull_le16:
.LFB133:
	.loc 1 1163 1 is_stmt 1
	.cfi_startproc
.LVL291:
	.loc 1 1164 2
	.loc 1 1166 2
.LBB459:
	.loc 1 1166 25
	.loc 1 1166 150
.LBE459:
	.loc 1 1163 1 is_stmt 0
	addi	sp,sp,-16
	.cfi_def_cfa_offset 16
	sw	s0,8(sp)
.LVL292:
	sw	ra,12(sp)
	sw	s1,4(sp)
	.cfi_offset 8, -8
	.cfi_offset 1, -4
	.cfi_offset 9, -12
	addi	s0,sp,16
	.cfi_def_cfa 8, 0
.LBB460:
	.loc 1 1166 153
	lw	a5,0(a0)
.LBE460:
	.loc 1 1167 2
	li	a1,2
.LBB461:
	.loc 1 1166 153
	lbu	s1,1(a5)
	lbu	a4,0(a5)
	slli	s1,s1,8
	or	s1,s1,a4
.LVL293:
.LBE461:
	.loc 1 1167 2 is_stmt 1
	call	net_buf_simple_pull
.LVL294:
	.loc 1 1169 2
	.loc 1 1170 1 is_stmt 0
	lw	ra,12(sp)
	.cfi_restore 1
	lw	s0,8(sp)
	.cfi_restore 8
	.cfi_def_cfa 2, 16
	mv	a0,s1
	lw	s1,4(sp)
	.cfi_restore 9
.LVL295:
	addi	sp,sp,16
	.cfi_def_cfa_offset 0
	jr	ra
	.cfi_endproc
.LFE133:
	.size	net_buf_simple_pull_le16, .-net_buf_simple_pull_le16
	.section	.text.net_buf_simple_pull_be16,"ax",@progbits
	.align	1
	.globl	net_buf_simple_pull_be16
	.type	net_buf_simple_pull_be16, @function
net_buf_simple_pull_be16:
.LFB134:
	.loc 1 1173 1 is_stmt 1
	.cfi_startproc
.LVL296:
	.loc 1 1174 2
	.loc 1 1176 2
.LBB462:
	.loc 1 1176 25
	.loc 1 1176 150
.LBE462:
	.loc 1 1173 1 is_stmt 0
	addi	sp,sp,-16
	.cfi_def_cfa_offset 16
	sw	s0,8(sp)
.LVL297:
	sw	s1,4(sp)
	sw	ra,12(sp)
	.cfi_offset 8, -8
	.cfi_offset 9, -12
	.cfi_offset 1, -4
	addi	s0,sp,16
	.cfi_def_cfa 8, 0
	lw	a4,0(a0)
	.loc 1 1177 2
	li	a1,2
	lbu	a5,1(a4)
	lbu	a3,0(a4)
	slli	a5,a5,8
	or	a5,a5,a3
	slli	s1,a5,8
	srli	a5,a5,8
	or	a5,s1,a5
	slli	s1,a5,16
	call	net_buf_simple_pull
.LVL298:
	.loc 1 1180 1
	lw	ra,12(sp)
	.cfi_restore 1
	lw	s0,8(sp)
	.cfi_restore 8
	.cfi_def_cfa 2, 16
	srli	s1,s1,16
.LVL299:
	.loc 1 1177 2 is_stmt 1
	.loc 1 1179 2
	.loc 1 1180 1 is_stmt 0
	mv	a0,s1
	lw	s1,4(sp)
	.cfi_restore 9
	addi	sp,sp,16
	.cfi_def_cfa_offset 0
	jr	ra
	.cfi_endproc
.LFE134:
	.size	net_buf_simple_pull_be16, .-net_buf_simple_pull_be16
	.section	.text.net_buf_simple_pull_le32,"ax",@progbits
	.align	1
	.globl	net_buf_simple_pull_le32
	.type	net_buf_simple_pull_le32, @function
net_buf_simple_pull_le32:
.LFB135:
	.loc 1 1183 1 is_stmt 1
	.cfi_startproc
.LVL300:
	.loc 1 1184 2
	.loc 1 1186 2
.LBB463:
	.loc 1 1186 25
	.loc 1 1186 150
.LBE463:
	.loc 1 1183 1 is_stmt 0
	addi	sp,sp,-16
	.cfi_def_cfa_offset 16
	sw	s0,8(sp)
.LVL301:
	sw	ra,12(sp)
	sw	s1,4(sp)
	.cfi_offset 8, -8
	.cfi_offset 1, -4
	.cfi_offset 9, -12
	addi	s0,sp,16
	.cfi_def_cfa 8, 0
.LBB464:
	.loc 1 1186 153
	lw	a4,0(a0)
.LBE464:
	.loc 1 1187 2
	li	a1,4
.LBB465:
	.loc 1 1186 153
	lbu	a5,1(a4)
	lbu	s1,0(a4)
	slli	a5,a5,8
	or	a5,a5,s1
	lbu	s1,2(a4)
	slli	s1,s1,16
	or	a5,s1,a5
	lbu	s1,3(a4)
	slli	s1,s1,24
	or	s1,s1,a5
.LVL302:
.LBE465:
	.loc 1 1187 2 is_stmt 1
	call	net_buf_simple_pull
.LVL303:
	.loc 1 1189 2
	.loc 1 1190 1 is_stmt 0
	lw	ra,12(sp)
	.cfi_restore 1
	lw	s0,8(sp)
	.cfi_restore 8
	.cfi_def_cfa 2, 16
	mv	a0,s1
	lw	s1,4(sp)
	.cfi_restore 9
.LVL304:
	addi	sp,sp,16
	.cfi_def_cfa_offset 0
	jr	ra
	.cfi_endproc
.LFE135:
	.size	net_buf_simple_pull_le32, .-net_buf_simple_pull_le32
	.section	.text.net_buf_simple_pull_be32,"ax",@progbits
	.align	1
	.globl	net_buf_simple_pull_be32
	.type	net_buf_simple_pull_be32, @function
net_buf_simple_pull_be32:
.LFB136:
	.loc 1 1193 1 is_stmt 1
	.cfi_startproc
.LVL305:
	.loc 1 1194 2
	.loc 1 1196 2
.LBB466:
	.loc 1 1196 25
	.loc 1 1196 150
.LBE466:
	.loc 1 1193 1 is_stmt 0
	addi	sp,sp,-16
	.cfi_def_cfa_offset 16
	sw	s0,8(sp)
.LVL306:
	sw	ra,12(sp)
	sw	s1,4(sp)
	.cfi_offset 8, -8
	.cfi_offset 1, -4
	.cfi_offset 9, -12
	addi	s0,sp,16
	.cfi_def_cfa 8, 0
.LBB467:
	.loc 1 1196 153
	lw	a4,0(a0)
.LBE467:
	.loc 1 1197 2
	li	a1,4
.LBB468:
	.loc 1 1196 153
	lbu	a5,1(a4)
	lbu	s1,0(a4)
	slli	a5,a5,8
	or	a5,a5,s1
	lbu	s1,2(a4)
	slli	s1,s1,16
	or	a5,s1,a5
	lbu	s1,3(a4)
	slli	s1,s1,24
	or	s1,s1,a5
.LVL307:
.LBE468:
	.loc 1 1197 2 is_stmt 1
	call	net_buf_simple_pull
.LVL308:
	.loc 1 1199 2
	.loc 1 1199 112 is_stmt 0
	slli	a5,s1,24
	.loc 1 1199 27
	srli	a0,s1,24
	.loc 1 1199 58
	li	a4,65536
	.loc 1 1199 10
	or	a0,a0,a5
	.loc 1 1199 58
	addi	a4,a4,-256
	.loc 1 1199 52
	srli	a5,s1,8
	.loc 1 1200 1
	lw	ra,12(sp)
	.cfi_restore 1
	lw	s0,8(sp)
	.cfi_restore 8
	.cfi_def_cfa 2, 16
	.loc 1 1199 58
	and	a5,a5,a4
	.loc 1 1199 10
	or	a0,a0,a5
	.loc 1 1199 88
	slli	s1,s1,8
.LVL309:
	li	a5,16711680
	and	s1,s1,a5
	.loc 1 1200 1
	or	a0,a0,s1
	lw	s1,4(sp)
	.cfi_restore 9
	addi	sp,sp,16
	.cfi_def_cfa_offset 0
	jr	ra
	.cfi_endproc
.LFE136:
	.size	net_buf_simple_pull_be32, .-net_buf_simple_pull_be32
	.section	.text.net_buf_simple_headroom,"ax",@progbits
	.align	1
	.globl	net_buf_simple_headroom
	.type	net_buf_simple_headroom, @function
net_buf_simple_headroom:
.LFB137:
	.loc 1 1203 1 is_stmt 1
	.cfi_startproc
.LVL310:
	.loc 1 1204 2
	.loc 1 1203 1 is_stmt 0
	addi	sp,sp,-16
	.cfi_def_cfa_offset 16
	sw	s0,12(sp)
	.cfi_offset 8, -4
	addi	s0,sp,16
	.cfi_def_cfa 8, 0
	.loc 1 1204 19
	lw	a4,0(a0)
	.loc 1 1205 1
	lw	s0,12(sp)
	.cfi_restore 8
	.cfi_def_cfa 2, 16
	.loc 1 1204 19
	lw	a0,8(a0)
.LVL311:
	.loc 1 1205 1
	sub	a0,a4,a0
	addi	sp,sp,16
	.cfi_def_cfa_offset 0
	jr	ra
	.cfi_endproc
.LFE137:
	.size	net_buf_simple_headroom, .-net_buf_simple_headroom
	.section	.text.net_buf_simple_tailroom,"ax",@progbits
	.align	1
	.globl	net_buf_simple_tailroom
	.type	net_buf_simple_tailroom, @function
net_buf_simple_tailroom:
.LFB138:
	.loc 1 1208 1 is_stmt 1
	.cfi_startproc
.LVL312:
	.loc 1 1209 2
.LBB469:
.LBB470:
	.loc 1 1204 2
.LBE470:
.LBE469:
	.loc 1 1208 1 is_stmt 0
	addi	sp,sp,-16
	.cfi_def_cfa_offset 16
	sw	s0,12(sp)
	.cfi_offset 8, -4
	addi	s0,sp,16
	.cfi_def_cfa 8, 0
	.loc 1 1209 55
	lhu	a5,4(a0)
	.loc 1 1209 12
	lhu	a4,6(a0)
	.loc 1 1210 1
	lw	s0,12(sp)
	.cfi_restore 8
	.cfi_def_cfa 2, 16
	.loc 1 1209 50
	sub	a4,a4,a5
.LBB473:
.LBB471:
	.loc 1 1204 19
	lw	a5,0(a0)
	lw	a0,8(a0)
.LVL313:
.LBE471:
.LBE473:
	.loc 1 1210 1
	addi	sp,sp,16
	.cfi_def_cfa_offset 0
.LBB474:
.LBB472:
	.loc 1 1204 19
	sub	a0,a5,a0
.LBE472:
.LBE474:
	.loc 1 1210 1
	sub	a0,a4,a0
	jr	ra
	.cfi_endproc
.LFE138:
	.size	net_buf_simple_tailroom, .-net_buf_simple_tailroom
	.section	.text.net_buf_append_bytes,"ax",@progbits
	.align	1
	.globl	net_buf_append_bytes
	.type	net_buf_append_bytes, @function
net_buf_append_bytes:
.LFB113:
	.loc 1 959 1 is_stmt 1
	.cfi_startproc
.LVL314:
	.loc 1 960 2
.LBB475:
.LBB476:
	.loc 1 851 2
	.loc 1 853 2
.LBE476:
.LBE475:
	.loc 1 959 1 is_stmt 0
	addi	sp,sp,-48
	.cfi_def_cfa_offset 48
	sw	s0,40(sp)
	sw	s2,32(sp)
	sw	s3,28(sp)
	sw	s4,24(sp)
	sw	s6,16(sp)
	sw	s7,12(sp)
	sw	s8,8(sp)
	sw	ra,44(sp)
	sw	s1,36(sp)
	sw	s5,20(sp)
	sw	s9,4(sp)
	.cfi_offset 8, -8
	.cfi_offset 18, -16
	.cfi_offset 19, -20
	.cfi_offset 20, -24
	.cfi_offset 22, -32
	.cfi_offset 23, -36
	.cfi_offset 24, -40
	.cfi_offset 1, -4
	.cfi_offset 9, -12
	.cfi_offset 21, -28
	.cfi_offset 25, -44
	addi	s0,sp,48
	.cfi_def_cfa 8, 0
	mv	s8,a5
	.loc 1 959 1
	mv	s4,a0
	mv	s2,a1
	mv	s3,a2
	mv	s6,a3
	mv	s7,a4
.LBB478:
.LBB477:
	.loc 1 853 8
	mv	a5,a0
.LVL315:
.L206:
	.loc 1 853 8 is_stmt 1
	mv	s9,a5
	.loc 1 853 12 is_stmt 0
	lw	a5,0(a5)
.LVL316:
	.loc 1 853 8
	bne	a5,zero,.L206
.LBE477:
.LBE478:
	.loc 1 961 9
	li	s5,0
.LVL317:
.L210:
	.loc 1 964 2 is_stmt 1
.LBB479:
	.loc 1 965 3
	.loc 1 965 28 is_stmt 0
	addi	s9,s9,8
.LVL318:
	mv	a0,s9
	call	net_buf_simple_tailroom
.LVL319:
	.loc 1 965 9
	bgtu	a0,s2,.L207
	.loc 1 965 9 discriminator 1
	slli	s1,a0,16
.L219:
	.loc 1 965 9 discriminator 2
	srli	s1,s1,16
.LVL320:
	.loc 1 967 3 is_stmt 1 discriminator 2
	mv	a1,s3
	mv	a2,s1
	mv	a0,s9
	.loc 1 968 7 is_stmt 0 discriminator 2
	sub	s2,s2,s1
.LVL321:
	.loc 1 967 3 discriminator 2
	call	net_buf_simple_add_mem
.LVL322:
	.loc 1 968 3 is_stmt 1 discriminator 2
	.loc 1 969 3 discriminator 2
	.loc 1 969 13 is_stmt 0 discriminator 2
	add	s5,s5,s1
.LVL323:
	.loc 1 970 3 is_stmt 1 discriminator 2
	.loc 1 970 10 is_stmt 0 discriminator 2
	add	s3,s3,s1
.LVL324:
	.loc 1 972 3 is_stmt 1 discriminator 2
	.loc 1 972 6 is_stmt 0 discriminator 2
	beq	s2,zero,.L205
	.loc 1 976 3 is_stmt 1
	.loc 1 976 10 is_stmt 0
	mv	a1,s8
	mv	a0,s6
	jalr	s7
.LVL325:
	mv	s9,a0
.LVL326:
	.loc 1 977 3 is_stmt 1
	.loc 1 977 6 is_stmt 0
	beq	a0,zero,.L205
	.loc 1 981 3 is_stmt 1
	mv	a1,a0
	mv	a0,s4
.LVL327:
	call	net_buf_frag_add
.LVL328:
.LBE479:
	.loc 1 982 10
	.loc 1 964 5 is_stmt 0
	j	.L210
.LVL329:
.L207:
.LBB480:
	.loc 1 965 9 discriminator 2
	slli	s1,s2,16
	j	.L219
.LVL330:
.L205:
.LBE480:
	.loc 1 986 1
	lw	ra,44(sp)
	.cfi_restore 1
	lw	s0,40(sp)
	.cfi_restore 8
	.cfi_def_cfa 2, 48
	lw	s1,36(sp)
	.cfi_restore 9
.LVL331:
	lw	s2,32(sp)
	.cfi_restore 18
.LVL332:
	lw	s3,28(sp)
	.cfi_restore 19
.LVL333:
	lw	s4,24(sp)
	.cfi_restore 20
.LVL334:
	lw	s6,16(sp)
	.cfi_restore 22
.LVL335:
	lw	s7,12(sp)
	.cfi_restore 23
.LVL336:
	lw	s8,8(sp)
	.cfi_restore 24
.LVL337:
	lw	s9,4(sp)
	.cfi_restore 25
	mv	a0,s5
	lw	s5,20(sp)
	.cfi_restore 21
.LVL338:
	addi	sp,sp,48
	.cfi_def_cfa_offset 0
	jr	ra
	.cfi_endproc
.LFE113:
	.size	net_buf_append_bytes, .-net_buf_append_bytes
	.globl	net_buf_fixed_cb
	.globl	_net_buf_pool_list
	.section	.data._net_buf_pool_list,"aw"
	.align	2
	.set	.LANCHOR0,. + 0
	.type	_net_buf_pool_list, @object
	.size	_net_buf_pool_list, 16
_net_buf_pool_list:
	.word	hci_cmd_pool
	.word	hci_rx_pool
	.word	acl_tx_pool
	.word	num_complete_pool
	.section	.rodata.net_buf_fixed_cb,"a"
	.align	2
	.set	.LANCHOR1,. + 0
	.type	net_buf_fixed_cb, @object
	.size	net_buf_fixed_cb, 12
net_buf_fixed_cb:
	.word	fixed_data_alloc
	.zero	4
	.word	fixed_data_unref
	.text
.Letext0:
	.file 5 "/home/dinhquangha/intern/Ai-Thinker-WB2/toolchain/riscv/Linux/lib/gcc/riscv64-unknown-elf/10.2.0/include/stdint-gcc.h"
	.file 6 "/home/dinhquangha/intern/Ai-Thinker-WB2/toolchain/riscv/Linux/lib/gcc/riscv64-unknown-elf/10.2.0/include/stddef.h"
	.file 7 "/home/dinhquangha/intern/Ai-Thinker-WB2/components/network/ble/blestack/src/common/include/zephyr/types.h"
	.file 8 "/home/dinhquangha/intern/Ai-Thinker-WB2/components/network/ble/blestack/src/common/include/misc/dlist.h"
	.file 9 "/home/dinhquangha/intern/Ai-Thinker-WB2/components/network/ble/blestack/src/port/include/bl_port.h"
	.file 10 "/home/dinhquangha/intern/Ai-Thinker-WB2/components/network/ble/blestack/src/port/include/zephyr.h"
	.file 11 "/home/dinhquangha/intern/Ai-Thinker-WB2/toolchain/riscv/Linux/riscv64-unknown-elf/include/string.h"
	.file 12 "/home/dinhquangha/intern/Ai-Thinker-WB2/components/network/ble/blestack/src/bl_hci_wrapper/bl_hci_wrapper.h"