	.file	"log.c"
	.option nopic
	.attribute arch, "rv32i2p0_m2p0_f2p0_c2p0"
	.attribute unaligned_access, 0
	.attribute stack_align, 16
	.text
.Ltext0:
	.cfi_sections	.debug_frame
	.section	.text.bt_hex_real,"ax",@progbits
	.align	1
	.globl	bt_hex_real
	.type	bt_hex_real, @function
bt_hex_real:
.LFB67:
	.file 1 "/home/dinhquangha/Ai-Thinker-WB2/components/network/ble/blestack/src/common/log.c"
	.loc 1 23 1
	.cfi_startproc
.LVL0:
	.loc 1 24 2
	.loc 1 28 2
	.loc 1 30 2
	.loc 1 31 2
	.loc 1 33 2
	.loc 1 23 1 is_stmt 0
	addi	sp,sp,-16
	.cfi_def_cfa_offset 16
	sw	s0,12(sp)
	.cfi_offset 8, -4
	addi	s0,sp,16
	.cfi_def_cfa 8, 0
	.loc 1 33 6
	li	a4,63
	.loc 1 23 1
	mv	a5,a0
	.loc 1 33 6
	bleu	a1,a4,.L2
	li	a1,63
.LVL1:
.L2:
	.loc 1 35 2 is_stmt 1
	lui	a0,%hi(.LANCHOR0)
.LVL2:
	.loc 1 36 19 is_stmt 0
	lui	a2,%hi(.LANCHOR1)
	addi	a3,a0,%lo(.LANCHOR0)
	add	a7,a5,a1
	addi	a6,a0,%lo(.LANCHOR0)
	addi	a2,a2,%lo(.LANCHOR1)
.LVL3:
.L3:
	.loc 1 35 14 is_stmt 1 discriminator 1
	.loc 1 35 2 is_stmt 0 discriminator 1
	bne	a5,a7,.L4
	.loc 1 40 2 is_stmt 1
	.loc 1 40 13 is_stmt 0
	slli	a1,a1,1
.LVL4:
	add	a1,a6,a1
	sb	zero,0(a1)
	.loc 1 42 2 is_stmt 1
	.loc 1 43 1 is_stmt 0
	lw	s0,12(sp)
	.cfi_remember_state
	.cfi_restore 8
	.cfi_def_cfa 2, 16
	addi	a0,a0,%lo(.LANCHOR0)
	addi	sp,sp,16
	.cfi_def_cfa_offset 0
	jr	ra
.LVL5:
.L4:
	.cfi_restore_state
	.loc 1 36 3 is_stmt 1 discriminator 3
	.loc 1 36 25 is_stmt 0 discriminator 3
	lbu	a4,0(a5)
	addi	a3,a3,2
	addi	a5,a5,1
.LVL6:
	srli	a4,a4,4
	.loc 1 36 19 discriminator 3
	add	a4,a2,a4
	.loc 1 36 14 discriminator 3
	lbu	a4,0(a4)
	sb	a4,-2(a3)
	.loc 1 37 3 is_stmt 1 discriminator 3
	.loc 1 37 29 is_stmt 0 discriminator 3
	lbu	a4,-1(a5)
	andi	a4,a4,15
	.loc 1 37 23 discriminator 3
	add	a4,a2,a4
	.loc 1 37 18 discriminator 3
	lbu	a4,0(a4)
	sb	a4,-1(a3)
	.loc 1 35 23 is_stmt 1 discriminator 3
.LVL7:
	j	.L3
	.cfi_endproc
.LFE67:
	.size	bt_hex_real, .-bt_hex_real
	.section	.rodata.bt_addr_str_real.str1.4,"aMS",@progbits,1
	.align	2
.LC0:
	.string	"%02X:%02X:%02X:%02X:%02X:%02X"
	.section	.text.bt_addr_str_real,"ax",@progbits
	.align	1
	.globl	bt_addr_str_real
	.type	bt_addr_str_real, @function
bt_addr_str_real:
.LFB68:
	.loc 1 46 1
	.cfi_startproc
.LVL8:
	.loc 1 47 2
	.loc 1 49 2
.LBB4:
.LBB5:
	.file 2 "/home/dinhquangha/Ai-Thinker-WB2/components/network/ble/blestack/src/include/bluetooth/bluetooth.h"
	.loc 2 740 2
.LBE5:
.LBE4:
	.loc 1 46 1 is_stmt 0
	addi	sp,sp,-32
	.cfi_def_cfa_offset 32
	sw	s0,24(sp)
	sw	s1,20(sp)
	sw	ra,28(sp)
	.cfi_offset 8, -8
	.cfi_offset 9, -12
	.cfi_offset 1, -4
	addi	s0,sp,32
	.cfi_def_cfa 8, 0
.LBB7:
.LBB6:
	.loc 2 740 9
	lbu	a5,0(a0)
	lui	s1,%hi(.LANCHOR2)
	lui	a2,%hi(.LC0)
	sw	a5,0(sp)
	lbu	a7,1(a0)
	lbu	a6,2(a0)
	lbu	a5,3(a0)
	lbu	a4,4(a0)
	lbu	a3,5(a0)
	addi	a2,a2,%lo(.LC0)
	addi	a0,s1,%lo(.LANCHOR2)
.LVL9:
	li	a1,18
	call	snprintf
.LVL10:
.LBE6:
.LBE7:
	.loc 1 51 2 is_stmt 1
	.loc 1 52 1 is_stmt 0
	lw	ra,28(sp)
	.cfi_restore 1
	lw	s0,24(sp)
	.cfi_restore 8
	.cfi_def_cfa 2, 32
	addi	a0,s1,%lo(.LANCHOR2)
	lw	s1,20(sp)
	.cfi_restore 9
	addi	sp,sp,32
	.cfi_def_cfa_offset 0
	jr	ra
	.cfi_endproc
.LFE68:
	.size	bt_addr_str_real, .-bt_addr_str_real
	.section	.rodata.bt_addr_le_str_real.str1.4,"aMS",@progbits,1
	.align	2
.LC1:
	.string	"public"
	.align	2
.LC2:
	.string	"random"
	.align	2
.LC3:
	.string	"public-id"
	.align	2
.LC4:
	.string	"random-id"
	.align	2
.LC5:
	.string	"0x%02x"
	.align	2
.LC6:
	.string	"%02X:%02X:%02X:%02X:%02X:%02X (%s)"
	.section	.text.bt_addr_le_str_real,"ax",@progbits
	.align	1
	.globl	bt_addr_le_str_real
	.type	bt_addr_le_str_real, @function
bt_addr_le_str_real:
.LFB69:
	.loc 1 55 1 is_stmt 1
	.cfi_startproc
.LVL11:
	.loc 1 56 2
	.loc 1 58 2
.LBB10:
.LBB11:
	.loc 2 758 2
	.loc 2 760 2
.LBE11:
.LBE10:
	.loc 1 55 1 is_stmt 0
	addi	sp,sp,-64
	.cfi_def_cfa_offset 64
	sw	s0,56(sp)
	sw	s1,52(sp)
	sw	s2,48(sp)
	sw	ra,60(sp)
	sw	s3,44(sp)
	.cfi_offset 8, -8
	.cfi_offset 9, -12
	.cfi_offset 18, -16
	.cfi_offset 1, -4
	.cfi_offset 19, -20
	addi	s0,sp,64
	.cfi_def_cfa 8, 0
.LBB15:
.LBB12:
	.loc 2 760 14
	lbu	a3,0(a0)
	.loc 2 760 2
	li	a5,2
.LBE12:
.LBE15:
	.loc 1 55 1
	mv	s1,a0
	addi	s2,s0,-44
.LBB16:
.LBB13:
	.loc 2 760 2
	beq	a3,a5,.L9
	bgtu	a3,a5,.L10
	bne	a3,zero,.L16
	.loc 2 762 3 is_stmt 1
	lui	a1,%hi(.LC1)
	addi	a1,a1,%lo(.LC1)
.L19:
	.loc 2 765 3 is_stmt 0
	mv	a0,s2
.LVL12:
	call	strcpy
.LVL13:
	.loc 2 766 3 is_stmt 1
.L15:
	.loc 2 778 2
	.loc 2 778 9 is_stmt 0
	lbu	a5,1(s1)
	lbu	a7,2(s1)
	lbu	a6,3(s1)
	sw	a5,0(sp)
	lbu	a4,5(s1)
	lbu	a5,4(s1)
	lbu	a3,6(s1)
	lui	s3,%hi(.LANCHOR3)
	lui	a2,%hi(.LC6)
	sw	s2,4(sp)
	addi	a0,s3,%lo(.LANCHOR3)
	addi	a2,a2,%lo(.LC6)
	li	a1,30
	call	snprintf
.LVL14:
.LBE13:
.LBE16:
	.loc 1 60 2 is_stmt 1
	.loc 1 61 1 is_stmt 0
	lw	ra,60(sp)
	.cfi_remember_state
	.cfi_restore 1
	lw	s0,56(sp)
	.cfi_restore 8
	.cfi_def_cfa 2, 64
	lw	s1,52(sp)
	.cfi_restore 9
.LVL15:
	lw	s2,48(sp)
	.cfi_restore 18
	addi	a0,s3,%lo(.LANCHOR3)
	lw	s3,44(sp)
	.cfi_restore 19
	addi	sp,sp,64
	.cfi_def_cfa_offset 0
	jr	ra
.LVL16:
.L10:
	.cfi_restore_state
.LBB17:
.LBB14:
	.loc 2 760 2
	li	a5,3
	beq	a3,a5,.L13
	.loc 2 774 3 is_stmt 1
	lui	a2,%hi(.LC5)
	addi	a2,a2,%lo(.LC5)
	li	a1,10
	mv	a0,s2
	call	snprintf
.LVL17:
	.loc 2 775 3
	j	.L15
.L16:
	.loc 2 765 3
	lui	a1,%hi(.LC2)
	addi	a1,a1,%lo(.LC2)
	j	.L19
.L9:
	.loc 2 768 3
	lui	a1,%hi(.LC3)
	addi	a1,a1,%lo(.LC3)
	j	.L19
.L13:
	.loc 2 771 3
	lui	a1,%hi(.LC4)
	addi	a1,a1,%lo(.LC4)
	j	.L19
.LBE14:
.LBE17:
	.cfi_endproc
.LFE69:
	.size	bt_addr_le_str_real, .-bt_addr_le_str_real
	.section	.bss.str.0,"aw",@nobits
	.align	2
	.set	.LANCHOR3,. + 0
	.type	str.0, @object
	.size	str.0, 30
str.0:
	.zero	30
	.section	.bss.str.1,"aw",@nobits
	.align	2
	.set	.LANCHOR2,. + 0
	.type	str.1, @object
	.size	str.1, 18
str.1:
	.zero	18
	.section	.bss.str.2,"aw",@nobits
	.align	2
	.set	.LANCHOR0,. + 0
	.type	str.2, @object
	.size	str.2, 128
str.2:
	.zero	128
	.section	.rodata.hex.3,"a"
	.align	2
	.set	.LANCHOR1,. + 0
	.type	hex.3, @object
	.size	hex.3, 17
hex.3:
	.string	"0123456789abcdef"
	.text
.Letext0:
	.file 3 "/home/dinhquangha/Ai-Thinker-WB2/toolchain/riscv/Linux/lib/gcc/riscv64-unknown-elf/10.2.0/include/stddef.h"
	.file 4 "/home/dinhquangha/Ai-Thinker-WB2/components/network/ble/blestack/src/common/include/zephyr/types.h"
	.file 5 "/home/dinhquangha/Ai-Thinker-WB2/components/network/ble/blestack/src/include/bluetooth/addr.h"
	.file 6 "/home/dinhquangha/Ai-Thinker-WB2/toolchain/riscv/Linux/riscv64-unknown-elf/include/string.h"
	.file 7 "/home/dinhquangha/Ai-Thinker-WB2/toolchain/riscv/Linux/riscv64-unknown-elf/include/stdio.h"