	.file	"utils.c"
	.option nopic
	.attribute arch, "rv32i2p0_m2p0_f2p0_c2p0"
	.attribute unaligned_access, 0
	.attribute stack_align, 16
	.text
.Ltext0:
	.cfi_sections	.debug_frame
	.section	.text.reverse_bytearray,"ax",@progbits
	.align	1
	.globl	reverse_bytearray
	.type	reverse_bytearray, @function
reverse_bytearray:
.LFB0:
	.file 1 "/home/quanghaictu/intern/Ai-Thinker-WB2/components/network/ble/blestack/src/common/utils.c"
	.loc 1 17 1
	.cfi_startproc
.LVL0:
	.loc 1 18 5
.LBB2:
	.loc 1 18 9
.LBE2:
	.loc 1 17 1 is_stmt 0
	addi	sp,sp,-16
	.cfi_def_cfa_offset 16
	sw	s0,12(sp)
	.cfi_offset 8, -4
	addi	s0,sp,16
	.cfi_def_cfa 8, 0
	add	a1,a1,a2
.LVL1:
.LBB3:
	.loc 1 18 13
	li	a5,0
.LVL2:
.L2:
	.loc 1 18 18 is_stmt 1 discriminator 1
	.loc 1 18 5 is_stmt 0 discriminator 1
	addi	a1,a1,-1
	blt	a5,a2,.L3
.LBE3:
	.loc 1 21 1
	lw	s0,12(sp)
	.cfi_remember_state
	.cfi_restore 8
	.cfi_def_cfa 2, 16
	addi	sp,sp,16
	.cfi_def_cfa_offset 0
	jr	ra
.L3:
	.cfi_restore_state
.LBB4:
	.loc 1 19 9 is_stmt 1 discriminator 3
	.loc 1 19 40 is_stmt 0 discriminator 3
	add	a4,a0,a5
	lbu	a4,0(a4)
	.loc 1 18 34 discriminator 3
	addi	a5,a5,1
.LVL3:
	.loc 1 19 35 discriminator 3
	sb	a4,0(a1)
	.loc 1 18 33 is_stmt 1 discriminator 3
.LVL4:
	j	.L2
.LBE4:
	.cfi_endproc
.LFE0:
	.size	reverse_bytearray, .-reverse_bytearray
	.section	.text.find_msb_set,"ax",@progbits
	.align	1
	.globl	find_msb_set
	.type	find_msb_set, @function
find_msb_set:
.LFB1:
	.loc 1 24 1
	.cfi_startproc
.LVL5:
	.loc 1 25 5
	.loc 1 26 5
	.loc 1 28 5
	.loc 1 24 1 is_stmt 0
	addi	sp,sp,-16
	.cfi_def_cfa_offset 16
	sw	s0,12(sp)
	.cfi_offset 8, -4
	addi	s0,sp,16
	.cfi_def_cfa 8, 0
	.loc 1 28 8
	beq	a0,zero,.L6
	.loc 1 26 14
	li	a4,-2147483648
	.loc 1 25 14
	li	a5,0
.LVL6:
.L7:
	.loc 1 31 11 is_stmt 1
	.loc 1 31 18 is_stmt 0
	and	a3,a4,a0
	.loc 1 31 11
	beq	a3,zero,.L8
	.loc 1 35 5 is_stmt 1
	.loc 1 35 16 is_stmt 0
	li	a0,32
.LVL7:
	sub	a0,a0,a5
.LVL8:
.L6:
	.loc 1 36 1
	lw	s0,12(sp)
	.cfi_remember_state
	.cfi_restore 8
	.cfi_def_cfa 2, 16
	addi	sp,sp,16
	.cfi_def_cfa_offset 0
	jr	ra
.LVL9:
.L8:
	.cfi_restore_state
	.loc 1 32 9 is_stmt 1
	.loc 1 32 15 is_stmt 0
	addi	a5,a5,1
.LVL10:
	.loc 1 33 9 is_stmt 1
	.loc 1 33 14 is_stmt 0
	srli	a4,a4,1
.LVL11:
	j	.L7
	.cfi_endproc
.LFE1:
	.size	find_msb_set, .-find_msb_set
	.section	.text.find_lsb_set,"ax",@progbits
	.align	1
	.globl	find_lsb_set
	.type	find_lsb_set, @function
find_lsb_set:
.LFB2:
	.loc 1 39 1 is_stmt 1
	.cfi_startproc
.LVL12:
	.loc 1 40 5
	.loc 1 41 5
	.loc 1 43 5
	.loc 1 39 1 is_stmt 0
	addi	sp,sp,-16
	.cfi_def_cfa_offset 16
	sw	s0,12(sp)
	.cfi_offset 8, -4
	addi	s0,sp,16
	.cfi_def_cfa 8, 0
	.loc 1 43 8
	beq	a0,zero,.L17
	mv	a5,a0
	.loc 1 41 14
	li	a4,1
	.loc 1 40 14
	li	a0,0
.LVL13:
.L15:
	.loc 1 46 11 is_stmt 1
	.loc 1 46 18 is_stmt 0
	and	a3,a4,a5
	.loc 1 47 15
	addi	a0,a0,1
.LVL14:
	.loc 1 46 11
	beq	a3,zero,.L16
.LVL15:
.L13:
	.loc 1 51 1
	lw	s0,12(sp)
	.cfi_remember_state
	.cfi_restore 8
	.cfi_def_cfa 2, 16
	addi	sp,sp,16
	.cfi_def_cfa_offset 0
	jr	ra
.LVL16:
.L16:
	.cfi_restore_state
	.loc 1 47 9 is_stmt 1
	.loc 1 48 9
	.loc 1 48 14 is_stmt 0
	slli	a4,a4,1
.LVL17:
	j	.L15
.LVL18:
.L17:
	.loc 1 44 16
	li	a0,0
.LVL19:
	j	.L13
	.cfi_endproc
.LFE2:
	.size	find_lsb_set, .-find_lsb_set
	.section	.text.char2hex,"ax",@progbits
	.align	1
	.globl	char2hex
	.type	char2hex, @function
char2hex:
.LFB3:
	.loc 1 54 1 is_stmt 1
	.cfi_startproc
.LVL20:
	.loc 1 55 2
	.loc 1 54 1 is_stmt 0
	addi	sp,sp,-16
	.cfi_def_cfa_offset 16
	sw	s0,12(sp)
	.loc 1 55 15
	addi	a4,a0,-48
	.cfi_offset 8, -4
	.loc 1 54 1
	addi	s0,sp,16
	.cfi_def_cfa 8, 0
	.loc 1 55 15
	andi	a4,a4,0xff
	.loc 1 55 5
	li	a3,9
	bgtu	a4,a3,.L20
	.loc 1 56 3 is_stmt 1
	.loc 1 56 6 is_stmt 0
	sb	a4,0(a1)
.LVL21:
.L25:
.LBB7:
.LBB8:
	.loc 1 65 9
	li	a0,0
.L19:
.LBE8:
.LBE7:
	.loc 1 66 1
	lw	s0,12(sp)
	.cfi_remember_state
	.cfi_restore 8
	.cfi_def_cfa 2, 16
	addi	sp,sp,16
	.cfi_def_cfa_offset 0
	jr	ra
.LVL22:
.L20:
	.cfi_restore_state
	.loc 1 57 22
	addi	a4,a0,-97
	.loc 1 57 12
	andi	a4,a4,0xff
	li	a3,5
	mv	a5,a0
	.loc 1 57 9 is_stmt 1
	.loc 1 57 12 is_stmt 0
	bgtu	a4,a3,.L22
	.loc 1 58 3 is_stmt 1
	.loc 1 58 16 is_stmt 0
	addi	a5,a0,-87
.LVL23:
.L26:
.LBB10:
.LBB9:
	.loc 1 60 6
	sb	a5,0(a1)
	j	.L25
.LVL24:
.L22:
	.loc 1 59 9 is_stmt 1
	.loc 1 59 22 is_stmt 0
	addi	a4,a0,-65
	.loc 1 59 12
	andi	a4,a4,0xff
	.loc 1 62 10
	li	a0,-1
.LVL25:
	.loc 1 59 12
	bgtu	a4,a3,.L19
	.loc 1 60 3 is_stmt 1
	.loc 1 60 16 is_stmt 0
	addi	a5,a5,-55
	j	.L26
.LBE9:
.LBE10:
	.cfi_endproc
.LFE3:
	.size	char2hex, .-char2hex
	.section	.text.hex2char,"ax",@progbits
	.align	1
	.globl	hex2char
	.type	hex2char, @function
hex2char:
.LFB4:
	.loc 1 69 1 is_stmt 1
	.cfi_startproc
.LVL26:
	.loc 1 70 2
	.loc 1 69 1 is_stmt 0
	addi	sp,sp,-16
	.cfi_def_cfa_offset 16
	sw	s0,12(sp)
	.cfi_offset 8, -4
	addi	s0,sp,16
	.cfi_def_cfa 8, 0
	.loc 1 70 5
	li	a4,9
	.loc 1 69 1
	mv	a5,a0
	.loc 1 70 5
	bgtu	a0,a4,.L28
	.loc 1 71 3 is_stmt 1
	.loc 1 71 10 is_stmt 0
	addi	a5,a0,48
.LVL27:
.L32:
	.loc 1 73 6
	sb	a5,0(a1)
	.loc 1 78 9
	li	a0,0
.L27:
	.loc 1 79 1
	lw	s0,12(sp)
	.cfi_remember_state
	.cfi_restore 8
	.cfi_def_cfa 2, 16
	addi	sp,sp,16
	.cfi_def_cfa_offset 0
	jr	ra
.LVL28:
.L28:
	.cfi_restore_state
	.loc 1 72 9 is_stmt 1
	.loc 1 72 12 is_stmt 0
	li	a4,15
	.loc 1 75 10
	li	a0,-1
.LVL29:
	.loc 1 72 12
	bgtu	a5,a4,.L27
	.loc 1 73 3 is_stmt 1
	.loc 1 73 15 is_stmt 0
	addi	a5,a5,87
	j	.L32
	.cfi_endproc
.LFE4:
	.size	hex2char, .-hex2char
	.section	.text.bin2hex,"ax",@progbits
	.align	1
	.globl	bin2hex
	.type	bin2hex, @function
bin2hex:
.LFB5:
	.loc 1 82 1 is_stmt 1
	.cfi_startproc
.LVL30:
	.loc 1 83 2
	.loc 1 82 1 is_stmt 0
	addi	sp,sp,-32
	.cfi_def_cfa_offset 32
	sw	s0,24(sp)
	sw	s4,8(sp)
	sw	ra,28(sp)
	sw	s1,20(sp)
	sw	s2,16(sp)
	sw	s3,12(sp)
	sw	s5,4(sp)
	.cfi_offset 8, -8
	.cfi_offset 20, -24
	.cfi_offset 1, -4
	.cfi_offset 9, -12
	.cfi_offset 18, -16
	.cfi_offset 19, -20
	.cfi_offset 21, -28
	addi	s0,sp,32
	.cfi_def_cfa 8, 0
	.loc 1 83 28
	slli	s4,a1,1
	.loc 1 83 14
	addi	a3,a3,1
.LVL31:
	.loc 1 83 5
	bgeu	a3,s4,.L34
.LVL32:
.L37:
	.loc 1 84 10
	li	s4,0
.L33:
	.loc 1 98 1
	lw	ra,28(sp)
	.cfi_remember_state
	.cfi_restore 1
	lw	s0,24(sp)
	.cfi_restore 8
	.cfi_def_cfa 2, 32
	lw	s1,20(sp)
	.cfi_restore 9
	lw	s2,16(sp)
	.cfi_restore 18
	lw	s3,12(sp)
	.cfi_restore 19
	lw	s5,4(sp)
	.cfi_restore 21
	mv	a0,s4
	lw	s4,8(sp)
	.cfi_restore 20
	addi	sp,sp,32
	.cfi_def_cfa_offset 0
	jr	ra
.LVL33:
.L34:
	.cfi_restore_state
	mv	s1,a0
	mv	s2,a2
	addi	s5,a2,1
	add	s3,a0,a1
.LVL34:
.L36:
.LBB11:
	.loc 1 87 21 is_stmt 1 discriminator 1
	.loc 1 87 2 is_stmt 0 discriminator 1
	bne	s1,s3,.L38
.LBE11:
	.loc 1 96 2 is_stmt 1
	.loc 1 96 18 is_stmt 0
	add	s2,s2,s4
.LVL35:
	sb	zero,0(s2)
	.loc 1 97 2 is_stmt 1
	.loc 1 97 11 is_stmt 0
	j	.L33
.LVL36:
.L38:
.LBB12:
	.loc 1 88 3 is_stmt 1
	.loc 1 88 7 is_stmt 0
	lbu	a0,0(s1)
	addi	a1,s5,-1
	srli	a0,a0,4
	call	hex2char
.LVL37:
	.loc 1 88 6
	blt	a0,zero,.L37
	.loc 1 91 3 is_stmt 1
	.loc 1 91 7 is_stmt 0
	lbu	a0,0(s1)
	mv	a1,s5
	.loc 1 91 6
	addi	s1,s1,1
.LVL38:
	.loc 1 91 7
	andi	a0,a0,15
	call	hex2char
.LVL39:
	.loc 1 91 6
	addi	s5,s5,2
	bge	a0,zero,.L36
	j	.L37
.LBE12:
	.cfi_endproc
.LFE5:
	.size	bin2hex, .-bin2hex
	.section	.text.hex2bin,"ax",@progbits
	.align	1
	.globl	hex2bin
	.type	hex2bin, @function
hex2bin:
.LFB6:
	.loc 1 102 1 is_stmt 1
	.cfi_startproc
.LVL40:
	.loc 1 103 2
	.loc 1 105 2
	.loc 1 102 1 is_stmt 0
	addi	sp,sp,-48
	.cfi_def_cfa_offset 48
	sw	s0,40(sp)
	sw	s3,28(sp)
	sw	s4,24(sp)
	.cfi_offset 8, -8
	.cfi_offset 19, -20
	.cfi_offset 20, -24
	.loc 1 105 22
	srli	s3,a1,1
	.loc 1 102 1
	sw	ra,44(sp)
	sw	s1,36(sp)
	sw	s2,32(sp)
	addi	s0,sp,48
	.cfi_def_cfa 8, 0
	.cfi_offset 1, -4
	.cfi_offset 9, -12
	.cfi_offset 18, -16
	.loc 1 105 35
	andi	a1,a1,1
.LVL41:
	.loc 1 102 1
	.loc 1 105 26
	add	s4,s3,a1
	.loc 1 105 5
	bleu	s4,a3,.L41
.LVL42:
.L44:
	.loc 1 106 10
	li	s4,0
.L40:
	.loc 1 133 1
	lw	ra,44(sp)
	.cfi_remember_state
	.cfi_restore 1
	lw	s0,40(sp)
	.cfi_restore 8
	.cfi_def_cfa 2, 48
	lw	s1,36(sp)
	.cfi_restore 9
	lw	s2,32(sp)
	.cfi_restore 18
	lw	s3,28(sp)
	.cfi_restore 19
	mv	a0,s4
	lw	s4,24(sp)
	.cfi_restore 20
	addi	sp,sp,48
	.cfi_def_cfa_offset 0
	jr	ra
.LVL43:
.L41:
	.cfi_restore_state
	mv	s2,a0
	mv	s1,a2
	.loc 1 110 2 is_stmt 1
	.loc 1 110 5 is_stmt 0
	beq	a1,zero,.L43
.LVL44:
	.loc 1 111 3 is_stmt 1
	.loc 1 111 7 is_stmt 0
	lbu	a0,0(a0)
.LVL45:
	addi	a1,s0,-33
	call	char2hex
.LVL46:
	.loc 1 111 6
	blt	a0,zero,.L44
	.loc 1 114 3 is_stmt 1
	.loc 1 114 10 is_stmt 0
	lbu	a5,-33(s0)
	.loc 1 115 6
	addi	s2,s2,1
.LVL47:
	.loc 1 116 6
	addi	s1,s1,1
.LVL48:
	.loc 1 114 10
	sb	a5,-1(s1)
	.loc 1 115 3 is_stmt 1
.LVL49:
	.loc 1 116 3
.L43:
	.loc 1 120 2
.LBB13:
	.loc 1 120 7
	addi	s2,s2,1
.LVL50:
	add	s3,s1,s3
.LVL51:
.L45:
	.loc 1 120 21 discriminator 1
	.loc 1 120 2 is_stmt 0 discriminator 1
	beq	s1,s3,.L40
	.loc 1 121 3 is_stmt 1
	.loc 1 121 7 is_stmt 0
	lbu	a0,-1(s2)
	addi	a1,s0,-33
	call	char2hex
.LVL52:
	.loc 1 121 6
	blt	a0,zero,.L44
	.loc 1 124 3 is_stmt 1
	.loc 1 124 16 is_stmt 0
	lbu	a5,-33(s0)
	.loc 1 126 7
	addi	a1,s0,-33
	.loc 1 126 6
	addi	s2,s2,2
	.loc 1 124 16
	slli	a5,a5,4
	.loc 1 124 10
	sb	a5,0(s1)
	.loc 1 126 3 is_stmt 1
	.loc 1 126 7 is_stmt 0
	lbu	a0,-2(s2)
	call	char2hex
.LVL53:
	.loc 1 126 6
	blt	a0,zero,.L44
	.loc 1 129 3 is_stmt 1 discriminator 2
	.loc 1 129 10 is_stmt 0 discriminator 2
	lbu	a5,0(s1)
	lbu	a4,-33(s0)
	addi	s1,s1,1
	add	a5,a5,a4
	sb	a5,-1(s1)
	.loc 1 120 37 is_stmt 1 discriminator 2
	j	.L45
.LBE13:
	.cfi_endproc
.LFE6:
	.size	hex2bin, .-hex2bin
	.text
.Letext0:
	.file 2 "/home/quanghaictu/intern/Ai-Thinker-WB2/toolchain/riscv/Linux/lib/gcc/riscv64-unknown-elf/10.2.0/include/stdint-gcc.h"
	.file 3 "/home/quanghaictu/intern/Ai-Thinker-WB2/toolchain/riscv/Linux/lib/gcc/riscv64-unknown-elf/10.2.0/include/stddef.h"