	.file	"work_q.c"
	.option nopic
	.attribute arch, "rv32i2p0_m2p0_f2p0_c2p0"
	.attribute unaligned_access, 0
	.attribute stack_align, 16
	.text
.Ltext0:
	.cfi_sections	.debug_frame
	.section	.text.k_work_submit_to_queue,"ax",@progbits
	.align	1
	.type	k_work_submit_to_queue, @function
k_work_submit_to_queue:
.LFB68:
	.file 1 "/home/dinhquangha/intern/Ai-Thinker-WB2/components/network/ble/blestack/src/common/work_q.c"
	.loc 1 28 1
	.cfi_startproc
.LVL0:
	.loc 1 29 5
	.loc 1 28 1 is_stmt 0
	addi	sp,sp,-16
	.cfi_def_cfa_offset 16
	sw	s0,8(sp)
	sw	s1,4(sp)
	sw	s2,0(sp)
	sw	ra,12(sp)
	.cfi_offset 8, -8
	.cfi_offset 9, -12
	.cfi_offset 18, -16
	.cfi_offset 1, -4
	addi	s0,sp,16
	.cfi_def_cfa 8, 0
	mv	s1,a1
.LVL1:
.LBB4:
.LBB5:
	.file 2 "/home/dinhquangha/intern/Ai-Thinker-WB2/components/network/ble/blestack/src/common/include/atomic.h"
	.loc 2 370 2 is_stmt 1
	.loc 2 371 2
	.loc 2 373 2
.LBE5:
.LBE4:
	.loc 1 28 1 is_stmt 0
	.loc 1 28 1
	mv	s2,a0
.LBB7:
.LBB6:
	.loc 2 373 8
	li	a1,1
.LVL2:
	addi	a0,s1,8
.LVL3:
	call	atomic_or
.LVL4:
	.loc 2 375 2 is_stmt 1
	.loc 2 375 14 is_stmt 0
	andi	a0,a0,1
.LBE6:
.LBE7:
	.loc 1 29 8
	bne	a0,zero,.L1
	.loc 1 30 9 is_stmt 1
	.loc 1 36 1 is_stmt 0
	lw	s0,8(sp)
	.cfi_remember_state
	.cfi_restore 8
	.cfi_def_cfa 2, 16
	lw	ra,12(sp)
	.cfi_restore 1
	.loc 1 30 9
	mv	a1,s1
	mv	a0,s2
	.loc 1 36 1
	lw	s1,4(sp)
	.cfi_restore 9
.LVL5:
	lw	s2,0(sp)
	.cfi_restore 18
.LVL6:
	addi	sp,sp,16
	.cfi_def_cfa_offset 0
	.loc 1 30 9
	tail	k_queue_append
.LVL7:
.L1:
	.cfi_restore_state
	.loc 1 36 1
	lw	ra,12(sp)
	.cfi_restore 1
	lw	s0,8(sp)
	.cfi_restore 8
	.cfi_def_cfa 2, 16
	lw	s1,4(sp)
	.cfi_restore 9
.LVL8:
	lw	s2,0(sp)
	.cfi_restore 18
.LVL9:
	addi	sp,sp,16
	.cfi_def_cfa_offset 0
	jr	ra
	.cfi_endproc
.LFE68:
	.size	k_work_submit_to_queue, .-k_work_submit_to_queue
	.section	.text.work_timeout,"ax",@progbits
	.align	1
	.type	work_timeout, @function
work_timeout:
.LFB73:
	.loc 1 90 1 is_stmt 1
	.cfi_startproc
.LVL10:
	.loc 1 92 2
	.loc 1 90 1 is_stmt 0
	addi	sp,sp,-16
	.cfi_def_cfa_offset 16
	sw	s0,8(sp)
	sw	ra,12(sp)
	sw	s1,4(sp)
	.cfi_offset 8, -8
	.cfi_offset 1, -4
	.cfi_offset 9, -12
	addi	s0,sp,16
	.cfi_def_cfa 8, 0
	.loc 1 92 53
	call	k_timer_get_id
.LVL11:
	.loc 1 93 2 is_stmt 1
	.loc 1 93 4 is_stmt 0
	lw	a5,12(a0)
	beq	a5,zero,.L4
	mv	s1,a0
	.loc 1 98 2 is_stmt 1
.LVL12:
.LBB10:
.LBB11:
	.loc 2 331 2
	.loc 2 331 21 is_stmt 0
	addi	a0,a0,8
.LVL13:
	call	atomic_get
.LVL14:
	.loc 2 333 2 is_stmt 1
	.loc 2 333 19 is_stmt 0
	srai	a0,a0,1
	.loc 2 333 12
	andi	a0,a0,1
.LBE11:
.LBE10:
	.loc 1 98 4
	bne	a0,zero,.L6
	.loc 1 99 6 is_stmt 1
	lw	a0,12(s1)
	mv	a1,s1
	call	k_work_submit_to_queue
.LVL15:
	.loc 1 101 6
	.loc 1 101 16 is_stmt 0
	sw	zero,12(s1)
.LVL16:
.L4:
	.loc 1 108 1
	lw	ra,12(sp)
	.cfi_remember_state
	.cfi_restore 1
	lw	s0,8(sp)
	.cfi_restore 8
	.cfi_def_cfa 2, 16
	lw	s1,4(sp)
	.cfi_restore 9
	addi	sp,sp,16
	.cfi_def_cfa_offset 0
	jr	ra
.LVL17:
.L6:
	.cfi_restore_state
	.loc 1 105 3 is_stmt 1
	addi	a0,s1,16
	call	k_timer_reset
.LVL18:
	.loc 1 106 3
	.loc 1 108 1 is_stmt 0
	lw	s0,8(sp)
	.cfi_restore 8
	.cfi_def_cfa 2, 16
	.loc 1 106 3
	lw	a0,12(s1)
	.loc 1 108 1
	lw	ra,12(sp)
	.cfi_restore 1
	.loc 1 106 3
	mv	a1,s1
	.loc 1 108 1
	lw	s1,4(sp)
	.cfi_restore 9
.LVL19:
	addi	sp,sp,16
	.cfi_def_cfa_offset 0
	.loc 1 106 3
	tail	k_work_submit_to_queue
.LVL20:
	.cfi_endproc
.LFE73:
	.size	work_timeout, .-work_timeout
	.section	.text.work_queue_main,"ax",@progbits
	.align	1
	.type	work_queue_main, @function
work_queue_main:
.LFB69:
	.loc 1 51 1 is_stmt 1
	.cfi_startproc
.LVL21:
	addi	sp,sp,-16
	.cfi_def_cfa_offset 16
	sw	s0,8(sp)
	sw	s2,0(sp)
	sw	ra,12(sp)
	sw	s1,4(sp)
	.cfi_offset 8, -8
	.cfi_offset 18, -16
	.cfi_offset 1, -4
	.cfi_offset 9, -12
	addi	s0,sp,16
	.cfi_def_cfa 8, 0
	.loc 1 56 16 is_stmt 0
	lui	s2,%hi(g_work_queue_main)
.LVL22:
.L13:
	.loc 1 52 5 is_stmt 1
	.loc 1 53 5
	.loc 1 55 5
	.loc 1 56 9
	.loc 1 56 16 is_stmt 0
	li	a1,-1
	addi	a0,s2,%lo(g_work_queue_main)
	call	k_queue_get
.LVL23:
	mv	s1,a0
.LVL24:
	.loc 1 58 9 is_stmt 1
.LBB14:
.LBB15:
	.loc 2 349 2
	.loc 2 350 2
	.loc 2 352 2
	.loc 2 352 8 is_stmt 0
	li	a1,-2
	addi	a0,a0,8
.LVL25:
	call	atomic_and
.LVL26:
	.loc 2 354 2 is_stmt 1
	.loc 2 354 14 is_stmt 0
	andi	a0,a0,1
.LBE15:
.LBE14:
	.loc 1 58 12
	beq	a0,zero,.L12
	.loc 1 59 13 is_stmt 1
	lw	a5,4(s1)
	mv	a0,s1
	jalr	a5
.LVL27:
.L12:
	.loc 1 62 9
	call	k_yield
.LVL28:
	.loc 1 55 11
	.loc 1 56 14 is_stmt 0
	j	.L13
	.cfi_endproc
.LFE69:
	.size	work_queue_main, .-work_queue_main
	.section	.rodata.k_work_q_start.str1.4,"aMS",@progbits,1
	.align	2
.LC0:
	.string	"work_q_thread"
	.section	.text.k_work_q_start,"ax",@progbits
	.align	1
	.globl	k_work_q_start
	.type	k_work_q_start, @function
k_work_q_start:
.LFB70:
	.loc 1 67 1 is_stmt 1
	.cfi_startproc
	.loc 1 68 5
	.loc 1 67 1 is_stmt 0
	addi	sp,sp,-16
	.cfi_def_cfa_offset 16
	sw	s0,8(sp)
	sw	ra,12(sp)
	.cfi_offset 8, -8
	.cfi_offset 1, -4
	addi	s0,sp,16
	.cfi_def_cfa 8, 0
	.loc 1 68 5
	lui	a0,%hi(g_work_queue_main)
	.loc 1 67 1
	.loc 1 68 5
	li	a1,20
	addi	a0,a0,%lo(g_work_queue_main)
	call	k_queue_init
.LVL29:
	.loc 1 69 5 is_stmt 1
	.loc 1 72 1 is_stmt 0
	lw	s0,8(sp)
	.cfi_restore 8
	.cfi_def_cfa 2, 16
	lw	ra,12(sp)
	.cfi_restore 1
	.loc 1 69 12
	lui	a3,%hi(work_queue_main)
	lui	a1,%hi(.LC0)
	lui	a0,%hi(work_q_thread)
	.loc 1 72 1
	.loc 1 69 12
	li	a4,30
	addi	a3,a3,%lo(work_queue_main)
	li	a2,1536
	addi	a1,a1,%lo(.LC0)
	addi	a0,a0,%lo(work_q_thread)
	.loc 1 72 1
	addi	sp,sp,16
	.cfi_def_cfa_offset 0
	.loc 1 69 12
	tail	k_thread_create
.LVL30:
	.cfi_endproc
.LFE70:
	.size	k_work_q_start, .-k_work_q_start
	.section	.text.k_work_init,"ax",@progbits
	.align	1
	.globl	k_work_init
	.type	k_work_init, @function
k_work_init:
.LFB71:
	.loc 1 76 1 is_stmt 1
	.cfi_startproc
.LVL31:
	.loc 1 77 5
	.loc 1 76 1 is_stmt 0
	addi	sp,sp,-16
	.cfi_def_cfa_offset 16
	sw	s0,8(sp)
	sw	s1,4(sp)
	sw	s2,0(sp)
	sw	ra,12(sp)
	.cfi_offset 8, -8
	.cfi_offset 9, -12
	.cfi_offset 18, -16
	.cfi_offset 1, -4
	addi	s0,sp,16
	.cfi_def_cfa 8, 0
	.loc 1 76 1
	mv	s1,a0
	mv	s2,a1
	.loc 1 77 7
	bne	a0,zero,.L21
	.loc 1 77 25 is_stmt 1 discriminator 1
	call	user_vAssertCalled
.LVL32:
.L21:
	.loc 1 79 2
	addi	a0,s1,8
	call	atomic_clear
.LVL33:
	.loc 1 80 5
	.loc 1 82 1 is_stmt 0
	lw	ra,12(sp)
	.cfi_restore 1
	lw	s0,8(sp)
	.cfi_restore 8
	.cfi_def_cfa 2, 16
	.loc 1 80 19
	sw	s2,4(s1)
	.loc 1 81 5 is_stmt 1
	.loc 1 82 1 is_stmt 0
	li	a0,0
	lw	s1,4(sp)
	.cfi_restore 9
.LVL34:
	lw	s2,0(sp)
	.cfi_restore 18
.LVL35:
	addi	sp,sp,16
	.cfi_def_cfa_offset 0
	jr	ra
	.cfi_endproc
.LFE71:
	.size	k_work_init, .-k_work_init
	.section	.text.k_work_submit,"ax",@progbits
	.align	1
	.globl	k_work_submit
	.type	k_work_submit, @function
k_work_submit:
.LFB72:
	.loc 1 85 1 is_stmt 1
	.cfi_startproc
.LVL36:
	.loc 1 86 5
	.loc 1 85 1 is_stmt 0
	addi	sp,sp,-16
	.cfi_def_cfa_offset 16
	sw	s0,12(sp)
	.cfi_offset 8, -4
	addi	s0,sp,16
	.cfi_def_cfa 8, 0
	.loc 1 87 1
	lw	s0,12(sp)
	.cfi_restore 8
	.cfi_def_cfa 2, 16
	.loc 1 85 1
	mv	a1,a0
	.loc 1 86 5
	lui	a0,%hi(g_work_queue_main)
.LVL37:
	.loc 1 87 1
	.loc 1 86 5
	addi	a0,a0,%lo(g_work_queue_main)
	.loc 1 87 1
	addi	sp,sp,16
	.cfi_def_cfa_offset 0
	.loc 1 86 5
	tail	k_work_submit_to_queue
.LVL38:
	.cfi_endproc
.LFE72:
	.size	k_work_submit, .-k_work_submit
	.section	.text.k_delayed_work_init,"ax",@progbits
	.align	1
	.globl	k_delayed_work_init
	.type	k_delayed_work_init, @function
k_delayed_work_init:
.LFB74:
	.loc 1 111 1 is_stmt 1
	.cfi_startproc
.LVL39:
	.loc 1 112 5
	.loc 1 111 1 is_stmt 0
	addi	sp,sp,-32
	.cfi_def_cfa_offset 32
	sw	s0,24(sp)
	sw	s1,20(sp)
	sw	ra,28(sp)
	.cfi_offset 8, -8
	.cfi_offset 9, -12
	.cfi_offset 1, -4
	addi	s0,sp,32
	.cfi_def_cfa 8, 0
	.loc 1 111 1
	mv	s1,a0
	.loc 1 112 7
	bne	a0,zero,.L26
	sw	a1,-20(s0)
	.loc 1 112 25 is_stmt 1 discriminator 1
	call	user_vAssertCalled
.LVL40:
	lw	a1,-20(s0)
.LVL41:
.L26:
	.loc 1 114 5
	mv	a0,s1
	call	k_work_init
.LVL42:
	.loc 1 115 5
	lui	a1,%hi(work_timeout)
	mv	a2,s1
	addi	a0,s1,16
	addi	a1,a1,%lo(work_timeout)
	call	k_timer_init
.LVL43:
	.loc 1 116 5
	.loc 1 117 1 is_stmt 0
	lw	ra,28(sp)
	.cfi_restore 1
	lw	s0,24(sp)
	.cfi_restore 8
	.cfi_def_cfa 2, 32
	.loc 1 116 18
	sw	zero,12(s1)
	.loc 1 117 1
	lw	s1,20(sp)
	.cfi_restore 9
.LVL44:
	addi	sp,sp,32
	.cfi_def_cfa_offset 0
	jr	ra
	.cfi_endproc
.LFE74:
	.size	k_delayed_work_init, .-k_delayed_work_init
	.section	.text.k_delayed_work_cancel,"ax",@progbits
	.align	1
	.globl	k_delayed_work_cancel
	.type	k_delayed_work_cancel, @function
k_delayed_work_cancel:
.LFB78:
	.loc 1 171 1 is_stmt 1
	.cfi_startproc
.LVL45:
	.loc 1 172 5
	.loc 1 174 5
.LBB18:
.LBB19:
	.loc 2 331 2
.LBE19:
.LBE18:
	.loc 1 171 1 is_stmt 0
	addi	sp,sp,-16
	.cfi_def_cfa_offset 16
	sw	s0,8(sp)
	sw	s1,4(sp)
	sw	s2,0(sp)
	sw	ra,12(sp)
	.cfi_offset 8, -8
	.cfi_offset 9, -12
	.cfi_offset 18, -16
	.cfi_offset 1, -4
	addi	s0,sp,16
	.cfi_def_cfa 8, 0
	.loc 1 171 1
	mv	s1,a0
.LBB21:
.LBB20:
	.loc 2 331 21
	addi	a0,a0,8
.LVL46:
	call	atomic_get
.LVL47:
	.loc 2 333 2 is_stmt 1
	.loc 2 333 12 is_stmt 0
	andi	s2,a0,1
.LVL48:
.LBE20:
.LBE21:
	.loc 1 174 8
	bne	s2,zero,.L30
	.loc 1 179 5 is_stmt 1
	.loc 1 179 8 is_stmt 0
	lw	a5,12(s1)
	beq	a5,zero,.L31
	.loc 1 184 5 is_stmt 1
	addi	a0,s1,16
	call	k_timer_stop
.LVL49:
	.loc 1 185 5
	.loc 1 185 18 is_stmt 0
	sw	zero,12(s1)
	.loc 1 186 5 is_stmt 1
	.loc 1 186 25 is_stmt 0
	sw	zero,28(s1)
	.loc 1 187 5 is_stmt 1
	.loc 1 187 26 is_stmt 0
	sw	zero,32(s1)
.LVL50:
.L28:
	.loc 1 191 1
	lw	ra,12(sp)
	.cfi_remember_state
	.cfi_restore 1
	lw	s0,8(sp)
	.cfi_restore 8
	.cfi_def_cfa 2, 16
	lw	s1,4(sp)
	.cfi_restore 9
.LVL51:
	mv	a0,s2
	lw	s2,0(sp)
	.cfi_restore 18
	addi	sp,sp,16
	.cfi_def_cfa_offset 0
	jr	ra
.LVL52:
.L30:
	.cfi_restore_state
	.loc 1 175 13
	li	s2,-119
	j	.L28
.L31:
.L29:
.LVL53:
	.loc 1 190 5 is_stmt 1
	.loc 1 180 13 is_stmt 0
	li	s2,-22
	.loc 1 190 12
	j	.L28
	.cfi_endproc
.LFE78:
	.size	k_delayed_work_cancel, .-k_delayed_work_cancel
	.section	.text.k_delayed_work_submit_to_queue.constprop.0,"ax",@progbits
	.align	1
	.type	k_delayed_work_submit_to_queue.constprop.0, @function
k_delayed_work_submit_to_queue.constprop.0:
.LFB86:
	.loc 1 119 12 is_stmt 1
	.cfi_startproc
.LVL54:
	.loc 1 123 5
	.loc 1 126 5
	.loc 1 119 12 is_stmt 0
	addi	sp,sp,-32
	.cfi_def_cfa_offset 32
	sw	s0,24(sp)
	sw	s1,20(sp)
	sw	s2,16(sp)
	sw	ra,28(sp)
	.cfi_offset 8, -8
	.cfi_offset 9, -12
	.cfi_offset 18, -16
	.cfi_offset 1, -4
	addi	s0,sp,32
	.cfi_def_cfa 8, 0
	.loc 1 126 13
	lw	a4,12(a0)
	.loc 1 119 12
	mv	s1,a0
	lui	s2,%hi(g_work_queue_main)
	.loc 1 126 8
	bne	a4,zero,.L34
.LVL55:
.L38:
	.loc 1 140 5 is_stmt 1
	.loc 1 140 8 is_stmt 0
	beq	a1,zero,.L35
	.loc 1 147 3 is_stmt 1
	addi	a0,s1,16
	.loc 1 148 16 is_stmt 0
	addi	s2,s2,%lo(g_work_queue_main)
	.loc 1 147 3
	call	k_timer_start
.LVL56:
	.loc 1 148 3 is_stmt 1
	.loc 1 148 16 is_stmt 0
	sw	s2,12(s1)
	j	.L42
.LVL57:
.L34:
.L37:
	sw	a1,-20(s0)
	.loc 1 126 22
	addi	a3,s2,%lo(g_work_queue_main)
	.loc 1 127 13
	li	a5,-112
	.loc 1 126 22
	bne	a4,a3,.L33
	.loc 1 132 5 is_stmt 1
	.loc 1 133 9
	.loc 1 133 15 is_stmt 0
	call	k_delayed_work_cancel
.LVL58:
	.loc 1 135 12
	lw	a1,-20(s0)
	.loc 1 133 15
	mv	a5,a0
.LVL59:
	.loc 1 135 9 is_stmt 1
	.loc 1 135 12 is_stmt 0
	bge	a0,zero,.L38
.LVL60:
.L33:
	.loc 1 155 1
	lw	ra,28(sp)
	.cfi_remember_state
	.cfi_restore 1
	lw	s0,24(sp)
	.cfi_restore 8
	.cfi_def_cfa 2, 32
	lw	s1,20(sp)
	.cfi_restore 9
.LVL61:
	lw	s2,16(sp)
	.cfi_restore 18
	mv	a0,a5
	addi	sp,sp,32
	.cfi_def_cfa_offset 0
	jr	ra
.LVL62:
.L35:
	.cfi_restore_state
	.loc 1 142 9 is_stmt 1
	mv	a1,s1
	addi	a0,s2,%lo(g_work_queue_main)
	call	k_work_submit_to_queue
.LVL63:
	.loc 1 143 9
	.loc 1 143 22 is_stmt 0
	sw	zero,12(s1)
.L42:
	.loc 1 151 6
	li	a5,0
	j	.L33
	.cfi_endproc
.LFE86:
	.size	k_delayed_work_submit_to_queue.constprop.0, .-k_delayed_work_submit_to_queue.constprop.0
	.section	.text.k_delayed_work_submit_periodic,"ax",@progbits
	.align	1
	.globl	k_delayed_work_submit_periodic
	.type	k_delayed_work_submit_periodic, @function
k_delayed_work_submit_periodic:
.LFB77:
	.loc 1 165 1 is_stmt 1
	.cfi_startproc
.LVL64:
	.loc 1 166 2
.LBB24:
.LBB25:
	.loc 2 409 2
	.loc 2 411 2
.LBE25:
.LBE24:
	.loc 1 165 1 is_stmt 0
	addi	sp,sp,-16
	.cfi_def_cfa_offset 16
	sw	s0,8(sp)
	sw	s1,4(sp)
	sw	s2,0(sp)
	sw	ra,12(sp)
	.cfi_offset 8, -8
	.cfi_offset 9, -12
	.cfi_offset 18, -16
	.cfi_offset 1, -4
	addi	s0,sp,16
	.cfi_def_cfa 8, 0
	.loc 1 165 1
	mv	s1,a0
	mv	s2,a1
.LBB27:
.LBB26:
	.loc 2 411 2
	addi	a0,a0,8
.LVL65:
	li	a1,2
.LVL66:
	call	atomic_or
.LVL67:
.LBE26:
.LBE27:
	.loc 1 167 2 is_stmt 1
	.loc 1 168 1 is_stmt 0
	lw	s0,8(sp)
	.cfi_restore 8
	.cfi_def_cfa 2, 16
	lw	ra,12(sp)
	.cfi_restore 1
	.loc 1 167 9
	mv	a1,s2
	mv	a0,s1
	.loc 1 168 1
	lw	s2,0(sp)
	.cfi_restore 18
.LVL68:
	lw	s1,4(sp)
	.cfi_restore 9
.LVL69:
	addi	sp,sp,16
	.cfi_def_cfa_offset 0
	.loc 1 167 9
	tail	k_delayed_work_submit_to_queue.constprop.0
.LVL70:
	.cfi_endproc
.LFE77:
	.size	k_delayed_work_submit_periodic, .-k_delayed_work_submit_periodic
	.section	.text.k_delayed_work_submit,"ax",@progbits
	.align	1
	.globl	k_delayed_work_submit
	.type	k_delayed_work_submit, @function
k_delayed_work_submit:
.LFB76:
	.loc 1 158 1 is_stmt 1
	.cfi_startproc
.LVL71:
	.loc 1 159 2
.LBB30:
.LBB31:
	.loc 2 391 2
	.loc 2 393 2
.LBE31:
.LBE30:
	.loc 1 158 1 is_stmt 0
	addi	sp,sp,-16
	.cfi_def_cfa_offset 16
	sw	s0,8(sp)
	sw	s1,4(sp)
	sw	s2,0(sp)
	sw	ra,12(sp)
	.cfi_offset 8, -8
	.cfi_offset 9, -12
	.cfi_offset 18, -16
	.cfi_offset 1, -4
	addi	s0,sp,16
	.cfi_def_cfa 8, 0
	.loc 1 158 1
	mv	s1,a0
	mv	s2,a1
.LBB33:
.LBB32:
	.loc 2 393 2
	addi	a0,a0,8
.LVL72:
	li	a1,-3
.LVL73:
	call	atomic_and
.LVL74:
.LBE32:
.LBE33:
	.loc 1 160 2 is_stmt 1
	.loc 1 161 1 is_stmt 0
	lw	s0,8(sp)
	.cfi_restore 8
	.cfi_def_cfa 2, 16
	lw	ra,12(sp)
	.cfi_restore 1
	.loc 1 160 9
	mv	a1,s2
	mv	a0,s1
	.loc 1 161 1
	lw	s2,0(sp)
	.cfi_restore 18
.LVL75:
	lw	s1,4(sp)
	.cfi_restore 9
.LVL76:
	addi	sp,sp,16
	.cfi_def_cfa_offset 0
	.loc 1 160 9
	tail	k_delayed_work_submit_to_queue.constprop.0
.LVL77:
	.cfi_endproc
.LFE76:
	.size	k_delayed_work_submit, .-k_delayed_work_submit
	.section	.text.k_delayed_work_remaining_get,"ax",@progbits
	.align	1
	.globl	k_delayed_work_remaining_get
	.type	k_delayed_work_remaining_get, @function
k_delayed_work_remaining_get:
.LFB79:
	.loc 1 194 1 is_stmt 1
	.cfi_startproc
.LVL78:
	.loc 1 195 5
	.loc 1 196 5
	.loc 1 198 5
	.loc 1 198 8 is_stmt 0
	beq	a0,zero,.L50
	.loc 1 202 5 is_stmt 1
.LVL79:
	.loc 1 203 5
	.loc 1 194 1 is_stmt 0
	addi	sp,sp,-16
	.cfi_def_cfa_offset 16
	sw	s0,8(sp)
	sw	ra,12(sp)
	sw	s1,4(sp)
	sw	s2,0(sp)
	.cfi_offset 8, -8
	.cfi_offset 1, -4
	.cfi_offset 9, -12
	.cfi_offset 18, -16
	addi	s0,sp,16
	.cfi_def_cfa 8, 0
	.loc 1 203 19
	lw	s1,28(a0)
	.loc 1 203 50
	lw	s2,32(a0)
	.loc 1 203 32
	call	k_now_ms
.LVL80:
	.loc 1 204 5 is_stmt 1
	.loc 1 203 29 is_stmt 0
	add	s1,s1,s2
.LVL81:
	sub	a0,s1,a0
.LVL82:
	bge	a0,zero,.L47
	li	a0,0
.LVL83:
.L47:
	.loc 1 208 1
	lw	ra,12(sp)
	.cfi_restore 1
	lw	s0,8(sp)
	.cfi_restore 8
	.cfi_def_cfa 2, 16
	lw	s1,4(sp)
	.cfi_restore 9
	lw	s2,0(sp)
	.cfi_restore 18
	addi	sp,sp,16
	.cfi_def_cfa_offset 0
	jr	ra
.LVL84:
.L50:
	.loc 1 199 16
	li	a0,0
.LVL85:
	.loc 1 208 1
	ret
	.cfi_endproc
.LFE79:
	.size	k_delayed_work_remaining_get, .-k_delayed_work_remaining_get
	.section	.text.k_delayed_work_del_timer,"ax",@progbits
	.align	1
	.globl	k_delayed_work_del_timer
	.type	k_delayed_work_del_timer, @function
k_delayed_work_del_timer:
.LFB80:
	.loc 1 211 1 is_stmt 1
	.cfi_startproc
.LVL86:
	.loc 1 212 5
	.loc 1 212 7 is_stmt 0
	beq	a0,zero,.L64
	.loc 1 211 1 discriminator 1
	addi	sp,sp,-16
	.cfi_def_cfa_offset 16
	sw	s0,8(sp)
	sw	s1,4(sp)
	sw	ra,12(sp)
	.cfi_offset 8, -8
	.cfi_offset 9, -12
	.cfi_offset 1, -4
	addi	s0,sp,16
	.cfi_def_cfa 8, 0
	.loc 1 212 20 discriminator 1
	lw	a5,16(a0)
	mv	s1,a0
	beq	a5,zero,.L55
	.loc 1 215 5 is_stmt 1
	addi	a0,a0,16
.LVL87:
	call	k_timer_delete
.LVL88:
	.loc 1 216 5
	.loc 1 216 27 is_stmt 0
	sw	zero,16(s1)
.L55:
	.loc 1 217 1
	lw	ra,12(sp)
	.cfi_restore 1
	lw	s0,8(sp)
	.cfi_restore 8
	.cfi_def_cfa 2, 16
	lw	s1,4(sp)
	.cfi_restore 9
.LVL89:
	addi	sp,sp,16
	.cfi_def_cfa_offset 0
	jr	ra
.LVL90:
.L64:
	ret
	.cfi_endproc
.LFE80:
	.size	k_delayed_work_del_timer, .-k_delayed_work_del_timer
	.section	.text.k_delayed_work_free,"ax",@progbits
	.align	1
	.globl	k_delayed_work_free
	.type	k_delayed_work_free, @function
k_delayed_work_free:
.LFB81:
	.loc 1 221 1 is_stmt 1
	.cfi_startproc
.LVL91:
	.loc 1 222 5
	.loc 1 224 5
.LBB36:
.LBB37:
	.loc 2 331 2
.LBE37:
.LBE36:
	.loc 1 221 1 is_stmt 0
	addi	sp,sp,-16
	.cfi_def_cfa_offset 16
	sw	s0,8(sp)
	sw	s1,4(sp)
	sw	s2,0(sp)
	sw	ra,12(sp)
	.cfi_offset 8, -8
	.cfi_offset 9, -12
	.cfi_offset 18, -16
	.cfi_offset 1, -4
	addi	s0,sp,16
	.cfi_def_cfa 8, 0
	.loc 1 221 1
	mv	s1,a0
.LBB39:
.LBB38:
	.loc 2 331 21
	addi	a0,a0,8
.LVL92:
	call	atomic_get
.LVL93:
	.loc 2 333 2 is_stmt 1
	.loc 2 333 12 is_stmt 0
	andi	s2,a0,1
.LVL94:
.LBE38:
.LBE39:
	.loc 1 224 8
	bne	s2,zero,.L69
	.loc 1 229 2 is_stmt 1
	mv	a0,s1
	call	k_delayed_work_del_timer
.LVL95:
	.loc 1 230 5
	.loc 1 230 18 is_stmt 0
	sw	zero,12(s1)
	.loc 1 231 5 is_stmt 1
	.loc 1 231 25 is_stmt 0
	sw	zero,28(s1)
	.loc 1 232 5 is_stmt 1
	.loc 1 232 26 is_stmt 0
	sw	zero,32(s1)
.LVL96:
.L67:
	.loc 1 236 1
	lw	ra,12(sp)
	.cfi_remember_state
	.cfi_restore 1
	lw	s0,8(sp)
	.cfi_restore 8
	.cfi_def_cfa 2, 16
	lw	s1,4(sp)
	.cfi_restore 9
.LVL97:
	mv	a0,s2
	lw	s2,0(sp)
	.cfi_restore 18
	addi	sp,sp,16
	.cfi_def_cfa_offset 0
	jr	ra
.LVL98:
.L69:
	.cfi_restore_state
.L68:
	.loc 1 235 5 is_stmt 1
	.loc 1 225 13 is_stmt 0
	li	s2,-119
	.loc 1 235 12
	j	.L67
	.cfi_endproc
.LFE81:
	.size	k_delayed_work_free, .-k_delayed_work_free
	.comm	g_work_queue_main,12,4
	.comm	work_q_thread,4,4
	.text
.Letext0:
	.file 3 "/home/dinhquangha/intern/Ai-Thinker-WB2/toolchain/riscv/Linux/lib/gcc/riscv64-unknown-elf/10.2.0/include/stdint-gcc.h"
	.file 4 "/home/dinhquangha/intern/Ai-Thinker-WB2/components/network/ble/blestack/src/common/include/zephyr/types.h"
	.file 5 "/home/dinhquangha/intern/Ai-Thinker-WB2/components/network/ble/blestack/src/common/include/misc/dlist.h"
	.file 6 "/home/dinhquangha/intern/Ai-Thinker-WB2/components/network/ble/blestack/src/port/include/bl_port.h"
	.file 7 "/home/dinhquangha/intern/Ai-Thinker-WB2/components/network/ble/blestack/src/common/include/work_q.h"
	.file 8 "/home/dinhquangha/intern/Ai-Thinker-WB2/components/network/ble/blestack/src/port/include/zephyr.h"
	.file 9 "/home/dinhquangha/intern/Ai-Thinker-WB2/components/network/ble/blestack/src/common/log.h"