	.file	"bl_sys_ota_cli.c"
	.option nopic
	.attribute arch, "rv32i2p0_m2p0_f2p0_c2p0"
	.attribute unaligned_access, 0
	.attribute stack_align, 16
	.text
.Ltext0:
	.cfi_sections	.debug_frame
	.section	.rodata._check_ota_header.str1.4,"aMS",@progbits,1
	.align	2
.LC0:
	.string	"[OTA] [HEADER] ota header is "
	.align	2
.LC1:
	.string	"\r\n"
	.align	2
.LC2:
	.string	"[OTA] [HEADER] file type is "
	.align	2
.LC3:
	.string	"XZ"
	.align	2
.LC4:
	.string	"[OTA] [HEADER] file length (exclude ota header) is %lu\r\n"
	.align	2
.LC5:
	.string	"[OTA] [HEADER] ver_hardware is "
	.align	2
.LC6:
	.string	"[OTA] [HEADER] ver_software is "
	.align	2
.LC7:
	.string	"[OTA] [HEADER] sha256 is "
	.align	2
.LC8:
	.string	"%02X"
	.section	.text._check_ota_header,"ax",@progbits
	.align	1
	.type	_check_ota_header, @function
_check_ota_header:
.LFB5:
	.file 1 "/home/dinhquangha/Ai-Thinker-WB2/components/sys/blota/bl_sys_ota_cli.c"
	.loc 1 43 1
	.cfi_startproc
.LVL0:
	.loc 1 44 5
	.loc 1 45 5
	.loc 1 47 5
	.loc 1 43 1 is_stmt 0
	addi	sp,sp,-80
	.cfi_def_cfa_offset 80
	sw	ra,76(sp)
	sw	s0,72(sp)
	sw	s1,68(sp)
	.cfi_offset 1, -4
	.cfi_offset 8, -8
	.cfi_offset 9, -12
	addi	s0,sp,80
	.cfi_def_cfa 8, 0
	sw	s2,64(sp)
	sw	s3,60(sp)
	sw	s4,56(sp)
	mv	s1,a0
	.cfi_offset 18, -16
	.cfi_offset 19, -20
	.cfi_offset 20, -24
	mv	s3,a1
	mv	s4,a2
	.loc 1 47 5
	mv	a1,a0
.LVL1:
	li	a2,16
.LVL2:
	.loc 1 43 1
	.loc 1 47 5
	addi	a0,s0,-68
.LVL3:
	call	memcpy
.LVL4:
	.loc 1 48 5 is_stmt 1
	.loc 1 49 5 is_stmt 0
	lui	a0,%hi(.LC0)
	addi	a0,a0,%lo(.LC0)
	.loc 1 48 41
	sb	zero,-52(s0)
	.loc 1 49 5 is_stmt 1
	call	puts
.LVL5:
	.loc 1 50 5
	addi	a0,s0,-68
	call	puts
.LVL6:
	.loc 1 51 5
	lui	s2,%hi(.LC1)
	addi	a0,s2,%lo(.LC1)
	call	puts
.LVL7:
	.loc 1 53 5
	li	a2,4
	addi	a1,s1,16
	addi	a0,s0,-68
	call	memcpy
.LVL8:
	.loc 1 54 5
	.loc 1 55 5 is_stmt 0
	lui	a0,%hi(.LC2)
	addi	a0,a0,%lo(.LC2)
	.loc 1 54 39
	sb	zero,-64(s0)
	.loc 1 55 5 is_stmt 1
	call	puts
.LVL9:
	.loc 1 56 5
	addi	a0,s0,-68
	call	puts
.LVL10:
	.loc 1 57 5
	addi	a0,s2,%lo(.LC1)
	call	puts
.LVL11:
	.loc 1 58 5
	.loc 1 58 9 is_stmt 0
	lui	a1,%hi(.LC3)
	addi	a1,a1,%lo(.LC3)
	addi	a0,s0,-68
	call	strstr
.LVL12:
	.loc 1 58 8
	snez	a0,a0
	sw	a0,0(s4)
	.loc 1 64 5 is_stmt 1
	li	a2,4
	addi	a1,s1,20
	mv	a0,s3
	call	memcpy
.LVL13:
	.loc 1 65 5
	lw	a1,0(s3)
	lui	a0,%hi(.LC4)
	addi	a0,a0,%lo(.LC4)
	call	printf
.LVL14:
	.loc 1 67 5
	addi	a1,s1,32
	li	a2,16
	addi	a0,s0,-68
	call	memcpy
.LVL15:
	.loc 1 68 5
	.loc 1 69 5 is_stmt 0
	lui	a0,%hi(.LC5)
	addi	a0,a0,%lo(.LC5)
	.loc 1 68 47
	sb	zero,-52(s0)
	.loc 1 69 5 is_stmt 1
	call	puts
.LVL16:
	.loc 1 70 5
	addi	a0,s0,-68
	call	puts
.LVL17:
	.loc 1 71 5
	addi	a0,s2,%lo(.LC1)
	call	puts
.LVL18:
	.loc 1 73 5
	addi	a1,s1,48
	li	a2,16
	addi	a0,s0,-68
	call	memcpy
.LVL19:
	.loc 1 74 5
	.loc 1 75 5 is_stmt 0
	lui	a0,%hi(.LC6)
	addi	a0,a0,%lo(.LC6)
	.loc 1 74 47
	sb	zero,-52(s0)
	.loc 1 75 5 is_stmt 1
	call	puts
.LVL20:
	.loc 1 76 5
	addi	a0,s0,-68
	call	puts
.LVL21:
	.loc 1 77 5
	addi	a0,s2,%lo(.LC1)
	call	puts
.LVL22:
	.loc 1 79 5
	addi	a1,s1,64
	li	a2,32
	addi	a0,s0,-68
	call	memcpy
.LVL23:
	.loc 1 80 5
	.loc 1 81 5 is_stmt 0
	lui	a0,%hi(.LC7)
	addi	a0,a0,%lo(.LC7)
	.loc 1 80 41
	sb	zero,-36(s0)
	.loc 1 81 5 is_stmt 1
	.loc 1 82 12 is_stmt 0
	li	s1,0
.LVL24:
	.loc 1 81 5
	call	puts
.LVL25:
	.loc 1 82 5 is_stmt 1
	.loc 1 82 17
	.loc 1 83 9 is_stmt 0
	lui	s4,%hi(.LC8)
.LVL26:
	.loc 1 82 5
	li	s3,32
.LVL27:
.L2:
	.loc 1 83 9 is_stmt 1 discriminator 3
	.loc 1 83 27 is_stmt 0 discriminator 3
	addi	a5,s0,-68
	add	a5,a5,s1
	.loc 1 83 9 discriminator 3
	lbu	a1,0(a5)
	addi	a0,s4,%lo(.LC8)
	.loc 1 82 54 discriminator 3
	addi	s1,s1,1
.LVL28:
	.loc 1 83 9 discriminator 3
	call	printf
.LVL29:
	.loc 1 82 53 is_stmt 1 discriminator 3
	.loc 1 82 17 discriminator 3
	.loc 1 82 5 is_stmt 0 discriminator 3
	bne	s1,s3,.L2
	.loc 1 85 5 is_stmt 1
	addi	a0,s2,%lo(.LC1)
	call	puts
.LVL30:
	.loc 1 87 5
	.loc 1 88 1 is_stmt 0
	lw	ra,76(sp)
	.cfi_restore 1
	lw	s0,72(sp)
	.cfi_restore 8
	.cfi_def_cfa 2, 80
	lw	s1,68(sp)
	.cfi_restore 9
.LVL31:
	lw	s2,64(sp)
	.cfi_restore 18
	lw	s3,60(sp)
	.cfi_restore 19
	lw	s4,56(sp)
	.cfi_restore 20
	li	a0,0
	addi	sp,sp,80
	.cfi_def_cfa_offset 0
	jr	ra
	.cfi_endproc
.LFE5:
	.size	_check_ota_header, .-_check_ota_header
	.section	.rodata.ota_tcp_server_handle.str1.4,"aMS",@progbits,1
	.align	2
.LC9:
	.string	"RAW"
	.align	2
.LC10:
	.string	"FW"
	.align	2
.LC11:
	.string	"Open Default FW partition failed\r\n"
	.align	2
.LC12:
	.string	"Error in socket\r\n"
	.align	2
.LC13:
	.string	"Unable to bind\r\n"
	.align	2
.LC14:
	.string	"bind success.\r\n"
	.align	2
.LC15:
	.string	"Starting OTA test. OTA bin addr is %p\r\n"
	.align	2
.LC16:
	.string	"[OTA] [TEST] activeID is %u\r\n"
	.align	2
.LC17:
	.string	"PtTable_Get_Active_Entries fail\r\n"
	.align	2
.LC18:
	.string	"Starting OTA test. OTA size is %lu\r\n"
	.align	2
.LC19:
	.string	"[OTA] [TEST] activeIndex is %u, use OTA address=%08x\r\n"
	.align	2
.LC20:
	.string	"[OTA] [TEST] Erase flash with size %lu..."
	.align	2
.LC21:
	.string	"Done\r\n"
	.align	2
.LC22:
	.string	"Listen error\r\n"
	.align	2
.LC23:
	.string	"listen success.\r\n"
	.align	2
.LC24:
	.string	"IPV4 new client connected from (%s: %d)\r\n"
	.align	2
.LC25:
	.string	"ret = %d, err = %d\n\r"
	.align	2
.LC26:
	.string	"[OTA] [TEST] seems ota file ends unexpectedly, already transfer %u\r\n"
	.align	2
.LC27:
	.string	"total = %d, ret = %d\n\r"
	.align	2
.LC28:
	.string	"[OTA] [TCP] Assert for unexpected error %d\r\n"
	.align	2
.LC29:
	.string	"[OTA] [TCP] Update bin_size to %lu, file status %s\r\n"
	.align	2
.LC30:
	.string	"Will Write %u to %08X from %p letf %lu bytes.\r\n"
	.align	2
.LC31:
	.string	"\r\nCalculated SHA256 Checksum:"
	.align	2
.LC32:
	.string	"\r\nHeader SET SHA256 Checksum:"
	.align	2
.LC33:
	.string	"[OTA] [TCP] SHA256 NOT Correct\r\n"
	.align	2
.LC34:
	.string	"[OTA] [TCP] prepare OTA partition info\r\n"
	.align	2
.LC35:
	.string	"[OTA] [TCP] Update PARTITION, partition len is %lu\r\n"
	.align	2
.LC36:
	.string	"[OTA] [TCP] Rebooting\r\n"
	.section	.text.ota_tcp_server_handle,"ax",@progbits
	.align	1
	.globl	ota_tcp_server_handle
	.type	ota_tcp_server_handle, @function
ota_tcp_server_handle:
.LFB8:
	.loc 1 404 1 is_stmt 1
	.cfi_startproc
	.loc 1 405 5
	.loc 1 406 5
	.loc 1 407 5
	.loc 1 408 5
	.loc 1 409 5
	.loc 1 410 5
	.loc 1 411 5
	.loc 1 416 5
	.loc 1 418 5
	.loc 1 419 5
	.loc 1 421 5
	.loc 1 404 1 is_stmt 0
	addi	sp,sp,-352
	.cfi_def_cfa_offset 352
	sw	s0,344(sp)
	sw	ra,348(sp)
	.cfi_offset 8, -8
	.cfi_offset 1, -4
	addi	s0,sp,352
	.cfi_def_cfa 8, 0
	sw	s1,340(sp)
	sw	s2,336(sp)
	sw	s3,332(sp)
	sw	s4,328(sp)
	sw	s5,324(sp)
	sw	s6,320(sp)
	sw	s7,316(sp)
	sw	s8,312(sp)
	sw	s9,308(sp)
	sw	s10,304(sp)
	sw	s11,300(sp)
	.loc 1 421 11
	lui	a0,%hi(.LC10)
	.loc 1 404 1
	.cfi_offset 9, -12
	.cfi_offset 18, -16
	.cfi_offset 19, -20
	.cfi_offset 20, -24
	.cfi_offset 21, -28
	.cfi_offset 22, -32
	.cfi_offset 23, -36
	.cfi_offset 24, -40
	.cfi_offset 25, -44
	.cfi_offset 26, -48
	.cfi_offset 27, -52
	.loc 1 421 11
	li	a2,1
	addi	a1,s0,-324
	addi	a0,a0,%lo(.LC10)
	call	bl_mtd_open
.LVL32:
	.loc 1 422 5 is_stmt 1
	.loc 1 422 8 is_stmt 0
	beq	a0,zero,.L6
	.loc 1 423 9 is_stmt 1
	lui	a0,%hi(.LC11)
.LVL33:
	addi	a0,a0,%lo(.LC11)
	call	puts
.LVL34:
	.loc 1 424 9
.L5:
	.loc 1 630 1 is_stmt 0
	lw	ra,348(sp)
	.cfi_remember_state
	.cfi_restore 1
	lw	s0,344(sp)
	.cfi_restore 8
	.cfi_def_cfa 2, 352
	lw	s1,340(sp)
	.cfi_restore 9
	lw	s2,336(sp)
	.cfi_restore 18
	lw	s3,332(sp)
	.cfi_restore 19
	lw	s4,328(sp)
	.cfi_restore 20
	lw	s5,324(sp)
	.cfi_restore 21
	lw	s6,320(sp)
	.cfi_restore 22
	lw	s7,316(sp)
	.cfi_restore 23
	lw	s8,312(sp)
	.cfi_restore 24
	lw	s9,308(sp)
	.cfi_restore 25
	lw	s10,304(sp)
	.cfi_restore 26
	lw	s11,300(sp)
	.cfi_restore 27
	addi	sp,sp,352
	.cfi_def_cfa_offset 0
	jr	ra
.LVL35:
.L6:
	.cfi_restore_state
	.loc 1 436 5 is_stmt 1
	.loc 1 436 19 is_stmt 0
	li	a2,0
	li	a1,1
	li	a0,2
.LVL36:
	call	lwip_socket
.LVL37:
	mv	s3,a0
.LVL38:
	.loc 1 436 8
	bge	a0,zero,.L8
	.loc 1 437 9 is_stmt 1
	lui	a0,%hi(.LC12)
.LVL39:
	addi	a0,a0,%lo(.LC12)
	call	printf
.LVL40:
	.loc 1 438 9
.L34:
	.loc 1 481 9
	lw	a0,-324(s0)
	call	bl_mtd_close
.LVL41:
	.loc 1 482 9
	j	.L5
.LVL42:
.L8:
	.loc 1 448 5
	.loc 1 449 28 is_stmt 0
	li	a0,4096
.LVL43:
	.loc 1 448 28
	li	a5,2
	.loc 1 449 28
	addi	a0,a0,-763
	.loc 1 448 28
	sb	a5,-303(s0)
	.loc 1 449 5 is_stmt 1
	.loc 1 449 28 is_stmt 0
	call	lwip_htons
.LVL44:
	.loc 1 449 26
	sh	a0,-302(s0)
	.loc 1 450 5 is_stmt 1
	.loc 1 451 5 is_stmt 0
	li	a2,8
	li	a1,0
	addi	a0,s0,-296
	.loc 1 450 33
	sw	zero,-300(s0)
	.loc 1 451 5 is_stmt 1
	call	memset
.LVL45:
	.loc 1 454 5
	.loc 1 454 9 is_stmt 0
	li	a2,16
	addi	a1,s0,-304
	mv	a0,s3
	call	lwip_bind
.LVL46:
	.loc 1 454 8
	li	s2,-1
	bne	a0,s2,.L9
	.loc 1 455 9 is_stmt 1
	lui	a0,%hi(.LC13)
	addi	a0,a0,%lo(.LC13)
.L33:
	.loc 1 502 9 is_stmt 0
	call	printf
.LVL47:
	.loc 1 503 9 is_stmt 1
	j	.L5
.L9:
	.loc 1 459 5
	lui	a0,%hi(.LC14)
	addi	a0,a0,%lo(.LC14)
	call	printf
.LVL48:
	.loc 1 461 5
	.loc 1 462 5
	.loc 1 463 5
	.loc 1 465 5
	.loc 1 465 19 is_stmt 0
	li	a0,512
	call	pvPortMalloc
.LVL49:
	mv	s1,a0
.LVL50:
	.loc 1 467 5 is_stmt 1
	.loc 1 468 5
	.loc 1 469 5
	.loc 1 470 5
	.loc 1 472 5
	.loc 1 472 16 is_stmt 0
	call	hal_boot2_get_active_partition
.LVL51:
	mv	s4,a0
.LVL52:
	.loc 1 474 5 is_stmt 1
	lui	a0,%hi(.LC15)
	mv	a1,s1
	addi	a0,a0,%lo(.LC15)
	call	printf
.LVL53:
	.loc 1 476 5
	lui	a0,%hi(.LC16)
	mv	a1,s4
	addi	a0,a0,%lo(.LC16)
	call	printf
.LVL54:
	.loc 1 478 5
	.loc 1 478 9 is_stmt 0
	addi	a1,s0,-208
	li	a0,0
	call	hal_boot2_get_active_entries
.LVL55:
	.loc 1 478 8
	beq	a0,zero,.L10
	.loc 1 479 9 is_stmt 1
	lui	a0,%hi(.LC17)
	addi	a0,a0,%lo(.LC17)
	call	printf
.LVL56:
	.loc 1 480 9
	mv	a0,s1
	call	vPortFree
.LVL57:
	j	.L34
.L10:
	.loc 1 484 5
	.loc 1 484 32 is_stmt 0
	lbu	a5,-206(s0)
	.loc 1 484 14
	addi	a3,s0,-64
	.loc 1 492 5
	lui	a0,%hi(.LC18)
	.loc 1 484 32
	seqz	a5,a5
	.loc 1 484 14
	slli	a4,a5,2
	.loc 1 485 30
	addi	a5,a5,4
	slli	a5,a5,2
	add	a5,a3,a5
	lw	a1,-140(a5)
	.loc 1 484 14
	add	a4,a3,a4
	.loc 1 492 5
	addi	a0,a0,%lo(.LC18)
	.loc 1 484 14
	lw	s8,-132(a4)
.LVL58:
	.loc 1 485 5 is_stmt 1
	.loc 1 485 14 is_stmt 0
	sw	a1,-312(s0)
	.loc 1 486 5 is_stmt 1
.LVL59:
	.loc 1 487 5
	.loc 1 492 5
	call	printf
.LVL60:
	.loc 1 494 5
	lbu	a1,-206(s0)
	lui	a0,%hi(.LC19)
	mv	a2,s8
	addi	a0,a0,%lo(.LC19)
	call	printf
.LVL61:
	.loc 1 496 5
	lw	a1,-312(s0)
	lui	a0,%hi(.LC20)
	addi	a0,a0,%lo(.LC20)
	call	printf
.LVL62:
	.loc 1 497 5
	call	hal_update_mfg_ptable
.LVL63:
	.loc 1 498 5
	lw	a0,-324(s0)
	call	bl_mtd_erase_all
.LVL64:
	.loc 1 499 5
	lui	a0,%hi(.LC21)
	addi	a0,a0,%lo(.LC21)
	call	printf
.LVL65:
	.loc 1 501 5
	.loc 1 501 9 is_stmt 0
	li	a1,5
	mv	a0,s3
	call	lwip_listen
.LVL66:
	.loc 1 501 8
	bne	a0,s2,.L11
	.loc 1 502 9 is_stmt 1
	lui	a0,%hi(.LC22)
	addi	a0,a0,%lo(.LC22)
	j	.L33
.L11:
	.loc 1 505 5
	lui	a0,%hi(.LC23)
	addi	a0,a0,%lo(.LC23)
	call	printf
.LVL67:
	.loc 1 506 5
	.loc 1 506 14 is_stmt 0
	li	a5,16
	.loc 1 513 5
	addi	a0,s0,-172
	.loc 1 506 14
	sw	a5,-320(s0)
	.loc 1 508 5 is_stmt 1
.LVL68:
	.loc 1 509 5
	.loc 1 510 5
	.loc 1 511 5
	.loc 1 511 12 is_stmt 0
	sw	zero,-316(s0)
	.loc 1 513 5 is_stmt 1
	call	utils_sha256_init
.LVL69:
	.loc 1 514 5
	addi	a0,s0,-172
	call	utils_sha256_starts
.LVL70:
	.loc 1 515 5
	li	a2,32
	li	a1,0
	addi	a0,s0,-272
	call	memset
.LVL71:
	.loc 1 517 5
	li	a2,16
	li	a1,0
	addi	a0,s0,-288
	call	memset
.LVL72:
	.loc 1 518 5
	.loc 1 518 11 is_stmt 0
	lui	a4,%hi(errno)
	sw	zero,%lo(errno)(a4)
	sw	a4,-340(s0)
.LBB2:
	.loc 1 570 21
	lui	a4,%hi(.LC3)
	addi	a5,a4,%lo(.LC3)
	lui	s7,%hi(.LC9)
.LBE2:
	.loc 1 510 22
	li	s6,0
	.loc 1 461 9
	li	s2,0
	.loc 1 509 18
	li	s4,0
.LVL73:
	.loc 1 508 19
	li	s10,0
.LBB3:
	.loc 1 598 25
	lui	s9,%hi(.LC8)
	.loc 1 570 21
	sw	a5,-344(s0)
	addi	s7,s7,%lo(.LC9)
.LVL74:
.L26:
.LBE3:
	.loc 1 519 5 is_stmt 1
.LBB4:
	.loc 1 520 9
	.loc 1 520 21 is_stmt 0
	addi	a2,s0,-320
	addi	a1,s0,-288
	mv	a0,s3
	call	lwip_accept
.LVL75:
	mv	s5,a0
.LVL76:
	.loc 1 524 9 is_stmt 1
	addi	a0,s0,-284
.LVL77:
	call	ip4addr_ntoa
.LVL78:
	sw	a0,-348(s0)
	.loc 1 524 121 is_stmt 0
	lhu	a0,-286(s0)
	call	lwip_htons
.LVL79:
	.loc 1 524 9
	lw	a1,-348(s0)
	lui	a5,%hi(.LC24)
	.loc 1 524 121
	mv	a2,a0
	.loc 1 524 9
	addi	a0,a5,%lo(.LC24)
	call	printf
.LVL80:
	.loc 1 526 9 is_stmt 1
	.loc 1 526 13 is_stmt 0
	li	a4,1
	sw	a4,-308(s0)
	.loc 1 527 9 is_stmt 1
	addi	a3,s0,-308
	li	a4,4
	li	a2,1
	li	a1,6
	mv	a0,s5
	call	lwip_setsockopt
.LVL81:
.L12:
	.loc 1 533 9
	.loc 1 535 13
	.loc 1 535 19 is_stmt 0
	li	s11,512
	li	a3,0
	sub	a2,s11,s10
	add	a1,s1,s10
	mv	a0,s5
	call	lwip_recv
.LVL82:
	.loc 1 537 13 is_stmt 1
	.loc 1 537 16 is_stmt 0
	bge	a0,zero,.L13
	.loc 1 538 17 is_stmt 1
	lw	a5,-340(s0)
	mv	a1,a0
	lui	a0,%hi(.LC25)
.LVL83:
	lw	a2,%lo(errno)(a5)
	addi	a0,a0,%lo(.LC25)
	call	printf
.LVL84:
	.loc 1 539 17
	j	.L26
.LVL85:
.L13:
	.loc 1 541 17
	.loc 1 541 23 is_stmt 0
	add	s2,s2,a0
.LVL86:
	.loc 1 542 17 is_stmt 1
	.loc 1 542 20 is_stmt 0
	bne	a0,zero,.L15
	.loc 1 543 21 is_stmt 1
	lui	a0,%hi(.LC26)
.LVL87:
	mv	a1,s2
	addi	a0,a0,%lo(.LC26)
	call	printf
.LVL88:
	.loc 1 544 21
	j	.L26
.LVL89:
.L15:
	.loc 1 546 17
	lui	a5,%hi(.LC27)
	mv	a2,a0
	sw	a0,-348(s0)
	mv	a1,s2
	addi	a0,a5,%lo(.LC27)
.LVL90:
	call	printf
.LVL91:
	.loc 1 547 17
	.loc 1 547 31 is_stmt 0
	lw	a4,-348(s0)
	add	s10,s10,a4
.LVL92:
	.loc 1 550 17 is_stmt 1
	.loc 1 550 20 is_stmt 0
	bne	s6,zero,.L16
	.loc 1 551 21 is_stmt 1
	.loc 1 551 24 is_stmt 0
	li	a4,511
	bleu	s10,a4,.L12
	.loc 1 553 28 is_stmt 1
	.loc 1 553 31 is_stmt 0
	beq	s10,s11,.L18
	.loc 1 554 25 is_stmt 1
	lui	a0,%hi(.LC28)
	mv	a1,s10
	addi	a0,a0,%lo(.LC28)
	call	printf
.LVL93:
.L19:
	.loc 1 555 25 discriminator 1
	.loc 1 557 25 discriminator 1
	.loc 1 555 31 discriminator 1
	j	.L19
.L18:
	.loc 1 560 21
.LVL94:
	.loc 1 561 21
	.loc 1 562 21
	.loc 1 562 25 is_stmt 0
	addi	a2,s0,-316
	addi	a1,s0,-312
	mv	a0,s1
	call	_check_ota_header
.LVL95:
	.loc 1 562 24
	bne	a0,zero,.L27
	.loc 1 566 21 is_stmt 1
	li	a2,32
	addi	a1,s1,64
	addi	a0,s0,-240
	call	memcpy
.LVL96:
	.loc 1 568 21
	.loc 1 570 21 is_stmt 0
	lw	a5,-316(s0)
	lw	a1,-312(s0)
	lw	a2,-344(s0)
	.loc 1 568 27
	addi	s2,s2,-512
.LVL97:
	.loc 1 569 21 is_stmt 1
	.loc 1 570 21
	bne	a5,zero,.L20
	mv	a2,s7
.L20:
	.loc 1 570 21 is_stmt 0 discriminator 4
	lui	a0,%hi(.LC29)
	addi	a0,a0,%lo(.LC29)
	call	printf
.LVL98:
	.loc 1 571 21 is_stmt 1 discriminator 4
	.loc 1 569 35 is_stmt 0 discriminator 4
	li	s10,0
	.loc 1 560 38 discriminator 4
	li	s6,1
	.loc 1 571 21 discriminator 4
	j	.L12
.LVL99:
.L16:
	.loc 1 574 17 is_stmt 1
	.loc 1 574 30 is_stmt 0
	lw	a4,-312(s0)
	.loc 1 574 20
	beq	a4,s2,.L21
	.loc 1 575 21 is_stmt 1
	.loc 1 575 24 is_stmt 0
	li	a3,511
	bleu	s10,a3,.L12
	.loc 1 577 28 is_stmt 1
	.loc 1 577 31 is_stmt 0
	beq	s10,s11,.L21
	.loc 1 578 25 is_stmt 1
	lui	a0,%hi(.LC28)
	mv	a1,s10
	addi	a0,a0,%lo(.LC28)
	call	printf
.LVL100:
.L22:
	.loc 1 579 25 discriminator 2
	.loc 1 581 25 discriminator 2
	.loc 1 579 31 discriminator 2
	j	.L22
.L21:
	.loc 1 589 17
	lui	a5,%hi(.LC30)
	sub	a4,a4,s2
	mv	a3,s1
	add	a2,s4,s8
	mv	a1,s10
	addi	a0,a5,%lo(.LC30)
	call	printf
.LVL101:
	.loc 1 590 17
	mv	a2,s10
	mv	a1,s1
	addi	a0,s0,-172
	call	utils_sha256_update
.LVL102:
	.loc 1 591 17
	lw	a0,-324(s0)
	mv	a2,s10
	mv	a1,s4
	mv	a3,s1
	call	bl_mtd_write
.LVL103:
	.loc 1 592 17
	.loc 1 594 20 is_stmt 0
	lw	a4,-312(s0)
	.loc 1 592 30
	add	s4,s4,s10
.LVL104:
	.loc 1 593 17 is_stmt 1
	.loc 1 594 17
	.loc 1 593 31 is_stmt 0
	li	s10,0
	.loc 1 594 20
	bne	s2,a4,.L12
	.loc 1 595 21 is_stmt 1
	addi	a1,s0,-272
	addi	a0,s0,-172
	call	utils_sha256_finish
.LVL105:
	.loc 1 596 21
	lui	a0,%hi(.LC31)
	addi	a0,a0,%lo(.LC31)
	call	puts
.LVL106:
	.loc 1 597 21
	.loc 1 597 33
	.loc 1 597 28 is_stmt 0
	li	a5,0
	.loc 1 597 21
	li	s10,32
.LVL107:
.L23:
	.loc 1 598 25 is_stmt 1 discriminator 3
	.loc 1 598 53 is_stmt 0 discriminator 3
	addi	a4,s0,-272
	add	a3,a4,a5
	.loc 1 598 25 discriminator 3
	lbu	a1,0(a3)
	addi	a0,s9,%lo(.LC8)
	.loc 1 598 53 discriminator 3
	sw	a5,-348(s0)
	.loc 1 598 25 discriminator 3
	call	printf
.LVL108:
	.loc 1 597 60 is_stmt 1 discriminator 3
	.loc 1 597 61 is_stmt 0 discriminator 3
	lw	a5,-348(s0)
	addi	a5,a5,1
.LVL109:
	.loc 1 597 33 is_stmt 1 discriminator 3
	.loc 1 597 21 is_stmt 0 discriminator 3
	bne	a5,s10,.L23
	.loc 1 600 21 is_stmt 1
	lui	a0,%hi(.LC32)
	addi	a0,a0,%lo(.LC32)
	call	puts
.LVL110:
	.loc 1 601 21
	.loc 1 601 33
	.loc 1 601 28 is_stmt 0
	li	a5,0
	.loc 1 601 21
	li	s10,32
.LVL111:
.L24:
	.loc 1 602 25 is_stmt 1 discriminator 3
	.loc 1 602 50 is_stmt 0 discriminator 3
	addi	a4,s0,-240
	add	a3,a4,a5
	.loc 1 602 25 discriminator 3
	lbu	a1,0(a3)
	addi	a0,s9,%lo(.LC8)
	.loc 1 602 50 discriminator 3
	sw	a5,-348(s0)
	.loc 1 602 25 discriminator 3
	call	printf
.LVL112:
	.loc 1 601 57 is_stmt 1 discriminator 3
	.loc 1 601 58 is_stmt 0 discriminator 3
	lw	a5,-348(s0)
	addi	a5,a5,1
.LVL113:
	.loc 1 601 33 is_stmt 1 discriminator 3
	.loc 1 601 21 is_stmt 0 discriminator 3
	bne	a5,s10,.L24
	.loc 1 604 21 is_stmt 1
	lui	a0,%hi(.LC1)
	addi	a0,a0,%lo(.LC1)
	call	puts
.LVL114:
	.loc 1 605 21
	.loc 1 605 25 is_stmt 0
	li	a2,32
	addi	a1,s0,-272
	addi	a0,s0,-240
	call	memcmp
.LVL115:
	.loc 1 605 24
	beq	a0,zero,.L25
	.loc 1 607 25 is_stmt 1
	lui	a0,%hi(.LC33)
	addi	a0,a0,%lo(.LC33)
	call	printf
.LVL116:
	.loc 1 608 25
	.loc 1 593 31 is_stmt 0
	li	s10,0
	.loc 1 608 25
	j	.L26
.L25:
	.loc 1 610 21 is_stmt 1
	lui	a0,%hi(.LC34)
	addi	a0,a0,%lo(.LC34)
	call	printf
.LVL117:
	.loc 1 611 21
	.loc 1 611 33 is_stmt 0
	lw	a1,-312(s0)
	.loc 1 612 21
	lui	a0,%hi(.LC35)
	addi	a0,a0,%lo(.LC35)
	.loc 1 611 33
	sw	a1,-180(s0)
	.loc 1 612 21 is_stmt 1
	call	printf
.LVL118:
	.loc 1 613 21
	addi	a0,s0,-208
	call	hal_boot2_update_ptable
.LVL119:
	.loc 1 614 21
	lui	a0,%hi(.LC36)
	addi	a0,a0,%lo(.LC36)
	call	printf
.LVL120:
	.loc 1 615 21
	mv	a0,s3
	call	lwip_close
.LVL121:
	.loc 1 616 21
	li	a0,1000
	call	vTaskDelay
.LVL122:
	.loc 1 617 21
	.loc 1 593 31 is_stmt 0
	li	s10,0
	.loc 1 617 21
	call	hal_reboot
.LVL123:
	j	.L12
.LVL124:
.L27:
	.loc 1 560 38
	li	s6,1
.LVL125:
.LBE4:
	.loc 1 519 11 is_stmt 1
	.loc 1 519 15 is_stmt 0
	j	.L26
	.cfi_endproc
.LFE8:
	.size	ota_tcp_server_handle, .-ota_tcp_server_handle
	.section	.text.ota_dump_cmd,"ax",@progbits
	.align	1
	.type	ota_dump_cmd, @function
ota_dump_cmd:
.LFB10:
	.loc 1 638 1 is_stmt 1
	.cfi_startproc
.LVL126:
	.loc 1 639 5
	.loc 1 638 1 is_stmt 0
	addi	sp,sp,-16
	.cfi_def_cfa_offset 16
	sw	s0,12(sp)
	.cfi_offset 8, -4
	addi	s0,sp,16
	.cfi_def_cfa 8, 0
	.loc 1 640 1
	lw	s0,12(sp)
	.cfi_restore 8
	.cfi_def_cfa 2, 16
	addi	sp,sp,16
	.cfi_def_cfa_offset 0
	.loc 1 639 5
	tail	hal_boot2_dump
.LVL127:
	.cfi_endproc
.LFE10:
	.size	ota_dump_cmd, .-ota_dump_cmd
	.section	.rodata.ota_tcp_server.str1.4,"aMS",@progbits,1
	.align	2
.LC37:
	.string	"ota_tcp_server"
	.section	.text.ota_tcp_server,"ax",@progbits
	.align	1
	.type	ota_tcp_server, @function
ota_tcp_server:
.LFB9:
	.loc 1 633 1 is_stmt 1
	.cfi_startproc
.LVL128:
	.loc 1 634 5
	.loc 1 633 1 is_stmt 0
	addi	sp,sp,-16
	.cfi_def_cfa_offset 16
	sw	s0,12(sp)
	.cfi_offset 8, -4
	addi	s0,sp,16
	.cfi_def_cfa 8, 0
	.loc 1 635 1
	lw	s0,12(sp)
	.cfi_restore 8
	.cfi_def_cfa 2, 16
	.loc 1 634 5
	lui	a1,%hi(.LC37)
.LVL129:
	lui	a0,%hi(ota_tcp_server_handle)
.LVL130:
	.loc 1 635 1
	.loc 1 634 5
	li	a5,0
	li	a4,15
	li	a3,0
.LVL131:
	li	a2,1024
.LVL132:
	addi	a1,a1,%lo(.LC37)
	addi	a0,a0,%lo(ota_tcp_server_handle)
	.loc 1 635 1
	addi	sp,sp,16
	.cfi_def_cfa_offset 0
	.loc 1 634 5
	tail	xTaskCreate
.LVL133:
	.cfi_endproc
.LFE9:
	.size	ota_tcp_server, .-ota_tcp_server
	.section	.rodata.ota_tcp_api_cmd.str1.4,"aMS",@progbits,1
	.align	2
.LC38:
	.string	"Usage: %s IP\r\n"
	.align	2
.LC39:
	.string	"gethostbyname Failed\r\n"
	.align	2
.LC40:
	.string	"start ota failed\r\n"
	.align	2
.LC41:
	.string	"Server ip Address : %s\r\n"
	.align	2
.LC42:
	.string	"Error in connect\r\n"
	.align	2
.LC43:
	.string	"Will Write %u to %08X from %p\r\n"
	.align	2
.LC44:
	.string	"update error\r\n"
	.align	2
.LC45:
	.string	"finish error\r\n"
	.section	.text.ota_tcp_api_cmd,"ax",@progbits
	.align	1
	.type	ota_tcp_api_cmd, @function
ota_tcp_api_cmd:
.LFB6:
	.loc 1 91 1 is_stmt 1
	.cfi_startproc
.LVL134:
	.loc 1 92 5
	.loc 1 93 5
	.loc 1 94 5
	.loc 1 95 5
	.loc 1 97 5
	.loc 1 91 1 is_stmt 0
	addi	sp,sp,-96
	.cfi_def_cfa_offset 96
	sw	s0,88(sp)
	sw	s1,84(sp)
	sw	ra,92(sp)
	sw	s2,80(sp)
	sw	s3,76(sp)
	sw	s4,72(sp)
	sw	s5,68(sp)
	sw	s6,64(sp)
	sw	s7,60(sp)
	sw	s8,56(sp)
	sw	s9,52(sp)
	sw	s10,48(sp)
	sw	s11,44(sp)
	.cfi_offset 8, -8
	.cfi_offset 9, -12
	.cfi_offset 1, -4
	.cfi_offset 18, -16
	.cfi_offset 19, -20
	.cfi_offset 20, -24
	.cfi_offset 21, -28
	.cfi_offset 22, -32
	.cfi_offset 23, -36
	.cfi_offset 24, -40
	.cfi_offset 25, -44
	.cfi_offset 26, -48
	.cfi_offset 27, -52
	addi	s0,sp,96
	.cfi_def_cfa 8, 0
	.loc 1 97 8
	li	a5,3
	.loc 1 91 1
	mv	s1,a3
	.loc 1 97 8
	beq	a2,a5,.L40
	.loc 1 98 9 is_stmt 1
	.loc 1 201 1 is_stmt 0
	lw	s0,88(sp)
	.cfi_remember_state
	.cfi_restore 8
	.cfi_def_cfa 2, 96
	lw	ra,92(sp)
	.cfi_restore 1
	lw	s1,84(sp)
	.cfi_restore 9
	lw	s2,80(sp)
	.cfi_restore 18
	lw	s3,76(sp)
	.cfi_restore 19
	lw	s4,72(sp)
	.cfi_restore 20
	lw	s5,68(sp)
	.cfi_restore 21
	lw	s6,64(sp)
	.cfi_restore 22
	lw	s7,60(sp)
	.cfi_restore 23
	lw	s8,56(sp)
	.cfi_restore 24
	lw	s9,52(sp)
	.cfi_restore 25
	lw	s10,48(sp)
	.cfi_restore 26
	lw	s11,44(sp)
	.cfi_restore 27
	.loc 1 98 9
	lw	a1,0(a3)
.LVL135:
	lui	a0,%hi(.LC38)
.LVL136:
	.loc 1 201 1
	.loc 1 98 9
	addi	a0,a0,%lo(.LC38)
	.loc 1 201 1
	addi	sp,sp,96
	.cfi_def_cfa_offset 0
	.loc 1 98 9
	tail	printf
.LVL137:
.L40:
	.cfi_restore_state
	.loc 1 101 5 is_stmt 1
	.loc 1 101 16 is_stmt 0
	lw	a0,4(a3)
.LVL138:
	call	lwip_gethostbyname
.LVL139:
	mv	s2,a0
.LVL140:
	.loc 1 102 5 is_stmt 1
	.loc 1 102 8 is_stmt 0
	bne	a0,zero,.L41
	.loc 1 103 9 is_stmt 1
	.loc 1 201 1 is_stmt 0
	lw	s0,88(sp)
	.cfi_remember_state
	.cfi_restore 8
	.cfi_def_cfa 2, 96
	lw	ra,92(sp)
	.cfi_restore 1
	lw	s1,84(sp)
	.cfi_restore 9
.LVL141:
	lw	s2,80(sp)
	.cfi_restore 18
	lw	s3,76(sp)
	.cfi_restore 19
	lw	s4,72(sp)
	.cfi_restore 20
	lw	s5,68(sp)
	.cfi_restore 21
	lw	s6,64(sp)
	.cfi_restore 22
	lw	s7,60(sp)
	.cfi_restore 23
	lw	s8,56(sp)
	.cfi_restore 24
	lw	s9,52(sp)
	.cfi_restore 25
	lw	s10,48(sp)
	.cfi_restore 26
	lw	s11,44(sp)
	.cfi_restore 27
	.loc 1 103 9
	lui	a0,%hi(.LC39)
.LVL142:
	.loc 1 201 1
	.loc 1 103 9
	addi	a0,a0,%lo(.LC39)
	.loc 1 201 1
	addi	sp,sp,96
	.cfi_def_cfa_offset 0
	.loc 1 103 9
	tail	puts
.LVL143:
.L41:
	.cfi_restore_state
	.loc 1 109 5 is_stmt 1
	.loc 1 109 19 is_stmt 0
	li	a2,0
	li	a1,1
	li	a0,2
.LVL144:
	call	lwip_socket
.LVL145:
	mv	s3,a0
.LVL146:
	.loc 1 109 8
	bge	a0,zero,.L42
	.loc 1 110 9 is_stmt 1
	.loc 1 201 1 is_stmt 0
	lw	s0,88(sp)
	.cfi_remember_state
	.cfi_restore 8
	.cfi_def_cfa 2, 96
	lw	ra,92(sp)
	.cfi_restore 1
	lw	s1,84(sp)
	.cfi_restore 9
.LVL147:
	lw	s2,80(sp)
	.cfi_restore 18
.LVL148:
	lw	s3,76(sp)
	.cfi_restore 19
	lw	s4,72(sp)
	.cfi_restore 20
	lw	s5,68(sp)
	.cfi_restore 21
	lw	s6,64(sp)
	.cfi_restore 22
	lw	s7,60(sp)
	.cfi_restore 23
	lw	s8,56(sp)
	.cfi_restore 24
	lw	s9,52(sp)
	.cfi_restore 25
	lw	s10,48(sp)
	.cfi_restore 26
	lw	s11,44(sp)
	.cfi_restore 27
	.loc 1 110 9
	lui	a0,%hi(.LC12)
.LVL149:
	.loc 1 201 1
	.loc 1 110 9
	addi	a0,a0,%lo(.LC12)
	.loc 1 201 1
	addi	sp,sp,96
	.cfi_def_cfa_offset 0
	.loc 1 110 9
	tail	printf
.LVL150:
.L42:
	.cfi_restore_state
	.loc 1 115 5 is_stmt 1
	li	a2,16
	li	a1,0
	addi	a0,s0,-80
.LVL151:
	call	memset
.LVL152:
	.loc 1 116 5
	.loc 1 117 21 is_stmt 0
	li	a0,4096
	.loc 1 116 21
	li	a5,2
	.loc 1 117 21
	addi	a0,a0,-763
	.loc 1 116 21
	sb	a5,-79(s0)
	.loc 1 117 5 is_stmt 1
	.loc 1 117 21 is_stmt 0
	call	lwip_htons
.LVL153:
	.loc 1 118 23
	lw	a5,16(s2)
	.loc 1 117 19
	sh	a0,-78(s0)
	.loc 1 118 5 is_stmt 1
	.loc 1 120 16 is_stmt 0
	addi	a0,s0,-84
	.loc 1 118 23
	lw	a5,0(a5)
	.loc 1 118 19
	lw	a5,0(a5)
	sw	a5,-76(s0)
	.loc 1 119 5 is_stmt 1
	.loc 1 119 14 is_stmt 0
	sw	a5,-84(s0)
	.loc 1 120 5 is_stmt 1
	.loc 1 120 16 is_stmt 0
	call	ip4addr_ntoa
.LVL154:
	mv	s4,a0
.LVL155:
	.loc 1 122 5 is_stmt 1
	.loc 1 123 5
	.loc 1 123 21 is_stmt 0
	lw	a0,8(s1)
.LVL156:
	call	atoi
.LVL157:
	mv	s6,a0
.LVL158:
	.loc 1 124 5 is_stmt 1
	.loc 1 125 5
	.loc 1 125 11 is_stmt 0
	call	hosal_ota_start
.LVL159:
	.loc 1 126 5 is_stmt 1
	.loc 1 126 8 is_stmt 0
	beq	a0,zero,.L43
	.loc 1 127 9 is_stmt 1
	lui	a0,%hi(.LC40)
.LVL160:
	addi	a0,a0,%lo(.LC40)
	call	printf
.LVL161:
	.loc 1 128 9
.L39:
	.loc 1 201 1 is_stmt 0
	lw	ra,92(sp)
	.cfi_remember_state
	.cfi_restore 1
	lw	s0,88(sp)
	.cfi_restore 8
	.cfi_def_cfa 2, 96
	lw	s1,84(sp)
	.cfi_restore 9
	lw	s2,80(sp)
	.cfi_restore 18
	lw	s3,76(sp)
	.cfi_restore 19
.LVL162:
	lw	s4,72(sp)
	.cfi_restore 20
	lw	s5,68(sp)
	.cfi_restore 21
	lw	s6,64(sp)
	.cfi_restore 22
.LVL163:
	lw	s7,60(sp)
	.cfi_restore 23
	lw	s8,56(sp)
	.cfi_restore 24
	lw	s9,52(sp)
	.cfi_restore 25
	lw	s10,48(sp)
	.cfi_restore 26
	lw	s11,44(sp)
	.cfi_restore 27
	addi	sp,sp,96
	.cfi_def_cfa_offset 0
	jr	ra
.LVL164:
.L43:
	.cfi_restore_state
	.loc 1 131 5 is_stmt 1
	.loc 1 131 19 is_stmt 0
	li	a0,512
.LVL165:
	call	pvPortMalloc
.LVL166:
	mv	s2,a0
.LVL167:
	.loc 1 133 5 is_stmt 1
	.loc 1 135 5
	lui	a0,%hi(.LC41)
.LVL168:
	mv	a1,s4
	addi	a0,a0,%lo(.LC41)
	call	printf
.LVL169:
	.loc 1 137 5
	.loc 1 137 9 is_stmt 0
	li	a2,16
	addi	a1,s0,-80
	mv	a0,s3
	call	lwip_connect
.LVL170:
	mv	s4,a0
.LVL171:
	.loc 1 137 8
	beq	a0,zero,.L45
	.loc 1 138 9 is_stmt 1
	lui	a0,%hi(.LC42)
	addi	a0,a0,%lo(.LC42)
.LVL172:
.L58:
	.loc 1 191 21 is_stmt 0
	call	printf
.LVL173:
	.loc 1 192 21 is_stmt 1
	j	.L48
.LVL174:
.L45:
	.loc 1 144 5
	call	bl_wdt_disable
.LVL175:
	.loc 1 133 37 is_stmt 0
	li	s7,0
	.loc 1 133 18
	li	s1,0
.LVL176:
	.loc 1 148 15
	li	s8,512
	.loc 1 158 13
	lui	s9,%hi(.LC27)
	.loc 1 176 13
	lui	s10,%hi(.LC43)
	.loc 1 162 20
	li	s11,511
.LVL177:
.L46:
	.loc 1 146 5 is_stmt 1
	.loc 1 148 9
	.loc 1 148 15 is_stmt 0
	sub	a2,s8,s1
	add	a1,s2,s1
	mv	a0,s3
	call	lwip_read
.LVL178:
	mv	s5,a0
.LVL179:
	.loc 1 149 9 is_stmt 1
	.loc 1 149 12 is_stmt 0
	bge	a0,zero,.L47
	.loc 1 150 13 is_stmt 1
	lui	a5,%hi(errno)
	lw	a2,%lo(errno)(a5)
	mv	a1,a0
	lui	a0,%hi(.LC25)
.LVL180:
	addi	a0,a0,%lo(.LC25)
	call	printf
.LVL181:
	.loc 1 151 13
.L48:
	.loc 1 199 5
	mv	a0,s3
	call	lwip_close
.LVL182:
	.loc 1 200 5
	mv	a0,s2
	call	vPortFree
.LVL183:
	j	.L39
.LVL184:
.L47:
	.loc 1 153 13
	.loc 1 153 19 is_stmt 0
	add	s4,s4,a0
.LVL185:
	.loc 1 154 13 is_stmt 1
	.loc 1 154 16 is_stmt 0
	bne	a0,zero,.L49
	.loc 1 155 17 is_stmt 1
	lui	a0,%hi(.LC26)
.LVL186:
	mv	a1,s4
	addi	a0,a0,%lo(.LC26)
	call	printf
.LVL187:
	.loc 1 156 17
	j	.L48
.LVL188:
.L49:
	.loc 1 158 13
	mv	a2,a0
	mv	a1,s4
	addi	a0,s9,%lo(.LC27)
.LVL189:
	call	printf
.LVL190:
	.loc 1 159 13
	.loc 1 159 27 is_stmt 0
	add	s1,s1,s5
.LVL191:
	.loc 1 161 13 is_stmt 1
	.loc 1 161 16 is_stmt 0
	beq	s6,s4,.L50
	.loc 1 162 17 is_stmt 1
	.loc 1 162 20 is_stmt 0
	bleu	s1,s11,.L46
	.loc 1 164 24 is_stmt 1
	.loc 1 164 27 is_stmt 0
	beq	s1,s8,.L50
	.loc 1 165 21 is_stmt 1
	lui	a0,%hi(.LC28)
	mv	a1,s1
	addi	a0,a0,%lo(.LC28)
	call	printf
.LVL192:
.L52:
	.loc 1 166 21 discriminator 1
	.loc 1 168 21 discriminator 1
	.loc 1 166 27 discriminator 1
	j	.L52
.L50:
	.loc 1 176 13
	mv	a3,s2
	mv	a2,s7
	mv	a1,s1
	addi	a0,s10,%lo(.LC43)
	call	printf
.LVL193:
	.loc 1 177 13
	.loc 1 177 19 is_stmt 0
	mv	a3,s1
	mv	a2,s2
	mv	a1,s7
	mv	a0,s6
	call	hosal_ota_update
.LVL194:
	.loc 1 178 13 is_stmt 1
	.loc 1 178 16 is_stmt 0
	beq	a0,zero,.L53
	.loc 1 179 17 is_stmt 1
	lui	a0,%hi(.LC44)
.LVL195:
	addi	a0,a0,%lo(.LC44)
	j	.L58
.LVL196:
.L53:
	.loc 1 184 13
	.loc 1 184 26 is_stmt 0
	add	s7,s7,s1
.LVL197:
	.loc 1 185 13 is_stmt 1
	.loc 1 186 13
	.loc 1 185 27 is_stmt 0
	li	s1,0
	.loc 1 186 16
	bne	s6,s4,.L46
	.loc 1 187 17 is_stmt 1
	mv	a0,s3
.LVL198:
	call	lwip_close
.LVL199:
	.loc 1 188 17
	mv	a0,s2
	call	vPortFree
.LVL200:
	.loc 1 189 17
	.loc 1 189 23 is_stmt 0
	li	a1,1
	li	a0,1
	call	hosal_ota_finish
.LVL201:
	.loc 1 190 17 is_stmt 1
	.loc 1 190 20 is_stmt 0
	beq	a0,zero,.L46
	.loc 1 191 21 is_stmt 1
	lui	a0,%hi(.LC45)
.LVL202:
	addi	a0,a0,%lo(.LC45)
	j	.L58
	.cfi_endproc
.LFE6:
	.size	ota_tcp_api_cmd, .-ota_tcp_api_cmd
	.section	.rodata.ota_tcp_cmd.str1.4,"aMS",@progbits,1
	.align	2
.LC46:
	.string	"Will Write %u to %08X from %p left %lu.\r\n"
	.section	.text.ota_tcp_cmd,"ax",@progbits
	.align	1
	.type	ota_tcp_cmd, @function
ota_tcp_cmd:
.LFB7:
	.loc 1 204 1
	.cfi_startproc
.LVL203:
	.loc 1 205 5
	.loc 1 206 5
	.loc 1 207 5
	.loc 1 208 5
	.loc 1 209 5
	.loc 1 210 5
	.loc 1 211 5
	.loc 1 212 5
	.loc 1 213 5
	.loc 1 215 5
	.loc 1 215 8 is_stmt 0
	li	a5,2
	beq	a2,a5,.L60
	.loc 1 216 9 is_stmt 1
	lw	a1,0(a3)
.LVL204:
	lui	a0,%hi(.LC38)
.LVL205:
	addi	a0,a0,%lo(.LC38)
	tail	printf
.LVL206:
.L60:
	.loc 1 204 1 is_stmt 0
	addi	sp,sp,-320
	.cfi_def_cfa_offset 320
	sw	s0,312(sp)
	sw	s1,308(sp)
	sw	s2,304(sp)
	sw	ra,316(sp)
	sw	s3,300(sp)
	sw	s4,296(sp)
	sw	s5,292(sp)
	sw	s6,288(sp)
	sw	s7,284(sp)
	sw	s8,280(sp)
	sw	s9,276(sp)
	sw	s10,272(sp)
	sw	s11,268(sp)
	.cfi_offset 8, -8
	.cfi_offset 9, -12
	.cfi_offset 18, -16
	.cfi_offset 1, -4
	.cfi_offset 19, -20
	.cfi_offset 20, -24
	.cfi_offset 21, -28
	.cfi_offset 22, -32
	.cfi_offset 23, -36
	.cfi_offset 24, -40
	.cfi_offset 25, -44
	.cfi_offset 26, -48
	.cfi_offset 27, -52
	addi	s0,sp,320
	.cfi_def_cfa 8, 0
.LBB7:
.LBB8:
	.loc 1 219 16
	lw	a0,4(a3)
.LVL207:
	mv	s2,a2
.LVL208:
	.loc 1 219 5 is_stmt 1
	.loc 1 219 16 is_stmt 0
	call	lwip_gethostbyname
.LVL209:
	mv	s1,a0
.LVL210:
	.loc 1 220 5 is_stmt 1
	.loc 1 220 8 is_stmt 0
	bne	a0,zero,.L61
	.loc 1 221 9 is_stmt 1
.LBE8:
.LBE7:
	.loc 1 401 1 is_stmt 0
	lw	s0,312(sp)
	.cfi_remember_state
	.cfi_restore 8
	.cfi_def_cfa 2, 320
	lw	ra,316(sp)
	.cfi_restore 1
	lw	s1,308(sp)
	.cfi_restore 9
.LVL211:
	lw	s2,304(sp)
	.cfi_restore 18
.LVL212:
	lw	s3,300(sp)
	.cfi_restore 19
	lw	s4,296(sp)
	.cfi_restore 20
	lw	s5,292(sp)
	.cfi_restore 21
	lw	s6,288(sp)
	.cfi_restore 22
	lw	s7,284(sp)
	.cfi_restore 23
	lw	s8,280(sp)
	.cfi_restore 24
	lw	s9,276(sp)
	.cfi_restore 25
	lw	s10,272(sp)
	.cfi_restore 26
	lw	s11,268(sp)
	.cfi_restore 27
.LBB13:
.LBB9:
	.loc 1 221 9
	lui	a0,%hi(.LC39)
.LVL213:
.LBE9:
.LBE13:
	.loc 1 401 1
.LBB14:
.LBB10:
	.loc 1 221 9
	addi	a0,a0,%lo(.LC39)
.LBE10:
.LBE14:
	.loc 1 401 1
	addi	sp,sp,320
	.cfi_def_cfa_offset 0
.LBB15:
.LBB11:
	.loc 1 221 9
	tail	puts
.LVL214:
.L61:
	.cfi_restore_state
	.loc 1 225 5 is_stmt 1
	.loc 1 225 11 is_stmt 0
	lui	a0,%hi(.LC10)
	li	a2,1
	addi	a1,s0,-304
	addi	a0,a0,%lo(.LC10)
	call	bl_mtd_open
.LVL215:
	.loc 1 226 5 is_stmt 1
	.loc 1 226 8 is_stmt 0
	beq	a0,zero,.L62
	.loc 1 227 9 is_stmt 1
	lui	a0,%hi(.LC11)
.LVL216:
	addi	a0,a0,%lo(.LC11)
	call	puts
.LVL217:
	.loc 1 228 9
.L59:
.LBE11:
.LBE15:
	.loc 1 401 1 is_stmt 0
	lw	ra,316(sp)
	.cfi_remember_state
	.cfi_restore 1
	lw	s0,312(sp)
	.cfi_restore 8
	.cfi_def_cfa 2, 320
	lw	s1,308(sp)
	.cfi_restore 9
	lw	s2,304(sp)
	.cfi_restore 18
	lw	s3,300(sp)
	.cfi_restore 19
	lw	s4,296(sp)
	.cfi_restore 20
	lw	s5,292(sp)
	.cfi_restore 21
	lw	s6,288(sp)
	.cfi_restore 22
	lw	s7,284(sp)
	.cfi_restore 23
	lw	s8,280(sp)
	.cfi_restore 24
	lw	s9,276(sp)
	.cfi_restore 25
	lw	s10,272(sp)
	.cfi_restore 26
	lw	s11,268(sp)
	.cfi_restore 27
	addi	sp,sp,320
	.cfi_def_cfa_offset 0
	jr	ra
.LVL218:
.L62:
	.cfi_restore_state
.LBB16:
.LBB12:
	.loc 1 233 5 is_stmt 1
	.loc 1 233 19 is_stmt 0
	li	a2,0
	li	a1,1
	li	a0,2
.LVL219:
	call	lwip_socket
.LVL220:
	mv	s3,a0
.LVL221:
	.loc 1 233 8
	bge	a0,zero,.L64
	.loc 1 234 9 is_stmt 1
	lui	a0,%hi(.LC12)
.LVL222:
	addi	a0,a0,%lo(.LC12)
	call	printf
.LVL223:
	.loc 1 235 9
.L87:
	.loc 1 398 5
	lw	a0,-304(s0)
	call	bl_mtd_close
.LVL224:
	.loc 1 400 5
	j	.L59
.LVL225:
.L64:
	.loc 1 240 5
	li	a2,16
	li	a1,0
	addi	a0,s0,-288
.LVL226:
	call	memset
.LVL227:
	.loc 1 241 5
	.loc 1 242 21 is_stmt 0
	li	a0,4096
	addi	a0,a0,-763
	.loc 1 241 21
	sb	s2,-287(s0)
	.loc 1 242 5 is_stmt 1
	.loc 1 242 21 is_stmt 0
	call	lwip_htons
.LVL228:
	.loc 1 243 23
	lw	a5,16(s1)
	.loc 1 242 19
	sh	a0,-286(s0)
	.loc 1 243 5 is_stmt 1
	.loc 1 245 16 is_stmt 0
	addi	a0,s0,-300
	.loc 1 243 23
	lw	a5,0(a5)
	.loc 1 243 19
	lw	a5,0(a5)
	sw	a5,-284(s0)
	.loc 1 244 5 is_stmt 1
	.loc 1 244 14 is_stmt 0
	sw	a5,-300(s0)
	.loc 1 245 5 is_stmt 1
	.loc 1 245 16 is_stmt 0
	call	ip4addr_ntoa
.LVL229:
	mv	s2,a0
.LVL230:
	.loc 1 247 5 is_stmt 1
	.loc 1 248 5
	.loc 1 249 5
	.loc 1 251 5
	.loc 1 251 19 is_stmt 0
	li	a0,512
.LVL231:
	call	pvPortMalloc
.LVL232:
	mv	s1,a0
.LVL233:
	.loc 1 253 5 is_stmt 1
	.loc 1 254 5
	.loc 1 255 5
	.loc 1 256 5
	.loc 1 258 5
	.loc 1 258 16 is_stmt 0
	call	hal_boot2_get_active_partition
.LVL234:
	mv	s4,a0
.LVL235:
	.loc 1 260 5 is_stmt 1
	lui	a0,%hi(.LC15)
	mv	a1,s1
	addi	a0,a0,%lo(.LC15)
	call	printf
.LVL236:
	.loc 1 262 5
	lui	a0,%hi(.LC16)
	mv	a1,s4
	addi	a0,a0,%lo(.LC16)
	call	printf
.LVL237:
	.loc 1 264 5
	.loc 1 264 9 is_stmt 0
	addi	a1,s0,-208
	li	a0,0
	call	hal_boot2_get_active_entries
.LVL238:
	.loc 1 264 8
	beq	a0,zero,.L65
	.loc 1 265 9 is_stmt 1
	lui	a0,%hi(.LC17)
	addi	a0,a0,%lo(.LC17)
	call	printf
.LVL239:
	.loc 1 266 9
.L88:
	.loc 1 292 9
	mv	a0,s1
	call	vPortFree
.LVL240:
	.loc 1 293 9
	j	.L87
.L65:
	.loc 1 270 5
	.loc 1 270 32 is_stmt 0
	lbu	a5,-206(s0)
	.loc 1 270 14
	addi	a3,s0,-64
	.loc 1 278 5
	lui	a0,%hi(.LC18)
	.loc 1 270 32
	seqz	a5,a5
	.loc 1 270 14
	slli	a4,a5,2
	.loc 1 271 30
	addi	a5,a5,4
	slli	a5,a5,2
	add	a5,a3,a5
	lw	a1,-140(a5)
	.loc 1 270 14
	add	a4,a3,a4
	.loc 1 278 5
	addi	a0,a0,%lo(.LC18)
	.loc 1 270 14
	lw	s7,-132(a4)
.LVL241:
	.loc 1 271 5 is_stmt 1
	.loc 1 271 14 is_stmt 0
	sw	a1,-292(s0)
	.loc 1 272 5 is_stmt 1
.LVL242:
	.loc 1 273 5
	.loc 1 278 5
	call	printf
.LVL243:
	.loc 1 280 5
	lbu	a1,-206(s0)
	lui	a0,%hi(.LC19)
	mv	a2,s7
	addi	a0,a0,%lo(.LC19)
	call	printf
.LVL244:
	.loc 1 282 5
	lw	a1,-292(s0)
	lui	a0,%hi(.LC20)
	addi	a0,a0,%lo(.LC20)
	call	printf
.LVL245:
	.loc 1 283 5
	call	hal_update_mfg_ptable
.LVL246:
	.loc 1 284 5
	lw	a0,-304(s0)
	call	bl_mtd_erase_all
.LVL247:
	.loc 1 285 5
	lui	a0,%hi(.LC21)
	addi	a0,a0,%lo(.LC21)
	call	printf
.LVL248:
	.loc 1 287 5
	lui	a0,%hi(.LC41)
	mv	a1,s2
	addi	a0,a0,%lo(.LC41)
	call	printf
.LVL249:
	.loc 1 289 5
	.loc 1 289 9 is_stmt 0
	li	a2,16
	addi	a1,s0,-288
	mv	a0,s3
	call	lwip_connect
.LVL250:
	.loc 1 289 8
	beq	a0,zero,.L66
	.loc 1 290 9 is_stmt 1
	lui	a0,%hi(.LC42)
	addi	a0,a0,%lo(.LC42)
	call	printf
.LVL251:
	.loc 1 291 9
	mv	a0,s3
	call	lwip_close
.LVL252:
	j	.L88
.L66:
	.loc 1 297 5
.LVL253:
	.loc 1 298 5
	.loc 1 299 5
	.loc 1 300 5
	.loc 1 302 5 is_stmt 0
	addi	a0,s0,-172
	.loc 1 300 12
	sw	zero,-296(s0)
	.loc 1 302 5 is_stmt 1
	call	utils_sha256_init
.LVL254:
	.loc 1 303 5
	addi	a0,s0,-172
	call	utils_sha256_starts
.LVL255:
	.loc 1 304 5
	li	a2,32
	li	a1,0
	addi	a0,s0,-272
	.loc 1 341 17 is_stmt 0
	lui	s5,%hi(.LC3)
	lui	s6,%hi(.LC9)
	.loc 1 304 5
	call	memset
.LVL256:
	.loc 1 299 22
	li	s8,0
	.loc 1 247 9
	li	s2,0
.LVL257:
	.loc 1 298 18
	li	s4,0
.LVL258:
	.loc 1 297 19
	li	s10,0
	.loc 1 369 21
	lui	s9,%hi(.LC8)
	.loc 1 341 17
	addi	s5,s5,%lo(.LC3)
	addi	s6,s6,%lo(.LC9)
.LVL259:
.L67:
	.loc 1 305 5 is_stmt 1
	.loc 1 307 9
	.loc 1 307 15 is_stmt 0
	li	s11,512
	sub	a2,s11,s10
	add	a1,s1,s10
	mv	a0,s3
	call	lwip_read
.LVL260:
	.loc 1 308 9 is_stmt 1
	.loc 1 308 12 is_stmt 0
	bge	a0,zero,.L68
	.loc 1 309 13 is_stmt 1
	lui	a5,%hi(errno)
	lw	a2,%lo(errno)(a5)
	mv	a1,a0
	lui	a0,%hi(.LC25)
.LVL261:
	addi	a0,a0,%lo(.LC25)
	call	printf
.LVL262:
	.loc 1 310 13
.L69:
	.loc 1 395 5
	mv	a0,s3
	call	lwip_close
.LVL263:
	.loc 1 396 5
	mv	a0,s1
	call	vPortFree
.LVL264:
	.loc 1 397 5
	addi	a0,s0,-172
	call	utils_sha256_free
.LVL265:
	j	.L87
.LVL266:
.L68:
	.loc 1 312 13
	.loc 1 312 19 is_stmt 0
	add	s2,s2,a0
.LVL267:
	.loc 1 313 13 is_stmt 1
	.loc 1 313 16 is_stmt 0
	bne	a0,zero,.L70
	.loc 1 314 17 is_stmt 1
	lui	a0,%hi(.LC26)
.LVL268:
	mv	a1,s2
	addi	a0,a0,%lo(.LC26)
	call	printf
.LVL269:
	.loc 1 315 17
	j	.L69
.LVL270:
.L70:
	.loc 1 317 13
	lui	a5,%hi(.LC27)
	mv	a2,a0
	sw	a0,-308(s0)
	mv	a1,s2
	addi	a0,a5,%lo(.LC27)
.LVL271:
	call	printf
.LVL272:
	.loc 1 318 13
	.loc 1 318 27 is_stmt 0
	lw	a4,-308(s0)
	add	s10,s10,a4
.LVL273:
	.loc 1 321 13 is_stmt 1
	.loc 1 321 16 is_stmt 0
	bne	s8,zero,.L71
	.loc 1 322 17 is_stmt 1
	.loc 1 322 20 is_stmt 0
	li	a4,511
	bleu	s10,a4,.L67
	.loc 1 324 24 is_stmt 1
	.loc 1 324 27 is_stmt 0
	beq	s10,s11,.L73
	.loc 1 325 21 is_stmt 1
	lui	a0,%hi(.LC28)
	mv	a1,s10
	addi	a0,a0,%lo(.LC28)
	call	printf
.LVL274:
.L74:
	.loc 1 326 21
	.loc 1 328 21
	.loc 1 326 27
	j	.L74
.L73:
	.loc 1 331 17
.LVL275:
	.loc 1 332 17
	.loc 1 333 17
	.loc 1 333 21 is_stmt 0
	addi	a2,s0,-296
	addi	a1,s0,-292
	mv	a0,s1
	call	_check_ota_header
.LVL276:
	.loc 1 333 20
	bne	a0,zero,.L69
	.loc 1 337 17 is_stmt 1
	li	a2,32
	addi	a1,s1,64
	addi	a0,s0,-240
	call	memcpy
.LVL277:
	.loc 1 339 17
	.loc 1 341 17 is_stmt 0
	lw	a5,-296(s0)
	lw	a1,-292(s0)
	.loc 1 339 23
	addi	s2,s2,-512
.LVL278:
	.loc 1 340 17 is_stmt 1
	.loc 1 341 17
	mv	a2,s5
	bne	a5,zero,.L75
	mv	a2,s6
.L75:
	lui	a0,%hi(.LC29)
	addi	a0,a0,%lo(.LC29)
	call	printf
.LVL279:
	.loc 1 342 17
	.loc 1 340 31 is_stmt 0
	li	s10,0
	.loc 1 331 34
	li	s8,1
	.loc 1 342 17
	j	.L67
.LVL280:
.L71:
	.loc 1 345 13 is_stmt 1
	.loc 1 345 26 is_stmt 0
	lw	a4,-292(s0)
	.loc 1 345 16
	beq	a4,s2,.L76
	.loc 1 346 17 is_stmt 1
	.loc 1 346 20 is_stmt 0
	li	a2,511
	bleu	s10,a2,.L67
	.loc 1 348 24 is_stmt 1
	.loc 1 348 27 is_stmt 0
	beq	s10,s11,.L76
	.loc 1 349 21 is_stmt 1
	lui	a0,%hi(.LC28)
	mv	a1,s10
	addi	a0,a0,%lo(.LC28)
	call	printf
.LVL281:
.L77:
	.loc 1 350 21
	.loc 1 352 21
	.loc 1 350 27
	j	.L77
.L76:
	.loc 1 360 13
	lui	a5,%hi(.LC46)
	sub	a4,a4,s2
	mv	a3,s1
	add	a2,s7,s4
	mv	a1,s10
	addi	a0,a5,%lo(.LC46)
	call	printf
.LVL282:
	.loc 1 361 13
	mv	a2,s10
	mv	a1,s1
	addi	a0,s0,-172
	call	utils_sha256_update
.LVL283:
	.loc 1 362 13
	lw	a0,-304(s0)
	mv	a2,s10
	mv	a1,s4
	mv	a3,s1
	call	bl_mtd_write
.LVL284:
	.loc 1 363 13
	.loc 1 365 16 is_stmt 0
	lw	a4,-292(s0)
	.loc 1 363 26
	add	s4,s4,s10
.LVL285:
	.loc 1 364 13 is_stmt 1
	.loc 1 365 13
	.loc 1 364 27 is_stmt 0
	li	s10,0
	.loc 1 365 16
	bne	s2,a4,.L67
	.loc 1 366 17 is_stmt 1
	addi	a1,s0,-272
	addi	a0,s0,-172
	call	utils_sha256_finish
.LVL286:
	.loc 1 367 17
	lui	a0,%hi(.LC31)
	addi	a0,a0,%lo(.LC31)
	call	puts
.LVL287:
	.loc 1 368 17
	.loc 1 368 29
	.loc 1 368 24 is_stmt 0
	li	a5,0
	.loc 1 368 17
	li	s10,32
.LVL288:
.L78:
	.loc 1 369 21 is_stmt 1
	.loc 1 369 49 is_stmt 0
	addi	a4,s0,-272
	add	a3,a4,a5
	.loc 1 369 21
	lbu	a1,0(a3)
	addi	a0,s9,%lo(.LC8)
	.loc 1 369 49
	sw	a5,-308(s0)
	.loc 1 369 21
	call	printf
.LVL289:
	.loc 1 368 56 is_stmt 1
	.loc 1 368 57 is_stmt 0
	lw	a5,-308(s0)
	addi	a5,a5,1
.LVL290:
	.loc 1 368 29 is_stmt 1
	.loc 1 368 17 is_stmt 0
	bne	a5,s10,.L78
	.loc 1 371 17 is_stmt 1
	lui	a0,%hi(.LC32)
	addi	a0,a0,%lo(.LC32)
	call	puts
.LVL291:
	.loc 1 372 17
	.loc 1 372 29
	.loc 1 372 24 is_stmt 0
	li	a5,0
	.loc 1 372 17
	li	s10,32
.LVL292:
.L79:
	.loc 1 373 21 is_stmt 1
	.loc 1 373 46 is_stmt 0
	addi	a4,s0,-240
	add	a3,a4,a5
	.loc 1 373 21
	lbu	a1,0(a3)
	addi	a0,s9,%lo(.LC8)
	.loc 1 373 46
	sw	a5,-308(s0)
	.loc 1 373 21
	call	printf
.LVL293:
	.loc 1 372 53 is_stmt 1
	.loc 1 372 54 is_stmt 0
	lw	a5,-308(s0)
	addi	a5,a5,1
.LVL294:
	.loc 1 372 29 is_stmt 1
	.loc 1 372 17 is_stmt 0
	bne	a5,s10,.L79
	.loc 1 375 17 is_stmt 1
	lui	a0,%hi(.LC1)
	addi	a0,a0,%lo(.LC1)
	call	puts
.LVL295:
	.loc 1 376 17
	.loc 1 376 21 is_stmt 0
	li	a2,32
	addi	a1,s0,-272
	addi	a0,s0,-240
	call	memcmp
.LVL296:
	.loc 1 376 20
	beq	a0,zero,.L80
	.loc 1 378 21 is_stmt 1
	lui	a0,%hi(.LC33)
	addi	a0,a0,%lo(.LC33)
	call	printf
.LVL297:
	.loc 1 379 21
	j	.L69
.L80:
	.loc 1 381 17
	lui	a0,%hi(.LC34)
	addi	a0,a0,%lo(.LC34)
	call	printf
.LVL298:
	.loc 1 382 17
	.loc 1 382 29 is_stmt 0
	lw	a1,-292(s0)
	.loc 1 383 17
	lui	a0,%hi(.LC35)
	addi	a0,a0,%lo(.LC35)
	.loc 1 382 29
	sw	a1,-180(s0)
	.loc 1 383 17 is_stmt 1
	call	printf
.LVL299:
	.loc 1 384 17
	addi	a0,s0,-208
	call	hal_boot2_update_ptable
.LVL300:
	.loc 1 385 17
	lui	a0,%hi(.LC36)
	addi	a0,a0,%lo(.LC36)
	call	printf
.LVL301:
	.loc 1 386 17
	mv	a0,s3
	call	lwip_close
.LVL302:
	.loc 1 387 17
	li	a0,1000
	call	vTaskDelay
.LVL303:
	.loc 1 388 17
	.loc 1 364 27 is_stmt 0
	li	s10,0
	.loc 1 388 17
	call	hal_reboot
.LVL304:
	j	.L67
.LBE12:
.LBE16:
	.cfi_endproc
.LFE7:
	.size	ota_tcp_cmd, .-ota_tcp_cmd
	.section	.text.bl_sys_ota_cli_init,"ax",@progbits
	.align	1
	.globl	bl_sys_ota_cli_init
	.type	bl_sys_ota_cli_init, @function
bl_sys_ota_cli_init:
.LFB11:
	.loc 1 651 1 is_stmt 1
	.cfi_startproc
	.loc 1 656 5
	.loc 1 651 1 is_stmt 0
	addi	sp,sp,-16
	.cfi_def_cfa_offset 16
	sw	s0,12(sp)
	.cfi_offset 8, -4
	addi	s0,sp,16
	.cfi_def_cfa 8, 0
	.loc 1 657 1
	lw	s0,12(sp)
	.cfi_restore 8
	.cfi_def_cfa 2, 16
	li	a0,0
	addi	sp,sp,16
	.cfi_def_cfa_offset 0
	jr	ra
	.cfi_endproc
.LFE11:
	.size	bl_sys_ota_cli_init, .-bl_sys_ota_cli_init
	.section	.rodata.str1.4,"aMS",@progbits,1
	.align	2
.LC47:
	.string	"ota_tcp_api"
	.align	2
.LC48:
	.string	"OTA from TCP server port 3333"
	.align	2
.LC49:
	.string	"ota_tcp"
	.align	2
.LC50:
	.string	"start OTA TCP server port 3333"
	.align	2
.LC51:
	.string	"ota_dump"
	.align	2
.LC52:
	.string	"dump partitions for ota related"
	.section	.static_cli_cmds,"a"
	.align	2
	.type	cmds_user, @object
	.size	cmds_user, 48
cmds_user:
	.word	.LC47
	.word	.LC48
	.word	ota_tcp_api_cmd
	.word	.LC49
	.word	.LC48
	.word	ota_tcp_cmd
	.word	.LC37
	.word	.LC50
	.word	ota_tcp_server
	.word	.LC51
	.word	.LC52
	.word	ota_dump_cmd
	.text
.Letext0:
	.file 2 "/home/dinhquangha/Ai-Thinker-WB2/toolchain/riscv/Linux/riscv64-unknown-elf/include/machine/_default_types.h"
	.file 3 "/home/dinhquangha/Ai-Thinker-WB2/toolchain/riscv/Linux/riscv64-unknown-elf/include/sys/_stdint.h"
	.file 4 "/home/dinhquangha/Ai-Thinker-WB2/toolchain/riscv/Linux/riscv64-unknown-elf/include/sys/types.h"
	.file 5 "/home/dinhquangha/Ai-Thinker-WB2/components/network/lwip/src/include/lwip/arch.h"
	.file 6 "/home/dinhquangha/Ai-Thinker-WB2/components/network/lwip/src/include/lwip/ip4_addr.h"
	.file 7 "/home/dinhquangha/Ai-Thinker-WB2/components/network/lwip/src/include/lwip/inet.h"
	.file 8 "/home/dinhquangha/Ai-Thinker-WB2/components/network/lwip/src/include/lwip/sockets.h"
	.file 9 "/home/dinhquangha/Ai-Thinker-WB2/components/network/lwip/src/include/lwip/netdb.h"
	.file 10 "/home/dinhquangha/Ai-Thinker-WB2/components/stage/cli/cli/include/cli.h"
	.file 11 "/home/dinhquangha/Ai-Thinker-WB2/components/platform/hosal/bl602_hal/hal_boot2.h"
	.file 12 "/home/dinhquangha/Ai-Thinker-WB2/components/utils/include/utils_sha256.h"
	.file 13 "/home/dinhquangha/Ai-Thinker-WB2/components/sys/blmtd/include/bl_mtd.h"
	.file 14 "/home/dinhquangha/Ai-Thinker-WB2/components/platform/soc/bl602/freertos_riscv_ram/config/task.h"
	.file 15 "/home/dinhquangha/Ai-Thinker-WB2/components/network/lwip/src/include/lwip/def.h"
	.file 16 "/home/dinhquangha/Ai-Thinker-WB2/toolchain/riscv/Linux/riscv64-unknown-elf/include/stdio.h"
	.file 17 "/home/dinhquangha/Ai-Thinker-WB2/toolchain/riscv/Linux/riscv64-unknown-elf/include/string.h"
	.file 18 "/home/dinhquangha/Ai-Thinker-WB2/components/platform/hosal/bl602_hal/hal_sys.h"
	.file 19 "/home/dinhquangha/Ai-Thinker-WB2/components/platform/soc/bl602/freertos_riscv_ram/config/portable.h"
	.file 20 "/home/dinhquangha/Ai-Thinker-WB2/toolchain/riscv/Linux/riscv64-unknown-elf/include/stdlib.h"
	.file 21 "/home/dinhquangha/Ai-Thinker-WB2/components/platform/hosal/bl602_hal/hosal_ota.h"
	.file 22 "/home/dinhquangha/Ai-Thinker-WB2/components/platform/hosal/bl602_hal/bl_wdt.h"
	.file 23 "/home/dinhquangha/Ai-Thinker-WB2/components/network/lwip/src/include/lwip/memp.h"
	.file 24 "/home/dinhquangha/Ai-Thinker-WB2/components/network/lwip/src/include/lwip/netif.h"
	.file 25 "/home/dinhquangha/Ai-Thinker-WB2/components/network/lwip/src/include/lwip/errno.h"