	.file	"led.c"
	.option nopic
	.attribute arch, "rv32i2p0_m2p0_f2p0_c2p0"
	.attribute unaligned_access, 0
	.attribute stack_align, 16
	.text
.Ltext0:
	.cfi_sections	.debug_frame
	.section	.text.led_init,"ax",@progbits
	.align	1
	.globl	led_init
	.type	led_init, @function
led_init:
.LFB3:
	.file 1 "/home/dinhquangha/Ai-Thinker-WB2/datic/components/hardware/led/led.c"
	.loc 1 10 1
	.cfi_startproc
	.loc 1 11 5
	.loc 1 10 1 is_stmt 0
	addi	sp,sp,-16
	.cfi_def_cfa_offset 16
	sw	s0,8(sp)
	sw	ra,12(sp)
	.cfi_offset 8, -8
	.cfi_offset 1, -4
	addi	s0,sp,16
	.cfi_def_cfa 8, 0
	.loc 1 11 5
	li	a1,0
	li	a2,0
	li	a0,17
	call	bl_gpio_enable_output
.LVL0:
	.loc 1 12 5 is_stmt 1
	.loc 1 13 1 is_stmt 0
	lw	s0,8(sp)
	.cfi_restore 8
	.cfi_def_cfa 2, 16
	lw	ra,12(sp)
	.cfi_restore 1
	.loc 1 12 5
	li	a1,1
	.loc 1 13 1
	.loc 1 12 5
	li	a0,17
	.loc 1 13 1
	addi	sp,sp,16
	.cfi_def_cfa_offset 0
	.loc 1 12 5
	tail	bl_gpio_output_set
.LVL1:
	.cfi_endproc
.LFE3:
	.size	led_init, .-led_init
	.section	.text.led_on,"ax",@progbits
	.align	1
	.globl	led_on
	.type	led_on, @function
led_on:
.LFB4:
	.loc 1 16 1 is_stmt 1
	.cfi_startproc
	.loc 1 18 5
	.loc 1 16 1 is_stmt 0
	addi	sp,sp,-16
	.cfi_def_cfa_offset 16
	sw	s0,12(sp)
	.cfi_offset 8, -4
	addi	s0,sp,16
	.cfi_def_cfa 8, 0
	.loc 1 19 1
	lw	s0,12(sp)
	.cfi_restore 8
	.cfi_def_cfa 2, 16
	.loc 1 18 5
	li	a1,0
	li	a0,17
	.loc 1 19 1
	addi	sp,sp,16
	.cfi_def_cfa_offset 0
	.loc 1 18 5
	tail	bl_gpio_output_set
.LVL2:
	.cfi_endproc
.LFE4:
	.size	led_on, .-led_on
	.section	.text.led_off,"ax",@progbits
	.align	1
	.globl	led_off
	.type	led_off, @function
led_off:
.LFB5:
	.loc 1 22 1 is_stmt 1
	.cfi_startproc
	.loc 1 24 5
	.loc 1 22 1 is_stmt 0
	addi	sp,sp,-16
	.cfi_def_cfa_offset 16
	sw	s0,12(sp)
	.cfi_offset 8, -4
	addi	s0,sp,16
	.cfi_def_cfa 8, 0
	.loc 1 25 1
	lw	s0,12(sp)
	.cfi_restore 8
	.cfi_def_cfa 2, 16
	.loc 1 24 5
	li	a1,1
	li	a0,17
	.loc 1 25 1
	addi	sp,sp,16
	.cfi_def_cfa_offset 0
	.loc 1 24 5
	tail	bl_gpio_output_set
.LVL3:
	.cfi_endproc
.LFE5:
	.size	led_off, .-led_off
	.section	.text.led_toggle,"ax",@progbits
	.align	1
	.globl	led_toggle
	.type	led_toggle, @function
led_toggle:
.LFB6:
	.loc 1 28 1 is_stmt 1
	.cfi_startproc
	.loc 1 29 5
	.loc 1 30 5
	.loc 1 28 1 is_stmt 0
	addi	sp,sp,-16
	.cfi_def_cfa_offset 16
	sw	s0,8(sp)
	sw	s1,4(sp)
	sw	ra,12(sp)
	.cfi_offset 8, -8
	.cfi_offset 9, -12
	.cfi_offset 1, -4
	addi	s0,sp,16
	.cfi_def_cfa 8, 0
	.loc 1 30 5
	lui	s1,%hi(.LANCHOR0)
	.loc 1 28 1
	.loc 1 30 5
	addi	s1,s1,%lo(.LANCHOR0)
	lbu	a1,0(s1)
	li	a0,17
	call	bl_gpio_output_set
.LVL4:
	.loc 1 31 5 is_stmt 1
	.loc 1 31 13 is_stmt 0
	lbu	a5,0(s1)
	.loc 1 32 1
	lw	ra,12(sp)
	.cfi_restore 1
	lw	s0,8(sp)
	.cfi_restore 8
	.cfi_def_cfa 2, 16
	.loc 1 31 13
	seqz	a5,a5
	sb	a5,0(s1)
	.loc 1 32 1
	lw	s1,4(sp)
	.cfi_restore 9
	addi	sp,sp,16
	.cfi_def_cfa_offset 0
	jr	ra
	.cfi_endproc
.LFE6:
	.size	led_toggle, .-led_toggle
	.section	.text.led_blink,"ax",@progbits
	.align	1
	.globl	led_blink
	.type	led_blink, @function
led_blink:
.LFB7:
	.loc 1 35 1 is_stmt 1
	.cfi_startproc
.LVL5:
	.loc 1 36 5
.LBB2:
	.loc 1 36 9
.LBE2:
	.loc 1 35 1 is_stmt 0
	addi	sp,sp,-32
	.cfi_def_cfa_offset 32
	sw	s0,24(sp)
	sw	s1,20(sp)
	sw	s2,16(sp)
	sw	s3,12(sp)
	sw	ra,28(sp)
	.cfi_offset 8, -8
	.cfi_offset 9, -12
	.cfi_offset 18, -16
	.cfi_offset 19, -20
	.cfi_offset 1, -4
	addi	s0,sp,32
	.cfi_def_cfa 8, 0
	.loc 1 35 1
	mv	s2,a0
	mv	s1,a1
.LBB3:
	.loc 1 36 13
	li	s3,0
.LVL6:
.L10:
	.loc 1 36 20 is_stmt 1 discriminator 1
	.loc 1 36 5 is_stmt 0 discriminator 1
	blt	s3,s2,.L11
.LBE3:
	.loc 1 42 1
	lw	ra,28(sp)
	.cfi_remember_state
	.cfi_restore 1
	lw	s0,24(sp)
	.cfi_restore 8
	.cfi_def_cfa 2, 32
	lw	s1,20(sp)
	.cfi_restore 9
.LVL7:
	lw	s2,16(sp)
	.cfi_restore 18
.LVL8:
	lw	s3,12(sp)
	.cfi_restore 19
.LVL9:
	addi	sp,sp,32
	.cfi_def_cfa_offset 0
	jr	ra
.LVL10:
.L11:
	.cfi_restore_state
.LBB4:
	.loc 1 37 9 is_stmt 1 discriminator 3
	call	led_toggle
.LVL11:
	.loc 1 38 9 discriminator 3
	mv	a0,s1
	call	aos_msleep
.LVL12:
	.loc 1 39 9 discriminator 3
	call	led_toggle
.LVL13:
	.loc 1 40 9 discriminator 3
	mv	a0,s1
	call	aos_msleep
.LVL14:
	.loc 1 36 31 discriminator 3
	.loc 1 36 32 is_stmt 0 discriminator 3
	addi	s3,s3,1
.LVL15:
	j	.L10
.LBE4:
	.cfi_endproc
.LFE7:
	.size	led_blink, .-led_blink
	.section	.text.led_get_state,"ax",@progbits
	.align	1
	.globl	led_get_state
	.type	led_get_state, @function
led_get_state:
.LFB8:
	.loc 1 45 1 is_stmt 1
	.cfi_startproc
	.loc 1 47 5
	.loc 1 45 1 is_stmt 0
	addi	sp,sp,-16
	.cfi_def_cfa_offset 16
	sw	s0,12(sp)
	.cfi_offset 8, -4
	addi	s0,sp,16
	.cfi_def_cfa 8, 0
	.loc 1 48 1
	lw	s0,12(sp)
	.cfi_restore 8
	.cfi_def_cfa 2, 16
	.loc 1 47 12
	li	a0,17
	.loc 1 48 1
	addi	sp,sp,16
	.cfi_def_cfa_offset 0
	.loc 1 47 12
	tail	bl_gpio_input_get_value
.LVL16:
	.cfi_endproc
.LFE8:
	.size	led_get_state, .-led_get_state
	.section	.sbss.value.0,"aw",@nobits
	.set	.LANCHOR0,. + 0
	.type	value.0, @object
	.size	value.0, 1
value.0:
	.zero	1
	.text
.Letext0:
	.file 2 "/home/dinhquangha/Ai-Thinker-WB2/components/platform/hosal/bl602_hal/bl_gpio.h"
	.file 3 "/home/dinhquangha/Ai-Thinker-WB2/components/stage/yloop/include/aos/kernel.h"
	.file 4 "/home/dinhquangha/Ai-Thinker-WB2/toolchain/riscv/Linux/lib/gcc/riscv64-unknown-elf/10.2.0/include/stdint-gcc.h"