	.file	"app_callback.c"
	.option nopic
	.attribute arch, "rv32i2p0_m2p0_f2p0_c2p0"
	.attribute unaligned_access, 0
	.attribute stack_align, 16
	.text
.Ltext0:
	.cfi_sections	.debug_frame
	.section	.text.app_event_post,"ax",@progbits
	.align	1
	.globl	app_event_post
	.type	app_event_post, @function
app_event_post:
.LFB4:
	.file 1 "/home/quanghaictu/intern/Ai-Thinker-WB2/datic/components/app/app_callback/app_callback.c"
	.loc 1 23 1
	.cfi_startproc
.LVL0:
	.loc 1 24 5
	.loc 1 23 1 is_stmt 0
	addi	sp,sp,-16
	.cfi_def_cfa_offset 16
	sw	s0,12(sp)
	.loc 1 24 38
	lui	a3,%hi(.LANCHOR0)
	.cfi_offset 8, -4
	.loc 1 23 1
	addi	s0,sp,16
	.cfi_def_cfa 8, 0
	.loc 1 24 38
	addi	a3,a3,%lo(.LANCHOR0)
	lw	a5,0(a3)
	.loc 1 24 44
	lui	a4,%hi(g_event_queue)
	addi	a4,a4,%lo(g_event_queue)
	slli	a2,a5,3
	add	a4,a4,a2
	sw	a0,0(a4)
	.loc 1 25 5 is_stmt 1
	.loc 1 25 44 is_stmt 0
	sw	a1,4(a4)
	.loc 1 26 5 is_stmt 1
	.loc 1 26 46 is_stmt 0
	addi	a5,a5,1
	.loc 1 26 51
	li	a4,10
	rem	a5,a5,a4
	.loc 1 26 24
	sw	a5,0(a3)
	.loc 1 27 1
	lw	s0,12(sp)
	.cfi_restore 8
	.cfi_def_cfa 2, 16
	addi	sp,sp,16
	.cfi_def_cfa_offset 0
	jr	ra
	.cfi_endproc
.LFE4:
	.size	app_event_post, .-app_event_post
	.section	.text.app_button_hold_callback,"ax",@progbits
	.align	1
	.globl	app_button_hold_callback
	.type	app_button_hold_callback, @function
app_button_hold_callback:
.LFB5:
	.loc 1 30 1 is_stmt 1
	.cfi_startproc
.LVL1:
	.loc 1 31 5
	.loc 1 32 5
	.loc 1 33 5
	.loc 1 35 5
	.loc 1 37 5
	.loc 1 30 1 is_stmt 0
	addi	sp,sp,-32
	.cfi_def_cfa_offset 32
	sw	s0,24(sp)
	sw	ra,28(sp)
	.cfi_offset 8, -8
	.cfi_offset 1, -4
	addi	s0,sp,32
	.cfi_def_cfa 8, 0
	.loc 1 37 9
	call	app_ble_is_running
.LVL2:
	.loc 1 37 8
	beq	a0,zero,.L4
	.loc 1 38 9 is_stmt 1
	call	app_ble_stop
.LVL3:
	.loc 1 39 9
	li	a0,500
	call	aos_msleep
.LVL4:
.L4:
	.loc 1 42 5
	call	app_wifi_disconnect
.LVL5:
	.loc 1 43 5
	li	a0,2000
	call	aos_msleep
.LVL6:
	.loc 1 44 5
	call	app_config_clear_wifi
.LVL7:
	.loc 1 46 5
	.loc 1 46 17 is_stmt 0
	li	a5,1
	.loc 1 47 5
	addi	a0,s0,-24
	.loc 1 46 17
	sw	a5,-24(s0)
	sw	zero,-20(s0)
	.loc 1 47 5 is_stmt 1
	call	app_state_process_event
.LVL8:
	.loc 1 48 1 is_stmt 0
	lw	ra,28(sp)
	.cfi_restore 1
	lw	s0,24(sp)
	.cfi_restore 8
	.cfi_def_cfa 2, 32
	addi	sp,sp,32
	.cfi_def_cfa_offset 0
	jr	ra
	.cfi_endproc
.LFE5:
	.size	app_button_hold_callback, .-app_button_hold_callback
	.section	.rodata.app_button_press_callback.str1.4,"aMS",@progbits,1
	.align	2
.LC0:
	.string	"ON"
	.align	2
.LC1:
	.string	"OFF"
	.align	2
.LC2:
	.string	"[APP] Button is locked, ignoring press\r\n"
	.section	.text.app_button_press_callback,"ax",@progbits
	.align	1
	.globl	app_button_press_callback
	.type	app_button_press_callback, @function
app_button_press_callback:
.LFB6:
	.loc 1 51 1 is_stmt 1
	.cfi_startproc
.LVL9:
	.loc 1 52 5
	.loc 1 53 5
	.loc 1 54 5
	.loc 1 57 5
	.loc 1 51 1 is_stmt 0
	addi	sp,sp,-32
	.cfi_def_cfa_offset 32
	sw	s0,24(sp)
	sw	s1,20(sp)
	sw	s2,16(sp)
	sw	ra,28(sp)
	.cfi_offset 8, -8
	.cfi_offset 9, -12
	.cfi_offset 18, -16
	.cfi_offset 1, -4
	addi	s0,sp,32
	.cfi_def_cfa 8, 0
	.loc 1 57 9
	lui	s1,%hi(.LANCHOR1)
	.loc 1 51 1
	.loc 1 57 9
	addi	s1,s1,%lo(.LANCHOR1)
	.loc 1 57 8
	lbu	a5,0(s1)
	lui	s2,%hi(.LANCHOR2)
	bne	a5,zero,.L10
.LBB2:
	.loc 1 58 9 is_stmt 1
	.loc 1 59 9
	addi	a1,s2,%lo(.LANCHOR2)
.LVL10:
	addi	a0,s0,-17
.LVL11:
	call	app_config_load_relay_settings
.LVL12:
	.loc 1 60 9
	.loc 1 60 30 is_stmt 0
	li	a5,1
	sb	a5,0(s1)
.L10:
.LBE2:
	.loc 1 63 5 is_stmt 1
	.loc 1 63 8 is_stmt 0
	lbu	a5,%lo(.LANCHOR2)(s2)
	beq	a5,zero,.L11
	.loc 1 64 9 is_stmt 1
	.loc 1 78 1 is_stmt 0
	lw	s0,24(sp)
	.cfi_remember_state
	.cfi_restore 8
	.cfi_def_cfa 2, 32
	lw	ra,28(sp)
	.cfi_restore 1
	lw	s1,20(sp)
	.cfi_restore 9
	lw	s2,16(sp)
	.cfi_restore 18
	.loc 1 64 9
	lui	a0,%hi(.LC2)
	.loc 1 78 1
	.loc 1 64 9
	addi	a0,a0,%lo(.LC2)
	.loc 1 78 1
	addi	sp,sp,32
	.cfi_def_cfa_offset 0
	.loc 1 64 9
	tail	printf
.LVL13:
.L11:
	.cfi_restore_state
	.loc 1 68 5 is_stmt 1
	call	relay_toggle
.LVL14:
	.loc 1 71 5
	.loc 1 71 9 is_stmt 0
	call	app_mqtt_is_connected
.LVL15:
	.loc 1 71 8
	beq	a0,zero,.L12
.LBB3:
	.loc 1 72 9 is_stmt 1
	.loc 1 72 31 is_stmt 0
	call	relay_get_state
.LVL16:
	.loc 1 73 9 is_stmt 1
	bne	a0,zero,.L14
	lui	a0,%hi(.LC1)
.LVL17:
	addi	a0,a0,%lo(.LC1)
.L13:
	.loc 1 73 9 is_stmt 0 discriminator 4
	call	app_mqtt_publish_state
.LVL18:
.L12:
.LBE3:
	.loc 1 76 5 is_stmt 1
	li	a1,0
	li	a0,2
	call	app_event_post
.LVL19:
	.loc 1 77 5
	.loc 1 78 1 is_stmt 0
	lw	s0,24(sp)
	.cfi_remember_state
	.cfi_restore 8
	.cfi_def_cfa 2, 32
	lw	ra,28(sp)
	.cfi_restore 1
	lw	s1,20(sp)
	.cfi_restore 9
	lw	s2,16(sp)
	.cfi_restore 18
	.loc 1 77 5
	li	a1,0
	.loc 1 78 1
	.loc 1 77 5
	li	a0,11
	.loc 1 78 1
	addi	sp,sp,32
	.cfi_def_cfa_offset 0
	.loc 1 77 5
	tail	app_event_post
.LVL20:
.L14:
	.cfi_restore_state
.LBB4:
	.loc 1 73 9
	lui	a0,%hi(.LC0)
.LVL21:
	addi	a0,a0,%lo(.LC0)
	j	.L13
.LBE4:
	.cfi_endproc
.LFE6:
	.size	app_button_press_callback, .-app_button_press_callback
	.section	.rodata.app_callback_update_lock_button.str1.4,"aMS",@progbits,1
	.align	2
.LC3:
	.string	"LOCKED"
	.align	2
.LC4:
	.string	"UNLOCKED"
	.align	2
.LC5:
	.string	"[APP] Lock button updated: %s\r\n"
	.section	.text.app_callback_update_lock_button,"ax",@progbits
	.align	1
	.globl	app_callback_update_lock_button
	.type	app_callback_update_lock_button, @function
app_callback_update_lock_button:
.LFB7:
	.loc 1 82 1 is_stmt 1
	.cfi_startproc
.LVL22:
	.loc 1 83 5
	.loc 1 82 1 is_stmt 0
	addi	sp,sp,-16
	.cfi_def_cfa_offset 16
	sw	s0,12(sp)
	.cfi_offset 8, -4
	addi	s0,sp,16
	.cfi_def_cfa 8, 0
	.loc 1 83 19
	lui	a5,%hi(.LANCHOR2)
	sb	a0,%lo(.LANCHOR2)(a5)
	.loc 1 84 5 is_stmt 1
	.loc 1 84 26 is_stmt 0
	li	a4,1
	lui	a5,%hi(.LANCHOR1)
	sb	a4,%lo(.LANCHOR1)(a5)
	.loc 1 85 5 is_stmt 1
	bne	a0,zero,.L21
	lui	a1,%hi(.LC4)
	addi	a1,a1,%lo(.LC4)
.L20:
	.loc 1 86 1 is_stmt 0 discriminator 4
	lw	s0,12(sp)
	.cfi_remember_state
	.cfi_restore 8
	.cfi_def_cfa 2, 16
	.loc 1 85 5 discriminator 4
	lui	a0,%hi(.LC5)
.LVL23:
	addi	a0,a0,%lo(.LC5)
	.loc 1 86 1 discriminator 4
	addi	sp,sp,16
	.cfi_def_cfa_offset 0
	.loc 1 85 5 discriminator 4
	tail	printf
.LVL24:
.L21:
	.cfi_restore_state
	.loc 1 85 5
	lui	a1,%hi(.LC3)
	addi	a1,a1,%lo(.LC3)
	j	.L20
	.cfi_endproc
.LFE7:
	.size	app_callback_update_lock_button, .-app_callback_update_lock_button
	.section	.text.app_wifi_connected_callback,"ax",@progbits
	.align	1
	.globl	app_wifi_connected_callback
	.type	app_wifi_connected_callback, @function
app_wifi_connected_callback:
.LFB8:
	.loc 1 89 1 is_stmt 1
	.cfi_startproc
	.loc 1 90 5
	.loc 1 89 1 is_stmt 0
	addi	sp,sp,-32
	.cfi_def_cfa_offset 32
	sw	s0,24(sp)
	sw	ra,28(sp)
	.cfi_offset 8, -8
	.cfi_offset 1, -4
	addi	s0,sp,32
	.cfi_def_cfa 8, 0
	.loc 1 90 17
	li	a5,3
	.loc 1 91 5
	addi	a0,s0,-24
	.loc 1 90 17
	sw	a5,-24(s0)
	sw	zero,-20(s0)
	.loc 1 91 5 is_stmt 1
	call	app_state_process_event
.LVL25:
	.loc 1 92 1 is_stmt 0
	lw	ra,28(sp)
	.cfi_restore 1
	lw	s0,24(sp)
	.cfi_restore 8
	.cfi_def_cfa 2, 32
	addi	sp,sp,32
	.cfi_def_cfa_offset 0
	jr	ra
	.cfi_endproc
.LFE8:
	.size	app_wifi_connected_callback, .-app_wifi_connected_callback
	.section	.text.app_wifi_disconnected_callback,"ax",@progbits
	.align	1
	.globl	app_wifi_disconnected_callback
	.type	app_wifi_disconnected_callback, @function
app_wifi_disconnected_callback:
.LFB9:
	.loc 1 95 1 is_stmt 1
	.cfi_startproc
	.loc 1 96 5
	.loc 1 95 1 is_stmt 0
	addi	sp,sp,-32
	.cfi_def_cfa_offset 32
	sw	s0,24(sp)
	sw	ra,28(sp)
	.cfi_offset 8, -8
	.cfi_offset 1, -4
	addi	s0,sp,32
	.cfi_def_cfa 8, 0
	.loc 1 96 17
	li	a5,4
	.loc 1 97 5
	addi	a0,s0,-24
	.loc 1 96 17
	sw	a5,-24(s0)
	sw	zero,-20(s0)
	.loc 1 97 5 is_stmt 1
	call	app_state_process_event
.LVL26:
	.loc 1 98 1 is_stmt 0
	lw	ra,28(sp)
	.cfi_restore 1
	lw	s0,24(sp)
	.cfi_restore 8
	.cfi_def_cfa 2, 32
	addi	sp,sp,32
	.cfi_def_cfa_offset 0
	jr	ra
	.cfi_endproc
.LFE9:
	.size	app_wifi_disconnected_callback, .-app_wifi_disconnected_callback
	.section	.text.app_wifi_connect_failed_callback,"ax",@progbits
	.align	1
	.globl	app_wifi_connect_failed_callback
	.type	app_wifi_connect_failed_callback, @function
app_wifi_connect_failed_callback:
.LFB10:
	.loc 1 101 1 is_stmt 1
	.cfi_startproc
	.loc 1 102 5
	.loc 1 101 1 is_stmt 0
	addi	sp,sp,-32
	.cfi_def_cfa_offset 32
	sw	s0,24(sp)
	sw	ra,28(sp)
	.cfi_offset 8, -8
	.cfi_offset 1, -4
	addi	s0,sp,32
	.cfi_def_cfa 8, 0
	.loc 1 102 17
	li	a5,5
	.loc 1 103 5
	addi	a0,s0,-24
	.loc 1 102 17
	sw	a5,-24(s0)
	sw	zero,-20(s0)
	.loc 1 103 5 is_stmt 1
	call	app_state_process_event
.LVL27:
	.loc 1 104 1 is_stmt 0
	lw	ra,28(sp)
	.cfi_restore 1
	lw	s0,24(sp)
	.cfi_restore 8
	.cfi_def_cfa 2, 32
	addi	sp,sp,32
	.cfi_def_cfa_offset 0
	jr	ra
	.cfi_endproc
.LFE10:
	.size	app_wifi_connect_failed_callback, .-app_wifi_connect_failed_callback
	.section	.text.app_ble_config_done_callback,"ax",@progbits
	.align	1
	.globl	app_ble_config_done_callback
	.type	app_ble_config_done_callback, @function
app_ble_config_done_callback:
.LFB11:
	.loc 1 107 1 is_stmt 1
	.cfi_startproc
.LVL28:
	.loc 1 108 5
	.loc 1 109 5
	.loc 1 110 5
	.loc 1 107 1 is_stmt 0
	addi	sp,sp,-32
	.cfi_def_cfa_offset 32
	sw	s0,24(sp)
	sw	ra,28(sp)
	.cfi_offset 8, -8
	.cfi_offset 1, -4
	addi	s0,sp,32
	.cfi_def_cfa 8, 0
	.loc 1 110 17
	li	a5,6
	.loc 1 111 5
	addi	a0,s0,-24
.LVL29:
	.loc 1 110 17
	sw	a5,-24(s0)
	sw	zero,-20(s0)
	.loc 1 111 5 is_stmt 1
	call	app_state_process_event
.LVL30:
	.loc 1 112 1 is_stmt 0
	lw	ra,28(sp)
	.cfi_restore 1
	lw	s0,24(sp)
	.cfi_restore 8
	.cfi_def_cfa 2, 32
	addi	sp,sp,32
	.cfi_def_cfa_offset 0
	jr	ra
	.cfi_endproc
.LFE11:
	.size	app_ble_config_done_callback, .-app_ble_config_done_callback
	.globl	g_event_queue_tail
	.globl	g_event_queue_head
	.comm	g_event_queue,80,4
	.section	.sbss.g_event_queue_head,"aw",@nobits
	.align	2
	.type	g_event_queue_head, @object
	.size	g_event_queue_head, 4
g_event_queue_head:
	.zero	4
	.section	.sbss.g_event_queue_tail,"aw",@nobits
	.align	2
	.set	.LANCHOR0,. + 0
	.type	g_event_queue_tail, @object
	.size	g_event_queue_tail, 4
g_event_queue_tail:
	.zero	4
	.section	.sbss.g_lock_button,"aw",@nobits
	.set	.LANCHOR2,. + 0
	.type	g_lock_button, @object
	.size	g_lock_button, 1
g_lock_button:
	.zero	1
	.section	.sbss.g_lock_button_loaded,"aw",@nobits
	.set	.LANCHOR1,. + 0
	.type	g_lock_button_loaded, @object
	.size	g_lock_button_loaded, 1
g_lock_button_loaded:
	.zero	1
	.text
.Letext0:
	.file 2 "/home/quanghaictu/intern/Ai-Thinker-WB2/toolchain/riscv/Linux/lib/gcc/riscv64-unknown-elf/10.2.0/include/stdint-gcc.h"
	.file 3 "/home/quanghaictu/intern/Ai-Thinker-WB2/datic/components/app/app_callback/../app_event/app_event.h"
	.file 4 "/home/quanghaictu/intern/Ai-Thinker-WB2/datic/components/app/app_callback/../app_state/app_state.h"
	.file 5 "/home/quanghaictu/intern/Ai-Thinker-WB2/toolchain/riscv/Linux/riscv64-unknown-elf/include/stdio.h"
	.file 6 "/home/quanghaictu/intern/Ai-Thinker-WB2/datic/components/app/app_callback/../app_wifi/../app_config/app_config.h"
	.file 7 "/home/quanghaictu/intern/Ai-Thinker-WB2/datic/components/app/app_callback/../../hardware/relay/relay.h"
	.file 8 "/home/quanghaictu/intern/Ai-Thinker-WB2/datic/components/app/app_callback/../app_mqtt/app_mqtt.h"
	.file 9 "/home/quanghaictu/intern/Ai-Thinker-WB2/datic/components/app/app_callback/../app_ble/app_ble.h"
	.file 10 "/home/quanghaictu/intern/Ai-Thinker-WB2/components/stage/yloop/include/aos/kernel.h"
	.file 11 "/home/quanghaictu/intern/Ai-Thinker-WB2/datic/components/app/app_callback/../app_wifi/app_wifi.h"