	.file	"blcrypto_suite_bignum.c"
	.option nopic
	.attribute arch, "rv32i2p0_m2p0_f2p0_c2p0"
	.attribute unaligned_access, 0
	.attribute stack_align, 16
	.text
.Ltext0:
	.cfi_sections	.debug_frame
	.section	.text.mpi_safe_cond_assign,"ax",@progbits
	.align	1
	.type	mpi_safe_cond_assign, @function
mpi_safe_cond_assign:
.LFB12:
	.file 1 "/home/dinhquangha/intern/Ai-Thinker-WB2/components/security/blcrypto_suite/src/blcrypto_suite_bignum.c"
	.loc 1 312 1
	.cfi_startproc
.LVL0:
	.loc 1 313 5
	.loc 1 323 5
	.loc 1 312 1 is_stmt 0
	addi	sp,sp,-16
	.cfi_def_cfa_offset 16
	sw	s0,12(sp)
	.cfi_offset 8, -4
	addi	s0,sp,16
	.cfi_def_cfa 8, 0
	.loc 1 323 42
	neg	t1,a3
.LVL1:
	.loc 1 329 5 is_stmt 1
	.loc 1 312 1 is_stmt 0
	slli	a0,a0,2
.LVL2:
	.loc 1 329 5
	li	a5,0
	.loc 1 330 51
	addi	a3,a3,-1
.LVL3:
.L2:
	.loc 1 329 17 is_stmt 1 discriminator 1
	.loc 1 329 5 is_stmt 0 discriminator 1
	bne	a5,a0,.L3
	.loc 1 331 1
	lw	s0,12(sp)
	.cfi_remember_state
	.cfi_restore 8
	.cfi_def_cfa 2, 16
	addi	sp,sp,16
	.cfi_def_cfa_offset 0
	jr	ra
.L3:
	.cfi_restore_state
	.loc 1 330 9 is_stmt 1 discriminator 3
	add	a7,a1,a5
	.loc 1 330 24 is_stmt 0 discriminator 3
	add	a4,a2,a5
	.loc 1 330 28 discriminator 3
	lw	a4,0(a4)
	.loc 1 330 49 discriminator 3
	lw	a6,0(a7)
	addi	a5,a5,4
	.loc 1 330 28 discriminator 3
	and	a4,t1,a4
	.loc 1 330 49 discriminator 3
	and	a6,a3,a6
	.loc 1 330 37 discriminator 3
	or	a4,a4,a6
	.loc 1 330 17 discriminator 3
	sw	a4,0(a7)
	.loc 1 329 24 is_stmt 1 discriminator 3
	j	.L2
	.cfi_endproc
.LFE12:
	.size	mpi_safe_cond_assign, .-mpi_safe_cond_assign
	.section	.text.mpi_get_digit,"ax",@progbits
	.align	1
	.type	mpi_get_digit, @function
mpi_get_digit:
.LFB22:
	.loc 1 558 1
	.cfi_startproc
.LVL4:
	.loc 1 559 5
	.loc 1 561 5
	.loc 1 558 1 is_stmt 0
	addi	sp,sp,-16
	.cfi_def_cfa_offset 16
	sw	s0,12(sp)
	.loc 1 561 19
	addi	a5,a2,-48
	.cfi_offset 8, -4
	.loc 1 558 1
	addi	s0,sp,16
	.cfi_def_cfa 8, 0
	.loc 1 561 7
	andi	a3,a5,0xff
	li	a4,9
	bgtu	a3,a4,.L6
	.loc 1 561 34 is_stmt 1 discriminator 1
	.loc 1 561 37 is_stmt 0 discriminator 1
	sw	a5,0(a0)
	.loc 1 562 5 is_stmt 1 discriminator 1
	.loc 1 563 5 discriminator 1
.LVL5:
.L7:
	.loc 1 565 5
	.loc 1 565 7 is_stmt 0
	lw	a5,0(a0)
	.loc 1 568 11
	li	a0,0
.LVL6:
	.loc 1 565 7
	bltu	a5,a1,.L5
	.loc 1 566 15
	li	a0,-6
.L5:
	.loc 1 569 1
	lw	s0,12(sp)
	.cfi_remember_state
	.cfi_restore 8
	.cfi_def_cfa 2, 16
	addi	sp,sp,16
	.cfi_def_cfa_offset 0
	jr	ra
.LVL7:
.L6:
	.cfi_restore_state
	.loc 1 562 5 is_stmt 1
	.loc 1 562 19 is_stmt 0
	addi	a5,a2,-65
	.loc 1 562 7
	andi	a5,a5,0xff
	li	a4,5
	bgtu	a5,a4,.L8
	.loc 1 562 34 is_stmt 1 discriminator 1
	.loc 1 562 41 is_stmt 0 discriminator 1
	addi	a2,a2,-55
.LVL8:
.L12:
	.loc 1 563 37 discriminator 1
	sw	a2,0(a0)
	j	.L7
.LVL9:
.L8:
	.loc 1 559 8
	li	a5,255
	sw	a5,0(a0)
	.loc 1 563 5 is_stmt 1
	.loc 1 563 19 is_stmt 0
	addi	a5,a2,-97
	.loc 1 563 7
	andi	a5,a5,0xff
	bgtu	a5,a4,.L7
	.loc 1 563 34 is_stmt 1 discriminator 1
	.loc 1 563 41 is_stmt 0 discriminator 1
	addi	a2,a2,-87
.LVL10:
	j	.L12
	.cfi_endproc
.LFE22:
	.size	mpi_get_digit, .-mpi_get_digit
	.section	.text.mpi_sub_hlp,"ax",@progbits
	.align	1
	.type	mpi_sub_hlp, @function
mpi_sub_hlp:
.LFB39:
	.loc 1 1375 1 is_stmt 1
	.cfi_startproc
.LVL11:
	.loc 1 1376 5
	.loc 1 1377 5
	.loc 1 1379 5
	.loc 1 1375 1 is_stmt 0
	addi	sp,sp,-16
	.cfi_def_cfa_offset 16
	sw	s0,12(sp)
	.cfi_offset 8, -4
	addi	s0,sp,16
	.cfi_def_cfa 8, 0
	mv	a6,a0
	.loc 1 1379 16
	li	a0,0
.LVL12:
	.loc 1 1379 12
	li	a3,0
.LVL13:
.L14:
	.loc 1 1379 21 is_stmt 1 discriminator 1
	.loc 1 1379 5 is_stmt 0 discriminator 1
	bne	a3,a6,.L15
	.loc 1 1385 5 is_stmt 1
	.loc 1 1386 1 is_stmt 0
	lw	s0,12(sp)
	.cfi_remember_state
	.cfi_restore 8
	.cfi_def_cfa 2, 16
	addi	sp,sp,16
	.cfi_def_cfa_offset 0
	jr	ra
.L15:
	.cfi_restore_state
	.loc 1 1381 9 is_stmt 1 discriminator 3
	.loc 1 1381 15 is_stmt 0 discriminator 3
	lw	a5,0(a1)
	.loc 1 1382 18 discriminator 3
	slli	a4,a3,2
	add	a4,a2,a4
	.loc 1 1381 18 discriminator 3
	sltu	t1,a5,a0
.LVL14:
	.loc 1 1381 25 is_stmt 1 discriminator 3
	.loc 1 1381 28 is_stmt 0 discriminator 3
	sub	a5,a5,a0
	sw	a5,0(a1)
	.loc 1 1382 9 is_stmt 1 discriminator 3
	.loc 1 1382 18 is_stmt 0 discriminator 3
	lw	a7,0(a4)
	.loc 1 1379 29 discriminator 3
	addi	a3,a3,1
.LVL15:
	.loc 1 1382 18 discriminator 3
	sltu	a4,a5,a7
	.loc 1 1382 33 discriminator 3
	sub	a5,a5,a7
	sw	a5,0(a1)
	.loc 1 1382 11 discriminator 3
	add	a0,a4,t1
.LVL16:
	.loc 1 1382 30 is_stmt 1 discriminator 3
	.loc 1 1379 28 discriminator 3
	.loc 1 1379 39 is_stmt 0 discriminator 3
	addi	a1,a1,4
.LVL17:
	j	.L14
	.cfi_endproc
.LFE39:
	.size	mpi_sub_hlp, .-mpi_sub_hlp
	.section	.text.mpi_mul_hlp,"ax",@progbits
	.align	1
	.type	mpi_mul_hlp, @function
mpi_mul_hlp:
.LFB45:
	.loc 1 1570 1 is_stmt 1
	.cfi_startproc
.LVL18:
	.loc 1 1571 5
	.loc 1 1588 5
	.loc 1 1570 1 is_stmt 0
	addi	sp,sp,-16
	.cfi_def_cfa_offset 16
	sw	s0,12(sp)
	.cfi_offset 8, -4
	addi	s0,sp,16
	.cfi_def_cfa 8, 0
	.loc 1 1588 5
	mv	a4,a2
	mv	a7,a1
	mv	t1,a0
	.loc 1 1571 29
	li	a5,0
	.loc 1 1588 5
	li	t3,15
.LVL19:
.L18:
	.loc 1 1588 12 is_stmt 1 discriminator 1
.LBB69:
	.loc 1 1591 195 is_stmt 0 discriminator 1
	lw	a6,0(a4)
.LBE69:
	.loc 1 1588 5 discriminator 1
	bgtu	t1,t3,.L19
	srli	a4,a0,4
.LVL20:
	li	a7,-16
.LVL21:
	mul	a7,a4,a7
	slli	a4,a4,6
	add	a1,a1,a4
	add	a2,a2,a4
.LVL22:
	.loc 1 1603 5
	li	a4,7
	add	a0,a7,a0
.LVL23:
	.loc 1 1603 12 is_stmt 1
	.loc 1 1603 5 is_stmt 0
	bleu	a0,a4,.L20
.LBB70:
	.loc 1 1605 11 is_stmt 1
	.loc 1 1605 36
	.loc 1 1606 9
.LVL24:
	.loc 1 1606 11 is_stmt 0
	lw	a7,0(a1)
.LBE70:
	.loc 1 1603 22
	addi	a0,a0,-8
.LVL25:
.LBB71:
	.loc 1 1606 11
	mul	a4,a3,a7
	mulhu	a7,a3,a7
.LVL26:
	.loc 1 1606 49 is_stmt 1
	.loc 1 1606 83
	.loc 1 1606 164
	.loc 1 1606 167 is_stmt 0
	add	a4,a5,a4
.LVL27:
	.loc 1 1606 173 is_stmt 1
	.loc 1 1606 183 is_stmt 0
	sgtu	a5,a5,a4
.LVL28:
	.loc 1 1606 192
	add	a4,a6,a4
.LVL29:
	.loc 1 1606 231
	sw	a4,0(a2)
.LVL30:
	.loc 1 1606 209
	sgtu	a6,a6,a4
	.loc 1 1606 176
	add	a7,a5,a7
.LVL31:
	.loc 1 1606 189 is_stmt 1
	.loc 1 1606 199
	.loc 1 1606 239 is_stmt 0
	lw	a5,4(a1)
	.loc 1 1606 202
	add	a6,a6,a7
.LVL32:
	.loc 1 1606 216 is_stmt 1
	.loc 1 1606 224
	.loc 1 1606 237
	.loc 1 1606 239 is_stmt 0
	mul	a4,a3,a5
.LVL33:
	mulhu	a5,a3,a5
.LVL34:
	.loc 1 1606 277 is_stmt 1
	.loc 1 1606 311
	.loc 1 1606 392
	.loc 1 1606 395 is_stmt 0
	add	a4,a6,a4
.LVL35:
	.loc 1 1606 401 is_stmt 1
	.loc 1 1606 411 is_stmt 0
	sgtu	a6,a6,a4
.LVL36:
	.loc 1 1606 404
	add	a6,a5,a6
.LVL37:
	.loc 1 1606 417 is_stmt 1
	.loc 1 1606 423 is_stmt 0
	lw	a5,4(a2)
.LVL38:
	.loc 1 1606 420
	add	a4,a4,a5
.LVL39:
	.loc 1 1606 427 is_stmt 1
	.loc 1 1606 459 is_stmt 0
	sw	a4,4(a2)
.LVL40:
	.loc 1 1606 437
	sgtu	a5,a5,a4
	.loc 1 1607 11
	lw	a4,8(a1)
.LVL41:
	.loc 1 1606 430
	add	a6,a5,a6
.LVL42:
	.loc 1 1606 444 is_stmt 1
	.loc 1 1606 452
	.loc 1 1607 9
	.loc 1 1607 11 is_stmt 0
	mul	a5,a3,a4
	mulhu	a4,a3,a4
.LVL43:
	.loc 1 1607 49 is_stmt 1
	.loc 1 1607 83
	.loc 1 1607 164
	.loc 1 1607 167 is_stmt 0
	add	a5,a6,a5
.LVL44:
	.loc 1 1607 173 is_stmt 1
	.loc 1 1607 183 is_stmt 0
	sgtu	a6,a6,a5
.LVL45:
	.loc 1 1607 176
	add	a4,a4,a6
.LVL46:
	.loc 1 1607 189 is_stmt 1
	.loc 1 1607 195 is_stmt 0
	lw	a6,8(a2)
	.loc 1 1607 192
	add	a5,a5,a6
.LVL47:
	.loc 1 1607 199 is_stmt 1
	.loc 1 1607 231 is_stmt 0
	sw	a5,8(a2)
.LVL48:
	.loc 1 1607 209
	sgtu	a6,a6,a5
	.loc 1 1607 202
	add	a6,a6,a4
.LVL49:
	.loc 1 1607 216 is_stmt 1
	.loc 1 1607 224
	.loc 1 1607 237
	.loc 1 1607 239 is_stmt 0
	lw	a4,12(a1)
	mul	a7,a3,a4
	mulhu	a4,a3,a4
.LVL50:
	.loc 1 1607 277 is_stmt 1
	.loc 1 1607 311
	.loc 1 1607 392
	.loc 1 1607 395 is_stmt 0
	add	a7,a6,a7
.LVL51:
	.loc 1 1607 401 is_stmt 1
	.loc 1 1607 411 is_stmt 0
	sgtu	a6,a6,a7
.LVL52:
	.loc 1 1607 404
	add	a6,a4,a6
.LVL53:
	.loc 1 1607 417 is_stmt 1
	.loc 1 1607 423 is_stmt 0
	lw	a4,12(a2)
.LVL54:
	.loc 1 1607 420
	add	a7,a7,a4
.LVL55:
	.loc 1 1607 427 is_stmt 1
	.loc 1 1607 459 is_stmt 0
	sw	a7,12(a2)
.LVL56:
	.loc 1 1609 11
	lw	a5,16(a1)
	.loc 1 1607 437
	sgtu	a4,a4,a7
	.loc 1 1607 430
	add	a4,a4,a6
.LVL57:
	.loc 1 1607 444 is_stmt 1
	.loc 1 1607 452
	.loc 1 1609 9
	.loc 1 1609 11 is_stmt 0
	mul	a7,a3,a5
.LVL58:
	mulhu	a5,a3,a5
.LVL59:
	.loc 1 1609 49 is_stmt 1
	.loc 1 1609 83
	.loc 1 1609 164
	.loc 1 1609 167 is_stmt 0
	add	a7,a4,a7
.LVL60:
	.loc 1 1609 173 is_stmt 1
	.loc 1 1609 183 is_stmt 0
	sgtu	a4,a4,a7
.LVL61:
	.loc 1 1609 176
	add	a4,a5,a4
.LVL62:
	.loc 1 1609 189 is_stmt 1
	.loc 1 1609 195 is_stmt 0
	lw	a5,16(a2)
.LVL63:
	.loc 1 1609 192
	add	a7,a7,a5
.LVL64:
	.loc 1 1609 199 is_stmt 1
	.loc 1 1609 231 is_stmt 0
	sw	a7,16(a2)
.LVL65:
	.loc 1 1609 239
	lw	a6,20(a1)
	.loc 1 1609 209
	sgtu	a5,a5,a7
	.loc 1 1609 202
	add	a5,a5,a4
.LVL66:
	.loc 1 1609 216 is_stmt 1
	.loc 1 1609 224
	.loc 1 1609 237
	.loc 1 1609 239 is_stmt 0
	mul	a7,a3,a6
.LVL67:
	mulhu	a6,a3,a6
.LVL68:
	.loc 1 1609 277 is_stmt 1
	.loc 1 1609 311
	.loc 1 1609 392
	.loc 1 1609 395 is_stmt 0
	add	a7,a5,a7
.LVL69:
	.loc 1 1609 401 is_stmt 1
	.loc 1 1609 411 is_stmt 0
	sgtu	a5,a5,a7
.LVL70:
	.loc 1 1609 404
	add	a5,a6,a5
.LVL71:
	.loc 1 1609 417 is_stmt 1
	.loc 1 1609 423 is_stmt 0
	lw	a6,20(a2)
.LVL72:
	.loc 1 1609 420
	add	a7,a7,a6
.LVL73:
	.loc 1 1609 427 is_stmt 1
	.loc 1 1609 459 is_stmt 0
	sw	a7,20(a2)
.LVL74:
	.loc 1 1610 11
	lw	a4,24(a1)
	.loc 1 1609 437
	sgtu	a6,a6,a7
	.loc 1 1609 430
	add	a6,a6,a5
.LVL75:
	.loc 1 1609 444 is_stmt 1
	.loc 1 1609 452
	.loc 1 1610 9
	.loc 1 1610 11 is_stmt 0
	mul	a7,a3,a4
.LVL76:
	mulhu	a4,a3,a4
.LVL77:
	.loc 1 1610 49 is_stmt 1
	.loc 1 1610 83
	.loc 1 1610 164
	.loc 1 1610 167 is_stmt 0
	add	a7,a6,a7
.LVL78:
	.loc 1 1610 173 is_stmt 1
	.loc 1 1610 183 is_stmt 0
	sgtu	a6,a6,a7
.LVL79:
	.loc 1 1610 176
	add	a6,a4,a6
.LVL80:
	.loc 1 1610 189 is_stmt 1
	.loc 1 1610 195 is_stmt 0
	lw	a4,24(a2)
.LVL81:
	.loc 1 1610 192
	add	a7,a7,a4
.LVL82:
	.loc 1 1610 199 is_stmt 1
	.loc 1 1610 231 is_stmt 0
	sw	a7,24(a2)
.LVL83:
	.loc 1 1610 239
	lw	a5,28(a1)
	.loc 1 1610 209
	sgtu	a4,a4,a7
	.loc 1 1610 202
	add	a4,a4,a6
.LVL84:
	.loc 1 1610 216 is_stmt 1
	.loc 1 1610 224
	.loc 1 1610 237
	.loc 1 1610 239 is_stmt 0
	mul	a6,a3,a5
	.loc 1 1610 244
	addi	a1,a1,32
.LVL85:
	.loc 1 1610 239
	mulhu	a5,a3,a5
.LVL86:
	.loc 1 1610 277 is_stmt 1
	.loc 1 1610 311
	.loc 1 1610 392
	.loc 1 1610 395 is_stmt 0
	add	a6,a4,a6
.LVL87:
	.loc 1 1610 401 is_stmt 1
	.loc 1 1610 411 is_stmt 0
	sgtu	a4,a4,a6
.LVL88:
	.loc 1 1610 404
	add	a4,a5,a4
.LVL89:
	.loc 1 1610 417 is_stmt 1
	.loc 1 1610 423 is_stmt 0
	lw	a5,28(a2)
.LVL90:
	.loc 1 1610 420
	add	a6,a6,a5
.LVL91:
	.loc 1 1610 427 is_stmt 1
	.loc 1 1610 437 is_stmt 0
	sgtu	a5,a5,a6
	.loc 1 1610 459
	sw	a6,28(a2)
.LVL92:
	.loc 1 1610 430
	add	a5,a5,a4
.LVL93:
	.loc 1 1610 444 is_stmt 1
	.loc 1 1610 452
.LBE71:
	.loc 1 1603 20
	.loc 1 1603 12
.LBB72:
	.loc 1 1610 455 is_stmt 0
	addi	a2,a2,32
.LVL94:
.L20:
	slli	a0,a0,2
.LVL95:
	add	t3,a1,a0
	.loc 1 1610 244 discriminator 1
	mv	a6,a2
.LVL96:
.L21:
.LBE72:
	.loc 1 1614 12 is_stmt 1 discriminator 1
.LBB73:
	.loc 1 1617 195 is_stmt 0 discriminator 1
	lw	a7,0(a6)
	.loc 1 1617 227 discriminator 1
	addi	a6,a6,4
.LVL97:
.LBE73:
	.loc 1 1614 5 discriminator 1
	bne	t3,a1,.L22
	add	a2,a2,a0
.LVL98:
.L23:
	.loc 1 1624 5 is_stmt 1 discriminator 1
	.loc 1 1625 9 discriminator 1
	.loc 1 1625 12 is_stmt 0 discriminator 1
	lw	a4,0(a2)
	add	a4,a5,a4
	sw	a4,0(a2)
	.loc 1 1625 18 is_stmt 1 discriminator 1
.LVL99:
	.loc 1 1625 34 discriminator 1
	.loc 1 1625 35 is_stmt 0 discriminator 1
	addi	a2,a2,4
.LVL100:
	.loc 1 1627 10 is_stmt 1 discriminator 1
	.loc 1 1627 5 is_stmt 0 discriminator 1
	bltu	a4,a5,.L24
	.loc 1 1628 1
	lw	s0,12(sp)
	.cfi_remember_state
	.cfi_restore 8
	.cfi_def_cfa 2, 16
	addi	sp,sp,16
	.cfi_def_cfa_offset 0
	jr	ra
.LVL101:
.L19:
	.cfi_restore_state
.LBB74:
	.loc 1 1590 11 is_stmt 1 discriminator 2
	.loc 1 1590 36 discriminator 2
	.loc 1 1591 9 discriminator 2
	.loc 1 1591 11 is_stmt 0 discriminator 2
	lw	t5,0(a7)
	addi	a7,a7,64
.LVL102:
.LBE74:
	.loc 1 1588 23 discriminator 2
	addi	t1,t1,-16
.LVL103:
.LBB75:
	.loc 1 1591 11 discriminator 2
	mul	t4,a3,t5
	mulhu	t5,a3,t5
.LVL104:
	.loc 1 1591 49 is_stmt 1 discriminator 2
	.loc 1 1591 83 discriminator 2
	.loc 1 1591 164 discriminator 2
	.loc 1 1591 167 is_stmt 0 discriminator 2
	add	t4,a5,t4
.LVL105:
	.loc 1 1591 173 is_stmt 1 discriminator 2
	.loc 1 1591 183 is_stmt 0 discriminator 2
	sgtu	a5,a5,t4
.LVL106:
	.loc 1 1591 192 discriminator 2
	add	t4,t4,a6
.LVL107:
	.loc 1 1591 231 discriminator 2
	sw	t4,0(a4)
.LVL108:
	.loc 1 1591 209 discriminator 2
	sltu	a6,t4,a6
	.loc 1 1591 176 discriminator 2
	add	t5,a5,t5
.LVL109:
	.loc 1 1591 189 is_stmt 1 discriminator 2
	.loc 1 1591 199 discriminator 2
	.loc 1 1591 239 is_stmt 0 discriminator 2
	lw	a5,-60(a7)
	.loc 1 1591 202 discriminator 2
	add	a6,a6,t5
.LVL110:
	.loc 1 1591 216 is_stmt 1 discriminator 2
	.loc 1 1591 224 discriminator 2
	.loc 1 1591 237 discriminator 2
	.loc 1 1591 239 is_stmt 0 discriminator 2
	mul	t4,a3,a5
.LVL111:
	mulhu	a5,a3,a5
.LVL112:
	.loc 1 1591 277 is_stmt 1 discriminator 2
	.loc 1 1591 311 discriminator 2
	.loc 1 1591 392 discriminator 2
	.loc 1 1591 395 is_stmt 0 discriminator 2
	add	t4,a6,t4
.LVL113:
	.loc 1 1591 401 is_stmt 1 discriminator 2
	.loc 1 1591 411 is_stmt 0 discriminator 2
	sgtu	a6,a6,t4
.LVL114:
	.loc 1 1591 404 discriminator 2
	add	a6,a6,a5
.LVL115:
	.loc 1 1591 417 is_stmt 1 discriminator 2
	.loc 1 1591 423 is_stmt 0 discriminator 2
	lw	a5,4(a4)
.LVL116:
	.loc 1 1591 420 discriminator 2
	add	t4,a5,t4
.LVL117:
	.loc 1 1591 427 is_stmt 1 discriminator 2
	.loc 1 1591 459 is_stmt 0 discriminator 2
	sw	t4,4(a4)
.LVL118:
	.loc 1 1591 437 discriminator 2
	sgtu	a5,a5,t4
	.loc 1 1591 430 discriminator 2
	add	a5,a5,a6
.LVL119:
	.loc 1 1591 444 is_stmt 1 discriminator 2
	.loc 1 1591 452 discriminator 2
	.loc 1 1592 9 discriminator 2
	.loc 1 1592 11 is_stmt 0 discriminator 2
	lw	a6,-56(a7)
	mul	t4,a3,a6
.LVL120:
	mulhu	a6,a3,a6
.LVL121:
	.loc 1 1592 49 is_stmt 1 discriminator 2
	.loc 1 1592 83 discriminator 2
	.loc 1 1592 164 discriminator 2
	.loc 1 1592 167 is_stmt 0 discriminator 2
	add	t4,a5,t4
.LVL122:
	.loc 1 1592 173 is_stmt 1 discriminator 2
	.loc 1 1592 183 is_stmt 0 discriminator 2
	sgtu	a5,a5,t4
.LVL123:
	.loc 1 1592 176 discriminator 2
	add	a5,a5,a6
.LVL124:
	.loc 1 1592 189 is_stmt 1 discriminator 2
	.loc 1 1592 195 is_stmt 0 discriminator 2
	lw	a6,8(a4)
.LVL125:
	.loc 1 1592 192 discriminator 2
	add	t4,a6,t4
.LVL126:
	.loc 1 1592 199 is_stmt 1 discriminator 2
	.loc 1 1592 231 is_stmt 0 discriminator 2
	sw	t4,8(a4)
.LVL127:
	.loc 1 1592 209 discriminator 2
	sgtu	a6,a6,t4
	.loc 1 1592 202 discriminator 2
	add	a6,a6,a5
.LVL128:
	.loc 1 1592 216 is_stmt 1 discriminator 2
	.loc 1 1592 224 discriminator 2
	.loc 1 1592 237 discriminator 2
	.loc 1 1592 239 is_stmt 0 discriminator 2
	lw	a5,-52(a7)
	mul	t4,a3,a5
.LVL129:
	mulhu	a5,a3,a5
.LVL130:
	.loc 1 1592 277 is_stmt 1 discriminator 2
	.loc 1 1592 311 discriminator 2
	.loc 1 1592 392 discriminator 2
	.loc 1 1592 395 is_stmt 0 discriminator 2
	add	t4,a6,t4
.LVL131:
	.loc 1 1592 401 is_stmt 1 discriminator 2
	.loc 1 1592 411 is_stmt 0 discriminator 2
	sgtu	a6,a6,t4
.LVL132:
	.loc 1 1592 404 discriminator 2
	add	a6,a6,a5
.LVL133:
	.loc 1 1592 417 is_stmt 1 discriminator 2
	.loc 1 1592 423 is_stmt 0 discriminator 2
	lw	a5,12(a4)
.LVL134:
	.loc 1 1592 420 discriminator 2
	add	t4,a5,t4
.LVL135:
	.loc 1 1592 427 is_stmt 1 discriminator 2
	.loc 1 1592 459 is_stmt 0 discriminator 2
	sw	t4,12(a4)
.LVL136:
	.loc 1 1592 437 discriminator 2
	sgtu	a5,a5,t4
	.loc 1 1592 430 discriminator 2
	add	a5,a5,a6
.LVL137:
	.loc 1 1592 444 is_stmt 1 discriminator 2
	.loc 1 1592 452 discriminator 2
	.loc 1 1593 9 discriminator 2
	.loc 1 1593 11 is_stmt 0 discriminator 2
	lw	a6,-48(a7)
	mul	t4,a3,a6
.LVL138:
	mulhu	a6,a3,a6
.LVL139:
	.loc 1 1593 49 is_stmt 1 discriminator 2
	.loc 1 1593 83 discriminator 2
	.loc 1 1593 164 discriminator 2
	.loc 1 1593 167 is_stmt 0 discriminator 2
	add	t4,a5,t4
.LVL140:
	.loc 1 1593 173 is_stmt 1 discriminator 2
	.loc 1 1593 183 is_stmt 0 discriminator 2
	sgtu	a5,a5,t4
.LVL141:
	.loc 1 1593 176 discriminator 2
	add	a5,a5,a6
.LVL142:
	.loc 1 1593 189 is_stmt 1 discriminator 2
	.loc 1 1593 195 is_stmt 0 discriminator 2
	lw	a6,16(a4)
.LVL143:
	.loc 1 1593 192 discriminator 2
	add	t4,a6,t4
.LVL144:
	.loc 1 1593 199 is_stmt 1 discriminator 2
	.loc 1 1593 231 is_stmt 0 discriminator 2
	sw	t4,16(a4)
.LVL145:
	.loc 1 1593 209 discriminator 2
	sgtu	a6,a6,t4
	.loc 1 1593 202 discriminator 2
	add	a6,a6,a5
.LVL146:
	.loc 1 1593 216 is_stmt 1 discriminator 2
	.loc 1 1593 224 discriminator 2
	.loc 1 1593 237 discriminator 2
	.loc 1 1593 239 is_stmt 0 discriminator 2
	lw	a5,-44(a7)
	mul	t4,a3,a5
.LVL147:
	mulhu	a5,a3,a5
.LVL148:
	.loc 1 1593 277 is_stmt 1 discriminator 2
	.loc 1 1593 311 discriminator 2
	.loc 1 1593 392 discriminator 2
	.loc 1 1593 395 is_stmt 0 discriminator 2
	add	t4,a6,t4
.LVL149:
	.loc 1 1593 401 is_stmt 1 discriminator 2
	.loc 1 1593 411 is_stmt 0 discriminator 2
	sgtu	a6,a6,t4
.LVL150:
	.loc 1 1593 404 discriminator 2
	add	a6,a6,a5
.LVL151:
	.loc 1 1593 417 is_stmt 1 discriminator 2
	.loc 1 1593 423 is_stmt 0 discriminator 2
	lw	a5,20(a4)
.LVL152:
	.loc 1 1593 420 discriminator 2
	add	t4,a5,t4
.LVL153:
	.loc 1 1593 427 is_stmt 1 discriminator 2
	.loc 1 1593 459 is_stmt 0 discriminator 2
	sw	t4,20(a4)
.LVL154:
	.loc 1 1593 437 discriminator 2
	sgtu	a5,a5,t4
	.loc 1 1593 430 discriminator 2
	add	a5,a5,a6
.LVL155:
	.loc 1 1593 444 is_stmt 1 discriminator 2
	.loc 1 1593 452 discriminator 2
	.loc 1 1594 9 discriminator 2
	.loc 1 1594 11 is_stmt 0 discriminator 2
	lw	a6,-40(a7)
	mul	t4,a3,a6
.LVL156:
	mulhu	a6,a3,a6
.LVL157:
	.loc 1 1594 49 is_stmt 1 discriminator 2
	.loc 1 1594 83 discriminator 2
	.loc 1 1594 164 discriminator 2
	.loc 1 1594 167 is_stmt 0 discriminator 2
	add	t4,a5,t4
.LVL158:
	.loc 1 1594 173 is_stmt 1 discriminator 2
	.loc 1 1594 183 is_stmt 0 discriminator 2
	sgtu	a5,a5,t4
.LVL159:
	.loc 1 1594 176 discriminator 2
	add	a5,a5,a6
.LVL160:
	.loc 1 1594 189 is_stmt 1 discriminator 2
	.loc 1 1594 195 is_stmt 0 discriminator 2
	lw	a6,24(a4)
.LVL161:
	.loc 1 1594 192 discriminator 2
	add	t4,a6,t4
.LVL162:
	.loc 1 1594 199 is_stmt 1 discriminator 2
	.loc 1 1594 231 is_stmt 0 discriminator 2
	sw	t4,24(a4)
.LVL163:
	.loc 1 1594 209 discriminator 2
	sgtu	a6,a6,t4
	.loc 1 1594 202 discriminator 2
	add	a6,a6,a5
.LVL164:
	.loc 1 1594 216 is_stmt 1 discriminator 2
	.loc 1 1594 224 discriminator 2
	.loc 1 1594 237 discriminator 2
	.loc 1 1594 239 is_stmt 0 discriminator 2
	lw	a5,-36(a7)
	mul	t4,a3,a5
.LVL165:
	mulhu	a5,a3,a5
.LVL166:
	.loc 1 1594 277 is_stmt 1 discriminator 2
	.loc 1 1594 311 discriminator 2
	.loc 1 1594 392 discriminator 2
	.loc 1 1594 395 is_stmt 0 discriminator 2
	add	t4,a6,t4
.LVL167:
	.loc 1 1594 401 is_stmt 1 discriminator 2
	.loc 1 1594 411 is_stmt 0 discriminator 2
	sgtu	a6,a6,t4
.LVL168:
	.loc 1 1594 404 discriminator 2
	add	a6,a6,a5
.LVL169:
	.loc 1 1594 417 is_stmt 1 discriminator 2
	.loc 1 1594 423 is_stmt 0 discriminator 2
	lw	a5,28(a4)
.LVL170:
	.loc 1 1594 420 discriminator 2
	add	t4,a5,t4
.LVL171:
	.loc 1 1594 427 is_stmt 1 discriminator 2
	.loc 1 1594 459 is_stmt 0 discriminator 2
	sw	t4,28(a4)
.LVL172:
	.loc 1 1594 437 discriminator 2
	sgtu	a5,a5,t4
	.loc 1 1594 430 discriminator 2
	add	a5,a5,a6
.LVL173:
	.loc 1 1594 444 is_stmt 1 discriminator 2
	.loc 1 1594 452 discriminator 2
	.loc 1 1596 9 discriminator 2
	.loc 1 1596 11 is_stmt 0 discriminator 2
	lw	a6,-32(a7)
	mul	t4,a3,a6
.LVL174:
	mulhu	a6,a3,a6
.LVL175:
	.loc 1 1596 49 is_stmt 1 discriminator 2
	.loc 1 1596 83 discriminator 2
	.loc 1 1596 164 discriminator 2
	.loc 1 1596 167 is_stmt 0 discriminator 2
	add	t4,a5,t4
.LVL176:
	.loc 1 1596 173 is_stmt 1 discriminator 2
	.loc 1 1596 183 is_stmt 0 discriminator 2
	sgtu	a5,a5,t4
.LVL177:
	.loc 1 1596 176 discriminator 2
	add	a5,a5,a6
.LVL178:
	.loc 1 1596 189 is_stmt 1 discriminator 2
	.loc 1 1596 195 is_stmt 0 discriminator 2
	lw	a6,32(a4)
.LVL179:
	.loc 1 1596 192 discriminator 2
	add	t4,a6,t4
.LVL180:
	.loc 1 1596 199 is_stmt 1 discriminator 2
	.loc 1 1596 231 is_stmt 0 discriminator 2
	sw	t4,32(a4)
.LVL181:
	.loc 1 1596 209 discriminator 2
	sgtu	a6,a6,t4
	.loc 1 1596 202 discriminator 2
	add	a6,a6,a5
.LVL182:
	.loc 1 1596 216 is_stmt 1 discriminator 2
	.loc 1 1596 224 discriminator 2
	.loc 1 1596 237 discriminator 2
	.loc 1 1596 239 is_stmt 0 discriminator 2
	lw	a5,-28(a7)
	mul	t4,a3,a5
.LVL183:
	mulhu	a5,a3,a5
.LVL184:
	.loc 1 1596 277 is_stmt 1 discriminator 2
	.loc 1 1596 311 discriminator 2
	.loc 1 1596 392 discriminator 2
	.loc 1 1596 395 is_stmt 0 discriminator 2
	add	t4,a6,t4
.LVL185:
	.loc 1 1596 401 is_stmt 1 discriminator 2
	.loc 1 1596 411 is_stmt 0 discriminator 2
	sgtu	a6,a6,t4
.LVL186:
	.loc 1 1596 404 discriminator 2
	add	a6,a6,a5
.LVL187:
	.loc 1 1596 417 is_stmt 1 discriminator 2
	.loc 1 1596 423 is_stmt 0 discriminator 2
	lw	a5,36(a4)
.LVL188:
	.loc 1 1596 420 discriminator 2
	add	t4,a5,t4
.LVL189:
	.loc 1 1596 427 is_stmt 1 discriminator 2
	.loc 1 1596 459 is_stmt 0 discriminator 2
	sw	t4,36(a4)
.LVL190:
	.loc 1 1596 437 discriminator 2
	sgtu	a5,a5,t4
	.loc 1 1596 430 discriminator 2
	add	a5,a5,a6
.LVL191:
	.loc 1 1596 444 is_stmt 1 discriminator 2
	.loc 1 1596 452 discriminator 2
	.loc 1 1597 9 discriminator 2
	.loc 1 1597 11 is_stmt 0 discriminator 2
	lw	a6,-24(a7)
	mul	t4,a3,a6
.LVL192:
	mulhu	a6,a3,a6
.LVL193:
	.loc 1 1597 49 is_stmt 1 discriminator 2
	.loc 1 1597 83 discriminator 2
	.loc 1 1597 164 discriminator 2
	.loc 1 1597 167 is_stmt 0 discriminator 2
	add	t4,a5,t4
.LVL194:
	.loc 1 1597 173 is_stmt 1 discriminator 2
	.loc 1 1597 183 is_stmt 0 discriminator 2
	sgtu	a5,a5,t4
.LVL195:
	.loc 1 1597 176 discriminator 2
	add	a5,a5,a6
.LVL196:
	.loc 1 1597 189 is_stmt 1 discriminator 2
	.loc 1 1597 195 is_stmt 0 discriminator 2
	lw	a6,40(a4)
.LVL197:
	.loc 1 1597 192 discriminator 2
	add	t4,a6,t4
.LVL198:
	.loc 1 1597 199 is_stmt 1 discriminator 2
	.loc 1 1597 231 is_stmt 0 discriminator 2
	sw	t4,40(a4)
.LVL199:
	.loc 1 1597 209 discriminator 2
	sgtu	a6,a6,t4
	.loc 1 1597 202 discriminator 2
	add	a6,a6,a5
.LVL200:
	.loc 1 1597 216 is_stmt 1 discriminator 2
	.loc 1 1597 224 discriminator 2
	.loc 1 1597 237 discriminator 2
	.loc 1 1597 239 is_stmt 0 discriminator 2
	lw	a5,-20(a7)
	mul	t4,a3,a5
.LVL201:
	mulhu	a5,a3,a5
.LVL202:
	.loc 1 1597 277 is_stmt 1 discriminator 2
	.loc 1 1597 311 discriminator 2
	.loc 1 1597 392 discriminator 2
	.loc 1 1597 395 is_stmt 0 discriminator 2
	add	t4,a6,t4
.LVL203:
	.loc 1 1597 401 is_stmt 1 discriminator 2
	.loc 1 1597 411 is_stmt 0 discriminator 2
	sgtu	a6,a6,t4
.LVL204:
	.loc 1 1597 404 discriminator 2
	add	a6,a6,a5
.LVL205:
	.loc 1 1597 417 is_stmt 1 discriminator 2
	.loc 1 1597 423 is_stmt 0 discriminator 2
	lw	a5,44(a4)
.LVL206:
	.loc 1 1597 420 discriminator 2
	add	t4,a5,t4
.LVL207:
	.loc 1 1597 427 is_stmt 1 discriminator 2
	.loc 1 1597 459 is_stmt 0 discriminator 2
	sw	t4,44(a4)
.LVL208:
	.loc 1 1597 437 discriminator 2
	sgtu	a5,a5,t4
	.loc 1 1597 430 discriminator 2
	add	a5,a5,a6
.LVL209:
	.loc 1 1597 444 is_stmt 1 discriminator 2
	.loc 1 1597 452 discriminator 2
	.loc 1 1598 9 discriminator 2
	.loc 1 1598 11 is_stmt 0 discriminator 2
	lw	a6,-16(a7)
	mul	t4,a3,a6
.LVL210:
	mulhu	a6,a3,a6
.LVL211:
	.loc 1 1598 49 is_stmt 1 discriminator 2
	.loc 1 1598 83 discriminator 2
	.loc 1 1598 164 discriminator 2
	.loc 1 1598 167 is_stmt 0 discriminator 2
	add	t4,a5,t4
.LVL212:
	.loc 1 1598 173 is_stmt 1 discriminator 2
	.loc 1 1598 183 is_stmt 0 discriminator 2
	sgtu	a5,a5,t4
.LVL213:
	.loc 1 1598 176 discriminator 2
	add	a5,a5,a6
.LVL214:
	.loc 1 1598 189 is_stmt 1 discriminator 2
	.loc 1 1598 195 is_stmt 0 discriminator 2
	lw	a6,48(a4)
.LVL215:
	.loc 1 1598 192 discriminator 2
	add	t4,a6,t4
.LVL216:
	.loc 1 1598 199 is_stmt 1 discriminator 2
	.loc 1 1598 231 is_stmt 0 discriminator 2
	sw	t4,48(a4)
.LVL217:
	.loc 1 1598 209 discriminator 2
	sgtu	a6,a6,t4
	.loc 1 1598 202 discriminator 2
	add	a6,a6,a5
.LVL218:
	.loc 1 1598 216 is_stmt 1 discriminator 2
	.loc 1 1598 224 discriminator 2
	.loc 1 1598 237 discriminator 2
	.loc 1 1598 239 is_stmt 0 discriminator 2
	lw	a5,-12(a7)
	mul	t4,a3,a5
.LVL219:
	mulhu	a5,a3,a5
.LVL220:
	.loc 1 1598 277 is_stmt 1 discriminator 2
	.loc 1 1598 311 discriminator 2
	.loc 1 1598 392 discriminator 2
	.loc 1 1598 395 is_stmt 0 discriminator 2
	add	t4,a6,t4
.LVL221:
	.loc 1 1598 401 is_stmt 1 discriminator 2
	.loc 1 1598 411 is_stmt 0 discriminator 2
	sgtu	a6,a6,t4
.LVL222:
	.loc 1 1598 404 discriminator 2
	add	a6,a6,a5
.LVL223:
	.loc 1 1598 417 is_stmt 1 discriminator 2
	.loc 1 1598 423 is_stmt 0 discriminator 2
	lw	a5,52(a4)
.LVL224:
	.loc 1 1598 420 discriminator 2
	add	t4,a5,t4
.LVL225:
	.loc 1 1598 427 is_stmt 1 discriminator 2
	.loc 1 1598 459 is_stmt 0 discriminator 2
	sw	t4,52(a4)
.LVL226:
	.loc 1 1598 437 discriminator 2
	sgtu	a5,a5,t4
	.loc 1 1598 430 discriminator 2
	add	a5,a5,a6
.LVL227:
	.loc 1 1598 444 is_stmt 1 discriminator 2
	.loc 1 1598 452 discriminator 2
	.loc 1 1599 9 discriminator 2
	.loc 1 1599 11 is_stmt 0 discriminator 2
	lw	a6,-8(a7)
	mul	t4,a3,a6
.LVL228:
	mulhu	a6,a3,a6
.LVL229:
	.loc 1 1599 49 is_stmt 1 discriminator 2
	.loc 1 1599 83 discriminator 2
	.loc 1 1599 164 discriminator 2
	.loc 1 1599 167 is_stmt 0 discriminator 2
	add	t4,a5,t4
.LVL230:
	.loc 1 1599 173 is_stmt 1 discriminator 2
	.loc 1 1599 183 is_stmt 0 discriminator 2
	sgtu	a5,a5,t4
.LVL231:
	.loc 1 1599 176 discriminator 2
	add	a5,a5,a6
.LVL232:
	.loc 1 1599 189 is_stmt 1 discriminator 2
	.loc 1 1599 195 is_stmt 0 discriminator 2
	lw	a6,56(a4)
.LVL233:
	.loc 1 1599 192 discriminator 2
	add	t4,a6,t4
.LVL234:
	.loc 1 1599 199 is_stmt 1 discriminator 2
	.loc 1 1599 231 is_stmt 0 discriminator 2
	sw	t4,56(a4)
.LVL235:
	.loc 1 1599 209 discriminator 2
	sgtu	a6,a6,t4
	.loc 1 1599 202 discriminator 2
	add	a6,a6,a5
.LVL236:
	.loc 1 1599 216 is_stmt 1 discriminator 2
	.loc 1 1599 224 discriminator 2
	.loc 1 1599 237 discriminator 2
	.loc 1 1599 239 is_stmt 0 discriminator 2
	lw	a5,-4(a7)
	mul	t4,a3,a5
.LVL237:
	mulhu	a5,a3,a5
.LVL238:
	.loc 1 1599 277 is_stmt 1 discriminator 2
	.loc 1 1599 311 discriminator 2
	.loc 1 1599 392 discriminator 2
	.loc 1 1599 395 is_stmt 0 discriminator 2
	add	t4,a6,t4
.LVL239:
	.loc 1 1599 401 is_stmt 1 discriminator 2
	.loc 1 1599 411 is_stmt 0 discriminator 2
	sgtu	a6,a6,t4
.LVL240:
	.loc 1 1599 404 discriminator 2
	add	a6,a6,a5
.LVL241:
	.loc 1 1599 417 is_stmt 1 discriminator 2
	.loc 1 1599 423 is_stmt 0 discriminator 2
	lw	a5,60(a4)
.LVL242:
	addi	a4,a4,64
.LVL243:
	.loc 1 1599 420 discriminator 2
	add	t4,a5,t4
.LVL244:
	.loc 1 1599 427 is_stmt 1 discriminator 2
	.loc 1 1599 437 is_stmt 0 discriminator 2
	sgtu	a5,a5,t4
	.loc 1 1599 430 discriminator 2
	add	a5,a5,a6
.LVL245:
	.loc 1 1599 444 is_stmt 1 discriminator 2
	.loc 1 1599 452 discriminator 2
	.loc 1 1599 459 is_stmt 0 discriminator 2
	sw	t4,-4(a4)
.LVL246:
.LBE75:
	.loc 1 1588 21 is_stmt 1 discriminator 2
	j	.L18
.LVL247:
.L22:
.LBB76:
	.loc 1 1616 11 discriminator 2
	.loc 1 1616 36 discriminator 2
	.loc 1 1617 9 discriminator 2
	.loc 1 1617 11 is_stmt 0 discriminator 2
	lw	t1,0(a1)
	.loc 1 1617 16 discriminator 2
	addi	a1,a1,4
.LVL248:
	.loc 1 1617 11 discriminator 2
	mul	a4,a3,t1
	mulhu	t1,a3,t1
.LVL249:
	.loc 1 1617 49 is_stmt 1 discriminator 2
	.loc 1 1617 83 discriminator 2
	.loc 1 1617 164 discriminator 2
	.loc 1 1617 167 is_stmt 0 discriminator 2
	add	a4,a5,a4
.LVL250:
	.loc 1 1617 173 is_stmt 1 discriminator 2
	.loc 1 1617 183 is_stmt 0 discriminator 2
	sgtu	a5,a5,a4
.LVL251:
	.loc 1 1617 192 discriminator 2
	add	a4,a7,a4
.LVL252:
	.loc 1 1617 209 discriminator 2
	sgtu	a7,a7,a4
	.loc 1 1617 231 discriminator 2
	sw	a4,-4(a6)
.LVL253:
	.loc 1 1617 176 discriminator 2
	add	t1,a5,t1
.LVL254:
	.loc 1 1617 189 is_stmt 1 discriminator 2
	.loc 1 1617 199 discriminator 2
	.loc 1 1617 202 is_stmt 0 discriminator 2
	add	a5,a7,t1
.LVL255:
	.loc 1 1617 216 is_stmt 1 discriminator 2
	.loc 1 1617 224 discriminator 2
.LBE76:
	.loc 1 1614 19 discriminator 2
	j	.L21
.LVL256:
.L24:
	.loc 1 1625 20 is_stmt 0
	li	a5,1
.LVL257:
	j	.L23
	.cfi_endproc
.LFE45:
	.size	mpi_mul_hlp, .-mpi_mul_hlp
	.section	.text.mpi_montmul,"ax",@progbits
	.align	1
	.type	mpi_montmul, @function
mpi_montmul:
.LFB54:
	.loc 1 2059 1 is_stmt 1
	.cfi_startproc
.LVL258:
	.loc 1 2060 5
	.loc 1 2061 5
	.loc 1 2063 5
	.loc 1 2059 1 is_stmt 0
	addi	sp,sp,-80
	.cfi_def_cfa_offset 80
	sw	s0,72(sp)
	sw	s1,68(sp)
	sw	s2,64(sp)
	sw	s5,52(sp)
	sw	s6,48(sp)
	sw	s7,44(sp)
	sw	s9,36(sp)
	sw	s10,32(sp)
	sw	s11,28(sp)
	sw	ra,76(sp)
	sw	s3,60(sp)
	sw	s4,56(sp)
	sw	s8,40(sp)
	.cfi_offset 8, -8
	.cfi_offset 9, -12
	.cfi_offset 18, -16
	.cfi_offset 21, -28
	.cfi_offset 22, -32
	.cfi_offset 23, -36
	.cfi_offset 25, -44
	.cfi_offset 26, -48
	.cfi_offset 27, -52
	.cfi_offset 1, -4
	.cfi_offset 19, -20
	.cfi_offset 20, -24
	.cfi_offset 24, -40
	addi	s0,sp,80
	.cfi_def_cfa 8, 0
	.loc 1 2059 1
	mv	s5,a2
	.loc 1 2063 5
	lw	a2,4(a4)
.LVL259:
	.loc 1 2059 1
	mv	s6,a0
	.loc 1 2063 5
	lw	a0,8(a4)
.LVL260:
	.loc 1 2059 1
	mv	s10,a1
	.loc 1 2063 5
	slli	a2,a2,2
	li	a1,0
.LVL261:
	.loc 1 2059 1
	mv	s1,a4
	mv	s7,a3
	.loc 1 2063 5
	call	memset
.LVL262:
	.loc 1 2065 5 is_stmt 1
	.loc 1 2066 7 is_stmt 0
	lw	s9,4(s5)
	.loc 1 2067 7
	lw	s11,4(s10)
	.loc 1 2065 7
	lw	s2,8(s1)
.LVL263:
	.loc 1 2066 5 is_stmt 1
	.loc 1 2067 5
	.loc 1 2067 7 is_stmt 0
	bleu	s11,s9,.L27
	mv	s11,s9
.L27:
.LVL264:
	.loc 1 2069 5 is_stmt 1
	.loc 1 2080 21 is_stmt 0
	addi	s1,s9,1
.LVL265:
	slli	s1,s1,2
	.loc 1 2065 7
	mv	s3,s2
	.loc 1 2069 12
	li	s8,0
.LVL266:
.L28:
	.loc 1 2069 17 is_stmt 1 discriminator 1
	.loc 1 2074 15 is_stmt 0 discriminator 1
	lw	a0,8(s6)
	.loc 1 2069 5 discriminator 1
	bne	s8,s9,.L29
	addi	s1,s1,-4
	add	s2,s2,s1
	.loc 1 2089 5 is_stmt 1
	mv	a2,s1
	mv	a1,s2
	call	memcpy
.LVL267:
	.loc 1 2093 5
	.loc 1 2093 10 is_stmt 0
	add	s1,s2,s1
	lw	a5,0(s1)
	.loc 1 2094 13
	mv	a1,s2
	mv	a0,s8
	.loc 1 2093 10
	addi	a5,a5,1
	sw	a5,0(s1)
	.loc 1 2094 5 is_stmt 1
	.loc 1 2094 13 is_stmt 0
	lw	a2,8(s5)
	call	mpi_sub_hlp
.LVL268:
	.loc 1 2094 10
	lw	a3,0(s1)
	.loc 1 2101 5
	mv	a2,s2
	.loc 1 2094 10
	sub	a3,a3,a0
	sw	a3,0(s1)
	.loc 1 2101 5 is_stmt 1
	.loc 1 2102 1 is_stmt 0
	lw	s0,72(sp)
	.cfi_remember_state
	.cfi_restore 8
	.cfi_def_cfa 2, 80
	.loc 1 2101 5
	lw	a1,8(s6)
	.loc 1 2102 1
	lw	ra,76(sp)
	.cfi_restore 1
	lw	s1,68(sp)
	.cfi_restore 9
	lw	s2,64(sp)
	.cfi_restore 18
	lw	s3,60(sp)
	.cfi_restore 19
.LVL269:
	lw	s4,56(sp)
	.cfi_restore 20
	lw	s5,52(sp)
	.cfi_restore 21
.LVL270:
	lw	s6,48(sp)
	.cfi_restore 22
.LVL271:
	lw	s7,44(sp)
	.cfi_restore 23
.LVL272:
	lw	s9,36(sp)
	.cfi_restore 25
.LVL273:
	lw	s10,32(sp)
	.cfi_restore 26
.LVL274:
	lw	s11,28(sp)
	.cfi_restore 27
.LVL275:
	.loc 1 2101 5
	mv	a0,s8
	.loc 1 2102 1
	lw	s8,40(sp)
	.cfi_restore 24
.LVL276:
	.loc 1 2101 5
	andi	a3,a3,0xff
	.loc 1 2102 1
	addi	sp,sp,80
	.cfi_def_cfa_offset 0
	.loc 1 2101 5
	tail	mpi_safe_cond_assign
.LVL277:
.L29:
	.cfi_restore_state
	.loc 1 2074 9 is_stmt 1 discriminator 3
	.loc 1 2075 29 is_stmt 0 discriminator 3
	lw	a1,8(s10)
	.loc 1 2074 12 discriminator 3
	slli	a5,s8,2
	add	a0,a0,a5
	lw	a5,0(a0)
.LVL278:
	.loc 1 2075 9 is_stmt 1 discriminator 3
	.loc 1 2075 26 is_stmt 0 discriminator 3
	lw	s4,0(a1)
	.loc 1 2075 21 discriminator 3
	lw	a4,0(s3)
	.loc 1 2077 9 discriminator 3
	mv	a3,a5
	.loc 1 2075 26 discriminator 3
	mul	s4,a5,s4
	.loc 1 2077 9 discriminator 3
	mv	a2,s3
	mv	a0,s11
	sw	a5,-68(s0)
	.loc 1 2069 25 discriminator 3
	addi	s8,s8,1
.LVL279:
	.loc 1 2075 21 discriminator 3
	add	s4,s4,a4
	.loc 1 2075 12 discriminator 3
	mul	s4,s4,s7
.LVL280:
	.loc 1 2077 9 is_stmt 1 discriminator 3
	call	mpi_mul_hlp
.LVL281:
	.loc 1 2078 9 discriminator 3
	lw	a1,8(s5)
	mv	a2,s3
	mv	a0,s9
	.loc 1 2080 11 is_stmt 0 discriminator 3
	addi	s3,s3,4
.LVL282:
	.loc 1 2078 9 discriminator 3
	mv	a3,s4
	call	mpi_mul_hlp
.LVL283:
	.loc 1 2080 9 is_stmt 1 discriminator 3
	.loc 1 2080 14 is_stmt 0 discriminator 3
	lw	a5,-68(s0)
	sw	a5,-4(s3)
	.loc 1 2080 20 is_stmt 1 discriminator 3
	.loc 1 2080 29 is_stmt 0 discriminator 3
	add	a5,s3,s1
	sw	zero,0(a5)
	.loc 1 2069 24 is_stmt 1 discriminator 3
.LVL284:
	j	.L28
	.cfi_endproc
.LFE54:
	.size	mpi_montmul, .-mpi_montmul
	.globl	__bswapsi2
	.section	.text.mpi_bigendian_to_host,"ax",@progbits
	.align	1
	.type	mpi_bigendian_to_host, @function
mpi_bigendian_to_host:
.LFB28:
	.loc 1 907 1
	.cfi_startproc
.LVL285:
	.loc 1 908 5
	.loc 1 909 5
	.loc 1 910 5
	.loc 1 910 7 is_stmt 0
	beq	a1,zero,.L37
	.loc 1 907 1
	addi	sp,sp,-32
	.cfi_def_cfa_offset 32
	sw	s1,20(sp)
	.cfi_offset 9, -12
.LBB84:
.LBB85:
	.loc 1 922 48
	slli	s1,a1,2
.LBE85:
.LBE84:
	.loc 1 907 1
	sw	s0,24(sp)
	sw	s2,16(sp)
	sw	ra,28(sp)
	sw	s3,12(sp)
	.cfi_offset 8, -8
	.cfi_offset 18, -16
	.cfi_offset 1, -4
	.cfi_offset 19, -20
	addi	s0,sp,32
	.cfi_def_cfa 8, 0
.LBB97:
.LBB94:
	.loc 1 922 48
	addi	s1,s1,-4
.LBE94:
.LBE97:
	.loc 1 907 1
	mv	s2,a0
.LVL286:
.LBB98:
.LBB95:
	.loc 1 922 5 is_stmt 1
	.loc 1 922 44 is_stmt 0
	add	s1,a0,s1
.LVL287:
.L33:
	.loc 1 923 10 is_stmt 1
	.loc 1 922 5 is_stmt 0
	bleu	s2,s1,.L34
.LBE95:
.LBE98:
	.loc 1 933 1
	lw	ra,28(sp)
	.cfi_remember_state
	.cfi_restore 1
	lw	s0,24(sp)
	.cfi_restore 8
	.cfi_def_cfa 2, 32
	lw	s1,20(sp)
	.cfi_restore 9
.LVL288:
	lw	s2,16(sp)
	.cfi_restore 18
.LVL289:
	lw	s3,12(sp)
	.cfi_restore 19
	addi	sp,sp,32
	.cfi_def_cfa_offset 0
	jr	ra
.LVL290:
.L34:
	.cfi_restore_state
.LBB99:
.LBB96:
.LBB86:
	.loc 1 926 9 is_stmt 1
	.loc 1 929 9
.LBB87:
.LBB88:
	.loc 1 890 5
	.loc 1 893 13
	.loc 1 893 21 is_stmt 0
	lw	a0,0(s2)
.LBE88:
.LBE87:
.LBE86:
	.loc 1 924 41
	addi	s1,s1,-4
.LVL291:
	.loc 1 924 23
	addi	s2,s2,4
.LVL292:
.LBB93:
.LBB90:
.LBB89:
	.loc 1 893 21
	call	__bswapsi2
.LVL293:
	mv	s3,a0
.LVL294:
.LBE89:
.LBE90:
	.loc 1 930 9 is_stmt 1
.LBB91:
.LBB92:
	.loc 1 890 5
	.loc 1 893 13
	.loc 1 893 21 is_stmt 0
	lw	a0,4(s1)
.LVL295:
	call	__bswapsi2
.LVL296:
.LBE92:
.LBE91:
	.loc 1 930 24
	sw	a0,-4(s2)
	.loc 1 931 9 is_stmt 1
	.loc 1 931 25 is_stmt 0
	sw	s3,4(s1)
.LBE93:
	.loc 1 924 10 is_stmt 1
.LVL297:
	j	.L33
.LVL298:
.L37:
	.cfi_def_cfa_register 2
	.cfi_restore 1
	.cfi_restore 8
	.cfi_restore 9
	.cfi_restore 18
	.cfi_restore 19
	ret
.LBE96:
.LBE99:
	.cfi_endproc
.LFE28:
	.size	mpi_bigendian_to_host, .-mpi_bigendian_to_host
	.section	.text.blcrypto_suite_mpi_init,"ax",@progbits
	.align	1
	.globl	blcrypto_suite_mpi_init
	.type	blcrypto_suite_mpi_init, @function
blcrypto_suite_mpi_init:
.LFB5:
	.loc 1 117 1
	.cfi_startproc
.LVL299:
	.loc 1 118 5
	.loc 1 118 10
	.loc 1 118 17
	.loc 1 120 5
	.loc 1 117 1 is_stmt 0
	addi	sp,sp,-16
	.cfi_def_cfa_offset 16
	sw	s0,12(sp)
	.cfi_offset 8, -4
	addi	s0,sp,16
	.cfi_def_cfa 8, 0
	.loc 1 123 1
	lw	s0,12(sp)
	.cfi_restore 8
	.cfi_def_cfa 2, 16
	.loc 1 120 10
	li	a5,1
	sw	a5,0(a0)
	.loc 1 121 5 is_stmt 1
	.loc 1 121 10 is_stmt 0
	sw	zero,4(a0)
	.loc 1 122 5 is_stmt 1
	.loc 1 122 10 is_stmt 0
	sw	zero,8(a0)
	.loc 1 123 1
	addi	sp,sp,16
	.cfi_def_cfa_offset 0
	jr	ra
	.cfi_endproc
.LFE5:
	.size	blcrypto_suite_mpi_init, .-blcrypto_suite_mpi_init
	.section	.text.blcrypto_suite_mpi_free,"ax",@progbits
	.align	1
	.globl	blcrypto_suite_mpi_free
	.type	blcrypto_suite_mpi_free, @function
blcrypto_suite_mpi_free:
.LFB6:
	.loc 1 129 1 is_stmt 1
	.cfi_startproc
.LVL300:
	.loc 1 130 5
	.loc 1 130 7 is_stmt 0
	beq	a0,zero,.L52
	.loc 1 129 1
	addi	sp,sp,-16
	.cfi_def_cfa_offset 16
	sw	s0,8(sp)
	sw	s1,4(sp)
	sw	ra,12(sp)
	.cfi_offset 8, -8
	.cfi_offset 9, -12
	.cfi_offset 1, -4
	addi	s0,sp,16
	.cfi_def_cfa 8, 0
	mv	s1,a0
	.loc 1 133 5 is_stmt 1
	.loc 1 133 10 is_stmt 0
	lw	a0,8(a0)
.LVL301:
	.loc 1 133 7
	beq	a0,zero,.L44
	.loc 1 135 9 is_stmt 1
.LVL302:
.LBB102:
.LBB103:
	.loc 1 110 5
	lw	a1,4(s1)
	slli	a1,a1,2
	call	blcrypto_suite_platform_zeroize
.LVL303:
.LBE103:
.LBE102:
	.loc 1 136 9
	lw	a0,8(s1)
	call	blcrypto_suite_free
.LVL304:
.L44:
	.loc 1 139 5
	.loc 1 139 10 is_stmt 0
	li	a5,1
	sw	a5,0(s1)
	.loc 1 140 5 is_stmt 1
	.loc 1 140 10 is_stmt 0
	sw	zero,4(s1)
	.loc 1 141 5 is_stmt 1
	.loc 1 141 10 is_stmt 0
	sw	zero,8(s1)
	.loc 1 142 1
	lw	ra,12(sp)
	.cfi_restore 1
	lw	s0,8(sp)
	.cfi_restore 8
	.cfi_def_cfa 2, 16
	lw	s1,4(sp)
	.cfi_restore 9
.LVL305:
	addi	sp,sp,16
	.cfi_def_cfa_offset 0
	jr	ra
.LVL306:
.L52:
	ret
	.cfi_endproc
.LFE6:
	.size	blcrypto_suite_mpi_free, .-blcrypto_suite_mpi_free
	.section	.text.blcrypto_suite_mpi_grow,"ax",@progbits
	.align	1
	.globl	blcrypto_suite_mpi_grow
	.type	blcrypto_suite_mpi_grow, @function
blcrypto_suite_mpi_grow:
.LFB7:
	.loc 1 148 1 is_stmt 1
	.cfi_startproc
.LVL307:
	.loc 1 149 5
	.loc 1 150 5
	.loc 1 150 10
	.loc 1 150 17
	.loc 1 152 5
	.loc 1 152 7 is_stmt 0
	li	a5,8192
	addi	a5,a5,1808
	bleu	a1,a5,.L56
	.loc 1 153 15
	li	a0,-16
.LVL308:
	.loc 1 172 1
	ret
.LVL309:
.L58:
	.cfi_def_cfa_register 8
	.cfi_offset 1, -4
	.cfi_offset 8, -8
	.cfi_offset 9, -12
	.cfi_offset 18, -16
	.cfi_offset 19, -20
	.loc 1 153 15
	li	a0,-16
.LVL310:
.L55:
	.loc 1 172 1
	lw	ra,28(sp)
	.cfi_restore 1
	lw	s0,24(sp)
	.cfi_restore 8
	.cfi_def_cfa 2, 32
	lw	s1,20(sp)
	.cfi_restore 9
.LVL311:
	lw	s2,16(sp)
	.cfi_restore 18
.LVL312:
	lw	s3,12(sp)
	.cfi_restore 19
	addi	sp,sp,32
	.cfi_def_cfa_offset 0
	jr	ra
.LVL313:
.L56:
	.loc 1 148 1
	addi	sp,sp,-32
	.cfi_def_cfa_offset 32
	sw	s0,24(sp)
	sw	s1,20(sp)
	sw	s2,16(sp)
	sw	ra,28(sp)
	sw	s3,12(sp)
	.cfi_offset 8, -8
	.cfi_offset 9, -12
	.cfi_offset 18, -16
	.cfi_offset 1, -4
	.cfi_offset 19, -20
	addi	s0,sp,32
	.cfi_def_cfa 8, 0
	.loc 1 155 7
	lw	a5,4(a0)
	mv	s1,a0
	mv	s2,a1
	.loc 1 155 5 is_stmt 1
	.loc 1 171 11 is_stmt 0
	li	a0,0
.LVL314:
	.loc 1 155 7
	bgeu	a5,a1,.L55
.LVL315:
.LBB108:
.LBB109:
	.loc 1 157 9 is_stmt 1
	.loc 1 157 45 is_stmt 0
	li	a1,4
.LVL316:
	mv	a0,s2
	call	blcrypto_suite_calloc
.LVL317:
	mv	s3,a0
.LVL318:
	.loc 1 157 11
	beq	a0,zero,.L58
	.loc 1 160 9 is_stmt 1
	.loc 1 160 14 is_stmt 0
	lw	a1,8(s1)
	.loc 1 160 11
	beq	a1,zero,.L59
	.loc 1 162 13 is_stmt 1
	lw	a2,4(s1)
	slli	a2,a2,2
	call	memcpy
.LVL319:
	.loc 1 163 13
.LBB110:
.LBB111:
	.loc 1 110 5
	lw	a1,4(s1)
	lw	a0,8(s1)
	slli	a1,a1,2
	call	blcrypto_suite_platform_zeroize
.LVL320:
.LBE111:
.LBE110:
	.loc 1 164 13
	lw	a0,8(s1)
	call	blcrypto_suite_free
.LVL321:
.L59:
	.loc 1 167 9
	.loc 1 167 14 is_stmt 0
	sw	s2,4(s1)
	.loc 1 168 9 is_stmt 1
	.loc 1 168 14 is_stmt 0
	sw	s3,8(s1)
	.loc 1 171 11
	li	a0,0
	j	.L55
.LBE109:
.LBE108:
	.cfi_endproc
.LFE7:
	.size	blcrypto_suite_mpi_grow, .-blcrypto_suite_mpi_grow
	.section	.text.blcrypto_suite_mpi_shrink,"ax",@progbits
	.align	1
	.globl	blcrypto_suite_mpi_shrink
	.type	blcrypto_suite_mpi_shrink, @function
blcrypto_suite_mpi_shrink:
.LFB8:
	.loc 1 179 1 is_stmt 1
	.cfi_startproc
.LVL322:
	.loc 1 180 5
	.loc 1 181 5
	.loc 1 182 5
	.loc 1 182 10
	.loc 1 182 17
	.loc 1 184 5
	.loc 1 184 7 is_stmt 0
	li	a5,8192
	addi	a5,a5,1808
	bleu	a1,a5,.L71
	.loc 1 185 15
	li	a0,-16
.LVL323:
	.loc 1 214 1
	ret
.LVL324:
.L78:
	.cfi_def_cfa_register 8
	.cfi_offset 1, -4
	.cfi_offset 8, -8
	.cfi_offset 9, -12
	.cfi_offset 18, -16
	.cfi_offset 19, -20
	.loc 1 185 15
	li	a0,-16
.LVL325:
.L70:
	.loc 1 214 1
	lw	ra,28(sp)
	.cfi_restore 1
	lw	s0,24(sp)
	.cfi_restore 8
	.cfi_def_cfa 2, 32
	lw	s1,20(sp)
	.cfi_restore 9
.LVL326:
	lw	s2,16(sp)
	.cfi_restore 18
.LVL327:
	lw	s3,12(sp)
	.cfi_restore 19
.LVL328:
	addi	sp,sp,32
	.cfi_def_cfa_offset 0
	jr	ra
.LVL329:
.L71:
	.loc 1 179 1
	addi	sp,sp,-32
	.cfi_def_cfa_offset 32
	sw	s0,24(sp)
	sw	s1,20(sp)
	sw	s2,16(sp)
	sw	ra,28(sp)
	sw	s3,12(sp)
	.cfi_offset 8, -8
	.cfi_offset 9, -12
	.cfi_offset 18, -16
	.cfi_offset 1, -4
	.cfi_offset 19, -20
	addi	s0,sp,32
	.cfi_def_cfa 8, 0
	.loc 1 188 10
	lw	a4,4(a0)
	mv	s2,a0
	mv	s1,a1
	.loc 1 188 5 is_stmt 1
	.loc 1 192 12 is_stmt 0
	addi	a5,a4,-1
	.loc 1 188 7
	bgtu	a4,a1,.L74
.LVL330:
	.loc 1 189 9 is_stmt 1
	.loc 1 214 1 is_stmt 0
	lw	s0,24(sp)
	.cfi_remember_state
	.cfi_restore 8
	.cfi_def_cfa 2, 32
	lw	ra,28(sp)
	.cfi_restore 1
	lw	s1,20(sp)
	.cfi_restore 9
.LVL331:
	lw	s2,16(sp)
	.cfi_restore 18
	lw	s3,12(sp)
	.cfi_restore 19
	addi	sp,sp,32
	.cfi_def_cfa_offset 0
	.loc 1 189 17
	tail	blcrypto_suite_mpi_grow
.LVL332:
.L76:
	.cfi_restore_state
	.loc 1 193 9 is_stmt 1
	.loc 1 193 17 is_stmt 0
	lw	a4,8(s2)
	slli	a3,a5,2
	add	a4,a4,a3
	.loc 1 193 11
	lw	a4,0(a4)
	bne	a4,zero,.L75
	.loc 1 192 31 is_stmt 1 discriminator 2
	.loc 1 192 32 is_stmt 0 discriminator 2
	addi	a5,a5,-1
.LVL333:
.L74:
	.loc 1 192 24 is_stmt 1 discriminator 1
	.loc 1 192 5 is_stmt 0 discriminator 1
	bne	a5,zero,.L76
.L75:
	.loc 1 195 5 is_stmt 1
	.loc 1 195 6 is_stmt 0
	addi	a5,a5,1
.LVL334:
	.loc 1 197 5 is_stmt 1
	bgeu	s1,a5,.L77
	mv	s1,a5
.LVL335:
.L77:
	.loc 1 200 5
	.loc 1 200 41 is_stmt 0
	li	a1,4
.LVL336:
	mv	a0,s1
.LVL337:
	call	blcrypto_suite_calloc
.LVL338:
	mv	s3,a0
.LVL339:
	.loc 1 200 7
	beq	a0,zero,.L78
	.loc 1 203 5 is_stmt 1
	.loc 1 203 10 is_stmt 0
	lw	a1,8(s2)
	.loc 1 203 7
	beq	a1,zero,.L79
	.loc 1 205 9 is_stmt 1
	slli	a2,s1,2
	call	memcpy
.LVL340:
	.loc 1 206 9
.LBB114:
.LBB115:
	.loc 1 110 5
	lw	a1,4(s2)
	lw	a0,8(s2)
	slli	a1,a1,2
	call	blcrypto_suite_platform_zeroize
.LVL341:
.LBE115:
.LBE114:
	.loc 1 207 9
	lw	a0,8(s2)
	call	blcrypto_suite_free
.LVL342:
.L79:
	.loc 1 210 5
	.loc 1 210 10 is_stmt 0
	sw	s1,4(s2)
	.loc 1 211 5 is_stmt 1
	.loc 1 211 10 is_stmt 0
	sw	s3,8(s2)
	.loc 1 213 5 is_stmt 1
	.loc 1 213 11 is_stmt 0
	li	a0,0
	j	.L70
	.cfi_endproc
.LFE8:
	.size	blcrypto_suite_mpi_shrink, .-blcrypto_suite_mpi_shrink
	.section	.text.blcrypto_suite_mpi_copy,"ax",@progbits
	.align	1
	.globl	blcrypto_suite_mpi_copy
	.type	blcrypto_suite_mpi_copy, @function
blcrypto_suite_mpi_copy:
.LFB9:
	.loc 1 220 1 is_stmt 1
	.cfi_startproc
.LVL343:
	.loc 1 221 5
	.loc 1 222 5
	.loc 1 223 5
	.loc 1 223 10
	.loc 1 223 17
	.loc 1 224 5
	.loc 1 224 10
	.loc 1 224 17
	.loc 1 226 5
	.loc 1 226 7 is_stmt 0
	beq	a0,a1,.L98
	.loc 1 220 1
	addi	sp,sp,-32
	.cfi_def_cfa_offset 32
	sw	s0,24(sp)
	sw	s1,20(sp)
	sw	s2,16(sp)
	sw	s3,12(sp)
	sw	ra,28(sp)
	.cfi_offset 8, -8
	.cfi_offset 9, -12
	.cfi_offset 18, -16
	.cfi_offset 19, -20
	.cfi_offset 1, -4
	addi	s0,sp,32
	.cfi_def_cfa 8, 0
	.loc 1 229 10
	lw	a5,4(a1)
	mv	s2,a0
	mv	s3,a1
	.loc 1 229 5 is_stmt 1
	.loc 1 235 12 is_stmt 0
	addi	s1,a5,-1
	.loc 1 229 7
	bne	a5,zero,.L93
	.loc 1 231 9 is_stmt 1
	call	blcrypto_suite_mpi_free
.LVL344:
	.loc 1 232 9
.L104:
	.loc 1 251 5 is_stmt 0
	li	a0,0
	j	.L90
.LVL345:
.L95:
	.loc 1 236 9 is_stmt 1
	.loc 1 236 17 is_stmt 0
	lw	a5,8(s3)
	slli	a4,s1,2
	add	a5,a5,a4
	.loc 1 236 11
	lw	a5,0(a5)
	bne	a5,zero,.L94
	.loc 1 235 31 is_stmt 1 discriminator 2
	.loc 1 235 32 is_stmt 0 discriminator 2
	addi	s1,s1,-1
.LVL346:
.L93:
	.loc 1 235 24 is_stmt 1 discriminator 1
	.loc 1 235 5 is_stmt 0 discriminator 1
	bne	s1,zero,.L95
.L94:
	.loc 1 238 5 is_stmt 1
	.loc 1 240 13 is_stmt 0
	lw	a5,0(s3)
	.loc 1 242 10
	lw	a2,4(s2)
	.loc 1 238 6
	addi	s1,s1,1
.LVL347:
	.loc 1 240 5 is_stmt 1
	.loc 1 240 10 is_stmt 0
	sw	a5,0(s2)
	.loc 1 242 5 is_stmt 1
	.loc 1 242 7 is_stmt 0
	bgeu	a2,s1,.L96
	.loc 1 244 9 is_stmt 1
	.loc 1 244 14
	.loc 1 244 27 is_stmt 0
	mv	a1,s1
.LVL348:
	mv	a0,s2
.LVL349:
	call	blcrypto_suite_mpi_grow
.LVL350:
	.loc 1 244 16
	beq	a0,zero,.L97
.LVL351:
.L90:
	.loc 1 256 1
	lw	ra,28(sp)
	.cfi_remember_state
	.cfi_restore 1
	lw	s0,24(sp)
	.cfi_restore 8
	.cfi_def_cfa 2, 32
	lw	s1,20(sp)
	.cfi_restore 9
	lw	s2,16(sp)
	.cfi_restore 18
.LVL352:
	lw	s3,12(sp)
	.cfi_restore 19
.LVL353:
	addi	sp,sp,32
	.cfi_def_cfa_offset 0
	jr	ra
.LVL354:
.L96:
	.cfi_restore_state
	.loc 1 248 9 is_stmt 1
	.loc 1 248 22 is_stmt 0
	lw	a5,8(s2)
	.loc 1 248 37
	sub	a2,a2,s1
	.loc 1 248 22
	slli	a0,s1,2
.LVL355:
	.loc 1 248 9
	slli	a2,a2,2
	li	a1,0
.LVL356:
	add	a0,a5,a0
	call	memset
.LVL357:
.L97:
	.loc 1 251 5 is_stmt 1
	lw	a1,8(s3)
	lw	a0,8(s2)
	slli	a2,s1,2
	call	memcpy
.LVL358:
	j	.L104
.LVL359:
.L98:
	.cfi_def_cfa_register 2
	.cfi_restore 1
	.cfi_restore 8
	.cfi_restore 9
	.cfi_restore 18
	.cfi_restore 19
	.loc 1 227 15 is_stmt 0
	li	a0,0
.LVL360:
	.loc 1 256 1
	ret
	.cfi_endproc
.LFE9:
	.size	blcrypto_suite_mpi_copy, .-blcrypto_suite_mpi_copy
	.section	.text.blcrypto_suite_mpi_swap,"ax",@progbits
	.align	1
	.globl	blcrypto_suite_mpi_swap
	.type	blcrypto_suite_mpi_swap, @function
blcrypto_suite_mpi_swap:
.LFB10:
	.loc 1 262 1 is_stmt 1
	.cfi_startproc
.LVL361:
	.loc 1 263 5
	.loc 1 264 5
	.loc 1 264 10
	.loc 1 264 17
	.loc 1 265 5
	.loc 1 265 10
	.loc 1 265 17
	.loc 1 267 5
	.loc 1 262 1 is_stmt 0
	addi	sp,sp,-32
	.cfi_def_cfa_offset 32
	sw	ra,28(sp)
	sw	s0,24(sp)
	sw	s1,20(sp)
	.cfi_offset 1, -4
	.cfi_offset 8, -8
	.cfi_offset 9, -12
	addi	s0,sp,32
	.cfi_def_cfa 8, 0
	sw	s2,16(sp)
	.cfi_offset 18, -16
	.loc 1 262 1
	mv	s1,a1
	mv	s2,a0
	.loc 1 267 5
	mv	a1,a0
.LVL362:
	li	a2,12
	addi	a0,s0,-28
.LVL363:
	call	memcpy
.LVL364:
	.loc 1 268 5 is_stmt 1
	mv	a1,s1
	li	a2,12
	mv	a0,s2
	call	memcpy
.LVL365:
	.loc 1 269 5
	addi	a1,s0,-28
	mv	a0,s1
	li	a2,12
	call	memcpy
.LVL366:
	.loc 1 270 1 is_stmt 0
	lw	ra,28(sp)
	.cfi_restore 1
	lw	s0,24(sp)
	.cfi_restore 8
	.cfi_def_cfa 2, 32
	lw	s1,20(sp)
	.cfi_restore 9
.LVL367:
	lw	s2,16(sp)
	.cfi_restore 18
.LVL368:
	addi	sp,sp,32
	.cfi_def_cfa_offset 0
	jr	ra
	.cfi_endproc
.LFE10:
	.size	blcrypto_suite_mpi_swap, .-blcrypto_suite_mpi_swap
	.section	.text.blcrypto_suite_mpi_safe_cond_assign,"ax",@progbits
	.align	1
	.globl	blcrypto_suite_mpi_safe_cond_assign
	.type	blcrypto_suite_mpi_safe_cond_assign, @function
blcrypto_suite_mpi_safe_cond_assign:
.LFB13:
	.loc 1 339 1 is_stmt 1
	.cfi_startproc
.LVL369:
	.loc 1 340 5
	.loc 1 341 5
	.loc 1 342 5
	.loc 1 343 5
	.loc 1 343 10
	.loc 1 343 17
	.loc 1 344 5
	.loc 1 344 10
	.loc 1 344 17
	.loc 1 354 5
	.loc 1 339 1 is_stmt 0
	addi	sp,sp,-32
	.cfi_def_cfa_offset 32
	sw	s0,24(sp)
	sw	s1,20(sp)
	sw	s2,16(sp)
	sw	s3,12(sp)
	sw	s4,8(sp)
	sw	ra,28(sp)
	.cfi_offset 8, -8
	.cfi_offset 9, -12
	.cfi_offset 18, -16
	.cfi_offset 19, -20
	.cfi_offset 20, -24
	.cfi_offset 1, -4
	addi	s0,sp,32
	.cfi_def_cfa 8, 0
	.loc 1 339 1
	mv	s3,a1
	.loc 1 362 23
	lw	a1,4(a1)
.LVL370:
	.loc 1 339 1
	mv	s2,a0
	mv	s1,a2
.LVL371:
	.loc 1 356 5 is_stmt 1
	.loc 1 362 5
	.loc 1 362 10
	.loc 1 362 23 is_stmt 0
	call	blcrypto_suite_mpi_grow
.LVL372:
	mv	s4,a0
.LVL373:
	.loc 1 362 12
	bne	a0,zero,.L107
.LBB118:
.LBB119:
	.loc 1 289 21 discriminator 2
	lw	a5,0(s2)
.LBE119:
.LBE118:
	.loc 1 354 24 discriminator 2
	neg	a3,s1
	.loc 1 354 12 discriminator 2
	or	s1,s1,a3
.LVL374:
.LBB122:
.LBB120:
	.loc 1 289 21 discriminator 2
	addi	a4,a5,1
	.loc 1 290 21 discriminator 2
	lw	a5,0(s3)
.LBE120:
.LBE122:
	.loc 1 354 12 discriminator 2
	andi	s1,s1,0xff
	srli	s1,s1,7
	.loc 1 362 89 is_stmt 1 discriminator 2
	.loc 1 364 5 discriminator 2
.LVL375:
.LBB123:
.LBB121:
	.loc 1 289 5 discriminator 2
	.loc 1 290 5 discriminator 2
	.loc 1 293 5 discriminator 2
	.loc 1 296 5 discriminator 2
	.loc 1 299 5 discriminator 2
	.loc 1 290 21 is_stmt 0 discriminator 2
	addi	a5,a5,1
	.loc 1 293 34 discriminator 2
	slli	a3,s1,1
	.loc 1 296 14 discriminator 2
	xor	a5,a5,a4
	and	a5,a5,a3
	xor	a5,a5,a4
	.loc 1 299 22 discriminator 2
	addi	a5,a5,-1
.LBE121:
.LBE123:
	.loc 1 364 10 discriminator 2
	sw	a5,0(s2)
	.loc 1 366 5 is_stmt 1 discriminator 2
	lw	a2,8(s3)
	lw	a1,8(s2)
	lw	a0,4(s3)
.LVL376:
	mv	a3,s1
	.loc 1 369 20 is_stmt 0 discriminator 2
	addi	s1,s1,-1
	.loc 1 366 5 discriminator 2
	call	mpi_safe_cond_assign
.LVL377:
	.loc 1 368 5 is_stmt 1 discriminator 2
	.loc 1 368 12 is_stmt 0 discriminator 2
	lw	a5,4(s3)
.LVL378:
.L109:
	.loc 1 368 20 is_stmt 1 discriminator 1
	.loc 1 368 5 is_stmt 0 discriminator 1
	lw	a4,4(s2)
	bgtu	a4,a5,.L110
.LVL379:
.L107:
	.loc 1 373 1
	lw	ra,28(sp)
	.cfi_remember_state
	.cfi_restore 1
	lw	s0,24(sp)
	.cfi_restore 8
	.cfi_def_cfa 2, 32
	lw	s1,20(sp)
	.cfi_restore 9
	lw	s2,16(sp)
	.cfi_restore 18
.LVL380:
	lw	s3,12(sp)
	.cfi_restore 19
.LVL381:
	mv	a0,s4
	lw	s4,8(sp)
	.cfi_restore 20
.LVL382:
	addi	sp,sp,32
	.cfi_def_cfa_offset 0
	jr	ra
.LVL383:
.L110:
	.cfi_restore_state
	.loc 1 369 9 is_stmt 1 discriminator 3
	.loc 1 369 17 is_stmt 0 discriminator 3
	lw	a4,8(s2)
	slli	a3,a5,2
	.loc 1 368 31 discriminator 3
	addi	a5,a5,1
.LVL384:
	.loc 1 369 17 discriminator 3
	add	a4,a4,a3
	lw	a3,0(a4)
	and	a3,a3,s1
	sw	a3,0(a4)
	.loc 1 368 30 is_stmt 1 discriminator 3
.LVL385:
	j	.L109
	.cfi_endproc
.LFE13:
	.size	blcrypto_suite_mpi_safe_cond_assign, .-blcrypto_suite_mpi_safe_cond_assign
	.section	.text.blcrypto_suite_mpi_safe_cond_swap,"ax",@progbits
	.align	1
	.globl	blcrypto_suite_mpi_safe_cond_swap
	.type	blcrypto_suite_mpi_safe_cond_swap, @function
blcrypto_suite_mpi_safe_cond_swap:
.LFB14:
	.loc 1 382 1
	.cfi_startproc
.LVL386:
	.loc 1 383 5
	.loc 1 384 5
	.loc 1 385 5
	.loc 1 386 5
	.loc 1 387 5
	.loc 1 387 10
	.loc 1 387 17
	.loc 1 388 5
	.loc 1 388 10
	.loc 1 388 17
	.loc 1 390 5
	.loc 1 390 7 is_stmt 0
	bne	a0,a1,.L114
	.loc 1 391 15
	li	a0,0
.LVL387:
	.loc 1 426 1
	ret
.LVL388:
.L114:
	.loc 1 382 1
	addi	sp,sp,-32
	.cfi_def_cfa_offset 32
	sw	s0,24(sp)
	sw	s1,20(sp)
	sw	s2,16(sp)
	sw	s3,12(sp)
	sw	ra,28(sp)
	.cfi_offset 8, -8
	.cfi_offset 9, -12
	.cfi_offset 18, -16
	.cfi_offset 19, -20
	.cfi_offset 1, -4
	addi	s0,sp,32
	.cfi_def_cfa 8, 0
	mv	s2,a1
	.loc 1 409 23
	lw	a1,4(a1)
.LVL389:
	mv	s3,a0
	mv	s1,a2
	.loc 1 401 5 is_stmt 1
.LVL390:
	.loc 1 403 5
	.loc 1 409 5
	.loc 1 409 10
	.loc 1 409 23 is_stmt 0
	call	blcrypto_suite_mpi_grow
.LVL391:
	.loc 1 409 12
	bne	a0,zero,.L113
	.loc 1 409 89 is_stmt 1 discriminator 2
	.loc 1 410 5 discriminator 2
	.loc 1 410 10 discriminator 2
	.loc 1 410 23 is_stmt 0 discriminator 2
	lw	a1,4(s3)
	mv	a0,s2
.LVL392:
	call	blcrypto_suite_mpi_grow
.LVL393:
	.loc 1 410 12 discriminator 2
	bne	a0,zero,.L113
.LBB128:
.LBB129:
	.loc 1 289 21 discriminator 2
	lw	a4,0(s3)
	.loc 1 290 21 discriminator 2
	lw	a3,0(s2)
.LBE129:
.LBE128:
	.loc 1 401 20 discriminator 2
	neg	a5,s1
	.loc 1 401 10 discriminator 2
	or	a5,s1,a5
	andi	a5,a5,0xff
	.loc 1 403 17 discriminator 2
	srli	a5,a5,7
.LBB132:
.LBB130:
	.loc 1 289 21 discriminator 2
	addi	a4,a4,1
	.loc 1 290 21 discriminator 2
	addi	a3,a3,1
	.loc 1 293 34 discriminator 2
	slli	a2,a5,1
	.loc 1 296 14 discriminator 2
	xor	a3,a3,a4
	and	a3,a3,a2
	xor	a3,a3,a4
	.loc 1 299 22 discriminator 2
	addi	a3,a3,-1
.LBE130:
.LBE132:
	.loc 1 413 10 discriminator 2
	sw	a3,0(s3)
.LBB133:
.LBB134:
	.loc 1 289 21 discriminator 2
	lw	a3,0(s2)
.LBE134:
.LBE133:
	.loc 1 403 17 discriminator 2
	neg	a1,a5
	.loc 1 410 89 is_stmt 1 discriminator 2
	.loc 1 412 5 discriminator 2
	.loc 1 413 5 discriminator 2
.LVL394:
.LBB137:
.LBB131:
	.loc 1 289 5 discriminator 2
	.loc 1 290 5 discriminator 2
	.loc 1 293 5 discriminator 2
	.loc 1 296 5 discriminator 2
	.loc 1 299 5 discriminator 2
.LBE131:
.LBE137:
	.loc 1 414 5 discriminator 2
.LBB138:
.LBB135:
	.loc 1 289 5 discriminator 2
.LBE135:
.LBE138:
	.loc 1 420 31 is_stmt 0 discriminator 2
	addi	a5,a5,-1
.LBB139:
.LBB136:
	.loc 1 289 21 discriminator 2
	addi	a3,a3,1
.LVL395:
	.loc 1 290 5 is_stmt 1 discriminator 2
	.loc 1 293 5 discriminator 2
	.loc 1 296 5 discriminator 2
	.loc 1 299 5 discriminator 2
	.loc 1 296 14 is_stmt 0 discriminator 2
	xor	a4,a3,a4
	and	a4,a4,a2
	xor	a4,a4,a3
	.loc 1 299 22 discriminator 2
	addi	a4,a4,-1
.LBE136:
.LBE139:
	.loc 1 414 10 discriminator 2
	sw	a4,0(s2)
	.loc 1 417 5 is_stmt 1 discriminator 2
.LVL396:
	.loc 1 417 12 is_stmt 0 discriminator 2
	li	a2,0
.LVL397:
.L116:
	.loc 1 417 17 is_stmt 1 discriminator 1
	.loc 1 417 5 is_stmt 0 discriminator 1
	lw	a4,4(s3)
	bgtu	a4,a2,.L117
	.loc 1 391 15
	li	a0,0
.LVL398:
.L113:
	.loc 1 426 1
	lw	ra,28(sp)
	.cfi_remember_state
	.cfi_restore 1
	lw	s0,24(sp)
	.cfi_restore 8
	.cfi_def_cfa 2, 32
	lw	s1,20(sp)
	.cfi_restore 9
.LVL399:
	lw	s2,16(sp)
	.cfi_restore 18
.LVL400:
	lw	s3,12(sp)
	.cfi_restore 19
.LVL401:
	addi	sp,sp,32
	.cfi_def_cfa_offset 0
	jr	ra
.LVL402:
.L117:
	.cfi_restore_state
	.loc 1 419 9 is_stmt 1 discriminator 3
	.loc 1 419 19 is_stmt 0 discriminator 3
	lw	a4,8(s3)
	.loc 1 420 52 discriminator 3
	lw	a3,8(s2)
	slli	a6,a2,2
	.loc 1 419 19 discriminator 3
	add	a4,a4,a6
	.loc 1 420 52 discriminator 3
	add	a3,a3,a6
	.loc 1 419 13 discriminator 3
	lw	a0,0(a4)
.LVL403:
	.loc 1 420 9 is_stmt 1 discriminator 3
	.loc 1 420 56 is_stmt 0 discriminator 3
	lw	a3,0(a3)
	.loc 1 417 28 discriminator 3
	addi	a2,a2,1
.LVL404:
	.loc 1 420 29 discriminator 3
	and	a7,a5,a0
	.loc 1 420 56 discriminator 3
	and	a3,a1,a3
	.loc 1 420 44 discriminator 3
	or	a3,a3,a7
	.loc 1 420 17 discriminator 3
	sw	a3,0(a4)
	.loc 1 421 9 is_stmt 1 discriminator 3
	.loc 1 421 25 is_stmt 0 discriminator 3
	lw	a3,8(s2)
	.loc 1 421 52 discriminator 3
	and	a0,a1,a0
.LVL405:
	.loc 1 421 25 discriminator 3
	add	a3,a3,a6
	.loc 1 421 29 discriminator 3
	lw	a4,0(a3)
	and	a4,a5,a4
	.loc 1 421 44 discriminator 3
	or	a4,a4,a0
	.loc 1 421 17 discriminator 3
	sw	a4,0(a3)
	.loc 1 417 27 is_stmt 1 discriminator 3
.LVL406:
	j	.L116
	.cfi_endproc
.LFE14:
	.size	blcrypto_suite_mpi_safe_cond_swap, .-blcrypto_suite_mpi_safe_cond_swap
	.section	.text.blcrypto_suite_mpi_lset,"ax",@progbits
	.align	1
	.globl	blcrypto_suite_mpi_lset
	.type	blcrypto_suite_mpi_lset, @function
blcrypto_suite_mpi_lset:
.LFB15:
	.loc 1 432 1
	.cfi_startproc
.LVL407:
	.loc 1 433 5
	.loc 1 434 5
	.loc 1 434 10
	.loc 1 434 17
	.loc 1 436 5
	.loc 1 436 10
	.loc 1 432 1 is_stmt 0
	addi	sp,sp,-32
	.cfi_def_cfa_offset 32
	sw	s0,24(sp)
	sw	s1,20(sp)
	sw	s2,16(sp)
	sw	s3,12(sp)
	sw	ra,28(sp)
	.cfi_offset 8, -8
	.cfi_offset 9, -12
	.cfi_offset 18, -16
	.cfi_offset 19, -20
	.cfi_offset 1, -4
	addi	s0,sp,32
	.cfi_def_cfa 8, 0
	.loc 1 432 1
	mv	s2,a1
	.loc 1 436 23
	li	a1,1
.LVL408:
	.loc 1 432 1
	mv	s1,a0
	.loc 1 436 23
	call	blcrypto_suite_mpi_grow
.LVL409:
	mv	s3,a0
.LVL410:
	.loc 1 436 12
	bne	a0,zero,.L122
.LVL411:
.LBB142:
.LBB143:
	.loc 1 436 86 is_stmt 1
	.loc 1 437 5
	lw	a2,4(s1)
	lw	a0,8(s1)
.LVL412:
	li	a1,0
	slli	a2,a2,2
	call	memset
.LVL413:
	.loc 1 439 5
	.loc 1 439 30 is_stmt 0
	srai	a4,s2,31
	.loc 1 439 6
	lw	a3,8(s1)
	.loc 1 439 30
	xor	a5,a4,s2
	sub	a5,a5,a4
	.loc 1 439 13
	sw	a5,0(a3)
	.loc 1 440 5 is_stmt 1
	.loc 1 440 27 is_stmt 0
	li	a5,-1
	blt	s2,zero,.L124
	li	a5,1
.L124:
	.loc 1 440 10
	sw	a5,0(s1)
.LVL414:
.LBE143:
.LBE142:
	.loc 1 444 5 is_stmt 1
.L123:
.L122:
	.loc 1 445 1 is_stmt 0
	lw	ra,28(sp)
	.cfi_restore 1
	lw	s0,24(sp)
	.cfi_restore 8
	.cfi_def_cfa 2, 32
	lw	s1,20(sp)
	.cfi_restore 9
.LVL415:
	lw	s2,16(sp)
	.cfi_restore 18
.LVL416:
	mv	a0,s3
	lw	s3,12(sp)
	.cfi_restore 19
.LVL417:
	addi	sp,sp,32
	.cfi_def_cfa_offset 0
	jr	ra
	.cfi_endproc
.LFE15:
	.size	blcrypto_suite_mpi_lset, .-blcrypto_suite_mpi_lset
	.section	.text.blcrypto_suite_mpi_get_bit,"ax",@progbits
	.align	1
	.globl	blcrypto_suite_mpi_get_bit
	.type	blcrypto_suite_mpi_get_bit, @function
blcrypto_suite_mpi_get_bit:
.LFB16:
	.loc 1 451 1 is_stmt 1
	.cfi_startproc
.LVL418:
	.loc 1 452 5
	.loc 1 452 10
	.loc 1 452 17
	.loc 1 454 5
	.loc 1 451 1 is_stmt 0
	addi	sp,sp,-16
	.cfi_def_cfa_offset 16
	sw	s0,12(sp)
	.cfi_offset 8, -4
	addi	s0,sp,16
	.cfi_def_cfa 8, 0
	.loc 1 454 14
	lw	a5,4(a0)
	slli	a5,a5,5
	.loc 1 454 7
	bleu	a5,a1,.L129
.LVL419:
.LBB146:
.LBB147:
	.loc 1 457 5 is_stmt 1
	.loc 1 457 19 is_stmt 0
	lw	a5,8(a0)
	.loc 1 457 24
	srli	a4,a1,5
	.loc 1 457 19
	slli	a4,a4,2
	add	a5,a5,a4
	.loc 1 457 68
	lw	a0,0(a5)
.LVL420:
	srl	a0,a0,a1
	.loc 1 457 124
	andi	a0,a0,1
.LVL421:
.L127:
.LBE147:
.LBE146:
	.loc 1 458 1
	lw	s0,12(sp)
	.cfi_remember_state
	.cfi_restore 8
	.cfi_def_cfa 2, 16
	addi	sp,sp,16
	.cfi_def_cfa_offset 0
	jr	ra
.LVL422:
.L129:
	.cfi_restore_state
	.loc 1 455 15
	li	a0,0
.LVL423:
	j	.L127
	.cfi_endproc
.LFE16:
	.size	blcrypto_suite_mpi_get_bit, .-blcrypto_suite_mpi_get_bit
	.section	.text.blcrypto_suite_mpi_set_bit,"ax",@progbits
	.align	1
	.globl	blcrypto_suite_mpi_set_bit
	.type	blcrypto_suite_mpi_set_bit, @function
blcrypto_suite_mpi_set_bit:
.LFB17:
	.loc 1 468 1 is_stmt 1
	.cfi_startproc
.LVL424:
	.loc 1 469 5
	.loc 1 470 5
	.loc 1 471 5
	.loc 1 472 5
	.loc 1 472 10
	.loc 1 472 17
	.loc 1 474 5
	.loc 1 474 7 is_stmt 0
	li	a5,1
	bgtu	a2,a5,.L135
	.loc 1 468 1
	addi	sp,sp,-32
	.cfi_def_cfa_offset 32
	sw	s0,24(sp)
	sw	s1,20(sp)
	sw	s2,16(sp)
	sw	s3,12(sp)
	sw	s4,8(sp)
	sw	ra,28(sp)
	.cfi_offset 8, -8
	.cfi_offset 9, -12
	.cfi_offset 18, -16
	.cfi_offset 19, -20
	.cfi_offset 20, -24
	.cfi_offset 1, -4
	addi	s0,sp,32
	.cfi_def_cfa 8, 0
	.loc 1 477 14
	lw	a5,4(a0)
	mv	s4,a0
	mv	s1,a1
	slli	a5,a5,5
	mv	s2,a2
	srli	s3,a1,5
.LVL425:
	.loc 1 477 5 is_stmt 1
	.loc 1 477 7 is_stmt 0
	bleu	a5,a1,.L133
.LVL426:
.L134:
	.loc 1 485 15
	lw	a4,8(s4)
	slli	s3,s3,2
.LVL427:
	.loc 1 471 12
	andi	s1,s1,31
.LVL428:
	.loc 1 482 96 is_stmt 1
	.loc 1 485 5
	.loc 1 485 15 is_stmt 0
	add	a4,a4,s3
	lw	a3,0(a4)
	.loc 1 485 52
	li	a5,1
	sll	a5,a5,s1
	.loc 1 485 18
	not	a5,a5
	.loc 1 485 15
	and	a5,a3,a5
	sw	a5,0(a4)
	.loc 1 486 5 is_stmt 1
	.loc 1 486 15 is_stmt 0
	lw	a5,8(s4)
	.loc 1 486 48
	sll	s1,s2,s1
	.loc 1 486 15
	add	s3,a5,s3
	lw	s2,0(s3)
	li	a5,0
	or	s1,s2,s1
	sw	s1,0(s3)
.LVL429:
.L131:
	.loc 1 491 1
	lw	ra,28(sp)
	.cfi_remember_state
	.cfi_restore 1
	lw	s0,24(sp)
	.cfi_restore 8
	.cfi_def_cfa 2, 32
	lw	s1,20(sp)
	.cfi_restore 9
	lw	s2,16(sp)
	.cfi_restore 18
	lw	s3,12(sp)
	.cfi_restore 19
	lw	s4,8(sp)
	.cfi_restore 20
.LVL430:
	mv	a0,a5
	addi	sp,sp,32
	.cfi_def_cfa_offset 0
	jr	ra
.LVL431:
.L133:
	.cfi_restore_state
	.loc 1 479 9 is_stmt 1
	.loc 1 480 19 is_stmt 0
	li	a5,0
	.loc 1 479 11
	beq	a2,zero,.L131
	.loc 1 482 9 is_stmt 1
	.loc 1 482 14
	.loc 1 482 27 is_stmt 0
	addi	a1,s3,1
	call	blcrypto_suite_mpi_grow
.LVL432:
	mv	a5,a0
.LVL433:
	.loc 1 482 16
	beq	a0,zero,.L134
	j	.L131
.LVL434:
.L135:
	.cfi_def_cfa_register 2
	.cfi_restore 1
	.cfi_restore 8
	.cfi_restore 9
	.cfi_restore 18
	.cfi_restore 19
	.cfi_restore 20
	.loc 1 475 15
	li	a5,-4
	.loc 1 491 1
	mv	a0,a5
.LVL435:
	ret
	.cfi_endproc
.LFE17:
	.size	blcrypto_suite_mpi_set_bit, .-blcrypto_suite_mpi_set_bit
	.section	.text.blcrypto_suite_mpi_lsb,"ax",@progbits
	.align	1
	.globl	blcrypto_suite_mpi_lsb
	.type	blcrypto_suite_mpi_lsb, @function
blcrypto_suite_mpi_lsb:
.LFB18:
	.loc 1 497 1 is_stmt 1
	.cfi_startproc
.LVL436:
	.loc 1 498 5
	.loc 1 499 5
	.loc 1 499 10
	.loc 1 499 17
	.loc 1 501 5
	.loc 1 497 1 is_stmt 0
	addi	sp,sp,-16
	.cfi_def_cfa_offset 16
	sw	s0,12(sp)
	.cfi_offset 8, -4
	addi	s0,sp,16
	.cfi_def_cfa 8, 0
	.loc 1 501 22
	lw	a6,4(a0)
	.loc 1 497 1
	mv	a3,a0
	.loc 1 498 18
	li	a2,0
	.loc 1 501 12
	li	a4,0
	.loc 1 502 9
	li	a7,32
.LVL437:
.L146:
	.loc 1 501 17 is_stmt 1 discriminator 1
	.loc 1 501 5 is_stmt 0 discriminator 1
	bne	a6,a4,.L149
	.loc 1 506 11
	li	a0,0
.LVL438:
.L145:
	.loc 1 507 1
	lw	s0,12(sp)
	.cfi_remember_state
	.cfi_restore 8
	.cfi_def_cfa 2, 16
	addi	sp,sp,16
	.cfi_def_cfa_offset 0
	jr	ra
.LVL439:
.L149:
	.cfi_restore_state
	.loc 1 503 25
	lw	a5,8(a3)
	slli	a1,a4,2
	add	a5,a5,a1
	lw	t1,0(a5)
	.loc 1 502 16
	li	a5,0
.LVL440:
.L148:
	.loc 1 503 29
	srl	a1,t1,a5
	.loc 1 503 36
	andi	a1,a1,1
	add	a0,a2,a5
.LVL441:
	.loc 1 503 13 is_stmt 1
	.loc 1 503 15 is_stmt 0
	bne	a1,zero,.L145
	.loc 1 502 67 is_stmt 1 discriminator 2
	.loc 1 502 68 is_stmt 0 discriminator 2
	addi	a5,a5,1
.LVL442:
	.loc 1 502 77 discriminator 2
	add	a1,a2,a5
.LVL443:
	.loc 1 502 21 is_stmt 1 discriminator 2
	.loc 1 502 9 is_stmt 0 discriminator 2
	bne	a5,a7,.L148
	.loc 1 501 27 is_stmt 1 discriminator 2
	.loc 1 501 28 is_stmt 0 discriminator 2
	addi	a4,a4,1
.LVL444:
	.loc 1 502 77 discriminator 2
	mv	a2,a1
	j	.L146
	.cfi_endproc
.LFE18:
	.size	blcrypto_suite_mpi_lsb, .-blcrypto_suite_mpi_lsb
	.section	.text.blcrypto_suite_mpi_bitlen,"ax",@progbits
	.align	1
	.globl	blcrypto_suite_mpi_bitlen
	.type	blcrypto_suite_mpi_bitlen, @function
blcrypto_suite_mpi_bitlen:
.LFB20:
	.loc 1 531 1 is_stmt 1
	.cfi_startproc
.LVL445:
	.loc 1 532 5
	.loc 1 534 5
	.loc 1 531 1 is_stmt 0
	addi	sp,sp,-16
	.cfi_def_cfa_offset 16
	sw	s0,12(sp)
	.cfi_offset 8, -4
	addi	s0,sp,16
	.cfi_def_cfa 8, 0
	.loc 1 531 1
	mv	a4,a0
	.loc 1 534 10
	lw	a0,4(a0)
.LVL446:
	.loc 1 534 7
	beq	a0,zero,.L152
	.loc 1 537 5 is_stmt 1
	.loc 1 538 14 is_stmt 0
	lw	a4,8(a4)
.LVL447:
	.loc 1 537 12
	addi	a5,a0,-1
.LVL448:
.L154:
	.loc 1 537 24 is_stmt 1 discriminator 1
	slli	a3,a5,2
	.loc 1 537 5 is_stmt 0 discriminator 1
	bne	a5,zero,.L156
.L155:
	.loc 1 541 5 is_stmt 1
	.loc 1 541 52 is_stmt 0
	add	a4,a4,a3
	lw	a2,0(a4)
.LVL449:
.LBB150:
.LBB151:
	.loc 1 514 5 is_stmt 1
	.loc 1 515 5
	.loc 1 517 5
	.loc 1 517 17
	.loc 1 517 12 is_stmt 0
	li	a0,0
	.loc 1 515 29
	li	a4,-2147483648
	.loc 1 517 5
	li	a3,32
.LVL450:
.L158:
	.loc 1 519 9 is_stmt 1
	.loc 1 519 15 is_stmt 0
	and	a1,a2,a4
	.loc 1 519 11
	bne	a1,zero,.L157
	.loc 1 521 9 is_stmt 1
	.loc 1 517 64 is_stmt 0
	addi	a0,a0,1
.LVL451:
	.loc 1 521 14
	srli	a4,a4,1
.LVL452:
	.loc 1 517 63 is_stmt 1
	.loc 1 517 17
	.loc 1 517 5 is_stmt 0
	bne	a0,a3,.L158
.L157:
	.loc 1 524 5 is_stmt 1
.LVL453:
.LBE151:
.LBE150:
	.loc 1 543 5
	.loc 1 543 62 is_stmt 0
	addi	a5,a5,1
.LVL454:
	slli	a5,a5,5
.LVL455:
	sub	a0,a5,a0
.LVL456:
.L152:
	.loc 1 544 1
	lw	s0,12(sp)
	.cfi_remember_state
	.cfi_restore 8
	.cfi_def_cfa 2, 16
	addi	sp,sp,16
	.cfi_def_cfa_offset 0
	jr	ra
.LVL457:
.L156:
	.cfi_restore_state
	.loc 1 538 9 is_stmt 1
	.loc 1 538 17 is_stmt 0
	add	a2,a4,a3
	.loc 1 538 11
	lw	a2,0(a2)
	bne	a2,zero,.L155
	.loc 1 537 31 is_stmt 1 discriminator 2
	.loc 1 537 32 is_stmt 0 discriminator 2
	addi	a5,a5,-1
.LVL458:
	j	.L154
	.cfi_endproc
.LFE20:
	.size	blcrypto_suite_mpi_bitlen, .-blcrypto_suite_mpi_bitlen
	.section	.text.blcrypto_suite_mpi_size,"ax",@progbits
	.align	1
	.globl	blcrypto_suite_mpi_size
	.type	blcrypto_suite_mpi_size, @function
blcrypto_suite_mpi_size:
.LFB21:
	.loc 1 550 1 is_stmt 1
	.cfi_startproc
.LVL459:
	.loc 1 551 5
	.loc 1 550 1 is_stmt 0
	addi	sp,sp,-16
	.cfi_def_cfa_offset 16
	sw	s0,8(sp)
	sw	ra,12(sp)
	.cfi_offset 8, -8
	.cfi_offset 1, -4
	addi	s0,sp,16
	.cfi_def_cfa 8, 0
	.loc 1 551 15
	call	blcrypto_suite_mpi_bitlen
.LVL460:
	.loc 1 552 1
	lw	ra,12(sp)
	.cfi_restore 1
	lw	s0,8(sp)
	.cfi_restore 8
	.cfi_def_cfa 2, 16
	.loc 1 551 46
	addi	a0,a0,7
	.loc 1 552 1
	srli	a0,a0,3
	addi	sp,sp,16
	.cfi_def_cfa_offset 0
	jr	ra
	.cfi_endproc
.LFE21:
	.size	blcrypto_suite_mpi_size, .-blcrypto_suite_mpi_size
	.section	.text.blcrypto_suite_mpi_read_binary,"ax",@progbits
	.align	1
	.globl	blcrypto_suite_mpi_read_binary
	.type	blcrypto_suite_mpi_read_binary, @function
blcrypto_suite_mpi_read_binary:
.LFB29:
	.loc 1 939 1 is_stmt 1
	.cfi_startproc
.LVL461:
	.loc 1 940 5
	.loc 1 941 5
	.loc 1 939 1 is_stmt 0
	addi	sp,sp,-32
	.cfi_def_cfa_offset 32
	sw	s0,24(sp)
	sw	s1,20(sp)
	sw	s3,12(sp)
	sw	s4,8(sp)
	sw	s5,4(sp)
	sw	ra,28(sp)
	sw	s2,16(sp)
	.cfi_offset 8, -8
	.cfi_offset 9, -12
	.cfi_offset 19, -20
	.cfi_offset 20, -24
	.cfi_offset 21, -28
	.cfi_offset 1, -4
	.cfi_offset 18, -16
	addi	s0,sp,32
	.cfi_def_cfa 8, 0
	.loc 1 941 86
	andi	s3,a2,3
	.loc 1 941 37
	srli	a5,a2,2
	.loc 1 939 1
	.loc 1 941 122
	snez	s3,s3
	.loc 1 941 18
	add	s3,s3,a5
.LVL462:
	.loc 1 942 5 is_stmt 1
	.loc 1 949 7 is_stmt 0
	lw	a5,4(a0)
	.loc 1 939 1
	mv	s1,a0
	mv	s5,a1
	mv	s4,a2
.LVL463:
	.loc 1 943 5 is_stmt 1
	.loc 1 945 5
	.loc 1 945 10
	.loc 1 945 17
	.loc 1 946 5
	.loc 1 946 10
	.loc 1 946 17
	.loc 1 949 5
	.loc 1 949 7 is_stmt 0
	bne	a5,s3,.L167
.LVL464:
.L170:
	.loc 1 953 94 is_stmt 1
	.loc 1 955 5
	.loc 1 955 10
	.loc 1 955 23 is_stmt 0
	li	a1,0
	mv	a0,s1
	call	blcrypto_suite_mpi_lset
.LVL465:
	mv	s2,a0
.LVL466:
	.loc 1 955 12
	beq	a0,zero,.L174
.LVL467:
.L166:
	.loc 1 970 1
	lw	ra,28(sp)
	.cfi_remember_state
	.cfi_restore 1
	lw	s0,24(sp)
	.cfi_restore 8
	.cfi_def_cfa 2, 32
	lw	s1,20(sp)
	.cfi_restore 9
.LVL468:
	lw	s3,12(sp)
	.cfi_restore 19
.LVL469:
	lw	s4,8(sp)
	.cfi_restore 20
.LVL470:
	lw	s5,4(sp)
	.cfi_restore 21
.LVL471:
	mv	a0,s2
	lw	s2,16(sp)
	.cfi_restore 18
.LVL472:
	addi	sp,sp,32
	.cfi_def_cfa_offset 0
	jr	ra
.LVL473:
.L167:
	.cfi_restore_state
	.loc 1 951 9 is_stmt 1
	call	blcrypto_suite_mpi_free
.LVL474:
	.loc 1 952 9
.LBB152:
.LBB153:
	.loc 1 118 5
	.loc 1 118 10
	.loc 1 118 17
	.loc 1 120 5
	.loc 1 120 10 is_stmt 0
	li	a5,1
	sw	a5,0(s1)
	.loc 1 121 5 is_stmt 1
	.loc 1 121 10 is_stmt 0
	sw	zero,4(s1)
	.loc 1 122 5 is_stmt 1
	.loc 1 122 10 is_stmt 0
	sw	zero,8(s1)
.LVL475:
.LBE153:
.LBE152:
	.loc 1 953 9 is_stmt 1
	.loc 1 953 14
	.loc 1 953 27 is_stmt 0
	mv	a1,s3
	mv	a0,s1
	call	blcrypto_suite_mpi_grow
.LVL476:
	mv	s2,a0
.LVL477:
	.loc 1 953 16
	beq	a0,zero,.L170
	j	.L166
.L174:
	.loc 1 955 86 is_stmt 1 discriminator 2
	.loc 1 959 5 discriminator 2
	.loc 1 959 7 is_stmt 0 discriminator 2
	beq	s5,zero,.L166
.L168:
	.loc 1 961 9 is_stmt 1
.LVL478:
	.loc 1 962 9
	.loc 1 962 20 is_stmt 0
	lw	a0,8(s1)
.LVL479:
	.loc 1 942 37
	slli	a5,s3,2
	.loc 1 942 18
	sub	a5,a5,s4
	.loc 1 962 9
	mv	a1,s5
	mv	a2,s4
	add	a0,a0,a5
	call	memcpy
.LVL480:
	.loc 1 964 9 is_stmt 1
	lw	a0,8(s1)
	mv	a1,s3
	call	mpi_bigendian_to_host
.LVL481:
	.loc 1 969 5
	.loc 1 969 11 is_stmt 0
	j	.L166
	.cfi_endproc
.LFE29:
	.size	blcrypto_suite_mpi_read_binary, .-blcrypto_suite_mpi_read_binary
	.section	.text.blcrypto_suite_mpi_write_binary,"ax",@progbits
	.align	1
	.globl	blcrypto_suite_mpi_write_binary
	.type	blcrypto_suite_mpi_write_binary, @function
blcrypto_suite_mpi_write_binary:
.LFB30:
	.loc 1 977 1 is_stmt 1
	.cfi_startproc
.LVL482:
	.loc 1 978 5
	.loc 1 979 5
	.loc 1 980 5
	.loc 1 981 5
	.loc 1 983 5
	.loc 1 983 10
	.loc 1 983 17
	.loc 1 984 5
	.loc 1 984 10
	.loc 1 984 17
	.loc 1 986 5
	.loc 1 977 1 is_stmt 0
	addi	sp,sp,-32
	.cfi_def_cfa_offset 32
	sw	s0,24(sp)
	sw	s1,20(sp)
	sw	s2,16(sp)
	sw	ra,28(sp)
	sw	s3,12(sp)
	.cfi_offset 8, -8
	.cfi_offset 9, -12
	.cfi_offset 18, -16
	.cfi_offset 1, -4
	.cfi_offset 19, -20
	addi	s0,sp,32
	.cfi_def_cfa 8, 0
	mv	s2,a0
	.loc 1 986 18
	lw	s1,4(s2)
	.loc 1 977 1
	mv	a0,a1
.LVL483:
	mv	a5,a2
	.loc 1 986 18
	slli	s1,s1,2
.LVL484:
	.loc 1 988 5 is_stmt 1
	.loc 1 988 7 is_stmt 0
	bgeu	s1,a2,.L177
	.loc 1 995 9 is_stmt 1
.LVL485:
	.loc 1 996 9
	.loc 1 996 26 is_stmt 0
	sub	a2,a2,s1
.LVL486:
	.loc 1 996 11
	add	s3,a1,a2
.LVL487:
	.loc 1 997 9 is_stmt 1
	li	a1,0
.LVL488:
	call	memset
.LVL489:
	.loc 1 996 11 is_stmt 0
	mv	a0,s3
	mv	a2,s1
.LVL490:
.L178:
	.loc 1 1012 5 is_stmt 1
	add	a1,a0,a2
	.loc 1 1012 12 is_stmt 0
	li	a5,0
.LVL491:
.L181:
	.loc 1 1012 17 is_stmt 1 discriminator 1
	.loc 1 1012 5 is_stmt 0 discriminator 1
	addi	a1,a1,-1
	bne	a2,a5,.L182
	.loc 1 1015 11
	li	a0,0
.LVL492:
.L176:
	.loc 1 1016 1
	lw	ra,28(sp)
	.cfi_remember_state
	.cfi_restore 1
	lw	s0,24(sp)
	.cfi_restore 8
	.cfi_def_cfa 2, 32
	lw	s1,20(sp)
	.cfi_restore 9
.LVL493:
	lw	s2,16(sp)
	.cfi_restore 18
.LVL494:
	lw	s3,12(sp)
	.cfi_restore 19
	addi	sp,sp,32
	.cfi_def_cfa_offset 0
	jr	ra
.LVL495:
.L180:
	.cfi_restore_state
	.loc 1 1007 13 is_stmt 1
	.loc 1 1007 29 is_stmt 0
	lw	a4,8(s2)
	andi	a1,a5,-4
	add	a1,a4,a1
	.loc 1 1007 86
	andi	a4,a5,3
	.loc 1 1007 124
	slli	a3,a4,3
	.loc 1 1007 73
	lw	a4,0(a1)
	srl	a4,a4,a3
	.loc 1 1007 132
	andi	a4,a4,255
	.loc 1 1007 15
	bne	a4,zero,.L184
	.loc 1 1005 51 is_stmt 1 discriminator 2
	.loc 1 1005 52 is_stmt 0 discriminator 2
	addi	a5,a5,1
.LVL496:
.L177:
	.loc 1 1005 33 is_stmt 1 discriminator 1
	.loc 1 1005 9 is_stmt 0 discriminator 1
	bne	a5,s1,.L180
	j	.L178
.LVL497:
.L182:
	.loc 1 1013 9 is_stmt 1 discriminator 3
	.loc 1 1013 48 is_stmt 0 discriminator 3
	lw	a0,8(s2)
	andi	a4,a5,-4
	add	a0,a0,a4
	.loc 1 1013 105 discriminator 3
	andi	a4,a5,3
	.loc 1 1013 143 discriminator 3
	slli	a3,a4,3
	.loc 1 1013 92 discriminator 3
	lw	a4,0(a0)
	.loc 1 1012 37 discriminator 3
	addi	a5,a5,1
.LVL498:
	.loc 1 1013 92 discriminator 3
	srl	a4,a4,a3
	.loc 1 1013 34 discriminator 3
	sb	a4,0(a1)
	.loc 1 1012 36 is_stmt 1 discriminator 3
.LVL499:
	j	.L181
.LVL500:
.L184:
	.loc 1 1008 23 is_stmt 0
	li	a0,-8
.LVL501:
	j	.L176
	.cfi_endproc
.LFE30:
	.size	blcrypto_suite_mpi_write_binary, .-blcrypto_suite_mpi_write_binary
	.section	.text.blcrypto_suite_mpi_shift_l,"ax",@progbits
	.align	1
	.globl	blcrypto_suite_mpi_shift_l
	.type	blcrypto_suite_mpi_shift_l, @function
blcrypto_suite_mpi_shift_l:
.LFB31:
	.loc 1 1022 1 is_stmt 1
	.cfi_startproc
.LVL502:
	.loc 1 1023 5
	.loc 1 1024 5
	.loc 1 1025 5
	.loc 1 1026 5
	.loc 1 1026 10
	.loc 1 1026 17
	.loc 1 1028 5
	.loc 1 1022 1 is_stmt 0
	addi	sp,sp,-32
	.cfi_def_cfa_offset 32
	sw	s0,24(sp)
	sw	s1,20(sp)
	sw	s2,16(sp)
	sw	s3,12(sp)
	sw	s4,8(sp)
	sw	ra,28(sp)
	.cfi_offset 8, -8
	.cfi_offset 9, -12
	.cfi_offset 18, -16
	.cfi_offset 19, -20
	.cfi_offset 20, -24
	.cfi_offset 1, -4
	addi	s0,sp,32
	.cfi_def_cfa 8, 0
	.loc 1 1022 1
	mv	s1,a0
	mv	s3,a1
	.loc 1 1028 8
	srli	s2,a1,5
.LVL503:
	.loc 1 1029 5 is_stmt 1
	.loc 1 1029 8 is_stmt 0
	andi	s4,a1,31
.LVL504:
	.loc 1 1031 5 is_stmt 1
	.loc 1 1031 9 is_stmt 0
	call	blcrypto_suite_mpi_bitlen
.LVL505:
	.loc 1 1033 14
	lw	a5,4(s1)
	.loc 1 1031 7
	add	a0,a0,s3
.LVL506:
	.loc 1 1033 5 is_stmt 1
	.loc 1 1033 14 is_stmt 0
	slli	a5,a5,5
	.loc 1 1033 7
	bltu	a5,a0,.L189
.LVL507:
.L193:
	.loc 1 1034 197 is_stmt 1
	.loc 1 1036 5
	.loc 1 1041 5
	.loc 1 1041 7 is_stmt 0
	li	a5,31
	bgtu	s3,a5,.L190
.L191:
	.loc 1 1053 5 is_stmt 1
	.loc 1 1053 7 is_stmt 0
	bne	s4,zero,.L203
.LVL508:
.L195:
	.loc 1 1036 9
	li	a0,0
	j	.L188
.LVL509:
.L189:
	.loc 1 1034 9 is_stmt 1
	.loc 1 1034 14
	.loc 1 1034 112 is_stmt 0
	andi	a1,a0,31
	.loc 1 1034 155
	snez	a1,a1
	.loc 1 1034 61
	srli	a0,a0,5
.LVL510:
	.loc 1 1034 27
	add	a1,a1,a0
	mv	a0,s1
	call	blcrypto_suite_mpi_grow
.LVL511:
	.loc 1 1034 16
	beq	a0,zero,.L193
.L192:
.LVL512:
.L188:
	.loc 1 1067 1
	lw	ra,28(sp)
	.cfi_remember_state
	.cfi_restore 1
	lw	s0,24(sp)
	.cfi_restore 8
	.cfi_def_cfa 2, 32
	lw	s1,20(sp)
	.cfi_restore 9
.LVL513:
	lw	s2,16(sp)
	.cfi_restore 18
	lw	s3,12(sp)
	.cfi_restore 19
.LVL514:
	lw	s4,8(sp)
	.cfi_restore 20
.LVL515:
	addi	sp,sp,32
	.cfi_def_cfa_offset 0
	jr	ra
.LVL516:
.L190:
	.cfi_restore_state
	.loc 1 1043 9 is_stmt 1
	li	a1,-4
	mul	a1,s2,a1
	.loc 1 1043 16 is_stmt 0
	lw	a5,4(s1)
.LVL517:
	slli	a2,a5,2
	mv	a3,a5
.LVL518:
.L196:
	.loc 1 1043 24 is_stmt 1 discriminator 1
	.loc 1 1043 9 is_stmt 0 discriminator 1
	addi	a2,a2,-4
	bgtu	a3,s2,.L197
	li	a4,0
	bgtu	s2,a5,.L199
	sub	a4,s2,a5
.L199:
	add	a5,a5,a4
	slli	a5,a5,2
	.loc 1 1046 9
	li	a3,-4
.LVL519:
.L200:
	.loc 1 1046 16 is_stmt 1 discriminator 1
	.loc 1 1046 9 is_stmt 0 discriminator 1
	addi	a5,a5,-4
	beq	a5,a3,.L191
	.loc 1 1047 13 is_stmt 1 discriminator 2
	.loc 1 1047 25 is_stmt 0 discriminator 2
	lw	a4,8(s1)
	add	a4,a4,a5
	sw	zero,0(a4)
	.loc 1 1046 23 is_stmt 1 discriminator 2
	j	.L200
.LVL520:
.L197:
	.loc 1 1044 13 discriminator 3
	.loc 1 1044 28 is_stmt 0 discriminator 3
	lw	a4,8(s1)
	.loc 1 1043 33 discriminator 3
	addi	a3,a3,-1
.LVL521:
	.loc 1 1044 31 discriminator 3
	add	a4,a4,a2
	add	a0,a4,a1
	lw	a0,0(a0)
	.loc 1 1044 25 discriminator 3
	sw	a0,0(a4)
	.loc 1 1043 32 is_stmt 1 discriminator 3
.LVL522:
	j	.L196
.LVL523:
.L202:
	.loc 1 1057 13 discriminator 3
	.loc 1 1057 22 is_stmt 0 discriminator 3
	lw	a4,8(s1)
	slli	a0,s2,2
	.loc 1 1055 33 discriminator 3
	addi	s2,s2,1
.LVL524:
	.loc 1 1057 22 discriminator 3
	add	a4,a4,a0
	lw	a1,0(a4)
.LVL525:
	.loc 1 1058 13 is_stmt 1 discriminator 3
	.loc 1 1058 21 is_stmt 0 discriminator 3
	sll	a5,a1,s4
	sw	a5,0(a4)
	.loc 1 1059 13 is_stmt 1 discriminator 3
	.loc 1 1059 21 is_stmt 0 discriminator 3
	lw	a5,8(s1)
	add	a5,a5,a0
	lw	a4,0(a5)
	or	a4,a4,a2
	sw	a4,0(a5)
	.loc 1 1060 13 is_stmt 1 discriminator 3
.LVL526:
	.loc 1 1055 32 discriminator 3
	.loc 1 1060 16 is_stmt 0 discriminator 3
	srl	a2,a1,a3
.LVL527:
.L194:
	.loc 1 1055 22 is_stmt 1 discriminator 1
	.loc 1 1055 9 is_stmt 0 discriminator 1
	lw	a5,4(s1)
	bgtu	a5,s2,.L202
	j	.L195
.LVL528:
.L203:
	.loc 1 1057 71
	li	a3,32
	.loc 1 1025 29
	li	a2,0
	.loc 1 1057 71
	sub	a3,a3,s4
	j	.L194
	.cfi_endproc
.LFE31:
	.size	blcrypto_suite_mpi_shift_l, .-blcrypto_suite_mpi_shift_l
	.section	.text.blcrypto_suite_mpi_shift_r,"ax",@progbits
	.align	1
	.globl	blcrypto_suite_mpi_shift_r
	.type	blcrypto_suite_mpi_shift_r, @function
blcrypto_suite_mpi_shift_r:
.LFB32:
	.loc 1 1073 1 is_stmt 1
	.cfi_startproc
.LVL529:
	.loc 1 1074 5
	.loc 1 1075 5
	.loc 1 1076 5
	.loc 1 1076 10
	.loc 1 1076 17
	.loc 1 1078 5
	.loc 1 1073 1 is_stmt 0
	addi	sp,sp,-16
	.cfi_def_cfa_offset 16
	sw	s0,12(sp)
	.cfi_offset 8, -4
	addi	s0,sp,16
	.cfi_def_cfa 8, 0
	.loc 1 1081 15
	lw	a5,4(a0)
	.loc 1 1078 8
	srli	a4,a1,5
.LVL530:
	.loc 1 1079 5 is_stmt 1
	.loc 1 1081 5
	.loc 1 1081 7 is_stmt 0
	bltu	a5,a4,.L206
	andi	a3,a1,31
.LVL531:
	.loc 1 1081 19 discriminator 1
	bne	a5,a4,.L207
	.loc 1 1081 35 discriminator 2
	beq	a3,zero,.L208
.LVL532:
.L206:
	.loc 1 1082 9 is_stmt 1
	.loc 1 1111 1 is_stmt 0
	lw	s0,12(sp)
	.cfi_remember_state
	.cfi_restore 8
	.cfi_def_cfa 2, 16
	.loc 1 1082 16
	li	a1,0
.LVL533:
	.loc 1 1111 1
	addi	sp,sp,16
	.cfi_def_cfa_offset 0
	.loc 1 1082 16
	tail	blcrypto_suite_mpi_lset
.LVL534:
.L207:
	.cfi_restore_state
	.loc 1 1087 5 is_stmt 1
	.loc 1 1087 7 is_stmt 0
	li	a5,31
	bgtu	a1,a5,.L209
.LVL535:
.L215:
	.loc 1 1099 5 is_stmt 1
	.loc 1 1099 7 is_stmt 0
	bne	a3,zero,.L210
.LVL536:
.L220:
	.loc 1 1111 1
	lw	s0,12(sp)
	.cfi_remember_state
	.cfi_restore 8
	.cfi_def_cfa 2, 16
	li	a0,0
.LVL537:
	addi	sp,sp,16
	.cfi_def_cfa_offset 0
	jr	ra
.LVL538:
.L212:
	.cfi_restore_state
	.loc 1 1090 13 is_stmt 1 discriminator 3
	.loc 1 1090 24 is_stmt 0 discriminator 3
	lw	a2,8(a0)
	.loc 1 1090 21 discriminator 3
	slli	a7,a5,2
	.loc 1 1089 37 discriminator 3
	addi	a5,a5,1
.LVL539:
	.loc 1 1090 27 discriminator 3
	add	a6,a2,a1
	lw	a6,0(a6)
	.loc 1 1090 21 discriminator 3
	add	a2,a2,a7
	addi	a1,a1,4
	sw	a6,0(a2)
	.loc 1 1089 36 is_stmt 1 discriminator 3
.LVL540:
.L219:
	.loc 1 1089 21 discriminator 1
	.loc 1 1089 30 is_stmt 0 discriminator 1
	lw	a2,4(a0)
	sub	a2,a2,a4
	.loc 1 1089 9 discriminator 1
	bgtu	a2,a5,.L212
.LVL541:
.L213:
	.loc 1 1092 16 is_stmt 1 discriminator 1
	.loc 1 1092 9 is_stmt 0 discriminator 1
	lw	a4,4(a0)
	bleu	a4,a5,.L215
	.loc 1 1093 13 is_stmt 1 discriminator 2
	.loc 1 1093 21 is_stmt 0 discriminator 2
	lw	a4,8(a0)
	slli	a2,a5,2
	.loc 1 1092 27 discriminator 2
	addi	a5,a5,1
.LVL542:
	.loc 1 1093 21 discriminator 2
	add	a4,a4,a2
	sw	zero,0(a4)
	.loc 1 1092 26 is_stmt 1 discriminator 2
.LVL543:
	j	.L213
.LVL544:
.L210:
	.loc 1 1101 9
	.loc 1 1101 16 is_stmt 0
	lw	a5,4(a0)
.LVL545:
	.loc 1 1103 75
	li	a6,32
	.loc 1 1075 29
	li	a7,0
	.loc 1 1101 9
	li	t1,-1
	.loc 1 1103 75
	sub	a6,a6,a3
.LVL546:
.L217:
	.loc 1 1101 24 is_stmt 1 discriminator 1
	.loc 1 1101 9 is_stmt 0 discriminator 1
	addi	a5,a5,-1
.LVL547:
	beq	a5,t1,.L220
	.loc 1 1103 13 is_stmt 1 discriminator 3
	.loc 1 1103 22 is_stmt 0 discriminator 3
	lw	a1,8(a0)
	slli	a4,a5,2
	mv	a2,a4
	add	a4,a1,a4
	lw	a1,0(a4)
.LVL548:
	.loc 1 1104 13 is_stmt 1 discriminator 3
	.loc 1 1104 25 is_stmt 0 discriminator 3
	srl	t3,a1,a3
	sw	t3,0(a4)
	.loc 1 1105 13 is_stmt 1 discriminator 3
	.loc 1 1105 25 is_stmt 0 discriminator 3
	lw	a4,8(a0)
	add	a4,a4,a2
	lw	a2,0(a4)
	or	a2,a2,a7
	sw	a2,0(a4)
	.loc 1 1106 13 is_stmt 1 discriminator 3
.LVL549:
	.loc 1 1101 31 discriminator 3
	.loc 1 1106 16 is_stmt 0 discriminator 3
	sll	a7,a1,a6
.LVL550:
	j	.L217
.LVL551:
.L208:
	.loc 1 1087 5 is_stmt 1
	.loc 1 1087 7 is_stmt 0
	li	a5,31
	bleu	a1,a5,.L220
.L209:
	slli	a1,a4,2
.LVL552:
	.loc 1 1073 1 discriminator 1
	li	a5,0
	j	.L219
	.cfi_endproc
.LFE32:
	.size	blcrypto_suite_mpi_shift_r, .-blcrypto_suite_mpi_shift_r
	.section	.text.blcrypto_suite_mpi_cmp_abs,"ax",@progbits
	.align	1
	.globl	blcrypto_suite_mpi_cmp_abs
	.type	blcrypto_suite_mpi_cmp_abs, @function
blcrypto_suite_mpi_cmp_abs:
.LFB33:
	.loc 1 1117 1 is_stmt 1
	.cfi_startproc
.LVL553:
	.loc 1 1118 5
	.loc 1 1119 5
	.loc 1 1119 10
	.loc 1 1119 17
	.loc 1 1120 5
	.loc 1 1120 10
	.loc 1 1120 17
	.loc 1 1122 5
	.loc 1 1117 1 is_stmt 0
	addi	sp,sp,-16
	.cfi_def_cfa_offset 16
	sw	s0,12(sp)
	.cfi_offset 8, -4
	addi	s0,sp,16
	.cfi_def_cfa 8, 0
	.loc 1 1122 12
	lw	a5,4(a0)
.LVL554:
	.loc 1 1117 1
	mv	a3,a0
.L223:
	.loc 1 1122 20 is_stmt 1 discriminator 1
	.loc 1 1122 5 is_stmt 0 discriminator 1
	bne	a5,zero,.L225
.L224:
	.loc 1 1126 5 is_stmt 1
	.loc 1 1126 12 is_stmt 0
	lw	a4,4(a1)
.LVL555:
.L226:
	.loc 1 1126 20 is_stmt 1 discriminator 1
	.loc 1 1126 5 is_stmt 0 discriminator 1
	bne	a4,zero,.L228
	.loc 1 1130 5 is_stmt 1
	.loc 1 1130 7 is_stmt 0
	snez	a0,a5
.LVL556:
	j	.L222
.LVL557:
.L225:
	.loc 1 1123 9 is_stmt 1
	.loc 1 1123 17 is_stmt 0
	lw	a4,8(a3)
	slli	a2,a5,2
	add	a4,a4,a2
	.loc 1 1123 11
	lw	a4,-4(a4)
	bne	a4,zero,.L224
	.loc 1 1122 27 is_stmt 1 discriminator 2
	.loc 1 1122 28 is_stmt 0 discriminator 2
	addi	a5,a5,-1
.LVL558:
	j	.L223
.LVL559:
.L228:
	.loc 1 1127 9 is_stmt 1
	.loc 1 1127 14 is_stmt 0
	lw	a6,8(a1)
	.loc 1 1127 17
	slli	a2,a4,2
	add	a2,a6,a2
	.loc 1 1127 11
	lw	a2,-4(a2)
	bne	a2,zero,.L227
	.loc 1 1126 27 is_stmt 1 discriminator 2
	.loc 1 1126 28 is_stmt 0 discriminator 2
	addi	a4,a4,-1
.LVL560:
	j	.L226
.LVL561:
.L235:
	.loc 1 1133 23
	li	a0,1
	j	.L222
.LVL562:
.L236:
	.loc 1 1134 23
	li	a0,-1
	j	.L222
.LVL563:
.L227:
	.loc 1 1130 5 is_stmt 1
	.loc 1 1134 23 is_stmt 0
	li	a0,-1
.LVL564:
	.loc 1 1130 7
	beq	a5,zero,.L222
	.loc 1 1133 5 is_stmt 1
	.loc 1 1133 23 is_stmt 0
	li	a0,1
	.loc 1 1133 7
	bgtu	a5,a4,.L222
	.loc 1 1134 5 is_stmt 1
	.loc 1 1134 23 is_stmt 0
	li	a0,-1
	.loc 1 1134 7
	bltu	a5,a4,.L222
	addi	a5,a5,-1
.LVL565:
	.loc 1 1136 12 is_stmt 1
	.loc 1 1136 5 is_stmt 0
	li	a1,-1
.LVL566:
.L231:
	.loc 1 1138 9 is_stmt 1
	.loc 1 1138 17 is_stmt 0
	lw	a2,8(a3)
	slli	a4,a5,2
	add	a2,a2,a4
	.loc 1 1138 31
	add	a4,a6,a4
	.loc 1 1138 17
	lw	a2,0(a2)
	.loc 1 1138 31
	lw	a4,0(a4)
	.loc 1 1138 11
	bgtu	a2,a4,.L235
	.loc 1 1139 9 is_stmt 1
	.loc 1 1139 11 is_stmt 0
	addi	a5,a5,-1
.LVL567:
	bltu	a2,a4,.L236
.LVL568:
	.loc 1 1136 12 is_stmt 1 discriminator 1
	.loc 1 1136 5 is_stmt 0 discriminator 1
	bne	a5,a1,.L231
	.loc 1 1142 11
	li	a0,0
.LVL569:
.L222:
	.loc 1 1143 1
	lw	s0,12(sp)
	.cfi_restore 8
	.cfi_def_cfa 2, 16
	addi	sp,sp,16
	.cfi_def_cfa_offset 0
	jr	ra
	.cfi_endproc
.LFE33:
	.size	blcrypto_suite_mpi_cmp_abs, .-blcrypto_suite_mpi_cmp_abs
	.section	.text.blcrypto_suite_mpi_cmp_mpi,"ax",@progbits
	.align	1
	.globl	blcrypto_suite_mpi_cmp_mpi
	.type	blcrypto_suite_mpi_cmp_mpi, @function
blcrypto_suite_mpi_cmp_mpi:
.LFB34:
	.loc 1 1149 1 is_stmt 1
	.cfi_startproc
.LVL570:
	.loc 1 1150 5
	.loc 1 1151 5
	.loc 1 1151 10
	.loc 1 1151 17
	.loc 1 1152 5
	.loc 1 1152 10
	.loc 1 1152 17
	.loc 1 1154 5
	.loc 1 1149 1 is_stmt 0
	addi	sp,sp,-16
	.cfi_def_cfa_offset 16
	sw	s0,12(sp)
	.cfi_offset 8, -4
	addi	s0,sp,16
	.cfi_def_cfa 8, 0
	.loc 1 1154 12
	lw	a5,4(a0)
.LVL571:
	.loc 1 1149 1
	mv	a4,a0
.L244:
	.loc 1 1154 20 is_stmt 1 discriminator 1
	.loc 1 1154 5 is_stmt 0 discriminator 1
	bne	a5,zero,.L246
.L245:
	.loc 1 1158 5 is_stmt 1
	.loc 1 1158 12 is_stmt 0
	lw	a3,4(a1)
.LVL572:
.L247:
	.loc 1 1158 20 is_stmt 1 discriminator 1
	.loc 1 1158 5 is_stmt 0 discriminator 1
	bne	a3,zero,.L249
	.loc 1 1162 5 is_stmt 1
	.loc 1 1177 11 is_stmt 0
	li	a0,0
.LVL573:
	.loc 1 1162 7
	bne	a5,zero,.L260
	j	.L243
.LVL574:
.L246:
	.loc 1 1155 9 is_stmt 1
	.loc 1 1155 17 is_stmt 0
	lw	a3,8(a4)
	slli	a2,a5,2
	add	a3,a3,a2
	.loc 1 1155 11
	lw	a3,-4(a3)
	bne	a3,zero,.L245
	.loc 1 1154 27 is_stmt 1 discriminator 2
	.loc 1 1154 28 is_stmt 0 discriminator 2
	addi	a5,a5,-1
.LVL575:
	j	.L244
.LVL576:
.L249:
	.loc 1 1159 9 is_stmt 1
	.loc 1 1159 14 is_stmt 0
	lw	a6,8(a1)
	.loc 1 1159 17
	slli	a2,a3,2
	add	a2,a6,a2
	.loc 1 1159 11
	lw	a2,-4(a2)
	bne	a2,zero,.L248
	.loc 1 1158 27 is_stmt 1 discriminator 2
	.loc 1 1158 28 is_stmt 0 discriminator 2
	addi	a3,a3,-1
.LVL577:
	j	.L247
.L251:
	.loc 1 1166 5 is_stmt 1
	.loc 1 1166 7 is_stmt 0
	bgeu	a5,a3,.L253
.L258:
	.loc 1 1166 17 is_stmt 1 discriminator 1
	.loc 1 1166 25 is_stmt 0 discriminator 1
	lw	a0,0(a1)
.LVL578:
.L271:
	.loc 1 1174 41 is_stmt 1 discriminator 1
	.loc 1 1174 49 is_stmt 0 discriminator 1
	neg	a0,a0
	j	.L243
.LVL579:
.L253:
	.loc 1 1168 5 is_stmt 1
	.loc 1 1168 10 is_stmt 0
	lw	a0,0(a4)
.LVL580:
	.loc 1 1166 27
	lw	a3,0(a1)
.LVL581:
	.loc 1 1168 7
	ble	a0,zero,.L254
	.loc 1 1168 18 discriminator 1
	bge	a3,zero,.L255
	.loc 1 1168 38
	li	a0,1
	j	.L243
.L254:
	.loc 1 1169 5 is_stmt 1
	.loc 1 1169 7 is_stmt 0
	ble	a3,zero,.L255
	.loc 1 1169 18 discriminator 1
	beq	a0,zero,.L255
	.loc 1 1169 38
	li	a0,-1
	j	.L243
.L255:
	addi	a5,a5,-1
.LVL582:
	.loc 1 1171 12 is_stmt 1 discriminator 1
	.loc 1 1171 5 is_stmt 0 discriminator 1
	li	a1,-1
.LVL583:
.L257:
	.loc 1 1173 9 is_stmt 1
	.loc 1 1173 17 is_stmt 0
	lw	a2,8(a4)
	slli	a3,a5,2
	add	a2,a2,a3
	.loc 1 1173 31
	add	a3,a6,a3
	.loc 1 1173 17
	lw	a2,0(a2)
	.loc 1 1173 31
	lw	a3,0(a3)
	.loc 1 1173 11
	bgtu	a2,a3,.L243
	.loc 1 1174 9 is_stmt 1
	.loc 1 1174 11 is_stmt 0
	addi	a5,a5,-1
.LVL584:
	bltu	a2,a3,.L271
.LVL585:
	.loc 1 1171 12 is_stmt 1 discriminator 1
	.loc 1 1171 5 is_stmt 0 discriminator 1
	bne	a5,a1,.L257
	.loc 1 1177 11
	li	a0,0
	j	.L243
.LVL586:
.L248:
	.loc 1 1162 5 is_stmt 1
	.loc 1 1162 7 is_stmt 0
	beq	a5,zero,.L258
	.loc 1 1165 5 is_stmt 1
	.loc 1 1165 7 is_stmt 0
	bleu	a5,a3,.L251
.LVL587:
.L260:
	.loc 1 1165 17 is_stmt 1 discriminator 1
	.loc 1 1165 26 is_stmt 0 discriminator 1
	lw	a0,0(a4)
.LVL588:
.L243:
	.loc 1 1178 1
	lw	s0,12(sp)
	.cfi_restore 8
	.cfi_def_cfa 2, 16
	addi	sp,sp,16
	.cfi_def_cfa_offset 0
	jr	ra
	.cfi_endproc
.LFE34:
	.size	blcrypto_suite_mpi_cmp_mpi, .-blcrypto_suite_mpi_cmp_mpi
	.section	.text.blcrypto_suite_mpi_lt_mpi_ct,"ax",@progbits
	.align	1
	.globl	blcrypto_suite_mpi_lt_mpi_ct
	.type	blcrypto_suite_mpi_lt_mpi_ct, @function
blcrypto_suite_mpi_lt_mpi_ct:
.LFB36:
	.loc 1 1220 1 is_stmt 1
	.cfi_startproc
.LVL589:
	.loc 1 1221 5
	.loc 1 1223 5
	.loc 1 1225 5
	.loc 1 1225 10
	.loc 1 1225 17
	.loc 1 1226 5
	.loc 1 1226 10
	.loc 1 1226 17
	.loc 1 1227 5
	.loc 1 1227 10
	.loc 1 1227 17
	.loc 1 1229 5
	.loc 1 1220 1 is_stmt 0
	addi	sp,sp,-16
	.cfi_def_cfa_offset 16
	sw	s0,12(sp)
	.cfi_offset 8, -4
	addi	s0,sp,16
	.cfi_def_cfa 8, 0
	.loc 1 1229 7
	lw	a4,4(a0)
	lw	a5,4(a1)
	bne	a4,a5,.L276
	.loc 1 1236 5 is_stmt 1
	.loc 1 1236 34 is_stmt 0
	lw	a4,0(a0)
	.loc 1 1263 28
	li	t3,1
	.loc 1 1253 5
	li	t4,-1
	.loc 1 1236 34
	srai	a5,a4,1
	.loc 1 1237 34
	lw	a4,0(a1)
	.loc 1 1236 19
	andi	a7,a5,1
.LVL590:
	.loc 1 1237 5 is_stmt 1
	.loc 1 1244 5
	.loc 1 1274 43 is_stmt 0
	sub	t5,t3,a7
	.loc 1 1237 34
	srai	a4,a4,1
.LVL591:
	.loc 1 1244 10
	xor	a4,a4,a5
	andi	a5,a4,1
.LVL592:
	.loc 1 1245 5 is_stmt 1
	.loc 1 1245 17 is_stmt 0
	and	a4,a4,a7
	.loc 1 1245 10
	sw	a4,0(a2)
.LVL593:
	.loc 1 1251 5 is_stmt 1
	.loc 1 1253 5
	.loc 1 1253 12 is_stmt 0
	lw	t1,4(a0)
.LVL594:
.L274:
	.loc 1 1253 20 is_stmt 1 discriminator 1
	.loc 1 1253 5 is_stmt 0 discriminator 1
	addi	t1,t1,-1
.LVL595:
	bne	t1,t4,.L275
	.loc 1 1278 11
	li	a0,0
.LVL596:
.L272:
	.loc 1 1279 1
	lw	s0,12(sp)
	.cfi_remember_state
	.cfi_restore 8
	.cfi_def_cfa 2, 16
	addi	sp,sp,16
	.cfi_def_cfa_offset 0
	jr	ra
.LVL597:
.L275:
	.cfi_restore_state
	.loc 1 1262 9 is_stmt 1 discriminator 3
	.loc 1 1262 16 is_stmt 0 discriminator 3
	lw	a3,8(a1)
	slli	a4,t1,2
	mv	t6,a4
	add	a4,a3,a4
	lw	a3,0(a4)
	lw	a4,8(a0)
	add	a4,a4,t6
	lw	a4,0(a4)
.LVL598:
.LBB158:
.LBB159:
	.loc 1 1190 5 is_stmt 1 discriminator 3
	.loc 1 1191 5 discriminator 3
	.loc 1 1196 5 discriminator 3
	.loc 1 1201 5 discriminator 3
	.loc 1 1201 15 is_stmt 0 discriminator 3
	sub	a6,a3,a4
.LVL599:
	.loc 1 1207 5 is_stmt 1 discriminator 3
	.loc 1 1196 10 is_stmt 0 discriminator 3
	xor	a3,a3,a4
.LVL600:
	.loc 1 1207 9 discriminator 3
	xor	a4,a4,a6
.LVL601:
	and	a4,a3,a4
	xor	a4,a4,a6
.LVL602:
	.loc 1 1210 5 is_stmt 1 discriminator 3
	.loc 1 1210 9 is_stmt 0 discriminator 3
	srli	a4,a4,31
.LVL603:
	.loc 1 1212 5 is_stmt 1 discriminator 3
.LBE159:
.LBE158:
	.loc 1 1263 9 discriminator 3
	.loc 1 1263 37 is_stmt 0 discriminator 3
	and	a3,a7,a4
	.loc 1 1263 28 discriminator 3
	sub	a6,t3,a5
	.loc 1 1263 37 discriminator 3
	and	a6,a6,a3
	.loc 1 1263 14 discriminator 3
	lw	a3,0(a2)
	.loc 1 1264 14 discriminator 3
	or	a5,a5,a4
.LVL604:
	.loc 1 1263 14 discriminator 3
	or	a6,a6,a3
	sw	a6,0(a2)
	.loc 1 1264 9 is_stmt 1 discriminator 3
.LVL605:
	.loc 1 1273 9 discriminator 3
	.loc 1 1273 16 is_stmt 0 discriminator 3
	lw	a3,8(a0)
	lw	a4,8(a1)
.LVL606:
	add	a3,a3,t6
	add	a4,a4,t6
	lw	a4,0(a4)
	lw	a3,0(a3)
.LVL607:
.LBB160:
.LBB161:
	.loc 1 1190 5 is_stmt 1 discriminator 3
	.loc 1 1191 5 discriminator 3
	.loc 1 1196 5 discriminator 3
	.loc 1 1201 5 discriminator 3
	.loc 1 1201 15 is_stmt 0 discriminator 3
	sub	t6,a3,a4
.LVL608:
	.loc 1 1207 5 is_stmt 1 discriminator 3
	.loc 1 1196 10 is_stmt 0 discriminator 3
	xor	a3,a3,a4
.LVL609:
	.loc 1 1207 9 discriminator 3
	xor	a4,a4,t6
.LVL610:
	and	a4,a3,a4
	xor	a4,a4,t6
.LVL611:
	.loc 1 1210 5 is_stmt 1 discriminator 3
	.loc 1 1210 9 is_stmt 0 discriminator 3
	srli	a4,a4,31
.LVL612:
	.loc 1 1212 5 is_stmt 1 discriminator 3
.LBE161:
.LBE160:
	.loc 1 1274 9 discriminator 3
	.loc 1 1274 28 is_stmt 0 discriminator 3
	sub	t6,t3,a5
	.loc 1 1274 37 discriminator 3
	and	a3,t5,a4
	and	a3,a3,t6
	.loc 1 1274 14 discriminator 3
	or	a6,a3,a6
	sw	a6,0(a2)
	.loc 1 1275 9 is_stmt 1 discriminator 3
	.loc 1 1275 14 is_stmt 0 discriminator 3
	or	a5,a5,a4
.LVL613:
	.loc 1 1253 27 is_stmt 1 discriminator 3
	j	.L274
.LVL614:
.L276:
	.loc 1 1230 16 is_stmt 0
	li	a0,-4
.LVL615:
	j	.L272
	.cfi_endproc
.LFE36:
	.size	blcrypto_suite_mpi_lt_mpi_ct, .-blcrypto_suite_mpi_lt_mpi_ct
	.section	.text.blcrypto_suite_mpi_cmp_int,"ax",@progbits
	.align	1
	.globl	blcrypto_suite_mpi_cmp_int
	.type	blcrypto_suite_mpi_cmp_int, @function
blcrypto_suite_mpi_cmp_int:
.LFB37:
	.loc 1 1285 1 is_stmt 1
	.cfi_startproc
.LVL616:
	.loc 1 1286 5
	.loc 1 1287 5
	.loc 1 1288 5
	.loc 1 1288 10
	.loc 1 1288 17
	.loc 1 1290 5
	.loc 1 1285 1 is_stmt 0
	addi	sp,sp,-32
	.cfi_def_cfa_offset 32
	.loc 1 1290 25
	srai	a4,a1,31
	.loc 1 1285 1
	sw	s0,24(sp)
	sw	ra,28(sp)
	.cfi_offset 8, -8
	.cfi_offset 1, -4
	addi	s0,sp,32
	.cfi_def_cfa 8, 0
	.loc 1 1290 25
	xor	a5,a4,a1
	sub	a5,a5,a4
	.loc 1 1285 1
	.loc 1 1290 8
	sw	a5,-32(s0)
	.loc 1 1291 5 is_stmt 1
	.loc 1 1291 26 is_stmt 0
	li	a5,1
	bge	a1,zero,.L279
	li	a5,-1
.L279:
	.loc 1 1291 9 discriminator 4
	sw	a5,-28(s0)
	.loc 1 1292 5 is_stmt 1 discriminator 4
	.loc 1 1292 9 is_stmt 0 discriminator 4
	li	a5,1
	sw	a5,-24(s0)
	.loc 1 1293 5 is_stmt 1 discriminator 4
	.loc 1 1295 13 is_stmt 0 discriminator 4
	addi	a1,s0,-28
.LVL617:
	.loc 1 1293 9 discriminator 4
	addi	a5,s0,-32
	sw	a5,-20(s0)
	.loc 1 1295 5 is_stmt 1 discriminator 4
	.loc 1 1295 13 is_stmt 0 discriminator 4
	call	blcrypto_suite_mpi_cmp_mpi
.LVL618:
	.loc 1 1296 1 discriminator 4
	lw	ra,28(sp)
	.cfi_restore 1
	lw	s0,24(sp)
	.cfi_restore 8
	.cfi_def_cfa 2, 32
	addi	sp,sp,32
	.cfi_def_cfa_offset 0
	jr	ra
	.cfi_endproc
.LFE37:
	.size	blcrypto_suite_mpi_cmp_int, .-blcrypto_suite_mpi_cmp_int
	.section	.text.blcrypto_suite_mpi_add_abs,"ax",@progbits
	.align	1
	.globl	blcrypto_suite_mpi_add_abs
	.type	blcrypto_suite_mpi_add_abs, @function
blcrypto_suite_mpi_add_abs:
.LFB38:
	.loc 1 1302 1 is_stmt 1
	.cfi_startproc
.LVL619:
	.loc 1 1303 5
	.loc 1 1304 5
	.loc 1 1305 5
	.loc 1 1306 5
	.loc 1 1306 10
	.loc 1 1306 17
	.loc 1 1307 5
	.loc 1 1307 10
	.loc 1 1307 17
	.loc 1 1308 5
	.loc 1 1308 10
	.loc 1 1308 17
	.loc 1 1310 5
	.loc 1 1302 1 is_stmt 0
	addi	sp,sp,-32
	.cfi_def_cfa_offset 32
	sw	s0,24(sp)
	sw	s2,16(sp)
	sw	s4,8(sp)
	sw	ra,28(sp)
	sw	s1,20(sp)
	sw	s3,12(sp)
	sw	s5,4(sp)
	.cfi_offset 8, -8
	.cfi_offset 18, -16
	.cfi_offset 20, -24
	.cfi_offset 1, -4
	.cfi_offset 9, -12
	.cfi_offset 19, -20
	.cfi_offset 21, -28
	addi	s0,sp,32
	.cfi_def_cfa 8, 0
	.loc 1 1302 1
	mv	s2,a0
	mv	s4,a1
	.loc 1 1310 7
	beq	a0,a2,.L284
	mv	s1,a2
	.loc 1 1315 5 is_stmt 1
	.loc 1 1315 7 is_stmt 0
	bne	a0,a1,.L285
.LVL620:
.L287:
	.loc 1 1302 1
	mv	s4,s1
.LVL621:
.L284:
	.loc 1 1316 90 is_stmt 1 discriminator 2
	.loc 1 1321 5 discriminator 2
	.loc 1 1321 10 is_stmt 0 discriminator 2
	li	a5,1
	sw	a5,0(s2)
	.loc 1 1323 5 is_stmt 1 discriminator 2
	.loc 1 1323 12 is_stmt 0 discriminator 2
	lw	s1,4(s4)
.LVL622:
.L288:
	.loc 1 1323 20 is_stmt 1 discriminator 1
	.loc 1 1323 5 is_stmt 0 discriminator 1
	bne	s1,zero,.L290
.L289:
	.loc 1 1327 5 is_stmt 1
	.loc 1 1327 10
	.loc 1 1327 23 is_stmt 0
	mv	a1,s1
	mv	a0,s2
	call	blcrypto_suite_mpi_grow
.LVL623:
	mv	s3,a0
.LVL624:
	.loc 1 1327 12
	bne	a0,zero,.L283
	.loc 1 1327 86 is_stmt 1 discriminator 2
	.loc 1 1329 5 discriminator 2
	.loc 1 1329 17 is_stmt 0 discriminator 2
	lw	a5,8(s2)
	.loc 1 1329 7 discriminator 2
	lw	a0,8(s4)
.LVL625:
	.loc 1 1329 15 is_stmt 1 discriminator 2
	.loc 1 1329 25 discriminator 2
	.loc 1 1334 5 discriminator 2
	.loc 1 1334 12 is_stmt 0 discriminator 2
	li	a3,0
	.loc 1 1329 17 discriminator 2
	mv	a2,a5
	.loc 1 1329 27 discriminator 2
	li	s4,0
.LVL626:
.L291:
	.loc 1 1334 17 is_stmt 1 discriminator 1
	.loc 1 1334 5 is_stmt 0 discriminator 1
	bne	s1,a3,.L292
	slli	a4,s1,2
	add	a5,a5,a4
.LVL627:
.L293:
	.loc 1 1341 10 is_stmt 1
	beq	s4,zero,.L283
	.loc 1 1343 9
	.loc 1 1343 11 is_stmt 0
	lw	a4,4(s2)
	addi	s5,s1,1
	bgtu	a4,s1,.L294
	.loc 1 1345 13 is_stmt 1
	.loc 1 1345 18
	.loc 1 1345 31 is_stmt 0
	mv	a1,s5
	mv	a0,s2
	call	blcrypto_suite_mpi_grow
.LVL628:
	.loc 1 1345 20
	bne	a0,zero,.L296
	.loc 1 1345 98 is_stmt 1 discriminator 2
	.loc 1 1346 13 discriminator 2
	.loc 1 1346 15 is_stmt 0 discriminator 2
	lw	a5,8(s2)
	slli	s1,s1,2
.LVL629:
	add	a5,a5,s1
.LVL630:
.L294:
	.loc 1 1349 9 is_stmt 1
	.loc 1 1349 12 is_stmt 0
	lw	a4,0(a5)
	.loc 1 1349 40
	mv	s1,s5
	.loc 1 1349 12
	add	a4,s4,a4
	sw	a4,0(a5)
	.loc 1 1349 18 is_stmt 1
	.loc 1 1349 27 is_stmt 0
	sltu	s4,a4,s4
.LVL631:
	.loc 1 1349 34 is_stmt 1
	.loc 1 1349 39
	.loc 1 1349 40 is_stmt 0
	addi	a5,a5,4
.LVL632:
	j	.L293
.LVL633:
.L285:
	.loc 1 1316 9 is_stmt 1
	.loc 1 1316 14
	.loc 1 1316 27 is_stmt 0
	call	blcrypto_suite_mpi_copy
.LVL634:
	mv	s3,a0
.LVL635:
	.loc 1 1316 16
	beq	a0,zero,.L287
.LVL636:
.L283:
	.loc 1 1355 1
	lw	ra,28(sp)
	.cfi_remember_state
	.cfi_restore 1
	lw	s0,24(sp)
	.cfi_restore 8
	.cfi_def_cfa 2, 32
	lw	s1,20(sp)
	.cfi_restore 9
	lw	s2,16(sp)
	.cfi_restore 18
.LVL637:
	lw	s4,8(sp)
	.cfi_restore 20
	lw	s5,4(sp)
	.cfi_restore 21
	mv	a0,s3
	lw	s3,12(sp)
	.cfi_restore 19
	addi	sp,sp,32
	.cfi_def_cfa_offset 0
	jr	ra
.LVL638:
.L290:
	.cfi_restore_state
	.loc 1 1324 9 is_stmt 1
	.loc 1 1324 17 is_stmt 0
	lw	a5,8(s4)
	slli	a4,s1,2
	add	a5,a5,a4
	.loc 1 1324 11
	lw	a5,-4(a5)
	bne	a5,zero,.L289
	.loc 1 1323 27 is_stmt 1 discriminator 2
	.loc 1 1323 28 is_stmt 0 discriminator 2
	addi	s1,s1,-1
.LVL639:
	j	.L288
.LVL640:
.L292:
	.loc 1 1336 9 is_stmt 1 discriminator 3
	.loc 1 1336 12 is_stmt 0 discriminator 3
	slli	a4,a3,2
	add	a4,a0,a4
	lw	a1,0(a4)
.LVL641:
	.loc 1 1337 9 is_stmt 1 discriminator 3
	.loc 1 1337 12 is_stmt 0 discriminator 3
	lw	a4,0(a2)
	.loc 1 1334 25 discriminator 3
	addi	a3,a3,1
.LVL642:
	.loc 1 1337 12 discriminator 3
	add	a4,s4,a4
	.loc 1 1337 18 is_stmt 1 discriminator 3
	.loc 1 1337 27 is_stmt 0 discriminator 3
	sltu	s4,a4,s4
.LVL643:
	.loc 1 1338 9 is_stmt 1 discriminator 3
	.loc 1 1338 12 is_stmt 0 discriminator 3
	add	a4,a4,a1
	sw	a4,0(a2)
	.loc 1 1338 20 is_stmt 1 discriminator 3
	.loc 1 1338 30 is_stmt 0 discriminator 3
	sltu	a4,a4,a1
	.loc 1 1338 22 discriminator 3
	add	s4,a4,s4
.LVL644:
	.loc 1 1334 24 is_stmt 1 discriminator 3
	.loc 1 1334 35 is_stmt 0 discriminator 3
	addi	a2,a2,4
.LVL645:
	j	.L291
.LVL646:
.L296:
.L286:
	.loc 1 1354 5 is_stmt 1
	mv	s3,a0
	.loc 1 1354 11 is_stmt 0
	j	.L283
	.cfi_endproc
.LFE38:
	.size	blcrypto_suite_mpi_add_abs, .-blcrypto_suite_mpi_add_abs
	.section	.text.blcrypto_suite_mpi_sub_abs,"ax",@progbits
	.align	1
	.globl	blcrypto_suite_mpi_sub_abs
	.type	blcrypto_suite_mpi_sub_abs, @function
blcrypto_suite_mpi_sub_abs:
.LFB40:
	.loc 1 1392 1 is_stmt 1
	.cfi_startproc
.LVL647:
	.loc 1 1393 5
	.loc 1 1394 5
	.loc 1 1395 5
	.loc 1 1396 5
	.loc 1 1397 5
	.loc 1 1397 10
	.loc 1 1397 17
	.loc 1 1398 5
	.loc 1 1398 10
	.loc 1 1398 17
	.loc 1 1399 5
	.loc 1 1399 10
	.loc 1 1399 17
	.loc 1 1401 5
	.loc 1 1392 1 is_stmt 0
	addi	sp,sp,-48
	.cfi_def_cfa_offset 48
	sw	s0,40(sp)
	sw	s2,32(sp)
	.cfi_offset 8, -8
	.cfi_offset 18, -16
	addi	s0,sp,48
	.cfi_def_cfa 8, 0
.LVL648:
.LBB162:
.LBB163:
	.loc 1 118 5 is_stmt 1
	.loc 1 118 10
	.loc 1 118 17
	.loc 1 120 5
.LBE163:
.LBE162:
	.loc 1 1392 1 is_stmt 0
	sw	s3,28(sp)
	sw	s4,24(sp)
	sw	ra,44(sp)
	sw	s1,36(sp)
	.cfi_offset 19, -20
	.cfi_offset 20, -24
	.cfi_offset 1, -4
	.cfi_offset 9, -12
.LBB165:
.LBB164:
	.loc 1 120 10
	li	a5,1
	sw	a5,-44(s0)
	.loc 1 121 5 is_stmt 1
	.loc 1 121 10 is_stmt 0
	sw	zero,-40(s0)
	.loc 1 122 5 is_stmt 1
	.loc 1 122 10 is_stmt 0
	sw	zero,-36(s0)
.LVL649:
.LBE164:
.LBE165:
	.loc 1 1403 5 is_stmt 1
	.loc 1 1392 1 is_stmt 0
	mv	s2,a0
	mv	s4,a1
	mv	s3,a2
	.loc 1 1403 7
	bne	a0,a2,.L299
	.loc 1 1405 9 is_stmt 1
	.loc 1 1405 14
	.loc 1 1405 27 is_stmt 0
	mv	a1,a0
.LVL650:
	addi	a0,s0,-44
.LVL651:
	call	blcrypto_suite_mpi_copy
.LVL652:
	mv	s1,a0
.LVL653:
	.loc 1 1406 11
	addi	s3,s0,-44
.LVL654:
	.loc 1 1405 16
	beq	a0,zero,.L299
.LVL655:
.L300:
	.loc 1 1447 5 is_stmt 1
	addi	a0,s0,-44
	call	blcrypto_suite_mpi_free
.LVL656:
	.loc 1 1449 5
	.loc 1 1450 1 is_stmt 0
	lw	ra,44(sp)
	.cfi_remember_state
	.cfi_restore 1
	lw	s0,40(sp)
	.cfi_restore 8
	.cfi_def_cfa 2, 48
	lw	s2,32(sp)
	.cfi_restore 18
.LVL657:
	lw	s3,28(sp)
	.cfi_restore 19
	lw	s4,24(sp)
	.cfi_restore 20
.LVL658:
	mv	a0,s1
	lw	s1,36(sp)
	.cfi_restore 9
.LVL659:
	addi	sp,sp,48
	.cfi_def_cfa_offset 0
	jr	ra
.LVL660:
.L299:
	.cfi_restore_state
	.loc 1 1409 5 is_stmt 1
	.loc 1 1409 7 is_stmt 0
	bne	s2,s4,.L301
.L303:
	.loc 1 1410 90 is_stmt 1
	.loc 1 1415 5
	.loc 1 1415 10 is_stmt 0
	li	a5,1
	sw	a5,0(s2)
	.loc 1 1417 5 is_stmt 1
.LVL661:
	.loc 1 1419 5
	.loc 1 1419 12 is_stmt 0
	lw	s1,4(s3)
.LVL662:
	.loc 1 1420 14
	lw	a2,8(s3)
.L302:
	.loc 1 1419 20 is_stmt 1 discriminator 1
	.loc 1 1419 5 is_stmt 0 discriminator 1
	bne	s1,zero,.L305
.L306:
	.loc 1 1429 5 is_stmt 1
	.loc 1 1429 13 is_stmt 0
	lw	a1,8(s2)
	mv	a0,s1
	call	mpi_sub_hlp
.LVL663:
	.loc 1 1430 5 is_stmt 1
	.loc 1 1434 13 is_stmt 0
	li	a3,-1
	.loc 1 1430 7
	bne	a0,zero,.L307
.LVL664:
.L316:
	.loc 1 1417 9
	li	s1,0
	j	.L300
.LVL665:
.L301:
	.loc 1 1410 9 is_stmt 1
	.loc 1 1410 14
	.loc 1 1410 27 is_stmt 0
	mv	a1,s4
	mv	a0,s2
	call	blcrypto_suite_mpi_copy
.LVL666:
	mv	s1,a0
.LVL667:
	.loc 1 1410 16
	beq	a0,zero,.L303
	j	.L300
.LVL668:
.L305:
	.loc 1 1420 9 is_stmt 1
	.loc 1 1420 17 is_stmt 0
	slli	a5,s1,2
	add	a5,a2,a5
	.loc 1 1420 11
	lw	a5,-4(a5)
	bne	a5,zero,.L304
	.loc 1 1419 27 is_stmt 1 discriminator 2
	.loc 1 1419 28 is_stmt 0 discriminator 2
	addi	s1,s1,-1
.LVL669:
	j	.L302
.L304:
	.loc 1 1422 5 is_stmt 1
	.loc 1 1422 7 is_stmt 0
	lw	a5,4(s4)
	bgeu	a5,s1,.L306
.L311:
	.loc 1 1425 13
	li	s1,-10
.LVL670:
	j	.L300
.LVL671:
.L309:
	.loc 1 1434 13 is_stmt 1 discriminator 3
	sw	a3,0(a5)
	.loc 1 1433 42 discriminator 3
	.loc 1 1433 43 is_stmt 0 discriminator 3
	addi	s1,s1,1
.LVL672:
.L307:
	.loc 1 1433 16 is_stmt 1 discriminator 1
	.loc 1 1433 21 is_stmt 0 discriminator 1
	lw	a5,4(s2)
	.loc 1 1433 9 discriminator 1
	bleu	a5,s1,.L308
	.loc 1 1433 32 discriminator 2
	lw	a4,8(s2)
	slli	a5,s1,2
	add	a5,a4,a5
	.loc 1 1433 25 discriminator 2
	lw	a4,0(a5)
	beq	a4,zero,.L309
.L310:
	.loc 1 1442 9 is_stmt 1
	.loc 1 1442 15 is_stmt 0
	lw	a5,8(s2)
	slli	s1,s1,2
.LVL673:
	add	s1,a5,s1
	.loc 1 1442 9
	lw	a5,0(s1)
	addi	a5,a5,-1
	sw	a5,0(s1)
	j	.L316
.LVL674:
.L308:
	.loc 1 1437 9 is_stmt 1
	.loc 1 1437 11 is_stmt 0
	bne	a5,s1,.L310
	j	.L311
	.cfi_endproc
.LFE40:
	.size	blcrypto_suite_mpi_sub_abs, .-blcrypto_suite_mpi_sub_abs
	.section	.text.blcrypto_suite_mpi_add_mpi,"ax",@progbits
	.align	1
	.globl	blcrypto_suite_mpi_add_mpi
	.type	blcrypto_suite_mpi_add_mpi, @function
blcrypto_suite_mpi_add_mpi:
.LFB41:
	.loc 1 1456 1 is_stmt 1
	.cfi_startproc
.LVL675:
	.loc 1 1457 5
	.loc 1 1458 5
	.loc 1 1458 10
	.loc 1 1458 17
	.loc 1 1459 5
	.loc 1 1459 10
	.loc 1 1459 17
	.loc 1 1460 5
	.loc 1 1460 10
	.loc 1 1460 17
	.loc 1 1462 5
	.loc 1 1456 1 is_stmt 0
	addi	sp,sp,-32
	.cfi_def_cfa_offset 32
	sw	s0,24(sp)
	sw	s1,20(sp)
	sw	ra,28(sp)
	sw	s2,16(sp)
	sw	s3,12(sp)
	sw	s4,8(sp)
	.cfi_offset 8, -8
	.cfi_offset 9, -12
	.cfi_offset 1, -4
	.cfi_offset 18, -16
	.cfi_offset 19, -20
	.cfi_offset 20, -24
	addi	s0,sp,32
	.cfi_def_cfa 8, 0
	.loc 1 1462 7
	lw	s2,0(a1)
.LVL676:
	.loc 1 1463 5 is_stmt 1
	.loc 1 1463 14 is_stmt 0
	lw	a5,0(a2)
	.loc 1 1456 1
	mv	s1,a0
	.loc 1 1463 14
	mul	a5,s2,a5
	.loc 1 1463 7
	bge	a5,zero,.L318
	mv	s4,a1
	.loc 1 1465 13
	mv	a0,s4
.LVL677:
	mv	a1,a2
.LVL678:
	mv	s3,a2
	.loc 1 1465 9 is_stmt 1
	.loc 1 1465 13 is_stmt 0
	call	blcrypto_suite_mpi_cmp_abs
.LVL679:
	.loc 1 1465 11
	blt	a0,zero,.L319
	.loc 1 1467 13 is_stmt 1
	.loc 1 1467 18
	.loc 1 1467 31 is_stmt 0
	mv	a2,s3
	mv	a1,s4
	mv	a0,s1
	call	blcrypto_suite_mpi_sub_abs
.LVL680:
.L323:
	.loc 1 1478 16
	bne	a0,zero,.L317
.LVL681:
.L322:
.L320:
	.loc 1 1478 96 is_stmt 1 discriminator 2
	.loc 1 1479 9 discriminator 2
	.loc 1 1484 5 discriminator 2
	.loc 1 1479 14 is_stmt 0 discriminator 2
	sw	s2,0(s1)
	.loc 1 1484 11 discriminator 2
	j	.L317
.LVL682:
.L319:
	.loc 1 1472 13 is_stmt 1
	.loc 1 1472 18
	.loc 1 1472 31 is_stmt 0
	mv	a2,s4
	mv	a1,s3
	mv	a0,s1
	call	blcrypto_suite_mpi_sub_abs
.LVL683:
	.loc 1 1473 20
	neg	s2,s2
.LVL684:
	.loc 1 1472 20
	beq	a0,zero,.L322
.LVL685:
.L317:
	.loc 1 1485 1
	lw	ra,28(sp)
	.cfi_remember_state
	.cfi_restore 1
	lw	s0,24(sp)
	.cfi_restore 8
	.cfi_def_cfa 2, 32
	lw	s1,20(sp)
	.cfi_restore 9
.LVL686:
	lw	s2,16(sp)
	.cfi_restore 18
	lw	s3,12(sp)
	.cfi_restore 19
	lw	s4,8(sp)
	.cfi_restore 20
	addi	sp,sp,32
	.cfi_def_cfa_offset 0
	jr	ra
.LVL687:
.L318:
	.cfi_restore_state
	.loc 1 1478 9 is_stmt 1
	.loc 1 1478 14
	.loc 1 1478 27 is_stmt 0
	call	blcrypto_suite_mpi_add_abs
.LVL688:
	j	.L323
	.cfi_endproc
.LFE41:
	.size	blcrypto_suite_mpi_add_mpi, .-blcrypto_suite_mpi_add_mpi
	.section	.text.blcrypto_suite_mpi_sub_mpi,"ax",@progbits
	.align	1
	.globl	blcrypto_suite_mpi_sub_mpi
	.type	blcrypto_suite_mpi_sub_mpi, @function
blcrypto_suite_mpi_sub_mpi:
.LFB42:
	.loc 1 1491 1 is_stmt 1
	.cfi_startproc
.LVL689:
	.loc 1 1492 5
	.loc 1 1493 5
	.loc 1 1493 10
	.loc 1 1493 17
	.loc 1 1494 5
	.loc 1 1494 10
	.loc 1 1494 17
	.loc 1 1495 5
	.loc 1 1495 10
	.loc 1 1495 17
	.loc 1 1497 5
	.loc 1 1491 1 is_stmt 0
	addi	sp,sp,-32
	.cfi_def_cfa_offset 32
	sw	s0,24(sp)
	sw	s1,20(sp)
	sw	ra,28(sp)
	sw	s2,16(sp)
	sw	s3,12(sp)
	sw	s4,8(sp)
	.cfi_offset 8, -8
	.cfi_offset 9, -12
	.cfi_offset 1, -4
	.cfi_offset 18, -16
	.cfi_offset 19, -20
	.cfi_offset 20, -24
	addi	s0,sp,32
	.cfi_def_cfa 8, 0
	.loc 1 1497 7
	lw	s2,0(a1)
.LVL690:
	.loc 1 1498 5 is_stmt 1
	.loc 1 1498 14 is_stmt 0
	lw	a5,0(a2)
	.loc 1 1491 1
	mv	s1,a0
	.loc 1 1498 14
	mul	a5,s2,a5
	.loc 1 1498 7
	ble	a5,zero,.L325
	mv	s4,a1
	.loc 1 1500 13
	mv	a0,s4
.LVL691:
	mv	a1,a2
.LVL692:
	mv	s3,a2
	.loc 1 1500 9 is_stmt 1
	.loc 1 1500 13 is_stmt 0
	call	blcrypto_suite_mpi_cmp_abs
.LVL693:
	.loc 1 1500 11
	blt	a0,zero,.L326
	.loc 1 1502 13 is_stmt 1
	.loc 1 1502 18
	.loc 1 1502 31 is_stmt 0
	mv	a2,s3
	mv	a1,s4
	mv	a0,s1
	call	blcrypto_suite_mpi_sub_abs
.LVL694:
.L330:
	.loc 1 1513 16
	bne	a0,zero,.L324
.LVL695:
.L329:
.L327:
	.loc 1 1513 96 is_stmt 1 discriminator 2
	.loc 1 1514 9 discriminator 2
	.loc 1 1519 5 discriminator 2
	.loc 1 1514 14 is_stmt 0 discriminator 2
	sw	s2,0(s1)
	.loc 1 1519 11 discriminator 2
	j	.L324
.LVL696:
.L326:
	.loc 1 1507 13 is_stmt 1
	.loc 1 1507 18
	.loc 1 1507 31 is_stmt 0
	mv	a2,s4
	mv	a1,s3
	mv	a0,s1
	call	blcrypto_suite_mpi_sub_abs
.LVL697:
	.loc 1 1508 20
	neg	s2,s2
.LVL698:
	.loc 1 1507 20
	beq	a0,zero,.L329
.LVL699:
.L324:
	.loc 1 1520 1
	lw	ra,28(sp)
	.cfi_remember_state
	.cfi_restore 1
	lw	s0,24(sp)
	.cfi_restore 8
	.cfi_def_cfa 2, 32
	lw	s1,20(sp)
	.cfi_restore 9
.LVL700:
	lw	s2,16(sp)
	.cfi_restore 18
	lw	s3,12(sp)
	.cfi_restore 19
	lw	s4,8(sp)
	.cfi_restore 20
	addi	sp,sp,32
	.cfi_def_cfa_offset 0
	jr	ra
.LVL701:
.L325:
	.cfi_restore_state
	.loc 1 1513 9 is_stmt 1
	.loc 1 1513 14
	.loc 1 1513 27 is_stmt 0
	call	blcrypto_suite_mpi_add_abs
.LVL702:
	j	.L330
	.cfi_endproc
.LFE42:
	.size	blcrypto_suite_mpi_sub_mpi, .-blcrypto_suite_mpi_sub_mpi
	.section	.text.blcrypto_suite_mpi_add_int,"ax",@progbits
	.align	1
	.globl	blcrypto_suite_mpi_add_int
	.type	blcrypto_suite_mpi_add_int, @function
blcrypto_suite_mpi_add_int:
.LFB43:
	.loc 1 1526 1 is_stmt 1
	.cfi_startproc
.LVL703:
	.loc 1 1527 5
	.loc 1 1528 5
	.loc 1 1529 5
	.loc 1 1529 10
	.loc 1 1529 17
	.loc 1 1530 5
	.loc 1 1530 10
	.loc 1 1530 17
	.loc 1 1532 5
	.loc 1 1526 1 is_stmt 0
	addi	sp,sp,-32
	.cfi_def_cfa_offset 32
	.loc 1 1532 27
	srai	a4,a2,31
	.loc 1 1526 1
	sw	s0,24(sp)
	sw	ra,28(sp)
	.cfi_offset 8, -8
	.cfi_offset 1, -4
	addi	s0,sp,32
	.cfi_def_cfa 8, 0
	.loc 1 1532 27
	xor	a5,a4,a2
	sub	a5,a5,a4
	.loc 1 1526 1
	.loc 1 1532 10
	sw	a5,-32(s0)
	.loc 1 1533 5 is_stmt 1
	.loc 1 1533 27 is_stmt 0
	li	a5,1
	bge	a2,zero,.L332
	li	a5,-1
.L332:
	.loc 1 1533 10 discriminator 4
	sw	a5,-28(s0)
	.loc 1 1534 5 is_stmt 1 discriminator 4
	.loc 1 1534 10 is_stmt 0 discriminator 4
	li	a5,1
	sw	a5,-24(s0)
	.loc 1 1535 5 is_stmt 1 discriminator 4
	.loc 1 1537 13 is_stmt 0 discriminator 4
	addi	a2,s0,-28
.LVL704:
	.loc 1 1535 10 discriminator 4
	addi	a5,s0,-32
	sw	a5,-20(s0)
	.loc 1 1537 5 is_stmt 1 discriminator 4
	.loc 1 1537 13 is_stmt 0 discriminator 4
	call	blcrypto_suite_mpi_add_mpi
.LVL705:
	.loc 1 1538 1 discriminator 4
	lw	ra,28(sp)
	.cfi_restore 1
	lw	s0,24(sp)
	.cfi_restore 8
	.cfi_def_cfa 2, 32
	addi	sp,sp,32
	.cfi_def_cfa_offset 0
	jr	ra
	.cfi_endproc
.LFE43:
	.size	blcrypto_suite_mpi_add_int, .-blcrypto_suite_mpi_add_int
	.section	.text.blcrypto_suite_mpi_sub_int,"ax",@progbits
	.align	1
	.globl	blcrypto_suite_mpi_sub_int
	.type	blcrypto_suite_mpi_sub_int, @function
blcrypto_suite_mpi_sub_int:
.LFB44:
	.loc 1 1544 1 is_stmt 1
	.cfi_startproc
.LVL706:
	.loc 1 1545 5
	.loc 1 1546 5
	.loc 1 1547 5
	.loc 1 1547 10
	.loc 1 1547 17
	.loc 1 1548 5
	.loc 1 1548 10
	.loc 1 1548 17
	.loc 1 1550 5
	.loc 1 1544 1 is_stmt 0
	addi	sp,sp,-32
	.cfi_def_cfa_offset 32
	.loc 1 1550 27
	srai	a4,a2,31
	.loc 1 1544 1
	sw	s0,24(sp)
	sw	ra,28(sp)
	.cfi_offset 8, -8
	.cfi_offset 1, -4
	addi	s0,sp,32
	.cfi_def_cfa 8, 0
	.loc 1 1550 27
	xor	a5,a4,a2
	sub	a5,a5,a4
	.loc 1 1544 1
	.loc 1 1550 10
	sw	a5,-32(s0)
	.loc 1 1551 5 is_stmt 1
	.loc 1 1551 27 is_stmt 0
	li	a5,1
	bge	a2,zero,.L337
	li	a5,-1
.L337:
	.loc 1 1551 10 discriminator 4
	sw	a5,-28(s0)
	.loc 1 1552 5 is_stmt 1 discriminator 4
	.loc 1 1552 10 is_stmt 0 discriminator 4
	li	a5,1
	sw	a5,-24(s0)
	.loc 1 1553 5 is_stmt 1 discriminator 4
	.loc 1 1555 13 is_stmt 0 discriminator 4
	addi	a2,s0,-28
.LVL707:
	.loc 1 1553 10 discriminator 4
	addi	a5,s0,-32
	sw	a5,-20(s0)
	.loc 1 1555 5 is_stmt 1 discriminator 4
	.loc 1 1555 13 is_stmt 0 discriminator 4
	call	blcrypto_suite_mpi_sub_mpi
.LVL708:
	.loc 1 1556 1 discriminator 4
	lw	ra,28(sp)
	.cfi_restore 1
	lw	s0,24(sp)
	.cfi_restore 8
	.cfi_def_cfa 2, 32
	addi	sp,sp,32
	.cfi_def_cfa_offset 0
	jr	ra
	.cfi_endproc
.LFE44:
	.size	blcrypto_suite_mpi_sub_int, .-blcrypto_suite_mpi_sub_int
	.section	.text.blcrypto_suite_mpi_mul_mpi,"ax",@progbits
	.align	1
	.globl	blcrypto_suite_mpi_mul_mpi
	.type	blcrypto_suite_mpi_mul_mpi, @function
blcrypto_suite_mpi_mul_mpi:
.LFB46:
	.loc 1 1634 1 is_stmt 1
	.cfi_startproc
.LVL709:
	.loc 1 1635 5
	.loc 1 1636 5
	.loc 1 1637 5
	.loc 1 1638 5
	.loc 1 1639 5
	.loc 1 1639 10
	.loc 1 1639 17
	.loc 1 1640 5
	.loc 1 1640 10
	.loc 1 1640 17
	.loc 1 1641 5
	.loc 1 1641 10
	.loc 1 1641 17
	.loc 1 1643 5
	.loc 1 1634 1 is_stmt 0
	addi	sp,sp,-80
	.cfi_def_cfa_offset 80
	sw	s0,72(sp)
	sw	s2,64(sp)
	.cfi_offset 8, -8
	.cfi_offset 18, -16
	addi	s0,sp,80
	.cfi_def_cfa 8, 0
.LVL710:
.LBB166:
.LBB167:
	.loc 1 118 5 is_stmt 1
	.loc 1 118 10
	.loc 1 118 17
	.loc 1 120 5
.LBE167:
.LBE166:
	.loc 1 1634 1 is_stmt 0
	sw	s3,60(sp)
	sw	s5,52(sp)
	sw	ra,76(sp)
	sw	s1,68(sp)
	sw	s4,56(sp)
	sw	s6,48(sp)
	sw	s7,44(sp)
	sw	s8,40(sp)
	.cfi_offset 19, -20
	.cfi_offset 21, -28
	.cfi_offset 1, -4
	.cfi_offset 9, -12
	.cfi_offset 20, -24
	.cfi_offset 22, -32
	.cfi_offset 23, -36
	.cfi_offset 24, -40
.LBB169:
.LBB168:
	.loc 1 120 10
	li	a5,1
	sw	a5,-72(s0)
	.loc 1 121 5 is_stmt 1
	.loc 1 121 10 is_stmt 0
	sw	zero,-68(s0)
	.loc 1 122 5 is_stmt 1
	.loc 1 122 10 is_stmt 0
	sw	zero,-64(s0)
.LVL711:
.LBE168:
.LBE169:
	.loc 1 1643 37 is_stmt 1
.LBB170:
.LBB171:
	.loc 1 118 5
	.loc 1 118 10
	.loc 1 118 17
	.loc 1 120 5
	.loc 1 120 10 is_stmt 0
	sw	a5,-60(s0)
	.loc 1 121 5 is_stmt 1
	.loc 1 121 10 is_stmt 0
	sw	zero,-56(s0)
	.loc 1 122 5 is_stmt 1
	.loc 1 122 10 is_stmt 0
	sw	zero,-52(s0)
.LVL712:
.LBE171:
.LBE170:
	.loc 1 1645 5 is_stmt 1
	.loc 1 1634 1 is_stmt 0
	mv	s5,a0
	mv	s2,a2
	mv	s3,a1
	.loc 1 1645 7
	bne	a0,a1,.L342
	.loc 1 1645 20 is_stmt 1 discriminator 1
	.loc 1 1645 25 discriminator 1
	.loc 1 1645 38 is_stmt 0 discriminator 1
	addi	a0,s0,-72
.LVL713:
	call	blcrypto_suite_mpi_copy
.LVL714:
	mv	s1,a0
.LVL715:
	.loc 1 1645 112 discriminator 1
	addi	s3,s0,-72
.LVL716:
	.loc 1 1645 27 discriminator 1
	beq	a0,zero,.L342
.LVL717:
.L343:
	.loc 1 1677 5 is_stmt 1
	addi	a0,s0,-60
	call	blcrypto_suite_mpi_free
.LVL718:
	.loc 1 1677 37
	addi	a0,s0,-72
	call	blcrypto_suite_mpi_free
.LVL719:
	.loc 1 1679 5
	.loc 1 1680 1 is_stmt 0
	lw	ra,76(sp)
	.cfi_remember_state
	.cfi_restore 1
	lw	s0,72(sp)
	.cfi_restore 8
	.cfi_def_cfa 2, 80
	lw	s2,64(sp)
	.cfi_restore 18
.LVL720:
	lw	s3,60(sp)
	.cfi_restore 19
	lw	s4,56(sp)
	.cfi_restore 20
	lw	s5,52(sp)
	.cfi_restore 21
.LVL721:
	lw	s6,48(sp)
	.cfi_restore 22
	lw	s7,44(sp)
	.cfi_restore 23
	lw	s8,40(sp)
	.cfi_restore 24
	mv	a0,s1
	lw	s1,68(sp)
	.cfi_restore 9
.LVL722:
	addi	sp,sp,80
	.cfi_def_cfa_offset 0
	jr	ra
.LVL723:
.L342:
	.cfi_restore_state
	.loc 1 1646 5 is_stmt 1
	.loc 1 1646 7 is_stmt 0
	bne	s5,s2,.L344
	.loc 1 1646 20 is_stmt 1 discriminator 1
	.loc 1 1646 25 discriminator 1
	.loc 1 1646 38 is_stmt 0 discriminator 1
	mv	a1,s5
	addi	a0,s0,-60
	call	blcrypto_suite_mpi_copy
.LVL724:
	mv	s1,a0
.LVL725:
	.loc 1 1646 27 discriminator 1
	bne	a0,zero,.L343
	.loc 1 1646 112
	addi	s2,s0,-60
.LVL726:
.L344:
	.loc 1 1648 5 is_stmt 1
	.loc 1 1648 12 is_stmt 0
	lw	s6,4(s3)
.LVL727:
.L345:
	.loc 1 1648 20 is_stmt 1 discriminator 1
	.loc 1 1648 5 is_stmt 0 discriminator 1
	bne	s6,zero,.L347
	.loc 1 1652 24
	li	s7,1
.L346:
.LVL728:
	.loc 1 1654 5 is_stmt 1
	.loc 1 1654 12 is_stmt 0
	lw	s4,4(s2)
.LVL729:
.L348:
	.loc 1 1654 20 is_stmt 1 discriminator 1
	.loc 1 1654 5 is_stmt 0 discriminator 1
	bne	s4,zero,.L350
	.loc 1 1658 24
	li	s7,1
.LVL730:
.L349:
	.loc 1 1660 5 is_stmt 1
	.loc 1 1660 10
	.loc 1 1660 23 is_stmt 0
	add	a1,s6,s4
	mv	a0,s5
	call	blcrypto_suite_mpi_grow
.LVL731:
	mv	s1,a0
.LVL732:
	.loc 1 1660 12
	bne	a0,zero,.L343
	.loc 1 1660 90 is_stmt 1 discriminator 2
	.loc 1 1661 5 discriminator 2
	.loc 1 1661 10 discriminator 2
	.loc 1 1661 23 is_stmt 0 discriminator 2
	li	a1,0
	mv	a0,s5
	call	blcrypto_suite_mpi_lset
.LVL733:
	mv	s1,a0
.LVL734:
	.loc 1 1661 12 discriminator 2
	bne	a0,zero,.L343
	addi	s4,s4,-1
.LVL735:
	.loc 1 1663 5
	li	s8,-1
.LVL736:
.L351:
	.loc 1 1663 12 is_stmt 1 discriminator 1
	.loc 1 1663 5 is_stmt 0 discriminator 1
	bne	s4,s8,.L352
	.loc 1 1670 5 is_stmt 1
	.loc 1 1670 7 is_stmt 0
	beq	s7,zero,.L353
	.loc 1 1671 9 is_stmt 1
	.loc 1 1671 14 is_stmt 0
	li	a5,1
	sw	a5,0(s5)
	j	.L343
.LVL737:
.L347:
	.loc 1 1649 9 is_stmt 1
	.loc 1 1649 17 is_stmt 0
	lw	a5,8(s3)
	slli	a4,s6,2
	add	a5,a5,a4
	.loc 1 1649 11
	lw	a5,-4(a5)
	bne	a5,zero,.L354
	.loc 1 1648 27 is_stmt 1 discriminator 2
	.loc 1 1648 28 is_stmt 0 discriminator 2
	addi	s6,s6,-1
.LVL738:
	j	.L345
.L354:
	.loc 1 1638 9
	li	s7,0
	j	.L346
.LVL739:
.L350:
	.loc 1 1655 9 is_stmt 1
	.loc 1 1655 17 is_stmt 0
	lw	a5,8(s2)
	slli	a4,s4,2
	add	a5,a5,a4
	.loc 1 1655 11
	lw	a5,-4(a5)
	bne	a5,zero,.L349
	.loc 1 1654 27 is_stmt 1 discriminator 2
	.loc 1 1654 28 is_stmt 0 discriminator 2
	addi	s4,s4,-1
.LVL740:
	j	.L348
.LVL741:
.L352:
	.loc 1 1664 9 is_stmt 1 discriminator 2
	lw	a5,8(s2)
	slli	a4,s4,2
	lw	a2,8(s5)
	add	a5,a5,a4
	lw	a3,0(a5)
	lw	a1,8(s3)
	add	a2,a2,a4
	mv	a0,s6
	call	mpi_mul_hlp
.LVL742:
	.loc 1 1663 19 discriminator 2
	addi	s4,s4,-1
.LVL743:
	j	.L351
.L353:
	.loc 1 1673 9
	.loc 1 1673 21 is_stmt 0
	lw	a5,0(s3)
	lw	a4,0(s2)
	.loc 1 1661 23
	li	s1,0
.LVL744:
	.loc 1 1673 21
	mul	a5,a5,a4
	.loc 1 1673 14
	sw	a5,0(s5)
	j	.L343
	.cfi_endproc
.LFE46:
	.size	blcrypto_suite_mpi_mul_mpi, .-blcrypto_suite_mpi_mul_mpi
	.section	.text.blcrypto_suite_mpi_mul_int,"ax",@progbits
	.align	1
	.globl	blcrypto_suite_mpi_mul_int
	.type	blcrypto_suite_mpi_mul_int, @function
blcrypto_suite_mpi_mul_int:
.LFB47:
	.loc 1 1686 1 is_stmt 1
	.cfi_startproc
.LVL745:
	.loc 1 1687 5
	.loc 1 1688 5
	.loc 1 1689 5
	.loc 1 1689 10
	.loc 1 1689 17
	.loc 1 1690 5
	.loc 1 1690 10
	.loc 1 1690 17
	.loc 1 1692 5
	.loc 1 1686 1 is_stmt 0
	addi	sp,sp,-32
	.cfi_def_cfa_offset 32
	sw	s0,24(sp)
	sw	ra,28(sp)
	.cfi_offset 8, -8
	.cfi_offset 1, -4
	addi	s0,sp,32
	.cfi_def_cfa 8, 0
	.loc 1 1692 10
	li	a5,1
	sw	a5,-28(s0)
	.loc 1 1693 5 is_stmt 1
	.loc 1 1693 10 is_stmt 0
	sw	a5,-24(s0)
	.loc 1 1694 5 is_stmt 1
	.loc 1 1695 10 is_stmt 0
	sw	a2,-32(s0)
	.loc 1 1694 10
	addi	a5,s0,-32
	.loc 1 1697 13
	addi	a2,s0,-28
.LVL746:
	.loc 1 1694 10
	sw	a5,-20(s0)
	.loc 1 1695 5 is_stmt 1
	.loc 1 1697 5
	.loc 1 1697 13 is_stmt 0
	call	blcrypto_suite_mpi_mul_mpi
.LVL747:
	.loc 1 1698 1
	lw	ra,28(sp)
	.cfi_restore 1
	lw	s0,24(sp)
	.cfi_restore 8
	.cfi_def_cfa 2, 32
	addi	sp,sp,32
	.cfi_def_cfa_offset 0
	jr	ra
	.cfi_endproc
.LFE47:
	.size	blcrypto_suite_mpi_mul_int, .-blcrypto_suite_mpi_mul_int
	.section	.text.blcrypto_suite_mpi_read_string,"ax",@progbits
	.align	1
	.globl	blcrypto_suite_mpi_read_string
	.type	blcrypto_suite_mpi_read_string, @function
blcrypto_suite_mpi_read_string:
.LFB23:
	.loc 1 575 1 is_stmt 1
	.cfi_startproc
.LVL748:
	.loc 1 576 5
	.loc 1 577 5
	.loc 1 578 5
	.loc 1 579 5
	.loc 1 580 5
	.loc 1 581 5
	.loc 1 581 10
	.loc 1 581 17
	.loc 1 582 5
	.loc 1 582 10
	.loc 1 582 17
	.loc 1 584 5
	.loc 1 575 1 is_stmt 0
	addi	sp,sp,-64
	.cfi_def_cfa_offset 64
	sw	s0,56(sp)
	sw	ra,60(sp)
	sw	s1,52(sp)
	sw	s2,48(sp)
	sw	s3,44(sp)
	sw	s4,40(sp)
	sw	s5,36(sp)
	sw	s6,32(sp)
	sw	s7,28(sp)
	.cfi_offset 8, -8
	.cfi_offset 1, -4
	.cfi_offset 9, -12
	.cfi_offset 18, -16
	.cfi_offset 19, -20
	.cfi_offset 20, -24
	.cfi_offset 21, -28
	.cfi_offset 22, -32
	.cfi_offset 23, -36
	addi	s0,sp,64
	.cfi_def_cfa 8, 0
	.loc 1 584 19
	addi	a4,a1,-2
	.loc 1 584 7
	li	a5,14
	bleu	a4,a5,.L360
.LVL749:
.L364:
	.loc 1 585 15
	li	s1,-4
.L359:
	.loc 1 633 1
	lw	ra,60(sp)
	.cfi_remember_state
	.cfi_restore 1
	lw	s0,56(sp)
	.cfi_restore 8
	.cfi_def_cfa 2, 64
	lw	s2,48(sp)
	.cfi_restore 18
	lw	s3,44(sp)
	.cfi_restore 19
	lw	s4,40(sp)
	.cfi_restore 20
	lw	s5,36(sp)
	.cfi_restore 21
	lw	s6,32(sp)
	.cfi_restore 22
	lw	s7,28(sp)
	.cfi_restore 23
	mv	a0,s1
	lw	s1,52(sp)
	.cfi_restore 9
	addi	sp,sp,64
	.cfi_def_cfa_offset 0
	jr	ra
.LVL750:
.L360:
	.cfi_restore_state
	.loc 1 589 7
	lbu	a4,0(a2)
.LBB172:
.LBB173:
	.loc 1 120 10
	li	a5,1
	sw	a5,-60(s0)
	.loc 1 121 10
	sw	zero,-56(s0)
	.loc 1 122 10
	sw	zero,-52(s0)
.LBE173:
.LBE172:
	.loc 1 589 7
	li	a5,45
	mv	s2,a0
	mv	s6,a1
	mv	s5,a2
	.loc 1 587 5 is_stmt 1
.LVL751:
.LBB175:
.LBB174:
	.loc 1 118 5
	.loc 1 118 10
	.loc 1 118 17
	.loc 1 120 5
	.loc 1 121 5
	.loc 1 122 5
.LBE174:
.LBE175:
	.loc 1 589 5
	.loc 1 578 9 is_stmt 0
	li	s4,1
	.loc 1 589 7
	bne	a4,a5,.L362
	.loc 1 591 9 is_stmt 1
	addi	s5,a2,1
.LVL752:
	.loc 1 592 9
	.loc 1 592 14 is_stmt 0
	li	s4,-1
.LVL753:
.L362:
	.loc 1 595 5 is_stmt 1
	.loc 1 595 12 is_stmt 0
	mv	a0,s5
.LVL754:
	call	strlen
.LVL755:
	.loc 1 597 7
	li	a5,16
	.loc 1 595 12
	mv	s3,a0
.LVL756:
	.loc 1 597 5 is_stmt 1
	.loc 1 597 7 is_stmt 0
	bne	s6,a5,.L363
	.loc 1 599 9 is_stmt 1
	.loc 1 599 11 is_stmt 0
	li	a5,1073741824
	bgeu	a0,a5,.L364
	.loc 1 602 9 is_stmt 1
	.loc 1 602 21 is_stmt 0
	slli	a5,a0,2
.LVL757:
	.loc 1 604 9 is_stmt 1
	.loc 1 604 14
	.loc 1 602 86 is_stmt 0
	andi	a1,a5,31
	.loc 1 602 129
	snez	a1,a1
	.loc 1 602 27
	srli	a5,a5,5
.LVL758:
	.loc 1 604 27
	add	a1,a1,a5
	mv	a0,s2
.LVL759:
	call	blcrypto_suite_mpi_grow
.LVL760:
	mv	s1,a0
.LVL761:
	.loc 1 604 16
	bne	a0,zero,.L365
	.loc 1 604 90 is_stmt 1 discriminator 2
	.loc 1 605 9 discriminator 2
	.loc 1 605 14 discriminator 2
	.loc 1 605 27 is_stmt 0 discriminator 2
	li	a1,0
	mv	a0,s2
	call	blcrypto_suite_mpi_lset
.LVL762:
	mv	s1,a0
.LVL763:
	.loc 1 605 16 discriminator 2
	bne	a0,zero,.L365
	add	s5,s5,s3
.LVL764:
	.loc 1 607 26
	li	s6,0
.LVL765:
.L366:
	.loc 1 607 31 is_stmt 1 discriminator 2
	.loc 1 607 9 is_stmt 0 discriminator 2
	bne	s6,s3,.L367
.LVL766:
.L371:
	.loc 1 625 5 is_stmt 1
	.loc 1 625 7 is_stmt 0
	li	a5,-1
	.loc 1 628 1
	li	s1,0
	.loc 1 625 7
	bne	s4,a5,.L365
	.loc 1 625 21 discriminator 1
	mv	a0,s2
	call	blcrypto_suite_mpi_bitlen
.LVL767:
	.loc 1 628 1 discriminator 1
	li	s1,0
	.loc 1 625 18 discriminator 1
	beq	a0,zero,.L365
	.loc 1 626 9 is_stmt 1
	.loc 1 626 14 is_stmt 0
	sw	s4,0(s2)
	j	.L365
.LVL768:
.L367:
	.loc 1 609 13 is_stmt 1
	.loc 1 609 18
	.loc 1 609 31 is_stmt 0
	lbu	a2,-1(s5)
	li	a1,16
	addi	a0,s0,-64
	call	mpi_get_digit
.LVL769:
	mv	s1,a0
.LVL770:
	.loc 1 609 20
	addi	s5,s5,-1
	bne	a0,zero,.L365
	.loc 1 609 99 is_stmt 1 discriminator 2
	.loc 1 610 13 discriminator 2
	.loc 1 610 20 is_stmt 0 discriminator 2
	srli	a5,s6,3
	.loc 1 610 65 discriminator 2
	slli	a4,a5,2
	lw	a5,8(s2)
	.loc 1 610 125 discriminator 2
	slli	a3,s6,2
	andi	a3,a3,28
	.loc 1 610 65 discriminator 2
	add	a5,a5,a4
	.loc 1 610 70 discriminator 2
	lw	a4,-64(s0)
	.loc 1 607 44 discriminator 2
	addi	s6,s6,1
.LVL771:
	.loc 1 610 70 discriminator 2
	sll	a3,a4,a3
	.loc 1 610 65 discriminator 2
	lw	a4,0(a5)
	or	a4,a4,a3
	sw	a4,0(a5)
	.loc 1 607 38 is_stmt 1 discriminator 2
.LVL772:
	j	.L366
.LVL773:
.L363:
	.loc 1 615 9
	.loc 1 615 14
	.loc 1 615 27 is_stmt 0
	li	a1,0
	mv	a0,s2
.LVL774:
	call	blcrypto_suite_mpi_lset
.LVL775:
	mv	s1,a0
.LVL776:
	.loc 1 617 16
	li	s7,0
	.loc 1 615 16
	beq	a0,zero,.L369
.LVL777:
.L365:
	.loc 1 630 5 is_stmt 1
	addi	a0,s0,-60
	call	blcrypto_suite_mpi_free
.LVL778:
	.loc 1 632 5
	.loc 1 632 11 is_stmt 0
	j	.L359
.LVL779:
.L370:
	.loc 1 619 13 is_stmt 1
	.loc 1 619 18
	.loc 1 619 31 is_stmt 0
	add	a5,s5,s7
	lbu	a2,0(a5)
	mv	a1,s6
	addi	a0,s0,-64
	call	mpi_get_digit
.LVL780:
	mv	s1,a0
.LVL781:
	.loc 1 619 20
	bne	a0,zero,.L365
	.loc 1 619 95 is_stmt 1 discriminator 2
	.loc 1 620 13 discriminator 2
	.loc 1 620 18 discriminator 2
	.loc 1 620 31 is_stmt 0 discriminator 2
	mv	a2,s6
	mv	a1,s2
	addi	a0,s0,-60
	call	blcrypto_suite_mpi_mul_int
.LVL782:
	mv	s1,a0
.LVL783:
	.loc 1 620 20 discriminator 2
	bne	a0,zero,.L365
	.loc 1 620 105 is_stmt 1 discriminator 2
	.loc 1 621 13 discriminator 2
	.loc 1 621 18 discriminator 2
	.loc 1 621 31 is_stmt 0 discriminator 2
	lw	a2,-64(s0)
	addi	a1,s0,-60
	mv	a0,s2
	call	blcrypto_suite_mpi_add_int
.LVL784:
	mv	s1,a0
.LVL785:
	.loc 1 621 20 discriminator 2
	bne	a0,zero,.L365
	.loc 1 621 101 is_stmt 1 discriminator 2
	.loc 1 617 31 discriminator 2
	.loc 1 617 32 is_stmt 0 discriminator 2
	addi	s7,s7,1
.LVL786:
.L369:
	.loc 1 617 21 is_stmt 1 discriminator 2
	.loc 1 617 9 is_stmt 0 discriminator 2
	bne	s7,s3,.L370
	j	.L371
	.cfi_endproc
.LFE23:
	.size	blcrypto_suite_mpi_read_string, .-blcrypto_suite_mpi_read_string
	.globl	__udivdi3
	.section	.text.blcrypto_suite_mpi_div_mpi,"ax",@progbits
	.align	1
	.globl	blcrypto_suite_mpi_div_mpi
	.type	blcrypto_suite_mpi_div_mpi, @function
blcrypto_suite_mpi_div_mpi:
.LFB49:
	.loc 1 1801 1 is_stmt 1
	.cfi_startproc
.LVL787:
	.loc 1 1802 5
	.loc 1 1803 5
	.loc 1 1804 5
	.loc 1 1805 5
	.loc 1 1805 10
	.loc 1 1805 17
	.loc 1 1806 5
	.loc 1 1806 10
	.loc 1 1806 17
	.loc 1 1808 5
	.loc 1 1801 1 is_stmt 0
	addi	sp,sp,-144
	.cfi_def_cfa_offset 144
	sw	s0,136(sp)
	sw	s2,128(sp)
	sw	s3,124(sp)
	sw	s5,116(sp)
	sw	s6,112(sp)
	sw	s10,96(sp)
	sw	ra,140(sp)
	sw	s1,132(sp)
	sw	s4,120(sp)
	sw	s7,108(sp)
	sw	s8,104(sp)
	sw	s9,100(sp)
	sw	s11,92(sp)
	.cfi_offset 8, -8
	.cfi_offset 18, -16
	.cfi_offset 19, -20
	.cfi_offset 21, -28
	.cfi_offset 22, -32
	.cfi_offset 26, -48
	.cfi_offset 1, -4
	.cfi_offset 9, -12
	.cfi_offset 20, -24
	.cfi_offset 23, -36
	.cfi_offset 24, -40
	.cfi_offset 25, -44
	.cfi_offset 27, -52
	addi	s0,sp,144
	.cfi_def_cfa 8, 0
	.loc 1 1801 1
	mv	s5,a0
	mv	s2,a1
	.loc 1 1808 9
	mv	a0,a3
.LVL788:
	li	a1,0
.LVL789:
	.loc 1 1801 1
	mv	s3,a2
	mv	s6,a3
	.loc 1 1808 9
	call	blcrypto_suite_mpi_cmp_int
.LVL790:
	.loc 1 1809 15
	li	s10,-12
	.loc 1 1808 7
	beq	a0,zero,.L376
	.loc 1 1811 5 is_stmt 1
.LVL791:
.LBB188:
.LBB189:
	.loc 1 118 5
	.loc 1 118 10
	.loc 1 118 17
	.loc 1 120 5
	.loc 1 120 10 is_stmt 0
	li	s1,1
.LBE189:
.LBE188:
	.loc 1 1814 9
	mv	a1,s6
	mv	a0,s3
.LBB191:
.LBB190:
	.loc 1 120 10
	sw	s1,-124(s0)
	.loc 1 121 5 is_stmt 1
	.loc 1 121 10 is_stmt 0
	sw	zero,-120(s0)
	.loc 1 122 5 is_stmt 1
	.loc 1 122 10 is_stmt 0
	sw	zero,-116(s0)
.LVL792:
.LBE190:
.LBE191:
	.loc 1 1811 36 is_stmt 1
.LBB192:
.LBB193:
	.loc 1 118 5
	.loc 1 118 10
	.loc 1 118 17
	.loc 1 120 5
	.loc 1 120 10 is_stmt 0
	sw	s1,-112(s0)
	.loc 1 121 5 is_stmt 1
	.loc 1 121 10 is_stmt 0
	sw	zero,-108(s0)
	.loc 1 122 5 is_stmt 1
	.loc 1 122 10 is_stmt 0
	sw	zero,-104(s0)
.LVL793:
.LBE193:
.LBE192:
	.loc 1 1811 67 is_stmt 1
.LBB194:
.LBB195:
	.loc 1 118 5
	.loc 1 118 10
	.loc 1 118 17
	.loc 1 120 5
	.loc 1 120 10 is_stmt 0
	sw	s1,-100(s0)
	.loc 1 121 5 is_stmt 1
	.loc 1 121 10 is_stmt 0
	sw	zero,-96(s0)
	.loc 1 122 5 is_stmt 1
	.loc 1 122 10 is_stmt 0
	sw	zero,-92(s0)
.LVL794:
.LBE195:
.LBE194:
	.loc 1 1812 5 is_stmt 1
.LBB196:
.LBB197:
	.loc 1 118 5
	.loc 1 118 10
	.loc 1 118 17
	.loc 1 120 5
	.loc 1 120 10 is_stmt 0
	sw	s1,-88(s0)
	.loc 1 121 5 is_stmt 1
	.loc 1 121 10 is_stmt 0
	sw	zero,-84(s0)
	.loc 1 122 5 is_stmt 1
	.loc 1 122 10 is_stmt 0
	sw	zero,-80(s0)
.LVL795:
.LBE197:
.LBE196:
	.loc 1 1812 37 is_stmt 1
.LBB198:
.LBB199:
	.loc 1 118 5
	.loc 1 118 10
	.loc 1 118 17
	.loc 1 120 5
	.loc 1 120 10 is_stmt 0
	sw	s1,-76(s0)
	.loc 1 121 5 is_stmt 1
	.loc 1 121 10 is_stmt 0
	sw	zero,-72(s0)
	.loc 1 122 5 is_stmt 1
	.loc 1 122 10 is_stmt 0
	sw	zero,-68(s0)
.LVL796:
.LBE199:
.LBE198:
	.loc 1 1814 5 is_stmt 1
	.loc 1 1814 9 is_stmt 0
	call	blcrypto_suite_mpi_cmp_abs
.LVL797:
	.loc 1 1814 7
	bge	a0,zero,.L378
	.loc 1 1816 9 is_stmt 1
	.loc 1 1816 11 is_stmt 0
	bne	s5,zero,.L379
.L383:
	.loc 1 1816 105 is_stmt 1
	.loc 1 1817 9
	.loc 1 1817 11 is_stmt 0
	bne	s2,zero,.L380
.L381:
	.loc 1 1818 15
	li	s10,0
.L376:
	.loc 1 1912 1
	lw	ra,140(sp)
	.cfi_remember_state
	.cfi_restore 1
	lw	s0,136(sp)
	.cfi_restore 8
	.cfi_def_cfa 2, 144
	lw	s1,132(sp)
	.cfi_restore 9
	lw	s2,128(sp)
	.cfi_restore 18
.LVL798:
	lw	s3,124(sp)
	.cfi_restore 19
.LVL799:
	lw	s4,120(sp)
	.cfi_restore 20
	lw	s5,116(sp)
	.cfi_restore 21
.LVL800:
	lw	s6,112(sp)
	.cfi_restore 22
.LVL801:
	lw	s7,108(sp)
	.cfi_restore 23
	lw	s8,104(sp)
	.cfi_restore 24
	lw	s9,100(sp)
	.cfi_restore 25
	lw	s11,92(sp)
	.cfi_restore 27
	mv	a0,s10
	lw	s10,96(sp)
	.cfi_restore 26
	addi	sp,sp,144
	.cfi_def_cfa_offset 0
	jr	ra
.LVL802:
.L379:
	.cfi_restore_state
	.loc 1 1816 24 is_stmt 1 discriminator 1
	.loc 1 1816 29 discriminator 1
	.loc 1 1816 42 is_stmt 0 discriminator 1
	li	a1,0
	mv	a0,s5
	call	blcrypto_suite_mpi_lset
.LVL803:
	mv	s10,a0
.LVL804:
	.loc 1 1816 31 discriminator 1
	beq	a0,zero,.L383
.LVL805:
.L382:
	.loc 1 1908 5 is_stmt 1
	addi	a0,s0,-124
	call	blcrypto_suite_mpi_free
.LVL806:
	.loc 1 1908 36
	addi	a0,s0,-112
	call	blcrypto_suite_mpi_free
.LVL807:
	.loc 1 1908 67
	addi	a0,s0,-100
	call	blcrypto_suite_mpi_free
.LVL808:
	.loc 1 1909 5
	addi	a0,s0,-88
	call	blcrypto_suite_mpi_free
.LVL809:
	.loc 1 1909 37
	addi	a0,s0,-76
	call	blcrypto_suite_mpi_free
.LVL810:
	.loc 1 1911 5
	.loc 1 1911 11 is_stmt 0
	j	.L376
.LVL811:
.L380:
	.loc 1 1817 24 is_stmt 1 discriminator 1
	.loc 1 1817 29 discriminator 1
	.loc 1 1817 42 is_stmt 0 discriminator 1
	mv	a1,s3
	mv	a0,s2
	call	blcrypto_suite_mpi_copy
.LVL812:
	mv	s10,a0
.LVL813:
	.loc 1 1817 31 discriminator 1
	bne	a0,zero,.L382
	j	.L381
.LVL814:
.L378:
	.loc 1 1821 5 is_stmt 1
	.loc 1 1821 10
	.loc 1 1821 23 is_stmt 0
	mv	a1,s3
	addi	a0,s0,-124
	call	blcrypto_suite_mpi_copy
.LVL815:
	mv	s10,a0
.LVL816:
	.loc 1 1821 12
	bne	a0,zero,.L382
	.loc 1 1821 87 is_stmt 1 discriminator 2
	.loc 1 1822 5 discriminator 2
	.loc 1 1822 10 discriminator 2
	.loc 1 1822 23 is_stmt 0 discriminator 2
	mv	a1,s6
	addi	a0,s0,-112
.LVL817:
	call	blcrypto_suite_mpi_copy
.LVL818:
	mv	s10,a0
.LVL819:
	.loc 1 1822 12 discriminator 2
	bne	a0,zero,.L382
	.loc 1 1822 87 is_stmt 1 discriminator 2
	.loc 1 1823 5 discriminator 2
	.loc 1 1825 23 is_stmt 0 discriminator 2
	lw	a1,4(s3)
	addi	a0,s0,-100
.LVL820:
	.loc 1 1823 15 discriminator 2
	sw	s1,-112(s0)
	.loc 1 1825 23 discriminator 2
	addi	a1,a1,2
	.loc 1 1823 9 discriminator 2
	sw	s1,-124(s0)
	.loc 1 1825 5 is_stmt 1 discriminator 2
	.loc 1 1825 10 discriminator 2
	.loc 1 1825 23 is_stmt 0 discriminator 2
	call	blcrypto_suite_mpi_grow
.LVL821:
	mv	s10,a0
.LVL822:
	.loc 1 1825 12 discriminator 2
	bne	a0,zero,.L382
	.loc 1 1825 94 is_stmt 1 discriminator 2
	.loc 1 1826 5 discriminator 2
	.loc 1 1826 10 discriminator 2
	.loc 1 1826 23 is_stmt 0 discriminator 2
	li	a1,0
	addi	a0,s0,-100
.LVL823:
	call	blcrypto_suite_mpi_lset
.LVL824:
	mv	s10,a0
.LVL825:
	.loc 1 1826 12 discriminator 2
	bne	a0,zero,.L382
	.loc 1 1826 87 is_stmt 1 discriminator 2
	.loc 1 1827 5 discriminator 2
	.loc 1 1827 10 discriminator 2
	.loc 1 1827 23 is_stmt 0 discriminator 2
	li	a1,2
	addi	a0,s0,-88
.LVL826:
	call	blcrypto_suite_mpi_grow
.LVL827:
	mv	s10,a0
.LVL828:
	.loc 1 1827 12 discriminator 2
	bne	a0,zero,.L382
	.loc 1 1827 88 is_stmt 1 discriminator 2
	.loc 1 1828 5 discriminator 2
	.loc 1 1828 10 discriminator 2
	.loc 1 1828 23 is_stmt 0 discriminator 2
	li	a1,3
	addi	a0,s0,-76
.LVL829:
	call	blcrypto_suite_mpi_grow
.LVL830:
	mv	s10,a0
.LVL831:
	.loc 1 1828 12 discriminator 2
	bne	a0,zero,.L382
	.loc 1 1828 88 is_stmt 1 discriminator 2
	.loc 1 1830 5 discriminator 2
	.loc 1 1830 9 is_stmt 0 discriminator 2
	addi	a0,s0,-112
.LVL832:
	call	blcrypto_suite_mpi_bitlen
.LVL833:
	.loc 1 1830 7 discriminator 2
	andi	a0,a0,31
.LVL834:
	.loc 1 1831 5 is_stmt 1 discriminator 2
	.loc 1 1831 7 is_stmt 0 discriminator 2
	li	s4,31
	beq	a0,s4,.L403
	.loc 1 1833 9 is_stmt 1
	.loc 1 1833 11 is_stmt 0
	sub	s4,s4,a0
.LVL835:
	.loc 1 1834 9 is_stmt 1
	.loc 1 1834 14
	.loc 1 1834 27 is_stmt 0
	mv	a1,s4
	addi	a0,s0,-124
	call	blcrypto_suite_mpi_shift_l
.LVL836:
	mv	s10,a0
.LVL837:
	.loc 1 1834 16
	bne	a0,zero,.L382
	.loc 1 1834 94 is_stmt 1 discriminator 2
	.loc 1 1835 9 discriminator 2
	.loc 1 1835 14 discriminator 2
	.loc 1 1835 27 is_stmt 0 discriminator 2
	mv	a1,s4
	addi	a0,s0,-112
.LVL838:
	call	blcrypto_suite_mpi_shift_l
.LVL839:
	mv	s10,a0
.LVL840:
	.loc 1 1835 16 discriminator 2
	bne	a0,zero,.L382
.LVL841:
.L384:
	.loc 1 1839 5 is_stmt 1
	.loc 1 1839 10 is_stmt 0
	lw	s8,-120(s0)
.LVL842:
	.loc 1 1840 5 is_stmt 1
	.loc 1 1840 10 is_stmt 0
	lw	s11,-108(s0)
.LVL843:
	.loc 1 1841 5 is_stmt 1
	.loc 1 1841 10
	.loc 1 1841 23 is_stmt 0
	addi	a0,s0,-112
	.loc 1 1841 102
	sub	s1,s8,s11
	.loc 1 1841 23
	slli	s7,s1,5
	mv	a1,s7
	call	blcrypto_suite_mpi_shift_l
.LVL844:
	mv	s10,a0
.LVL845:
	.loc 1 1845 12
	slli	s1,s1,2
	.loc 1 1841 12
	bne	a0,zero,.L382
.L385:
	.loc 1 1846 99 is_stmt 1 discriminator 2
	.loc 1 1843 10 discriminator 2
	.loc 1 1843 12 is_stmt 0 discriminator 2
	addi	a1,s0,-112
	addi	a0,s0,-124
.LVL846:
	call	blcrypto_suite_mpi_cmp_mpi
.LVL847:
	.loc 1 1843 10 discriminator 2
	bge	a0,zero,.L386
	.loc 1 1848 5 is_stmt 1
	.loc 1 1848 10
	.loc 1 1848 23 is_stmt 0
	mv	a1,s7
	addi	a0,s0,-112
	call	blcrypto_suite_mpi_shift_r
.LVL848:
	mv	s10,a0
.LVL849:
	.loc 1 1848 12
	bne	a0,zero,.L382
	li	s1,1073741824
	.loc 1 1840 7
	addi	s9,s11,-1
	addi	s1,s1,-1
	.loc 1 1852 26
	slli	a5,s9,2
	.loc 1 1866 42
	slli	a4,s11,2
	add	s1,s8,s1
	.loc 1 1852 26
	sw	a5,-132(s0)
	sub	s1,s1,s11
	.loc 1 1866 42
	addi	a5,a4,-8
	.loc 1 1839 7
	addi	s7,s8,-1
	.loc 1 1866 42
	sw	a5,-136(s0)
	slli	s1,s1,2
.LVL850:
.L387:
	.loc 1 1850 17 is_stmt 1 discriminator 1
	.loc 1 1850 5 is_stmt 0 discriminator 1
	bgtu	s7,s9,.L398
	.loc 1 1890 5 is_stmt 1
	.loc 1 1890 7 is_stmt 0
	beq	s5,zero,.L399
	.loc 1 1892 9 is_stmt 1
	.loc 1 1892 14
	.loc 1 1892 27 is_stmt 0
	addi	a1,s0,-100
	mv	a0,s5
	call	blcrypto_suite_mpi_copy
.LVL851:
	.loc 1 1892 16
	bne	a0,zero,.L419
	.loc 1 1892 91 is_stmt 1 discriminator 2
	.loc 1 1893 9 discriminator 2
	.loc 1 1893 21 is_stmt 0 discriminator 2
	lw	a4,0(s3)
	lw	a3,0(s6)
	mul	a4,a4,a3
	.loc 1 1893 14 discriminator 2
	sw	a4,0(s5)
.LVL852:
.L399:
	.loc 1 1896 5 is_stmt 1
	.loc 1 1896 7 is_stmt 0
	beq	s2,zero,.L382
	.loc 1 1898 9 is_stmt 1
	.loc 1 1898 14
	.loc 1 1898 27 is_stmt 0
	mv	a1,s4
	addi	a0,s0,-124
	call	blcrypto_suite_mpi_shift_r
.LVL853:
	.loc 1 1898 16
	bne	a0,zero,.L419
	.loc 1 1898 94 is_stmt 1 discriminator 2
	.loc 1 1899 9 discriminator 2
	.loc 1 1899 13 is_stmt 0 discriminator 2
	lw	a4,0(s3)
	.loc 1 1900 27 discriminator 2
	addi	a1,s0,-124
	mv	a0,s2
.LVL854:
	.loc 1 1899 13 discriminator 2
	sw	a4,-124(s0)
	.loc 1 1900 9 is_stmt 1 discriminator 2
	.loc 1 1900 14 discriminator 2
	.loc 1 1900 27 is_stmt 0 discriminator 2
	call	blcrypto_suite_mpi_copy
.LVL855:
	.loc 1 1900 16 discriminator 2
	bne	a0,zero,.L419
	.loc 1 1900 91 is_stmt 1 discriminator 2
	.loc 1 1902 9 discriminator 2
	.loc 1 1902 13 is_stmt 0 discriminator 2
	li	a1,0
	mv	a0,s2
.LVL856:
	call	blcrypto_suite_mpi_cmp_int
.LVL857:
	.loc 1 1902 11 discriminator 2
	bne	a0,zero,.L382
	.loc 1 1903 13 is_stmt 1
	.loc 1 1903 18 is_stmt 0
	li	a5,1
	sw	a5,0(s2)
	.loc 1 1900 27
	li	s10,0
	j	.L382
.LVL858:
.L403:
	.loc 1 1837 12
	li	s4,0
	j	.L384
.LVL859:
.L386:
	.loc 1 1845 9 is_stmt 1
	.loc 1 1845 12 is_stmt 0
	lw	a5,-92(s0)
	.loc 1 1846 27
	addi	a1,s0,-124
	addi	a2,s0,-112
	.loc 1 1845 12
	add	a5,a5,s1
	.loc 1 1845 19
	lw	a4,0(a5)
	.loc 1 1846 27
	mv	a0,a1
	.loc 1 1845 19
	addi	a4,a4,1
	sw	a4,0(a5)
	.loc 1 1846 9 is_stmt 1
	.loc 1 1846 14
	.loc 1 1846 27 is_stmt 0
	call	blcrypto_suite_mpi_sub_mpi
.LVL860:
	mv	s10,a0
.LVL861:
	.loc 1 1846 16
	beq	a0,zero,.L385
	j	.L382
.LVL862:
.L398:
	.loc 1 1852 9 is_stmt 1
	.loc 1 1852 14 is_stmt 0
	lw	a4,-116(s0)
	slli	s8,s7,2
	.loc 1 1852 26
	lw	a5,-132(s0)
	.loc 1 1852 16
	add	a3,a4,s8
	lw	a1,0(a3)
	.loc 1 1852 26
	lw	a3,-104(s0)
	.loc 1 1853 16
	lw	a6,-92(s0)
	.loc 1 1856 69
	addi	s11,s8,-4
	.loc 1 1852 26
	add	a3,a3,a5
	lw	a2,0(a3)
	.loc 1 1853 16
	add	a6,a6,s1
	.loc 1 1852 11
	bltu	a1,a2,.L388
	.loc 1 1853 13 is_stmt 1
	.loc 1 1853 28 is_stmt 0
	li	a5,-1
	sw	a5,0(a6)
.L389:
	.loc 1 1860 9 is_stmt 1
	.loc 1 1860 12 is_stmt 0
	lw	a4,-92(s0)
	.loc 1 1871 42
	addi	a5,s8,-8
	sw	a5,-140(s0)
	.loc 1 1860 12
	add	a4,a4,s1
	.loc 1 1860 23
	lw	a3,0(a4)
	addi	a3,a3,1
	sw	a3,0(a4)
.LVL863:
.L396:
	.loc 1 1861 9 is_stmt 1
	.loc 1 1863 13
	.loc 1 1863 16 is_stmt 0
	lw	a4,-92(s0)
	.loc 1 1865 31
	li	a1,0
	addi	a0,s0,-88
	.loc 1 1863 16
	add	a4,a4,s1
	.loc 1 1863 27
	lw	a3,0(a4)
	addi	a3,a3,-1
	sw	a3,0(a4)
	.loc 1 1865 13 is_stmt 1
	.loc 1 1865 18
	.loc 1 1865 31 is_stmt 0
	call	blcrypto_suite_mpi_lset
.LVL864:
	.loc 1 1865 20
	bne	a0,zero,.L419
	.loc 1 1865 96 is_stmt 1 discriminator 2
	.loc 1 1866 13 discriminator 2
	.loc 1 1866 37 is_stmt 0 discriminator 2
	li	a4,0
	beq	s9,zero,.L393
	.loc 1 1866 37 discriminator 1
	lw	a4,-104(s0)
	lw	a5,-136(s0)
	add	a4,a4,a5
	lw	a4,0(a4)
.L393:
	.loc 1 1866 15 discriminator 4
	lw	a3,-80(s0)
	.loc 1 1867 26 discriminator 4
	lw	a5,-132(s0)
	.loc 1 1868 31 discriminator 4
	addi	a1,s0,-88
	.loc 1 1866 21 discriminator 4
	sw	a4,0(a3)
	.loc 1 1867 13 is_stmt 1 discriminator 4
	.loc 1 1867 26 is_stmt 0 discriminator 4
	lw	a4,-104(s0)
	.loc 1 1867 15 discriminator 4
	lw	a3,-80(s0)
	.loc 1 1868 31 discriminator 4
	mv	a0,a1
.LVL865:
	.loc 1 1867 26 discriminator 4
	add	a4,a4,a5
	lw	a4,0(a4)
	.loc 1 1867 21 discriminator 4
	sw	a4,4(a3)
	.loc 1 1868 13 is_stmt 1 discriminator 4
	.loc 1 1868 18 discriminator 4
	.loc 1 1868 31 is_stmt 0 discriminator 4
	lw	a4,-92(s0)
	add	a4,a4,s1
	lw	a2,0(a4)
	call	blcrypto_suite_mpi_mul_int
.LVL866:
	.loc 1 1868 20 discriminator 4
	bne	a0,zero,.L419
	.loc 1 1868 117 is_stmt 1 discriminator 2
	.loc 1 1870 13 discriminator 2
	.loc 1 1870 18 discriminator 2
	.loc 1 1870 31 is_stmt 0 discriminator 2
	li	a1,0
	addi	a0,s0,-76
.LVL867:
	call	blcrypto_suite_mpi_lset
.LVL868:
	.loc 1 1870 20 discriminator 2
	bne	a0,zero,.L419
	.loc 1 1870 96 is_stmt 1 discriminator 2
	.loc 1 1871 13 discriminator 2
	.loc 1 1871 37 is_stmt 0 discriminator 2
	li	a5,1
	li	a4,0
	bleu	s7,a5,.L394
	.loc 1 1871 37 discriminator 1
	lw	a4,-116(s0)
	lw	a5,-140(s0)
	add	a4,a4,a5
	lw	a4,0(a4)
.L394:
	.loc 1 1871 15 discriminator 4
	lw	a3,-68(s0)
	.loc 1 1871 21 discriminator 4
	sw	a4,0(a3)
	.loc 1 1872 13 is_stmt 1 discriminator 4
	.loc 1 1872 37 is_stmt 0 discriminator 4
	li	a4,0
	beq	s7,zero,.L395
	.loc 1 1872 37 discriminator 1
	lw	a4,-116(s0)
	add	a4,a4,s11
	lw	a4,0(a4)
.L395:
	.loc 1 1872 15 discriminator 4
	lw	a3,-68(s0)
	.loc 1 1875 16 discriminator 4
	addi	a1,s0,-76
	addi	a0,s0,-88
.LVL869:
	.loc 1 1872 21 discriminator 4
	sw	a4,4(a3)
	.loc 1 1873 13 is_stmt 1 discriminator 4
	.loc 1 1873 26 is_stmt 0 discriminator 4
	lw	a4,-116(s0)
	add	a4,a4,s8
	lw	a3,0(a4)
	.loc 1 1873 21 discriminator 4
	lw	a4,-68(s0)
	sw	a3,8(a4)
	.loc 1 1875 14 is_stmt 1 discriminator 4
	.loc 1 1875 16 is_stmt 0 discriminator 4
	call	blcrypto_suite_mpi_cmp_mpi
.LVL870:
	.loc 1 1875 9 discriminator 4
	bgt	a0,zero,.L396
	.loc 1 1877 9 is_stmt 1
	.loc 1 1877 14
	.loc 1 1877 27 is_stmt 0
	lw	a4,-92(s0)
	addi	a1,s0,-112
	addi	a0,s0,-88
	add	a4,a4,s1
	lw	a2,0(a4)
	call	blcrypto_suite_mpi_mul_int
.LVL871:
	.loc 1 1877 16
	bne	a0,zero,.L419
	.loc 1 1877 112 is_stmt 1 discriminator 2
	.loc 1 1878 9 discriminator 2
	.loc 1 1878 14 discriminator 2
	slli	s8,s1,3
	.loc 1 1878 27 is_stmt 0 discriminator 2
	mv	a1,s8
	addi	a0,s0,-88
.LVL872:
	call	blcrypto_suite_mpi_shift_l
.LVL873:
	.loc 1 1878 16 discriminator 2
	bne	a0,zero,.L419
	.loc 1 1878 150 is_stmt 1 discriminator 2
	.loc 1 1879 9 discriminator 2
	.loc 1 1879 14 discriminator 2
	.loc 1 1879 27 is_stmt 0 discriminator 2
	addi	a1,s0,-124
	addi	a2,s0,-88
	mv	a0,a1
.LVL874:
	call	blcrypto_suite_mpi_sub_mpi
.LVL875:
	.loc 1 1879 16 discriminator 2
	bne	a0,zero,.L419
	.loc 1 1879 100 is_stmt 1 discriminator 2
	.loc 1 1881 9 discriminator 2
	.loc 1 1881 13 is_stmt 0 discriminator 2
	li	a1,0
	addi	a0,s0,-124
.LVL876:
	call	blcrypto_suite_mpi_cmp_int
.LVL877:
	.loc 1 1881 11 discriminator 2
	bge	a0,zero,.L397
	.loc 1 1883 13 is_stmt 1
	.loc 1 1883 18
	.loc 1 1883 31 is_stmt 0
	addi	a1,s0,-112
	addi	a0,s0,-88
	call	blcrypto_suite_mpi_copy
.LVL878:
	.loc 1 1883 20
	bne	a0,zero,.L419
	.loc 1 1883 97 is_stmt 1 discriminator 2
	.loc 1 1884 13 discriminator 2
	.loc 1 1884 18 discriminator 2
	.loc 1 1884 31 is_stmt 0 discriminator 2
	mv	a1,s8
	addi	a0,s0,-88
.LVL879:
	call	blcrypto_suite_mpi_shift_l
.LVL880:
	.loc 1 1884 20 discriminator 2
	bne	a0,zero,.L419
	.loc 1 1884 154 is_stmt 1 discriminator 2
	.loc 1 1885 13 discriminator 2
	.loc 1 1885 18 discriminator 2
	.loc 1 1885 31 is_stmt 0 discriminator 2
	addi	a1,s0,-124
	addi	a2,s0,-88
	mv	a0,a1
.LVL881:
	call	blcrypto_suite_mpi_add_mpi
.LVL882:
	.loc 1 1885 20 discriminator 2
	bne	a0,zero,.L419
	.loc 1 1885 104 is_stmt 1 discriminator 2
	.loc 1 1886 13 discriminator 2
	.loc 1 1886 16 is_stmt 0 discriminator 2
	lw	a4,-92(s0)
	add	a4,a4,s1
	.loc 1 1886 27 discriminator 2
	lw	a3,0(a4)
	addi	a3,a3,-1
	sw	a3,0(a4)
.LVL883:
.L397:
	.loc 1 1850 25 is_stmt 1 discriminator 2
	.loc 1 1850 26 is_stmt 0 discriminator 2
	addi	s7,s7,-1
.LVL884:
	addi	s1,s1,-4
	j	.L387
.L388:
	.loc 1 1856 13 is_stmt 1
	.loc 1 1856 30 is_stmt 0
	add	a4,a4,s11
	lw	a0,0(a4)
.LVL885:
.LBB200:
.LBB201:
	.loc 1 1708 5 is_stmt 1
	.loc 1 1720 5
	.loc 1 1724 16 is_stmt 0
	li	a4,-1
	.loc 1 1720 7
	beq	a2,zero,.L390
	.loc 1 1730 14
	li	a3,0
	sw	a6,-140(s0)
	.loc 1 1728 5 is_stmt 1
.LVL886:
	.loc 1 1729 5
	.loc 1 1730 5
	.loc 1 1730 14 is_stmt 0
	call	__udivdi3
.LVL887:
	.loc 1 1737 12
	lw	a6,-140(s0)
	.loc 1 1730 14
	mv	a4,a0
.LVL888:
	.loc 1 1731 5 is_stmt 1
	.loc 1 1734 5
	.loc 1 1737 5
	.loc 1 1737 12 is_stmt 0
	beq	a1,zero,.L390
	li	a4,-1
.LVL889:
.L390:
.LBE201:
.LBE200:
	.loc 1 1856 28
	sw	a4,0(a6)
	j	.L389
.LVL890:
.L419:
	mv	s10,a0
	j	.L382
	.cfi_endproc
.LFE49:
	.size	blcrypto_suite_mpi_div_mpi, .-blcrypto_suite_mpi_div_mpi
	.section	.text.blcrypto_suite_mpi_div_int,"ax",@progbits
	.align	1
	.globl	blcrypto_suite_mpi_div_int
	.type	blcrypto_suite_mpi_div_int, @function
blcrypto_suite_mpi_div_int:
.LFB50:
	.loc 1 1920 1 is_stmt 1
	.cfi_startproc
.LVL891:
	.loc 1 1921 5
	.loc 1 1922 5
	.loc 1 1923 5
	.loc 1 1923 10
	.loc 1 1923 17
	.loc 1 1925 5
	.loc 1 1920 1 is_stmt 0
	addi	sp,sp,-32
	.cfi_def_cfa_offset 32
	.loc 1 1925 27
	srai	a4,a3,31
	.loc 1 1920 1
	sw	s0,24(sp)
	sw	ra,28(sp)
	.cfi_offset 8, -8
	.cfi_offset 1, -4
	addi	s0,sp,32
	.cfi_def_cfa 8, 0
	.loc 1 1925 27
	xor	a5,a4,a3
	sub	a5,a5,a4
	.loc 1 1920 1
	.loc 1 1925 10
	sw	a5,-32(s0)
	.loc 1 1926 5 is_stmt 1
	.loc 1 1926 27 is_stmt 0
	li	a5,1
	bge	a3,zero,.L427
	li	a5,-1
.L427:
	.loc 1 1926 10 discriminator 4
	sw	a5,-28(s0)
	.loc 1 1927 5 is_stmt 1 discriminator 4
	.loc 1 1927 10 is_stmt 0 discriminator 4
	li	a5,1
	sw	a5,-24(s0)
	.loc 1 1928 5 is_stmt 1 discriminator 4
	.loc 1 1930 13 is_stmt 0 discriminator 4
	addi	a3,s0,-28
.LVL892:
	.loc 1 1928 10 discriminator 4
	addi	a5,s0,-32
	sw	a5,-20(s0)
	.loc 1 1930 5 is_stmt 1 discriminator 4
	.loc 1 1930 13 is_stmt 0 discriminator 4
	call	blcrypto_suite_mpi_div_mpi
.LVL893:
	.loc 1 1931 1 discriminator 4
	lw	ra,28(sp)
	.cfi_restore 1
	lw	s0,24(sp)
	.cfi_restore 8
	.cfi_def_cfa 2, 32
	addi	sp,sp,32
	.cfi_def_cfa_offset 0
	jr	ra
	.cfi_endproc
.LFE50:
	.size	blcrypto_suite_mpi_div_int, .-blcrypto_suite_mpi_div_int
	.section	.text.blcrypto_suite_mpi_mod_mpi,"ax",@progbits
	.align	1
	.globl	blcrypto_suite_mpi_mod_mpi
	.type	blcrypto_suite_mpi_mod_mpi, @function
blcrypto_suite_mpi_mod_mpi:
.LFB51:
	.loc 1 1937 1 is_stmt 1
	.cfi_startproc
.LVL894:
	.loc 1 1938 5
	.loc 1 1939 5
	.loc 1 1939 10
	.loc 1 1939 17
	.loc 1 1940 5
	.loc 1 1940 10
	.loc 1 1940 17
	.loc 1 1941 5
	.loc 1 1941 10
	.loc 1 1941 17
	.loc 1 1943 5
	.loc 1 1937 1 is_stmt 0
	addi	sp,sp,-32
	.cfi_def_cfa_offset 32
	sw	s0,24(sp)
	sw	s1,20(sp)
	sw	s2,16(sp)
	sw	s3,12(sp)
	sw	ra,28(sp)
	.cfi_offset 8, -8
	.cfi_offset 9, -12
	.cfi_offset 18, -16
	.cfi_offset 19, -20
	.cfi_offset 1, -4
	addi	s0,sp,32
	.cfi_def_cfa 8, 0
	mv	s1,a0
	mv	s2,a1
	.loc 1 1943 9
	li	a1,0
.LVL895:
	mv	a0,a2
.LVL896:
	.loc 1 1937 1
	mv	s3,a2
	.loc 1 1943 9
	call	blcrypto_suite_mpi_cmp_int
.LVL897:
	.loc 1 1943 7
	blt	a0,zero,.L437
	.loc 1 1946 5 is_stmt 1
	.loc 1 1946 10
	.loc 1 1946 23 is_stmt 0
	mv	a2,s2
	mv	a3,s3
	mv	a1,s1
	li	a0,0
	call	blcrypto_suite_mpi_div_mpi
.LVL898:
	mv	s2,a0
.LVL899:
	.loc 1 1946 12
	beq	a0,zero,.L433
.LVL900:
.L431:
	.loc 1 1957 1
	lw	ra,28(sp)
	.cfi_remember_state
	.cfi_restore 1
	lw	s0,24(sp)
	.cfi_restore 8
	.cfi_def_cfa 2, 32
	lw	s1,20(sp)
	.cfi_restore 9
.LVL901:
	lw	s3,12(sp)
	.cfi_restore 19
.LVL902:
	mv	a0,s2
	lw	s2,16(sp)
	.cfi_restore 18
	addi	sp,sp,32
	.cfi_def_cfa_offset 0
	jr	ra
.LVL903:
.L434:
	.cfi_restore_state
.LBB204:
.LBB205:
	.loc 1 1949 7 is_stmt 1
	.loc 1 1949 12
	.loc 1 1949 25 is_stmt 0
	mv	a2,s3
	mv	a1,s1
	mv	a0,s1
	call	blcrypto_suite_mpi_add_mpi
.LVL904:
	.loc 1 1949 14
	bne	a0,zero,.L439
.LVL905:
.L433:
	.loc 1 1949 94 is_stmt 1
	.loc 1 1948 10
	.loc 1 1948 12 is_stmt 0
	li	a1,0
	mv	a0,s1
	call	blcrypto_suite_mpi_cmp_int
.LVL906:
	.loc 1 1948 10
	blt	a0,zero,.L434
.LVL907:
.L435:
	.loc 1 1952 94 is_stmt 1
	.loc 1 1951 10
	.loc 1 1951 12 is_stmt 0
	mv	a1,s3
	mv	a0,s1
	call	blcrypto_suite_mpi_cmp_mpi
.LVL908:
	.loc 1 1951 10
	blt	a0,zero,.L431
	.loc 1 1952 7 is_stmt 1
	.loc 1 1952 12
	.loc 1 1952 25 is_stmt 0
	mv	a2,s3
	mv	a1,s1
	mv	a0,s1
	call	blcrypto_suite_mpi_sub_mpi
.LVL909:
	.loc 1 1952 14
	beq	a0,zero,.L435
.L439:
	mv	s2,a0
.LVL910:
	j	.L431
.LVL911:
.L437:
.LBE205:
.LBE204:
	.loc 1 1944 15
	li	s2,-10
.LVL912:
	j	.L431
	.cfi_endproc
.LFE51:
	.size	blcrypto_suite_mpi_mod_mpi, .-blcrypto_suite_mpi_mod_mpi
	.section	.text.blcrypto_suite_mpi_mod_int,"ax",@progbits
	.align	1
	.globl	blcrypto_suite_mpi_mod_int
	.type	blcrypto_suite_mpi_mod_int, @function
blcrypto_suite_mpi_mod_int:
.LFB52:
	.loc 1 1963 1 is_stmt 1
	.cfi_startproc
.LVL913:
	.loc 1 1964 5
	.loc 1 1965 5
	.loc 1 1966 5
	.loc 1 1966 10
	.loc 1 1966 17
	.loc 1 1967 5
	.loc 1 1967 10
	.loc 1 1967 17
	.loc 1 1969 5
	.loc 1 1963 1 is_stmt 0
	addi	sp,sp,-16
	.cfi_def_cfa_offset 16
	sw	s0,12(sp)
	.cfi_offset 8, -4
	addi	s0,sp,16
	.cfi_def_cfa 8, 0
	.loc 1 1969 7
	beq	a2,zero,.L448
	mv	a6,a0
	.loc 1 1972 5 is_stmt 1
	.loc 1 1973 15 is_stmt 0
	li	a0,-10
.LVL914:
	.loc 1 1972 7
	blt	a2,zero,.L441
	.loc 1 1978 5 is_stmt 1
	.loc 1 1978 7 is_stmt 0
	li	a5,1
	bne	a2,a5,.L443
	.loc 1 1980 9 is_stmt 1
	.loc 1 1980 12 is_stmt 0
	sw	zero,0(a6)
	.loc 1 1981 9 is_stmt 1
.L454:
	.loc 1 1987 9
	.loc 1 1987 15 is_stmt 0
	li	a0,0
.LVL915:
.L441:
	.loc 1 2016 1
	lw	s0,12(sp)
	.cfi_remember_state
	.cfi_restore 8
	.cfi_def_cfa 2, 16
	addi	sp,sp,16
	.cfi_def_cfa_offset 0
	jr	ra
.LVL916:
.L443:
	.cfi_restore_state
	.loc 1 1984 5 is_stmt 1
	.loc 1 1984 7 is_stmt 0
	li	a5,2
	bne	a2,a5,.L444
	.loc 1 1986 9 is_stmt 1
	.loc 1 1986 18 is_stmt 0
	lw	a5,8(a1)
	.loc 1 1986 22
	lw	a5,0(a5)
	andi	a5,a5,1
.L455:
	.loc 1 1986 12
	sw	a5,0(a6)
	j	.L454
.L444:
.LVL917:
.LBB208:
.LBB209:
	.loc 1 1993 5 is_stmt 1
	.loc 1 1993 12 is_stmt 0
	lw	a0,4(a1)
.LVL918:
	.loc 1 2001 69
	li	a7,65536
	.loc 1 1993 22
	li	a5,0
	.loc 1 1993 5
	li	t1,-1
	.loc 1 2001 69
	addi	a7,a7,-1
.LVL919:
.L445:
	.loc 1 1993 27 is_stmt 1
	.loc 1 1993 5 is_stmt 0
	addi	a0,a0,-1
.LVL920:
	bne	a0,t1,.L446
	.loc 1 2010 5 is_stmt 1
	.loc 1 2010 7 is_stmt 0
	lw	a4,0(a1)
	bge	a4,zero,.L455
	.loc 1 2010 18
	beq	a5,zero,.L455
	.loc 1 2011 9 is_stmt 1
	.loc 1 2011 11 is_stmt 0
	sub	a5,a2,a5
.LVL921:
	.loc 1 2013 5 is_stmt 1
	j	.L455
.L446:
	.loc 1 1995 9
	.loc 1 1995 11 is_stmt 0
	lw	a4,8(a1)
	slli	a3,a0,2
	.loc 1 1996 17
	slli	a5,a5,16
.LVL922:
	.loc 1 1995 11
	add	a4,a4,a3
	lw	a3,0(a4)
.LVL923:
	.loc 1 1996 9 is_stmt 1
	.loc 1 1997 9
	.loc 1 1998 9
	.loc 1 2000 9
	.loc 1 2001 9
	.loc 1 1996 69 is_stmt 0
	srli	a4,a3,16
	.loc 1 1996 11
	or	a5,a4,a5
.LVL924:
	.loc 1 2001 17
	remu	a5,a5,a2
.LVL925:
	.loc 1 2001 69
	and	a3,a3,a7
.LVL926:
	.loc 1 2001 17
	slli	a5,a5,16
.LVL927:
	.loc 1 2002 9 is_stmt 1
	.loc 1 2003 9
	.loc 1 2001 11 is_stmt 0
	or	a5,a3,a5
	remu	a5,a5,a2
.LVL928:
	.loc 1 1993 34 is_stmt 1
	j	.L445
.LVL929:
.L448:
.LBE209:
.LBE208:
	.loc 1 1970 15 is_stmt 0
	li	a0,-12
.LVL930:
	j	.L441
	.cfi_endproc
.LFE52:
	.size	blcrypto_suite_mpi_mod_int, .-blcrypto_suite_mpi_mod_int
	.section	.rodata.blcrypto_suite_mpi_write_string.str1.4,"aMS",@progbits,1
	.align	2
.LC0:
	.string	"0123456789ABCDEF"
	.section	.text.blcrypto_suite_mpi_write_string,"ax",@progbits
	.align	1
	.globl	blcrypto_suite_mpi_write_string
	.type	blcrypto_suite_mpi_write_string, @function
blcrypto_suite_mpi_write_string:
.LFB25:
	.loc 1 679 1 is_stmt 1
	.cfi_startproc
.LVL931:
	.loc 1 680 5
	.loc 1 681 5
	.loc 1 682 5
	.loc 1 683 5
	.loc 1 684 5
	.loc 1 684 10
	.loc 1 684 17
	.loc 1 685 5
	.loc 1 685 10
	.loc 1 685 17
	.loc 1 686 5
	.loc 1 686 10
	.loc 1 686 17
	.loc 1 688 5
	.loc 1 679 1 is_stmt 0
	addi	sp,sp,-64
	.cfi_def_cfa_offset 64
	sw	s0,56(sp)
	sw	s1,52(sp)
	sw	s4,40(sp)
	sw	ra,60(sp)
	sw	s2,48(sp)
	sw	s3,44(sp)
	sw	s5,36(sp)
	sw	s6,32(sp)
	sw	s7,28(sp)
	sw	s8,24(sp)
	sw	s9,20(sp)
	.cfi_offset 8, -8
	.cfi_offset 9, -12
	.cfi_offset 20, -24
	.cfi_offset 1, -4
	.cfi_offset 18, -16
	.cfi_offset 19, -20
	.cfi_offset 21, -28
	.cfi_offset 22, -32
	.cfi_offset 23, -36
	.cfi_offset 24, -40
	.cfi_offset 25, -44
	addi	s0,sp,64
	.cfi_def_cfa 8, 0
	mv	s4,a4
	.loc 1 688 19
	addi	a4,a1,-2
.LVL932:
	.loc 1 688 7
	li	a5,14
	.loc 1 689 15
	li	s1,-4
	.loc 1 688 7
	bgtu	a4,a5,.L456
	mv	s1,a0
	mv	s3,a1
	mv	s5,a2
	mv	s6,a3
	.loc 1 691 5 is_stmt 1
	.loc 1 691 9 is_stmt 0
	call	blcrypto_suite_mpi_bitlen
.LVL933:
	.loc 1 692 5 is_stmt 1
	.loc 1 692 7 is_stmt 0
	li	a5,3
	ble	s3,a5,.L458
	.loc 1 692 22 is_stmt 1 discriminator 1
	.loc 1 692 24 is_stmt 0 discriminator 1
	srli	a0,a0,1
.LVL934:
.L458:
	.loc 1 696 5 is_stmt 1
	.loc 1 696 7 is_stmt 0
	li	a5,16
	bne	s3,a5,.L459
	.loc 1 696 23 is_stmt 1 discriminator 1
	.loc 1 696 25 is_stmt 0 discriminator 1
	srli	a0,a0,1
.LVL935:
.L459:
	.loc 1 699 5 is_stmt 1
	.loc 1 700 5
	.loc 1 702 5
	.loc 1 703 5
	.loc 1 703 7 is_stmt 0
	addi	a5,a0,4
	andi	a5,a5,-2
.LVL936:
	.loc 1 706 5 is_stmt 1
	.loc 1 706 7 is_stmt 0
	bleu	a5,s6,.L460
	.loc 1 708 9 is_stmt 1
	.loc 1 708 15 is_stmt 0
	sw	a5,0(s4)
	.loc 1 709 9 is_stmt 1
	.loc 1 709 15 is_stmt 0
	li	s1,-8
.LVL937:
.L456:
	.loc 1 759 1
	lw	ra,60(sp)
	.cfi_remember_state
	.cfi_restore 1
	lw	s0,56(sp)
	.cfi_restore 8
	.cfi_def_cfa 2, 64
	lw	s2,48(sp)
	.cfi_restore 18
	lw	s3,44(sp)
	.cfi_restore 19
	lw	s4,40(sp)
	.cfi_restore 20
.LVL938:
	lw	s5,36(sp)
	.cfi_restore 21
	lw	s6,32(sp)
	.cfi_restore 22
	lw	s7,28(sp)
	.cfi_restore 23
	lw	s8,24(sp)
	.cfi_restore 24
	lw	s9,20(sp)
	.cfi_restore 25
	mv	a0,s1
	lw	s1,52(sp)
	.cfi_restore 9
	addi	sp,sp,64
	.cfi_def_cfa_offset 0
	jr	ra
.LVL939:
.L460:
	.cfi_restore_state
	.loc 1 712 5 is_stmt 1
	.loc 1 713 5
.LBB215:
.LBB216:
	.loc 1 118 5
	.loc 1 118 10
	.loc 1 118 17
	.loc 1 120 5
.LBE216:
.LBE215:
	.loc 1 715 7 is_stmt 0
	lw	a4,0(s1)
.LBB218:
.LBB217:
	.loc 1 120 10
	li	a5,1
.LVL940:
	sw	a5,-60(s0)
	.loc 1 121 5 is_stmt 1
	.loc 1 121 10 is_stmt 0
	sw	zero,-56(s0)
	.loc 1 122 5 is_stmt 1
	.loc 1 122 10 is_stmt 0
	sw	zero,-52(s0)
.LVL941:
.LBE217:
.LBE218:
	.loc 1 715 5 is_stmt 1
	.loc 1 715 7 is_stmt 0
	li	a5,-1
	mv	s2,s5
	bne	a4,a5,.L461
.LVL942:
	.loc 1 717 9 is_stmt 1
	.loc 1 717 14 is_stmt 0
	li	a5,45
	.loc 1 717 11
	addi	s2,s5,1
.LVL943:
	.loc 1 717 14
	sb	a5,0(s5)
	.loc 1 718 9 is_stmt 1
	.loc 1 718 15 is_stmt 0
	addi	s6,s6,-1
.LVL944:
.L461:
	.loc 1 721 5 is_stmt 1
	.loc 1 721 7 is_stmt 0
	li	a5,16
	bne	s3,a5,.L462
.LBB219:
	.loc 1 723 9 is_stmt 1
	.loc 1 724 9
	.loc 1 726 9
	.loc 1 726 16 is_stmt 0
	lw	a3,4(s1)
.LVL945:
	.loc 1 735 45
	lui	a1,%hi(.LC0)
	.loc 1 726 26
	li	a2,0
	.loc 1 735 45
	addi	a1,a1,%lo(.LC0)
	.loc 1 732 38
	li	t1,2
	.loc 1 728 13
	li	t3,-8
.LVL946:
.L463:
	.loc 1 726 31 is_stmt 1 discriminator 1
	.loc 1 726 9 is_stmt 0 discriminator 1
	bne	a3,zero,.L467
.LVL947:
.L468:
.LBE219:
	.loc 1 748 97 is_stmt 1 discriminator 2
	.loc 1 751 5 discriminator 2
	.loc 1 751 10 is_stmt 0 discriminator 2
	sb	zero,0(s2)
	.loc 1 752 5 is_stmt 1 discriminator 2
	.loc 1 751 7 is_stmt 0 discriminator 2
	addi	s2,s2,1
	.loc 1 752 15 discriminator 2
	sub	s2,s2,s5
	.loc 1 752 11 discriminator 2
	sw	s2,0(s4)
	li	s1,0
.LVL948:
.L469:
	.loc 1 756 5 is_stmt 1
	addi	a0,s0,-60
	call	blcrypto_suite_mpi_free
.LVL949:
	.loc 1 758 5
	.loc 1 758 11 is_stmt 0
	j	.L456
.LVL950:
.L467:
.LBB220:
	.loc 1 730 27
	slli	a7,a3,2
	addi	a7,a7,-4
	addi	a6,a3,4
	li	a0,24
.L466:
.LVL951:
	.loc 1 730 17 is_stmt 1
	.loc 1 730 27 is_stmt 0
	lw	a5,8(s1)
	add	a5,a5,a7
	.loc 1 730 35
	lw	a5,0(a5)
	srl	a5,a5,a0
	.loc 1 730 19
	andi	a4,a5,255
.LVL952:
	.loc 1 732 17 is_stmt 1
	.loc 1 732 19 is_stmt 0
	or	a2,a2,a4
.LVL953:
	bne	a2,zero,.L464
	.loc 1 732 38 discriminator 2
	bne	a6,t1,.L465
.L464:
	.loc 1 735 17 is_stmt 1
	.loc 1 735 48 is_stmt 0
	srai	a4,a4,4
.LVL954:
	.loc 1 736 48
	andi	a5,a5,15
.LVL955:
	.loc 1 735 45
	add	a4,a1,a4
	.loc 1 736 45
	add	a5,a1,a5
	.loc 1 735 24
	lbu	a4,0(a4)
	.loc 1 736 24
	lbu	a5,0(a5)
	.loc 1 736 20
	addi	s2,s2,2
	.loc 1 735 24
	sb	a4,-2(s2)
.LVL956:
	.loc 1 736 17 is_stmt 1
	.loc 1 736 24 is_stmt 0
	sb	a5,-1(s2)
	.loc 1 737 17 is_stmt 1
.LVL957:
	.loc 1 737 19 is_stmt 0
	li	a2,1
.LVL958:
.L465:
	.loc 1 728 57 is_stmt 1 discriminator 1
	.loc 1 728 13 is_stmt 0 discriminator 1
	addi	a0,a0,-8
	addi	a6,a6,-1
.LVL959:
	bne	a0,t3,.L466
	.loc 1 726 38 is_stmt 1 discriminator 2
	.loc 1 726 39 is_stmt 0 discriminator 2
	addi	a3,a3,-1
.LVL960:
	j	.L463
.LVL961:
.L462:
.LBE220:
	.loc 1 743 9 is_stmt 1
	.loc 1 743 14
	.loc 1 743 27 is_stmt 0
	mv	a1,s1
	addi	a0,s0,-60
.LVL962:
	call	blcrypto_suite_mpi_copy
.LVL963:
	mv	s1,a0
.LVL964:
	.loc 1 743 16
	bne	a0,zero,.L469
	.loc 1 743 91 is_stmt 1 discriminator 2
	.loc 1 745 9 discriminator 2
	.loc 1 745 11 is_stmt 0 discriminator 2
	lw	a4,-60(s0)
	li	a5,-1
	bne	a4,a5,.L470
	.loc 1 746 13 is_stmt 1
	.loc 1 746 17 is_stmt 0
	li	a5,1
	sw	a5,-60(s0)
.L470:
	.loc 1 748 9 is_stmt 1
	.loc 1 748 14
.LVL965:
.LBB221:
.LBB222:
	.loc 1 641 5
	.loc 1 642 5
	.loc 1 643 5
	.loc 1 644 5
	.loc 1 644 11 is_stmt 0
	add	s7,s2,s6
.LVL966:
	mv	s9,s7
	.loc 1 658 11
	li	s8,9
.LVL967:
.L474:
	.loc 1 646 5 is_stmt 1
	.loc 1 648 9
	.loc 1 648 11 is_stmt 0
	sub	a5,s7,s9
.LVL968:
	bleu	s6,a5,.L478
	.loc 1 653 9 is_stmt 1
	.loc 1 653 14
	.loc 1 653 27 is_stmt 0
	mv	a2,s3
	addi	a1,s0,-60
.LVL969:
	addi	a0,s0,-64
	call	blcrypto_suite_mpi_mod_int
.LVL970:
	mv	s1,a0
.LVL971:
	.loc 1 653 16
	bne	a0,zero,.L469
	.loc 1 653 101 is_stmt 1
	.loc 1 654 9
	.loc 1 654 14
	.loc 1 654 27 is_stmt 0
	addi	a2,s0,-60
.LVL972:
	mv	a3,s3
	li	a1,0
	mv	a0,a2
	call	blcrypto_suite_mpi_div_int
.LVL973:
	mv	s1,a0
.LVL974:
	.loc 1 654 16
	bne	a0,zero,.L469
	.loc 1 654 52 is_stmt 1
	.loc 1 658 9
	.loc 1 658 15 is_stmt 0
	lw	a4,-64(s0)
	.loc 1 659 24
	addi	s9,s9,-1
.LVL975:
	.loc 1 659 26
	andi	a5,a4,0xff
	.loc 1 658 11
	bgtu	a4,s8,.L472
	.loc 1 659 13 is_stmt 1
.LVL976:
	.loc 1 659 26 is_stmt 0
	addi	a5,a5,48
.LVL977:
.L482:
	.loc 1 661 26
	andi	a5,a5,0xff
	sb	a5,0(s9)
.LVL978:
	.loc 1 663 9 is_stmt 1
	.loc 1 664 14 is_stmt 0
	li	a1,0
	addi	a0,s0,-60
.LVL979:
	sub	s1,s7,s9
.LVL980:
	.loc 1 664 12 is_stmt 1
	.loc 1 664 14 is_stmt 0
	call	blcrypto_suite_mpi_cmp_int
.LVL981:
	.loc 1 664 5
	bne	a0,zero,.L474
	.loc 1 666 5 is_stmt 1
	mv	a0,s2
	mv	a2,s1
	mv	a1,s9
	call	memmove
.LVL982:
	.loc 1 667 5
	.loc 1 667 8 is_stmt 0
	add	s2,s2,s1
.LVL983:
	j	.L468
.LVL984:
.L472:
	.loc 1 661 13 is_stmt 1
	.loc 1 661 26 is_stmt 0
	addi	a5,a5,55
	j	.L482
.LVL985:
.L478:
	.loc 1 650 19
	li	s1,-8
.LVL986:
	j	.L469
.LBE222:
.LBE221:
	.cfi_endproc
.LFE25:
	.size	blcrypto_suite_mpi_write_string, .-blcrypto_suite_mpi_write_string
	.section	.text.blcrypto_suite_mpi_exp_mod,"ax",@progbits
	.align	1
	.globl	blcrypto_suite_mpi_exp_mod
	.type	blcrypto_suite_mpi_exp_mod, @function
blcrypto_suite_mpi_exp_mod:
.LFB58:
	.loc 1 2193 1 is_stmt 1
	.cfi_startproc
.LVL987:
	.loc 1 2194 5
	.loc 1 2195 5
	.loc 1 2196 5
	.loc 1 2197 5
	.loc 1 2198 5
	.loc 1 2199 5
	.loc 1 2200 5
	.loc 1 2202 5
	.loc 1 2202 10
	.loc 1 2202 17
	.loc 1 2203 5
	.loc 1 2203 10
	.loc 1 2203 17
	.loc 1 2204 5
	.loc 1 2204 10
	.loc 1 2204 17
	.loc 1 2205 5
	.loc 1 2205 10
	.loc 1 2205 17
	.loc 1 2207 5
	.loc 1 2193 1 is_stmt 0
	addi	sp,sp,-912
	.cfi_def_cfa_offset 912
	sw	s0,904(sp)
	sw	s1,900(sp)
	sw	s3,892(sp)
	sw	s5,884(sp)
	sw	s6,880(sp)
	sw	s7,876(sp)
	sw	s10,864(sp)
	sw	ra,908(sp)
	sw	s2,896(sp)
	sw	s4,888(sp)
	sw	s8,872(sp)
	sw	s9,868(sp)
	sw	s11,860(sp)
	.cfi_offset 8, -8
	.cfi_offset 9, -12
	.cfi_offset 19, -20
	.cfi_offset 21, -28
	.cfi_offset 22, -32
	.cfi_offset 23, -36
	.cfi_offset 26, -48
	.cfi_offset 1, -4
	.cfi_offset 18, -16
	.cfi_offset 20, -24
	.cfi_offset 24, -40
	.cfi_offset 25, -44
	.cfi_offset 27, -52
	addi	s0,sp,912
	.cfi_def_cfa 8, 0
	.loc 1 2193 1
	mv	s3,a0
	mv	s7,a1
	.loc 1 2207 9
	mv	a0,a3
.LVL988:
	li	a1,0
.LVL989:
	.loc 1 2193 1
	mv	s6,a2
	mv	s1,a3
	mv	s5,a4
	.loc 1 2207 9
	call	blcrypto_suite_mpi_cmp_int
.LVL990:
	.loc 1 2208 15
	li	s10,-4
	.loc 1 2207 7
	ble	a0,zero,.L483
	.loc 1 2207 58 discriminator 1
	lw	a5,8(s1)
	.loc 1 2208 15 discriminator 1
	li	s10,-4
	.loc 1 2207 58 discriminator 1
	lw	s4,0(a5)
	.loc 1 2207 62 discriminator 1
	andi	a5,s4,1
	sw	a5,-904(s0)
	.loc 1 2207 49 discriminator 1
	beq	a5,zero,.L483
	.loc 1 2210 5 is_stmt 1
	.loc 1 2210 9 is_stmt 0
	li	a1,0
	mv	a0,s6
	call	blcrypto_suite_mpi_cmp_int
.LVL991:
	.loc 1 2210 7
	blt	a0,zero,.L483
	.loc 1 2213 5 is_stmt 1
	.loc 1 2213 9 is_stmt 0
	mv	a0,s6
	call	blcrypto_suite_mpi_bitlen
.LVL992:
	.loc 1 2213 7
	li	s2,8192
	bgtu	a0,s2,.L483
	.loc 1 2214 9 discriminator 1
	mv	a0,s1
	call	blcrypto_suite_mpi_bitlen
.LVL993:
	.loc 1 2213 55 discriminator 1
	bgtu	a0,s2,.L483
	.loc 1 2220 5 is_stmt 1
.LVL994:
.LBB241:
.LBB242:
	.loc 1 2023 5
	.loc 1 2024 5
	.loc 1 2026 5
	.loc 1 2027 5
	.loc 1 2027 17 is_stmt 0
	addi	s2,s4,2
	.loc 1 2027 29
	slli	s2,s2,1
	andi	s2,s2,8
	.loc 1 2027 7
	add	s2,s2,s4
.LVL995:
	.loc 1 2029 5 is_stmt 1
	.loc 1 2029 56
	.loc 1 2027 7 is_stmt 0
	li	a5,3
	.loc 1 2030 18
	li	a3,2
.LVL996:
.L485:
	.loc 1 2030 9 is_stmt 1
	.loc 1 2030 25 is_stmt 0
	mul	a4,s4,s2
	.loc 1 2029 5
	addi	a5,a5,-1
	.loc 1 2030 18
	sub	a4,a3,a4
	.loc 1 2030 11
	mul	s2,s2,a4
.LVL997:
	.loc 1 2029 64 is_stmt 1
	.loc 1 2029 56
	.loc 1 2029 5 is_stmt 0
	bne	a5,zero,.L485
	.loc 1 2032 5 is_stmt 1
.LVL998:
.LBE242:
.LBE241:
	.loc 1 2221 5
.LBB244:
.LBB245:
	.loc 1 118 5
	.loc 1 118 10
	.loc 1 118 17
	.loc 1 120 5
	.loc 1 120 10 is_stmt 0
	li	a5,1
.LBE245:
.LBE244:
	.loc 1 2224 5
	li	a2,768
	li	a1,0
	addi	a0,s0,-832
.LBB248:
.LBB246:
	.loc 1 120 10
	sw	a5,-892(s0)
	.loc 1 121 5 is_stmt 1
.LBE246:
.LBE248:
.LBB249:
.LBB250:
	.loc 1 120 10 is_stmt 0
	sw	a5,-880(s0)
.LBE250:
.LBE249:
.LBB252:
.LBB253:
	sw	a5,-856(s0)
.LBE253:
.LBE252:
.LBB255:
.LBB256:
	sw	a5,-868(s0)
.LBE256:
.LBE255:
.LBB258:
.LBB247:
	.loc 1 121 10
	sw	zero,-888(s0)
	.loc 1 122 5 is_stmt 1
	.loc 1 122 10 is_stmt 0
	sw	zero,-884(s0)
.LVL999:
.LBE247:
.LBE258:
	.loc 1 2221 37 is_stmt 1
.LBB259:
.LBB251:
	.loc 1 118 5
	.loc 1 118 10
	.loc 1 118 17
	.loc 1 120 5
	.loc 1 121 5
	.loc 1 121 10 is_stmt 0
	sw	zero,-876(s0)
	.loc 1 122 5 is_stmt 1
	.loc 1 122 10 is_stmt 0
	sw	zero,-872(s0)
.LVL1000:
.LBE251:
.LBE259:
	.loc 1 2222 5 is_stmt 1
.LBB260:
.LBB254:
	.loc 1 118 5
	.loc 1 118 10
	.loc 1 118 17
	.loc 1 120 5
	.loc 1 121 5
	.loc 1 121 10 is_stmt 0
	sw	zero,-852(s0)
	.loc 1 122 5 is_stmt 1
	.loc 1 122 10 is_stmt 0
	sw	zero,-848(s0)
.LVL1001:
.LBE254:
.LBE260:
	.loc 1 2223 5 is_stmt 1
.LBB261:
.LBB257:
	.loc 1 118 5
	.loc 1 118 10
	.loc 1 118 17
	.loc 1 120 5
	.loc 1 121 5
	.loc 1 121 10 is_stmt 0
	sw	zero,-864(s0)
	.loc 1 122 5 is_stmt 1
	.loc 1 122 10 is_stmt 0
	sw	zero,-860(s0)
.LVL1002:
.LBE257:
.LBE261:
	.loc 1 2224 5 is_stmt 1
	call	memset
.LVL1003:
	.loc 1 2226 5
	.loc 1 2226 9 is_stmt 0
	mv	a0,s6
	call	blcrypto_suite_mpi_bitlen
.LVL1004:
	.loc 1 2228 5 is_stmt 1
	.loc 1 2228 29 is_stmt 0
	li	a5,671
	li	s4,6
	bgtu	a0,a5,.L486
	.loc 1 2228 29 discriminator 1
	li	a5,239
	li	s4,5
	bgtu	a0,a5,.L486
	.loc 1 2228 29 discriminator 3
	li	a5,79
	li	s4,4
	bgtu	a0,a5,.L486
	.loc 1 2228 29 discriminator 5
	li	a5,23
	li	s4,3
	bgtu	a0,a5,.L486
	.loc 1 2228 29
	lw	s4,-904(s0)
.L486:
.LVL1005:
	.loc 1 2236 5 is_stmt 1 discriminator 16
	.loc 1 2236 7 is_stmt 0 discriminator 16
	lw	s8,4(s1)
	.loc 1 2242 23 discriminator 16
	mv	a0,s3
.LVL1006:
	.loc 1 2236 7 discriminator 16
	addi	s8,s8,1
.LVL1007:
	.loc 1 2242 5 is_stmt 1 discriminator 16
	.loc 1 2242 10 discriminator 16
	.loc 1 2242 23 is_stmt 0 discriminator 16
	mv	a1,s8
	call	blcrypto_suite_mpi_grow
.LVL1008:
	mv	s10,a0
.LVL1009:
	.loc 1 2242 12 discriminator 16
	bne	a0,zero,.L487
	.loc 1 2242 86 is_stmt 1 discriminator 2
	.loc 1 2243 5 discriminator 2
	.loc 1 2243 10 discriminator 2
	.loc 1 2243 23 is_stmt 0 discriminator 2
	mv	a1,s8
	addi	a0,s0,-820
.LVL1010:
	call	blcrypto_suite_mpi_grow
.LVL1011:
	mv	s10,a0
.LVL1012:
	.loc 1 2243 12 discriminator 2
	bne	a0,zero,.L487
	.loc 1 2243 90 is_stmt 1 discriminator 2
	.loc 1 2244 5 discriminator 2
	.loc 1 2244 10 discriminator 2
	.loc 1 2244 23 is_stmt 0 discriminator 2
	slli	a1,s8,1
	addi	a0,s0,-880
.LVL1013:
	call	blcrypto_suite_mpi_grow
.LVL1014:
	mv	s10,a0
.LVL1015:
	.loc 1 2244 12 discriminator 2
	bne	a0,zero,.L487
	.loc 1 2244 91 is_stmt 1 discriminator 2
	.loc 1 2249 5 discriminator 2
	.loc 1 2249 14 is_stmt 0 discriminator 2
	lw	a5,0(s7)
	sw	a5,-900(s0)
.LVL1016:
	.loc 1 2250 5 is_stmt 1 discriminator 2
	.loc 1 2250 7 is_stmt 0 discriminator 2
	lw	a4,-900(s0)
	li	a5,-1
.LVL1017:
	bne	a4,a5,.L488
	.loc 1 2252 9 is_stmt 1
	.loc 1 2252 14
	.loc 1 2252 27 is_stmt 0
	mv	a1,s7
	addi	a0,s0,-856
.LVL1018:
	call	blcrypto_suite_mpi_copy
.LVL1019:
	mv	s10,a0
.LVL1020:
	.loc 1 2252 16
	bne	a0,zero,.L487
	.loc 1 2252 94 is_stmt 1 discriminator 2
	.loc 1 2253 9 discriminator 2
	.loc 1 2253 16 is_stmt 0 discriminator 2
	li	a5,1
	sw	a5,-856(s0)
	.loc 1 2254 9 is_stmt 1 discriminator 2
.LVL1021:
	.loc 1 2254 11 is_stmt 0 discriminator 2
	addi	s7,s0,-856
.LVL1022:
.L488:
	.loc 1 2260 5 is_stmt 1
	.loc 1 2260 7 is_stmt 0
	beq	s5,zero,.L489
	.loc 1 2260 20 discriminator 1
	lw	a5,8(s5)
	bne	a5,zero,.L490
.L489:
	.loc 1 2262 9 is_stmt 1
	.loc 1 2262 14
	.loc 1 2262 27 is_stmt 0
	li	a1,1
	addi	a0,s0,-892
.LVL1023:
	call	blcrypto_suite_mpi_lset
.LVL1024:
	mv	s10,a0
.LVL1025:
	.loc 1 2262 16
	bne	a0,zero,.L487
	.loc 1 2262 92 is_stmt 1 discriminator 2
	.loc 1 2263 9 discriminator 2
	.loc 1 2263 14 discriminator 2
	.loc 1 2263 27 is_stmt 0 discriminator 2
	lw	a1,4(s1)
	addi	a0,s0,-892
.LVL1026:
	slli	a1,a1,6
	call	blcrypto_suite_mpi_shift_l
.LVL1027:
	mv	s10,a0
.LVL1028:
	.loc 1 2263 16 discriminator 2
	bne	a0,zero,.L487
	.loc 1 2263 145 is_stmt 1 discriminator 2
	.loc 1 2264 9 discriminator 2
	.loc 1 2264 14 discriminator 2
	.loc 1 2264 27 is_stmt 0 discriminator 2
	addi	a1,s0,-892
	mv	a2,s1
	mv	a0,a1
.LVL1029:
	call	blcrypto_suite_mpi_mod_mpi
.LVL1030:
	mv	s10,a0
.LVL1031:
	.loc 1 2264 16 discriminator 2
	bne	a0,zero,.L487
	.loc 1 2264 100 is_stmt 1 discriminator 2
	.loc 1 2266 9 discriminator 2
	.loc 1 2266 11 is_stmt 0 discriminator 2
	beq	s5,zero,.L491
	.loc 1 2267 13 is_stmt 1
	li	a2,12
	addi	a1,s0,-892
	mv	a0,s5
.LVL1032:
.L556:
	.loc 1 2270 9 is_stmt 0
	call	memcpy
.LVL1033:
.L491:
	.loc 1 2275 5 is_stmt 1
	.loc 1 2275 9 is_stmt 0
	mv	a1,s1
	mv	a0,s7
	call	blcrypto_suite_mpi_cmp_mpi
.LVL1034:
	.loc 1 2275 7
	blt	a0,zero,.L492
	.loc 1 2276 9 is_stmt 1
	.loc 1 2276 14
	.loc 1 2276 27 is_stmt 0
	mv	a2,s1
	mv	a1,s7
	addi	a0,s0,-820
	call	blcrypto_suite_mpi_mod_mpi
.LVL1035:
.L557:
	mv	s10,a0
.LVL1036:
	.loc 1 2276 16
	bne	a0,zero,.L487
	.loc 1 2278 94 is_stmt 1
	.loc 1 2282 5
	.loc 1 2282 10
	.loc 1 2282 23 is_stmt 0
	lw	a1,4(s1)
	addi	a0,s0,-820
.LVL1037:
	addi	a1,a1,1
	call	blcrypto_suite_mpi_grow
.LVL1038:
	mv	s10,a0
.LVL1039:
	.loc 1 2282 12
	bne	a0,zero,.L487
.LBB262:
.LBB243:
	.loc 1 2032 14 discriminator 2
	neg	s2,s2
.LVL1040:
.LBE243:
.LBE262:
	.loc 1 2282 96 is_stmt 1 discriminator 2
	.loc 1 2284 5 discriminator 2
	addi	a4,s0,-880
	mv	a3,s2
	mv	a2,s1
	addi	a1,s0,-892
	addi	a0,s0,-820
.LVL1041:
	call	mpi_montmul
.LVL1042:
	.loc 1 2289 5 discriminator 2
	.loc 1 2289 10 discriminator 2
	.loc 1 2289 23 is_stmt 0 discriminator 2
	addi	a1,s0,-892
	mv	a0,s3
	call	blcrypto_suite_mpi_copy
.LVL1043:
	mv	s10,a0
.LVL1044:
	.loc 1 2289 12 discriminator 2
	bne	a0,zero,.L487
	.loc 1 2289 88 is_stmt 1 discriminator 2
	.loc 1 2290 5 discriminator 2
.LVL1045:
.LBB263:
.LBB264:
	.loc 1 2112 5 discriminator 2
	.loc 1 2112 29 is_stmt 0 discriminator 2
	li	s7,1
.LVL1046:
	.loc 1 2116 9 discriminator 2
	addi	a5,s0,-896
	.loc 1 2118 5 discriminator 2
	addi	a4,s0,-880
.LVL1047:
	mv	a3,s2
	mv	a2,s1
	addi	a1,s0,-844
	mv	a0,s3
.LVL1048:
	.loc 1 2112 29 discriminator 2
	sw	s7,-896(s0)
	.loc 1 2113 5 is_stmt 1 discriminator 2
	.loc 1 2115 5 discriminator 2
	.loc 1 2115 15 is_stmt 0 discriminator 2
	sw	s7,-844(s0)
	.loc 1 2115 9 discriminator 2
	sw	s7,-840(s0)
	.loc 1 2116 5 is_stmt 1 discriminator 2
	.loc 1 2116 9 is_stmt 0 discriminator 2
	sw	a5,-836(s0)
	.loc 1 2118 5 is_stmt 1 discriminator 2
	call	mpi_montmul
.LVL1049:
.LBE264:
.LBE263:
	.loc 1 2292 5 discriminator 2
	.loc 1 2292 7 is_stmt 0 discriminator 2
	bne	s4,s7,.L495
.LVL1050:
.L500:
	.loc 1 2317 5 is_stmt 1
	.loc 1 2317 13 is_stmt 0
	lw	s7,4(s6)
.LVL1051:
	.loc 1 2318 5 is_stmt 1
	.loc 1 2319 5
	.loc 1 2320 5
	.loc 1 2321 5
	.loc 1 2321 11 is_stmt 0
	li	a7,0
	.loc 1 2319 11
	li	s11,0
	.loc 1 2318 13
	li	s9,0
.LVL1052:
.L558:
	.loc 1 2378 19 discriminator 2
	li	s8,0
	j	.L496
.LVL1053:
.L490:
	.loc 1 2270 9 is_stmt 1
	li	a2,12
	mv	a1,s5
	addi	a0,s0,-892
.LVL1054:
	j	.L556
.L492:
	.loc 1 2278 9
	.loc 1 2278 14
	.loc 1 2278 27 is_stmt 0
	mv	a1,s7
	addi	a0,s0,-820
	call	blcrypto_suite_mpi_copy
.LVL1055:
	j	.L557
.LVL1056:
.L495:
	.loc 1 2297 28
	addi	s8,s4,-1
.LVL1057:
	.loc 1 2299 27
	lw	a1,4(s1)
	li	a6,12
	sll	a6,a6,s8
	addi	a5,s0,-832
	add	s11,a5,a6
	addi	a1,a1,1
	mv	a0,s11
	.loc 1 2297 11
	sll	s7,s7,s8
	.loc 1 2297 9 is_stmt 1
.LVL1058:
	.loc 1 2299 9
	.loc 1 2299 14
	.loc 1 2299 27 is_stmt 0
	call	blcrypto_suite_mpi_grow
.LVL1059:
	.loc 1 2299 16
	bne	a0,zero,.L528
	.loc 1 2299 101 is_stmt 1 discriminator 2
	.loc 1 2300 9 discriminator 2
	.loc 1 2300 14 discriminator 2
	.loc 1 2300 27 is_stmt 0 discriminator 2
	addi	a1,s0,-820
	mv	a0,s11
.LVL1060:
	call	blcrypto_suite_mpi_copy
.LVL1061:
	.loc 1 2300 16 discriminator 2
	bne	a0,zero,.L528
	.loc 1 2302 16
	li	s9,0
.LVL1062:
.L497:
	.loc 1 2303 13 is_stmt 1 discriminator 3
	addi	a4,s0,-880
	mv	a3,s2
	mv	a2,s1
	mv	a1,s11
	mv	a0,s11
	.loc 1 2302 37 is_stmt 0 discriminator 3
	addi	s9,s9,1
.LVL1063:
	.loc 1 2303 13 discriminator 3
	call	mpi_montmul
.LVL1064:
	.loc 1 2302 36 is_stmt 1 discriminator 3
	.loc 1 2302 21 discriminator 3
	.loc 1 2302 9 is_stmt 0 discriminator 3
	bltu	s9,s8,.L497
	.loc 1 2308 9 is_stmt 1
	.loc 1 2308 35 is_stmt 0
	li	s9,1
.LVL1065:
	.loc 1 2308 16
	addi	s7,s7,1
.LVL1066:
	.loc 1 2308 35
	sll	s9,s9,s4
.LVL1067:
.L498:
	.loc 1 2308 25 is_stmt 1 discriminator 2
	.loc 1 2308 9 is_stmt 0 discriminator 2
	bleu	s9,s7,.L500
	.loc 1 2310 13 is_stmt 1
	.loc 1 2310 18
	.loc 1 2310 31 is_stmt 0
	lw	a1,4(s1)
	addi	s8,s11,12
	mv	a0,s8
	addi	a1,a1,1
	call	blcrypto_suite_mpi_grow
.LVL1068:
	.loc 1 2310 20
	bne	a0,zero,.L528
	.loc 1 2310 105 is_stmt 1 discriminator 2
	.loc 1 2311 13 discriminator 2
	.loc 1 2311 18 discriminator 2
	.loc 1 2311 31 is_stmt 0 discriminator 2
	mv	a1,s11
	mv	a0,s8
.LVL1069:
	call	blcrypto_suite_mpi_copy
.LVL1070:
	.loc 1 2311 20 discriminator 2
	bne	a0,zero,.L528
	.loc 1 2311 106 is_stmt 1 discriminator 2
	.loc 1 2313 13 discriminator 2
	addi	a4,s0,-880
	mv	a3,s2
	mv	a2,s1
	addi	a1,s0,-820
	mv	a0,s8
.LVL1071:
	call	mpi_montmul
.LVL1072:
	.loc 1 2308 47 discriminator 2
	.loc 1 2308 48 is_stmt 0 discriminator 2
	addi	s7,s7,1
.LVL1073:
	mv	s11,s8
	j	.L498
.LVL1074:
.L502:
	.loc 1 2330 13 is_stmt 1
	.loc 1 2330 20 is_stmt 0
	addi	s7,s7,-1
.LVL1075:
	.loc 1 2332 13 is_stmt 1
	.loc 1 2332 21 is_stmt 0
	li	s9,32
.LVL1076:
.L501:
	.loc 1 2335 9 is_stmt 1
	.loc 1 2337 19 is_stmt 0
	lw	a4,8(s6)
	slli	a3,s7,2
	.loc 1 2335 16
	addi	s9,s9,-1
.LVL1077:
	.loc 1 2337 9 is_stmt 1
	.loc 1 2337 19 is_stmt 0
	add	a4,a4,a3
	.loc 1 2337 29
	lw	a4,0(a4)
	srl	a4,a4,s9
	.loc 1 2337 12
	andi	a4,a4,1
.LVL1078:
	.loc 1 2342 9 is_stmt 1
	.loc 1 2342 11 is_stmt 0
	bne	a4,zero,.L504
	.loc 1 2342 21 discriminator 1
	beq	a7,zero,.L496
	.loc 1 2345 9 is_stmt 1 discriminator 1
	.loc 1 2345 21 is_stmt 0 discriminator 1
	li	a5,1
	bne	a7,a5,.L504
	.loc 1 2350 13
	addi	a4,s0,-880
.LVL1079:
	mv	a3,s2
.LVL1080:
	mv	a2,s1
	mv	a1,s3
	mv	a0,s3
	sw	a7,-908(s0)
	.loc 1 2350 13 is_stmt 1
	call	mpi_montmul
.LVL1081:
	.loc 1 2351 13
	lw	a7,-908(s0)
.LVL1082:
.L496:
	.loc 1 2323 5
	.loc 1 2325 9
	.loc 1 2325 11 is_stmt 0
	bne	s9,zero,.L501
.LVL1083:
	.loc 1 2327 13 is_stmt 1
	.loc 1 2327 15 is_stmt 0
	bne	s7,zero,.L502
	.loc 1 2391 29
	li	s9,1
	sll	s9,s9,s4
.LVL1084:
.L503:
	.loc 1 2385 17 is_stmt 1 discriminator 1
	.loc 1 2385 5 is_stmt 0 discriminator 1
	bne	s7,s11,.L510
	.loc 1 2398 5 is_stmt 1
.LVL1085:
.LBB265:
.LBB266:
	.loc 1 2112 5
	.loc 1 2112 29 is_stmt 0
	li	a4,1
	.loc 1 2116 9
	addi	a5,s0,-896
	.loc 1 2112 29
	sw	a4,-896(s0)
	.loc 1 2113 5 is_stmt 1
	.loc 1 2115 5
	.loc 1 2115 15 is_stmt 0
	sw	a4,-844(s0)
	.loc 1 2115 9
	sw	a4,-840(s0)
	.loc 1 2116 5 is_stmt 1
	.loc 1 2118 5 is_stmt 0
	mv	a3,s2
	addi	a4,s0,-880
.LVL1086:
	mv	a2,s1
	addi	a1,s0,-844
	mv	a0,s3
	.loc 1 2116 9
	sw	a5,-836(s0)
	.loc 1 2118 5 is_stmt 1
	call	mpi_montmul
.LVL1087:
.LBE266:
.LBE265:
	.loc 1 2400 5
	.loc 1 2400 7 is_stmt 0
	lw	a5,-900(s0)
	li	a4,-1
	bne	a5,a4,.L487
	.loc 1 2400 13 discriminator 1
	lw	a4,4(s6)
	beq	a4,zero,.L487
	.loc 1 2400 35 discriminator 2
	lw	a4,8(s6)
	.loc 1 2400 39 discriminator 2
	lw	a4,0(a4)
	andi	a4,a4,1
	.loc 1 2400 26 discriminator 2
	beq	a4,zero,.L487
	.loc 1 2402 9 is_stmt 1
	.loc 1 2402 14 is_stmt 0
	sw	a5,0(s3)
	.loc 1 2403 9 is_stmt 1
	.loc 1 2403 14
	.loc 1 2403 27 is_stmt 0
	mv	a2,s3
	mv	a1,s1
	mv	a0,s3
	call	blcrypto_suite_mpi_add_mpi
.LVL1088:
.L528:
.LBB267:
.LBB268:
	mv	s10,a0
.LVL1089:
.L487:
.LBE268:
.LBE267:
	.loc 1 2403 96 is_stmt 1 discriminator 3
	.loc 1 2408 5 discriminator 3
	.loc 1 2408 31 is_stmt 0 discriminator 3
	addi	s1,s4,-1
.LVL1090:
	.loc 1 2408 12 discriminator 3
	li	a4,1
	sll	s1,a4,s1
.LVL1091:
	.loc 1 2408 50 discriminator 3
	sll	s4,a4,s4
.LVL1092:
	.loc 1 2409 9 discriminator 3
	li	s2,12
.L511:
	.loc 1 2408 40 is_stmt 1 discriminator 1
	.loc 1 2408 5 is_stmt 0 discriminator 1
	bgtu	s4,s1,.L512
	.loc 1 2411 5 is_stmt 1
	addi	a0,s0,-820
	call	blcrypto_suite_mpi_free
.LVL1093:
	.loc 1 2411 39
	addi	a0,s0,-880
	call	blcrypto_suite_mpi_free
.LVL1094:
	.loc 1 2411 70
	addi	a0,s0,-856
	call	blcrypto_suite_mpi_free
.LVL1095:
	.loc 1 2412 5
	addi	a0,s0,-868
	call	blcrypto_suite_mpi_free
.LVL1096:
	.loc 1 2414 5
	.loc 1 2414 7 is_stmt 0
	beq	s5,zero,.L513
	.loc 1 2414 20 discriminator 1
	lw	a4,8(s5)
	bne	a4,zero,.L483
.L513:
	.loc 1 2415 9 is_stmt 1
	addi	a0,s0,-892
	call	blcrypto_suite_mpi_free
.LVL1097:
.L483:
	.loc 1 2418 1 is_stmt 0
	lw	ra,908(sp)
	.cfi_remember_state
	.cfi_restore 1
	lw	s0,904(sp)
	.cfi_restore 8
	.cfi_def_cfa 2, 912
	lw	s1,900(sp)
	.cfi_restore 9
	lw	s2,896(sp)
	.cfi_restore 18
	lw	s3,892(sp)
	.cfi_restore 19
.LVL1098:
	lw	s4,888(sp)
	.cfi_restore 20
	lw	s5,884(sp)
	.cfi_restore 21
.LVL1099:
	lw	s6,880(sp)
	.cfi_restore 22
.LVL1100:
	lw	s7,876(sp)
	.cfi_restore 23
	lw	s8,872(sp)
	.cfi_restore 24
	lw	s9,868(sp)
	.cfi_restore 25
	lw	s11,860(sp)
	.cfi_restore 27
	mv	a0,s10
	lw	s10,864(sp)
	.cfi_restore 26
	addi	sp,sp,912
	.cfi_def_cfa_offset 0
	jr	ra
.LVL1101:
.L504:
	.cfi_restore_state
	.loc 1 2357 9 is_stmt 1
	.loc 1 2359 9
	.loc 1 2359 14 is_stmt 0
	addi	s11,s11,1
.LVL1102:
	.loc 1 2360 9 is_stmt 1
	.loc 1 2360 34 is_stmt 0
	sub	a3,s4,s11
	.loc 1 2360 23
	sll	a4,a4,a3
.LVL1103:
	.loc 1 2360 15
	or	s8,s8,a4
.LVL1104:
	.loc 1 2362 9 is_stmt 1
	.loc 1 2357 15 is_stmt 0
	li	a7,2
	.loc 1 2362 11
	bne	s4,s11,.L496
	.loc 1 2367 20
	li	a7,0
.LVL1105:
.L506:
	.loc 1 2368 17 discriminator 3
	addi	a4,s0,-880
	mv	a3,s2
	mv	a2,s1
	mv	a1,s3
	mv	a0,s3
	sw	a7,-908(s0)
.LVL1106:
	.loc 1 2368 17 is_stmt 1 discriminator 3
	call	mpi_montmul
.LVL1107:
	.loc 1 2367 36 discriminator 3
	.loc 1 2367 37 is_stmt 0 discriminator 3
	lw	a7,-908(s0)
	addi	a7,a7,1
.LVL1108:
	.loc 1 2367 25 is_stmt 1 discriminator 3
	.loc 1 2367 13 is_stmt 0 discriminator 3
	bgtu	s11,a7,.L506
	.loc 1 2373 13 is_stmt 1
	.loc 1 2373 18
	.loc 1 2373 31 is_stmt 0
	li	a5,1
	sll	a6,a5,s11
.LVL1109:
.LBB274:
.LBB273:
	.loc 1 2174 5 is_stmt 1
	.loc 1 2175 5
	.loc 1 2177 5
	.loc 1 2177 17
	addi	a1,s0,-832
.LVL1110:
	.loc 1 2177 12 is_stmt 0
	li	s11,0
.LVL1111:
.L507:
.LBB269:
.LBB270:
	.loc 1 2135 18
	xor	a3,s8,s11
	.loc 1 2145 47
	neg	a2,a3
	.loc 1 2145 18
	or	a2,a2,a3
	.loc 1 2152 18
	srli	a2,a2,31
.LBE270:
.LBE269:
	.loc 1 2179 27
	xori	a2,a2,1
	addi	a0,s0,-868
.LVL1112:
	sw	a6,-912(s0)
.LVL1113:
	.loc 1 2179 9 is_stmt 1
	.loc 1 2179 14
.LBB272:
.LBB271:
	.loc 1 2135 5
	.loc 1 2145 5
	.loc 1 2152 5
	.loc 1 2154 5
.LBE271:
.LBE272:
	.loc 1 2179 27 is_stmt 0
	sw	a1,-908(s0)
	call	blcrypto_suite_mpi_safe_cond_assign
.LVL1114:
	.loc 1 2179 16
	bne	a0,zero,.L528
	.loc 1 2179 163 is_stmt 1
	.loc 1 2177 29
	.loc 1 2177 5 is_stmt 0
	lw	a1,-908(s0)
	lw	a6,-912(s0)
	.loc 1 2177 30
	addi	s11,s11,1
.LVL1115:
	.loc 1 2177 17 is_stmt 1
	.loc 1 2177 5 is_stmt 0
	addi	a1,a1,12
	bne	a6,s11,.L507
.L508:
	.loc 1 2184 5 is_stmt 1 discriminator 2
.LVL1116:
.LBE273:
.LBE274:
	.loc 1 2373 111 discriminator 2
	.loc 1 2374 13 discriminator 2
	addi	a4,s0,-880
	mv	a3,s2
	mv	a2,s1
	addi	a1,s0,-868
	mv	a0,s3
	call	mpi_montmul
.LVL1117:
	.loc 1 2376 13 discriminator 2
	.loc 1 2377 13 discriminator 2
	.loc 1 2378 13 discriminator 2
	.loc 1 2376 18 is_stmt 0 discriminator 2
	lw	a7,-904(s0)
	.loc 1 2377 19 discriminator 2
	li	s11,0
	j	.L558
.LVL1118:
.L510:
	.loc 1 2387 9 is_stmt 1
	addi	a4,s0,-880
	mv	a3,s2
	mv	a2,s1
	mv	a1,s3
	mv	a0,s3
	call	mpi_montmul
.LVL1119:
	.loc 1 2389 9
	.loc 1 2389 15 is_stmt 0
	slli	s8,s8,1
.LVL1120:
	.loc 1 2391 9 is_stmt 1
	.loc 1 2391 21 is_stmt 0
	and	a4,s9,s8
	.loc 1 2391 11
	beq	a4,zero,.L509
	.loc 1 2392 13 is_stmt 1
	addi	a4,s0,-880
	mv	a3,s2
	mv	a2,s1
	addi	a1,s0,-820
	mv	a0,s3
	call	mpi_montmul
.LVL1121:
.L509:
	.loc 1 2385 28 discriminator 2
	.loc 1 2385 29 is_stmt 0 discriminator 2
	addi	s7,s7,1
.LVL1122:
	j	.L503
.LVL1123:
.L512:
	.loc 1 2409 9 is_stmt 1 discriminator 3
	mul	a0,s1,s2
	addi	a5,s0,-832
	.loc 1 2408 63 is_stmt 0 discriminator 3
	addi	s1,s1,1
.LVL1124:
	.loc 1 2409 9 discriminator 3
	add	a0,a5,a0
	call	blcrypto_suite_mpi_free
.LVL1125:
	.loc 1 2408 62 is_stmt 1 discriminator 3
	j	.L511
	.cfi_endproc
.LFE58:
	.size	blcrypto_suite_mpi_exp_mod, .-blcrypto_suite_mpi_exp_mod
	.section	.text.blcrypto_suite_mpi_gcd,"ax",@progbits
	.align	1
	.globl	blcrypto_suite_mpi_gcd
	.type	blcrypto_suite_mpi_gcd, @function
blcrypto_suite_mpi_gcd:
.LFB59:
	.loc 1 2424 1
	.cfi_startproc
.LVL1126:
	.loc 1 2425 5
	.loc 1 2426 5
	.loc 1 2427 5
	.loc 1 2429 5
	.loc 1 2429 10
	.loc 1 2429 17
	.loc 1 2430 5
	.loc 1 2430 10
	.loc 1 2430 17
	.loc 1 2431 5
	.loc 1 2431 10
	.loc 1 2431 17
	.loc 1 2433 5
	.loc 1 2424 1 is_stmt 0
	addi	sp,sp,-80
	.cfi_def_cfa_offset 80
	sw	s0,72(sp)
	sw	s1,68(sp)
	.cfi_offset 8, -8
	.cfi_offset 9, -12
	addi	s0,sp,80
	.cfi_def_cfa 8, 0
.LVL1127:
.LBB275:
.LBB276:
	.loc 1 118 5 is_stmt 1
	.loc 1 118 10
	.loc 1 118 17
	.loc 1 120 5
.LBE276:
.LBE275:
	.loc 1 2424 1 is_stmt 0
	sw	s2,64(sp)
	sw	s3,60(sp)
	sw	s4,56(sp)
	sw	ra,76(sp)
	.cfi_offset 18, -16
	.cfi_offset 19, -20
	.cfi_offset 20, -24
	.cfi_offset 1, -4
.LBB279:
.LBB277:
	.loc 1 120 10
	li	a5,1
.LBE277:
.LBE279:
	.loc 1 2424 1
	mv	s2,a0
	.loc 1 2435 23
	addi	a0,s0,-56
.LVL1128:
	.loc 1 2424 1
	mv	s4,a1
	mv	s3,a2
.LBB280:
.LBB278:
	.loc 1 120 10
	sw	a5,-68(s0)
	.loc 1 121 5 is_stmt 1
	.loc 1 121 10 is_stmt 0
	sw	zero,-64(s0)
	.loc 1 122 5 is_stmt 1
	.loc 1 122 10 is_stmt 0
	sw	zero,-60(s0)
.LVL1129:
.LBE278:
.LBE280:
	.loc 1 2433 37 is_stmt 1
.LBB281:
.LBB282:
	.loc 1 118 5
	.loc 1 118 10
	.loc 1 118 17
	.loc 1 120 5
	.loc 1 120 10 is_stmt 0
	sw	a5,-56(s0)
	.loc 1 121 5 is_stmt 1
	.loc 1 121 10 is_stmt 0
	sw	zero,-52(s0)
	.loc 1 122 5 is_stmt 1
	.loc 1 122 10 is_stmt 0
	sw	zero,-48(s0)
.LVL1130:
.LBE282:
.LBE281:
	.loc 1 2433 69 is_stmt 1
.LBB283:
.LBB284:
	.loc 1 118 5
	.loc 1 118 10
	.loc 1 118 17
	.loc 1 120 5
	.loc 1 120 10 is_stmt 0
	sw	a5,-44(s0)
	.loc 1 121 5 is_stmt 1
	.loc 1 121 10 is_stmt 0
	sw	zero,-40(s0)
	.loc 1 122 5 is_stmt 1
	.loc 1 122 10 is_stmt 0
	sw	zero,-36(s0)
.LVL1131:
.LBE284:
.LBE283:
	.loc 1 2435 5 is_stmt 1
	.loc 1 2435 10
	.loc 1 2435 23 is_stmt 0
	call	blcrypto_suite_mpi_copy
.LVL1132:
	mv	s1,a0
.LVL1133:
	.loc 1 2435 12
	bne	a0,zero,.L560
	.loc 1 2435 88 is_stmt 1 discriminator 2
	.loc 1 2436 5 discriminator 2
	.loc 1 2436 10 discriminator 2
	.loc 1 2436 23 is_stmt 0 discriminator 2
	mv	a1,s3
	addi	a0,s0,-44
	call	blcrypto_suite_mpi_copy
.LVL1134:
	mv	s1,a0
.LVL1135:
	.loc 1 2436 12 discriminator 2
	bne	a0,zero,.L560
	.loc 1 2436 88 is_stmt 1 discriminator 2
	.loc 1 2438 5 discriminator 2
	.loc 1 2438 10 is_stmt 0 discriminator 2
	addi	a0,s0,-56
	call	blcrypto_suite_mpi_lsb
.LVL1136:
	mv	s3,a0
.LVL1137:
	.loc 1 2439 5 is_stmt 1 discriminator 2
	.loc 1 2439 11 is_stmt 0 discriminator 2
	addi	a0,s0,-44
.LVL1138:
	call	blcrypto_suite_mpi_lsb
.LVL1139:
	mv	s1,a0
.LVL1140:
	.loc 1 2445 5 is_stmt 1 discriminator 2
	.loc 1 2445 7 is_stmt 0 discriminator 2
	bne	a0,zero,.L561
	.loc 1 2445 21 discriminator 1
	li	a1,0
	addi	a0,s0,-44
	call	blcrypto_suite_mpi_get_bit
.LVL1141:
	.loc 1 2447 15 discriminator 1
	mv	a1,s4
	.loc 1 2445 18 discriminator 1
	beq	a0,zero,.L569
.L561:
	.loc 1 2451 5 is_stmt 1
	bleu	s3,s1,.L562
	mv	s3,s1
.LVL1142:
.L562:
	.loc 1 2454 5
	.loc 1 2454 10
	.loc 1 2454 23 is_stmt 0
	mv	a1,s3
	addi	a0,s0,-56
	call	blcrypto_suite_mpi_shift_r
.LVL1143:
	mv	s1,a0
.LVL1144:
	.loc 1 2454 12
	bne	a0,zero,.L560
	.loc 1 2454 92 is_stmt 1 discriminator 2
	.loc 1 2455 5 discriminator 2
	.loc 1 2455 10 discriminator 2
	.loc 1 2455 23 is_stmt 0 discriminator 2
	mv	a1,s3
	addi	a0,s0,-44
	call	blcrypto_suite_mpi_shift_r
.LVL1145:
	mv	s1,a0
.LVL1146:
	.loc 1 2455 12 discriminator 2
	bne	a0,zero,.L560
	.loc 1 2455 92 is_stmt 1 discriminator 2
	.loc 1 2457 5 discriminator 2
	.loc 1 2457 17 is_stmt 0 discriminator 2
	li	a5,1
	sw	a5,-44(s0)
	.loc 1 2457 10 discriminator 2
	sw	a5,-56(s0)
	.loc 1 2492 5 is_stmt 1 discriminator 2
.L563:
	.loc 1 2513 99 discriminator 2
	.loc 1 2492 10 discriminator 2
	.loc 1 2492 12 is_stmt 0 discriminator 2
	li	a1,0
	addi	a0,s0,-56
	call	blcrypto_suite_mpi_cmp_int
.LVL1147:
	.loc 1 2492 10 discriminator 2
	bne	a0,zero,.L566
	.loc 1 2527 5 is_stmt 1
	.loc 1 2527 10
	.loc 1 2527 23 is_stmt 0
	mv	a1,s3
	addi	a0,s0,-44
	call	blcrypto_suite_mpi_shift_l
.LVL1148:
	mv	s1,a0
.LVL1149:
	.loc 1 2527 12
	bne	a0,zero,.L560
	.loc 1 2527 92 is_stmt 1 discriminator 2
	.loc 1 2528 5 discriminator 2
	.loc 1 2528 10 discriminator 2
	.loc 1 2528 23 is_stmt 0 discriminator 2
	addi	a1,s0,-44
.LVL1150:
.L569:
	mv	a0,s2
	call	blcrypto_suite_mpi_copy
.LVL1151:
	mv	s1,a0
.LVL1152:
	.loc 1 2530 1 discriminator 2
	j	.L560
.L566:
	.loc 1 2495 9 is_stmt 1
	.loc 1 2495 14
	.loc 1 2495 27 is_stmt 0
	addi	a0,s0,-56
	call	blcrypto_suite_mpi_lsb
.LVL1153:
	mv	a1,a0
	addi	a0,s0,-56
	call	blcrypto_suite_mpi_shift_r
.LVL1154:
	mv	s1,a0
.LVL1155:
	.loc 1 2495 16
	bne	a0,zero,.L560
	.loc 1 2495 123 is_stmt 1 discriminator 2
	.loc 1 2496 9 discriminator 2
	.loc 1 2496 14 discriminator 2
	.loc 1 2496 27 is_stmt 0 discriminator 2
	addi	a0,s0,-44
	call	blcrypto_suite_mpi_lsb
.LVL1156:
	mv	a1,a0
	addi	a0,s0,-44
	call	blcrypto_suite_mpi_shift_r
.LVL1157:
	mv	s1,a0
.LVL1158:
	.loc 1 2496 16 discriminator 2
	bne	a0,zero,.L560
	.loc 1 2496 123 is_stmt 1 discriminator 2
	.loc 1 2505 9 discriminator 2
	.loc 1 2505 13 is_stmt 0 discriminator 2
	addi	a1,s0,-44
	addi	a0,s0,-56
	call	blcrypto_suite_mpi_cmp_mpi
.LVL1159:
	.loc 1 2505 11 discriminator 2
	blt	a0,zero,.L564
	.loc 1 2507 13 is_stmt 1
	.loc 1 2507 18
	.loc 1 2507 31 is_stmt 0
	addi	a1,s0,-56
	addi	a2,s0,-44
	mv	a0,a1
	call	blcrypto_suite_mpi_sub_abs
.LVL1160:
	mv	s1,a0
.LVL1161:
	.loc 1 2507 20
	bne	a0,zero,.L560
	.loc 1 2507 106 is_stmt 1 discriminator 2
	.loc 1 2508 13 discriminator 2
	.loc 1 2508 18 discriminator 2
	.loc 1 2508 31 is_stmt 0 discriminator 2
	li	a1,1
	addi	a0,s0,-56
.L568:
	.loc 1 2513 31 discriminator 2
	call	blcrypto_suite_mpi_shift_r
.LVL1162:
	mv	s1,a0
.LVL1163:
	.loc 1 2513 20 discriminator 2
	beq	a0,zero,.L563
.LVL1164:
.L560:
	.loc 1 2528 88 is_stmt 1 discriminator 3
	.loc 1 2532 5 discriminator 3
	addi	a0,s0,-68
	call	blcrypto_suite_mpi_free
.LVL1165:
	.loc 1 2532 37 discriminator 3
	addi	a0,s0,-56
	call	blcrypto_suite_mpi_free
.LVL1166:
	.loc 1 2532 69 discriminator 3
	addi	a0,s0,-44
	call	blcrypto_suite_mpi_free
.LVL1167:
	.loc 1 2534 5 discriminator 3
	.loc 1 2535 1 is_stmt 0 discriminator 3
	lw	ra,76(sp)
	.cfi_remember_state
	.cfi_restore 1
	lw	s0,72(sp)
	.cfi_restore 8
	.cfi_def_cfa 2, 80
	lw	s2,64(sp)
	.cfi_restore 18
.LVL1168:
	lw	s3,60(sp)
	.cfi_restore 19
	lw	s4,56(sp)
	.cfi_restore 20
.LVL1169:
	mv	a0,s1
	lw	s1,68(sp)
	.cfi_restore 9
.LVL1170:
	addi	sp,sp,80
	.cfi_def_cfa_offset 0
	jr	ra
.LVL1171:
.L564:
	.cfi_restore_state
	.loc 1 2512 13 is_stmt 1
	.loc 1 2512 18
	.loc 1 2512 31 is_stmt 0
	addi	a1,s0,-44
	addi	a2,s0,-56
	mv	a0,a1
	call	blcrypto_suite_mpi_sub_abs
.LVL1172:
	mv	s1,a0
.LVL1173:
	.loc 1 2512 20
	bne	a0,zero,.L560
	.loc 1 2512 106 is_stmt 1 discriminator 2
	.loc 1 2513 13 discriminator 2
	.loc 1 2513 18 discriminator 2
	.loc 1 2513 31 is_stmt 0 discriminator 2
	li	a1,1
	addi	a0,s0,-44
	j	.L568
	.cfi_endproc
.LFE59:
	.size	blcrypto_suite_mpi_gcd, .-blcrypto_suite_mpi_gcd
	.section	.text.blcrypto_suite_mpi_fill_random,"ax",@progbits
	.align	1
	.globl	blcrypto_suite_mpi_fill_random
	.type	blcrypto_suite_mpi_fill_random, @function
blcrypto_suite_mpi_fill_random:
.LFB60:
	.loc 1 2547 1 is_stmt 1
	.cfi_startproc
.LVL1174:
	.loc 1 2548 5
	.loc 1 2549 5
	.loc 1 2547 1 is_stmt 0
	addi	sp,sp,-32
	.cfi_def_cfa_offset 32
	sw	s0,24(sp)
	sw	s2,16(sp)
	sw	s3,12(sp)
	sw	s4,8(sp)
	sw	s5,4(sp)
	sw	s6,0(sp)
	sw	ra,28(sp)
	sw	s1,20(sp)
	.cfi_offset 8, -8
	.cfi_offset 18, -16
	.cfi_offset 19, -20
	.cfi_offset 20, -24
	.cfi_offset 21, -28
	.cfi_offset 22, -32
	.cfi_offset 1, -4
	.cfi_offset 9, -12
	addi	s0,sp,32
	.cfi_def_cfa 8, 0
	.loc 1 2549 82
	andi	s3,a1,3
	.loc 1 2549 35
	srli	a5,a1,2
	.loc 1 2547 1
	.loc 1 2549 118
	snez	s3,s3
	.loc 1 2549 18
	add	s3,s3,a5
.LVL1175:
	.loc 1 2550 5 is_stmt 1
	.loc 1 2557 7 is_stmt 0
	lw	a5,4(a0)
	.loc 1 2547 1
	mv	s2,a0
	mv	s4,a1
.LVL1176:
	.loc 1 2551 5 is_stmt 1
	.loc 1 2553 5
	.loc 1 2553 10
	.loc 1 2553 17
	.loc 1 2554 5
	.loc 1 2554 10
	.loc 1 2554 17
	.loc 1 2557 5
	.loc 1 2547 1 is_stmt 0
	mv	s5,a2
	mv	s6,a3
	.loc 1 2557 7
	bne	a5,s3,.L571
.LVL1177:
.L574:
	.loc 1 2561 94 is_stmt 1
	.loc 1 2563 5
	.loc 1 2563 10
	.loc 1 2563 23 is_stmt 0
	li	a1,0
	mv	a0,s2
	call	blcrypto_suite_mpi_lset
.LVL1178:
	mv	s1,a0
.LVL1179:
	.loc 1 2563 12
	beq	a0,zero,.L575
.L570:
	.loc 1 2572 1
	lw	ra,28(sp)
	.cfi_remember_state
	.cfi_restore 1
	lw	s0,24(sp)
	.cfi_restore 8
	.cfi_def_cfa 2, 32
	lw	s2,16(sp)
	.cfi_restore 18
.LVL1180:
	lw	s3,12(sp)
	.cfi_restore 19
.LVL1181:
	lw	s4,8(sp)
	.cfi_restore 20
.LVL1182:
	lw	s5,4(sp)
	.cfi_restore 21
.LVL1183:
	lw	s6,0(sp)
	.cfi_restore 22
.LVL1184:
	mv	a0,s1
	lw	s1,20(sp)
	.cfi_restore 9
.LVL1185:
	addi	sp,sp,32
	.cfi_def_cfa_offset 0
	jr	ra
.LVL1186:
.L571:
	.cfi_restore_state
	.loc 1 2559 9 is_stmt 1
	call	blcrypto_suite_mpi_free
.LVL1187:
	.loc 1 2560 9
.LBB285:
.LBB286:
	.loc 1 118 5
	.loc 1 118 10
	.loc 1 118 17
	.loc 1 120 5
	.loc 1 120 10 is_stmt 0
	li	a5,1
	sw	a5,0(s2)
	.loc 1 121 5 is_stmt 1
	.loc 1 121 10 is_stmt 0
	sw	zero,4(s2)
	.loc 1 122 5 is_stmt 1
	.loc 1 122 10 is_stmt 0
	sw	zero,8(s2)
.LVL1188:
.LBE286:
.LBE285:
	.loc 1 2561 9 is_stmt 1
	.loc 1 2561 14
	.loc 1 2561 27 is_stmt 0
	mv	a1,s3
	mv	a0,s2
	call	blcrypto_suite_mpi_grow
.LVL1189:
	mv	s1,a0
.LVL1190:
	.loc 1 2561 16
	beq	a0,zero,.L574
	j	.L570
.L575:
	.loc 1 2563 86 is_stmt 1 discriminator 2
	.loc 1 2565 5 discriminator 2
.LVL1191:
	.loc 1 2566 5 discriminator 2
	.loc 1 2566 10 discriminator 2
	.loc 1 2566 23 is_stmt 0 discriminator 2
	lw	a1,8(s2)
	.loc 1 2550 37 discriminator 2
	slli	a5,s3,2
	.loc 1 2550 18 discriminator 2
	sub	a5,a5,s4
	.loc 1 2566 23 discriminator 2
	mv	a2,s4
	add	a1,a1,a5
	mv	a0,s6
	jalr	s5
.LVL1192:
	mv	s1,a0
.LVL1193:
	.loc 1 2566 12 discriminator 2
	bne	a0,zero,.L570
.L572:
	.loc 1 2566 90 is_stmt 1 discriminator 2
	.loc 1 2568 5 discriminator 2
	lw	a0,8(s2)
	mv	a1,s3
	call	mpi_bigendian_to_host
.LVL1194:
	.loc 1 2571 5 discriminator 2
	.loc 1 2571 11 is_stmt 0 discriminator 2
	j	.L570
	.cfi_endproc
.LFE60:
	.size	blcrypto_suite_mpi_fill_random, .-blcrypto_suite_mpi_fill_random
	.section	.text.blcrypto_suite_mpi_inv_mod,"ax",@progbits
	.align	1
	.globl	blcrypto_suite_mpi_inv_mod
	.type	blcrypto_suite_mpi_inv_mod, @function
blcrypto_suite_mpi_inv_mod:
.LFB61:
	.loc 1 2578 1 is_stmt 1
	.cfi_startproc
.LVL1195:
	.loc 1 2579 5
	.loc 1 2580 5
	.loc 1 2581 5
	.loc 1 2581 10
	.loc 1 2581 17
	.loc 1 2582 5
	.loc 1 2582 10
	.loc 1 2582 17
	.loc 1 2583 5
	.loc 1 2583 10
	.loc 1 2583 17
	.loc 1 2585 5
	.loc 1 2578 1 is_stmt 0
	addi	sp,sp,-144
	.cfi_def_cfa_offset 144
	sw	s0,136(sp)
	sw	s1,132(sp)
	sw	s2,128(sp)
	sw	s3,124(sp)
	sw	s4,120(sp)
	sw	ra,140(sp)
	.cfi_offset 8, -8
	.cfi_offset 9, -12
	.cfi_offset 18, -16
	.cfi_offset 19, -20
	.cfi_offset 20, -24
	.cfi_offset 1, -4
	addi	s0,sp,144
	.cfi_def_cfa 8, 0
	.loc 1 2578 1
	mv	s3,a0
	mv	s4,a1
	.loc 1 2585 9
	mv	a0,a2
.LVL1196:
	li	a1,1
.LVL1197:
	.loc 1 2578 1
	mv	s2,a2
	.loc 1 2585 9
	call	blcrypto_suite_mpi_cmp_int
.LVL1198:
	.loc 1 2586 15
	li	s1,-4
	.loc 1 2585 7
	ble	a0,zero,.L577
	.loc 1 2588 5 is_stmt 1
.LVL1199:
.LBB287:
.LBB288:
	.loc 1 118 5
	.loc 1 118 10
	.loc 1 118 17
	.loc 1 120 5
	.loc 1 120 10 is_stmt 0
	li	a5,1
.LBE288:
.LBE287:
	.loc 1 2592 23
	mv	a2,s2
	mv	a1,s4
	addi	a0,s0,-140
.LBB290:
.LBB289:
	.loc 1 120 10
	sw	a5,-128(s0)
	.loc 1 121 5 is_stmt 1
	.loc 1 121 10 is_stmt 0
	sw	zero,-124(s0)
	.loc 1 122 5 is_stmt 1
	.loc 1 122 10 is_stmt 0
	sw	zero,-120(s0)
.LVL1200:
.LBE289:
.LBE290:
	.loc 1 2588 37 is_stmt 1
.LBB291:
.LBB292:
	.loc 1 118 5
	.loc 1 118 10
	.loc 1 118 17
	.loc 1 120 5
	.loc 1 120 10 is_stmt 0
	sw	a5,-116(s0)
	.loc 1 121 5 is_stmt 1
	.loc 1 121 10 is_stmt 0
	sw	zero,-112(s0)
	.loc 1 122 5 is_stmt 1
	.loc 1 122 10 is_stmt 0
	sw	zero,-108(s0)
.LVL1201:
.LBE292:
.LBE291:
	.loc 1 2588 69 is_stmt 1
.LBB293:
.LBB294:
	.loc 1 118 5
	.loc 1 118 10
	.loc 1 118 17
	.loc 1 120 5
	.loc 1 120 10 is_stmt 0
	sw	a5,-104(s0)
	.loc 1 121 5 is_stmt 1
	.loc 1 121 10 is_stmt 0
	sw	zero,-100(s0)
	.loc 1 122 5 is_stmt 1
	.loc 1 122 10 is_stmt 0
	sw	zero,-96(s0)
.LVL1202:
.LBE294:
.LBE293:
	.loc 1 2588 101 is_stmt 1
.LBB295:
.LBB296:
	.loc 1 118 5
	.loc 1 118 10
	.loc 1 118 17
	.loc 1 120 5
	.loc 1 120 10 is_stmt 0
	sw	a5,-92(s0)
	.loc 1 121 5 is_stmt 1
	.loc 1 121 10 is_stmt 0
	sw	zero,-88(s0)
	.loc 1 122 5 is_stmt 1
	.loc 1 122 10 is_stmt 0
	sw	zero,-84(s0)
.LVL1203:
.LBE296:
.LBE295:
	.loc 1 2589 5 is_stmt 1
.LBB297:
.LBB298:
	.loc 1 118 5
	.loc 1 118 10
	.loc 1 118 17
	.loc 1 120 5
	.loc 1 120 10 is_stmt 0
	sw	a5,-140(s0)
	.loc 1 121 5 is_stmt 1
	.loc 1 121 10 is_stmt 0
	sw	zero,-136(s0)
	.loc 1 122 5 is_stmt 1
	.loc 1 122 10 is_stmt 0
	sw	zero,-132(s0)
.LVL1204:
.LBE298:
.LBE297:
	.loc 1 2589 36 is_stmt 1
.LBB299:
.LBB300:
	.loc 1 118 5
	.loc 1 118 10
	.loc 1 118 17
	.loc 1 120 5
	.loc 1 120 10 is_stmt 0
	sw	a5,-80(s0)
	.loc 1 121 5 is_stmt 1
	.loc 1 121 10 is_stmt 0
	sw	zero,-76(s0)
	.loc 1 122 5 is_stmt 1
	.loc 1 122 10 is_stmt 0
	sw	zero,-72(s0)
.LVL1205:
.LBE300:
.LBE299:
	.loc 1 2589 68 is_stmt 1
.LBB301:
.LBB302:
	.loc 1 118 5
	.loc 1 118 10
	.loc 1 118 17
	.loc 1 120 5
	.loc 1 120 10 is_stmt 0
	sw	a5,-68(s0)
	.loc 1 121 5 is_stmt 1
	.loc 1 121 10 is_stmt 0
	sw	zero,-64(s0)
	.loc 1 122 5 is_stmt 1
	.loc 1 122 10 is_stmt 0
	sw	zero,-60(s0)
.LVL1206:
.LBE302:
.LBE301:
	.loc 1 2590 5 is_stmt 1
.LBB303:
.LBB304:
	.loc 1 118 5
	.loc 1 118 10
	.loc 1 118 17
	.loc 1 120 5
	.loc 1 120 10 is_stmt 0
	sw	a5,-56(s0)
	.loc 1 121 5 is_stmt 1
	.loc 1 121 10 is_stmt 0
	sw	zero,-52(s0)
	.loc 1 122 5 is_stmt 1
	.loc 1 122 10 is_stmt 0
	sw	zero,-48(s0)
.LVL1207:
.LBE304:
.LBE303:
	.loc 1 2590 37 is_stmt 1
.LBB305:
.LBB306:
	.loc 1 118 5
	.loc 1 118 10
	.loc 1 118 17
	.loc 1 120 5
	.loc 1 120 10 is_stmt 0
	sw	a5,-44(s0)
	.loc 1 121 5 is_stmt 1
	.loc 1 121 10 is_stmt 0
	sw	zero,-40(s0)
	.loc 1 122 5 is_stmt 1
	.loc 1 122 10 is_stmt 0
	sw	zero,-36(s0)
.LVL1208:
.LBE306:
.LBE305:
	.loc 1 2592 5 is_stmt 1
	.loc 1 2592 10
	.loc 1 2592 23 is_stmt 0
	call	blcrypto_suite_mpi_gcd
.LVL1209:
	mv	s1,a0
.LVL1210:
	.loc 1 2592 12
	bne	a0,zero,.L579
	.loc 1 2592 89 is_stmt 1 discriminator 2
	.loc 1 2594 5 discriminator 2
	.loc 1 2594 9 is_stmt 0 discriminator 2
	li	a1,1
	addi	a0,s0,-140
	call	blcrypto_suite_mpi_cmp_int
.LVL1211:
	.loc 1 2596 13 discriminator 2
	li	s1,-14
.LVL1212:
	.loc 1 2594 7 discriminator 2
	bne	a0,zero,.L579
	.loc 1 2600 5 is_stmt 1
	.loc 1 2600 10
	.loc 1 2600 23 is_stmt 0
	mv	a2,s2
	mv	a1,s4
	addi	a0,s0,-128
	call	blcrypto_suite_mpi_mod_mpi
.LVL1213:
	mv	s1,a0
.LVL1214:
	.loc 1 2600 12
	bne	a0,zero,.L579
	.loc 1 2600 94 is_stmt 1 discriminator 2
	.loc 1 2601 5 discriminator 2
	.loc 1 2601 10 discriminator 2
	.loc 1 2601 23 is_stmt 0 discriminator 2
	addi	a1,s0,-128
	addi	a0,s0,-116
	call	blcrypto_suite_mpi_copy
.LVL1215:
	mv	s1,a0
.LVL1216:
	.loc 1 2601 12 discriminator 2
	bne	a0,zero,.L579
	.loc 1 2601 90 is_stmt 1 discriminator 2
	.loc 1 2602 5 discriminator 2
	.loc 1 2602 10 discriminator 2
	.loc 1 2602 23 is_stmt 0 discriminator 2
	mv	a1,s2
	addi	a0,s0,-80
	call	blcrypto_suite_mpi_copy
.LVL1217:
	mv	s1,a0
.LVL1218:
	.loc 1 2602 12 discriminator 2
	bne	a0,zero,.L579
	.loc 1 2602 88 is_stmt 1 discriminator 2
	.loc 1 2603 5 discriminator 2
	.loc 1 2603 10 discriminator 2
	.loc 1 2603 23 is_stmt 0 discriminator 2
	mv	a1,s2
	addi	a0,s0,-68
	call	blcrypto_suite_mpi_copy
.LVL1219:
	mv	s1,a0
.LVL1220:
	.loc 1 2603 12 discriminator 2
	bne	a0,zero,.L579
	.loc 1 2603 88 is_stmt 1 discriminator 2
	.loc 1 2605 5 discriminator 2
	.loc 1 2605 10 discriminator 2
	.loc 1 2605 23 is_stmt 0 discriminator 2
	li	a1,1
	addi	a0,s0,-104
	call	blcrypto_suite_mpi_lset
.LVL1221:
	mv	s1,a0
.LVL1222:
	.loc 1 2605 12 discriminator 2
	bne	a0,zero,.L579
	.loc 1 2605 88 is_stmt 1 discriminator 2
	.loc 1 2606 5 discriminator 2
	.loc 1 2606 10 discriminator 2
	.loc 1 2606 23 is_stmt 0 discriminator 2
	li	a1,0
	addi	a0,s0,-92
	call	blcrypto_suite_mpi_lset
.LVL1223:
	mv	s1,a0
.LVL1224:
	.loc 1 2606 12 discriminator 2
	bne	a0,zero,.L579
	.loc 1 2606 88 is_stmt 1 discriminator 2
	.loc 1 2607 5 discriminator 2
	.loc 1 2607 10 discriminator 2
	.loc 1 2607 23 is_stmt 0 discriminator 2
	li	a1,0
	addi	a0,s0,-56
	call	blcrypto_suite_mpi_lset
.LVL1225:
	mv	s1,a0
.LVL1226:
	.loc 1 2607 12 discriminator 2
	bne	a0,zero,.L579
	.loc 1 2607 88 is_stmt 1 discriminator 2
	.loc 1 2608 5 discriminator 2
	.loc 1 2608 10 discriminator 2
	.loc 1 2608 23 is_stmt 0 discriminator 2
	li	a1,1
	addi	a0,s0,-44
	call	blcrypto_suite_mpi_lset
.LVL1227:
.L602:
	.loc 1 2623 31 discriminator 2
	mv	s1,a0
.LVL1228:
	.loc 1 2623 20 discriminator 2
	bne	a0,zero,.L579
.L580:
	.loc 1 2623 99 is_stmt 1 discriminator 2
	.loc 1 2612 14 discriminator 2
	.loc 1 2612 22 is_stmt 0 discriminator 2
	lw	a5,-108(s0)
	.loc 1 2612 26 discriminator 2
	lw	a5,0(a5)
	andi	a5,a5,1
	.loc 1 2612 14 discriminator 2
	beq	a5,zero,.L584
.L585:
	.loc 1 2637 99 is_stmt 1 discriminator 2
	.loc 1 2626 14 discriminator 2
	.loc 1 2626 22 is_stmt 0 discriminator 2
	lw	a5,-60(s0)
	.loc 1 2626 26 discriminator 2
	lw	a5,0(a5)
	andi	a5,a5,1
	.loc 1 2626 14 discriminator 2
	beq	a5,zero,.L589
	.loc 1 2640 9 is_stmt 1
	.loc 1 2640 13 is_stmt 0
	addi	a1,s0,-68
	addi	a0,s0,-116
	call	blcrypto_suite_mpi_cmp_mpi
.LVL1229:
	.loc 1 2640 11
	blt	a0,zero,.L590
	.loc 1 2642 13 is_stmt 1
	.loc 1 2642 18
	.loc 1 2642 31 is_stmt 0
	addi	a1,s0,-116
	addi	a2,s0,-68
	mv	a0,a1
	call	blcrypto_suite_mpi_sub_mpi
.LVL1230:
	mv	s1,a0
.LVL1231:
	.loc 1 2642 20
	bne	a0,zero,.L579
	.loc 1 2642 106 is_stmt 1 discriminator 2
	.loc 1 2643 13 discriminator 2
	.loc 1 2643 18 discriminator 2
	.loc 1 2643 31 is_stmt 0 discriminator 2
	addi	a1,s0,-104
	addi	a2,s0,-56
	mv	a0,a1
	call	blcrypto_suite_mpi_sub_mpi
.LVL1232:
	mv	s1,a0
.LVL1233:
	.loc 1 2643 20 discriminator 2
	bne	a0,zero,.L579
	.loc 1 2643 106 is_stmt 1 discriminator 2
	.loc 1 2644 13 discriminator 2
	.loc 1 2644 18 discriminator 2
	.loc 1 2644 31 is_stmt 0 discriminator 2
	addi	a2,s0,-44
	addi	a1,s0,-92
.L603:
	mv	a0,a1
	call	blcrypto_suite_mpi_sub_mpi
.LVL1234:
	mv	s1,a0
.LVL1235:
	.loc 1 2644 20 discriminator 2
	bne	a0,zero,.L579
	.loc 1 2650 106 is_stmt 1
	.loc 1 2653 10
	.loc 1 2653 12 is_stmt 0
	li	a1,0
	addi	a0,s0,-116
	call	blcrypto_suite_mpi_cmp_int
.LVL1236:
	.loc 1 2653 5
	bne	a0,zero,.L580
.L592:
	.loc 1 2656 100 is_stmt 1 discriminator 2
	.loc 1 2655 10 discriminator 2
	.loc 1 2655 12 is_stmt 0 discriminator 2
	li	a1,0
	addi	a0,s0,-56
	call	blcrypto_suite_mpi_cmp_int
.LVL1237:
	.loc 1 2655 10 discriminator 2
	blt	a0,zero,.L594
.L595:
	.loc 1 2659 100 is_stmt 1 discriminator 2
	.loc 1 2658 10 discriminator 2
	.loc 1 2658 12 is_stmt 0 discriminator 2
	mv	a1,s2
	addi	a0,s0,-56
	call	blcrypto_suite_mpi_cmp_mpi
.LVL1238:
	.loc 1 2658 10 discriminator 2
	bge	a0,zero,.L596
	.loc 1 2661 5 is_stmt 1
	.loc 1 2661 10
	.loc 1 2661 23 is_stmt 0
	addi	a1,s0,-56
	mv	a0,s3
	call	blcrypto_suite_mpi_copy
.LVL1239:
	mv	s1,a0
.LVL1240:
	.loc 1 2663 1
	j	.L579
.L584:
	.loc 1 2614 13 is_stmt 1
	.loc 1 2614 18
	.loc 1 2614 31 is_stmt 0
	li	a1,1
	addi	a0,s0,-116
	call	blcrypto_suite_mpi_shift_r
.LVL1241:
	mv	s1,a0
.LVL1242:
	.loc 1 2614 20
	bne	a0,zero,.L579
	.loc 1 2614 99 is_stmt 1 discriminator 2
	.loc 1 2616 13 discriminator 2
	.loc 1 2616 23 is_stmt 0 discriminator 2
	lw	a5,-96(s0)
	.loc 1 2616 27 discriminator 2
	lw	a5,0(a5)
	andi	a5,a5,1
	.loc 1 2616 15 discriminator 2
	bne	a5,zero,.L581
	.loc 1 2616 47 discriminator 1
	lw	a5,-84(s0)
	.loc 1 2616 51 discriminator 1
	lw	a5,0(a5)
	andi	a5,a5,1
	.loc 1 2616 38 discriminator 1
	bne	a5,zero,.L581
.L583:
	.loc 1 2619 110 is_stmt 1
	.loc 1 2622 13
	.loc 1 2622 18
	.loc 1 2622 31 is_stmt 0
	li	a1,1
	addi	a0,s0,-104
	call	blcrypto_suite_mpi_shift_r
.LVL1243:
	mv	s1,a0
.LVL1244:
	.loc 1 2622 20
	beq	a0,zero,.L599
.LVL1245:
.L579:
	.loc 1 2661 88 is_stmt 1 discriminator 3
	.loc 1 2665 5 discriminator 3
	addi	a0,s0,-128
	call	blcrypto_suite_mpi_free
.LVL1246:
	.loc 1 2665 37 discriminator 3
	addi	a0,s0,-116
	call	blcrypto_suite_mpi_free
.LVL1247:
	.loc 1 2665 69 discriminator 3
	addi	a0,s0,-104
	call	blcrypto_suite_mpi_free
.LVL1248:
	.loc 1 2665 101 discriminator 3
	addi	a0,s0,-92
	call	blcrypto_suite_mpi_free
.LVL1249:
	.loc 1 2666 5 discriminator 3
	addi	a0,s0,-140
	call	blcrypto_suite_mpi_free
.LVL1250:
	.loc 1 2666 36 discriminator 3
	addi	a0,s0,-80
	call	blcrypto_suite_mpi_free
.LVL1251:
	.loc 1 2666 68 discriminator 3
	addi	a0,s0,-68
	call	blcrypto_suite_mpi_free
.LVL1252:
	.loc 1 2667 5 discriminator 3
	addi	a0,s0,-56
	call	blcrypto_suite_mpi_free
.LVL1253:
	.loc 1 2667 37 discriminator 3
	addi	a0,s0,-44
	call	blcrypto_suite_mpi_free
.LVL1254:
	.loc 1 2669 5 discriminator 3
.L577:
	.loc 1 2670 1 is_stmt 0
	lw	ra,140(sp)
	.cfi_remember_state
	.cfi_restore 1
	lw	s0,136(sp)
	.cfi_restore 8
	.cfi_def_cfa 2, 144
	lw	s2,128(sp)
	.cfi_restore 18
.LVL1255:
	lw	s3,124(sp)
	.cfi_restore 19
.LVL1256:
	lw	s4,120(sp)
	.cfi_restore 20
.LVL1257:
	mv	a0,s1
	lw	s1,132(sp)
	.cfi_restore 9
	addi	sp,sp,144
	.cfi_def_cfa_offset 0
	jr	ra
.LVL1258:
.L581:
	.cfi_restore_state
	.loc 1 2618 17 is_stmt 1
	.loc 1 2618 22
	.loc 1 2618 35 is_stmt 0
	addi	a1,s0,-104
	addi	a2,s0,-80
	mv	a0,a1
	call	blcrypto_suite_mpi_add_mpi
.LVL1259:
	mv	s1,a0
.LVL1260:
	.loc 1 2618 24
	bne	a0,zero,.L579
	.loc 1 2618 110 is_stmt 1 discriminator 2
	.loc 1 2619 17 discriminator 2
	.loc 1 2619 22 discriminator 2
	.loc 1 2619 35 is_stmt 0 discriminator 2
	addi	a1,s0,-92
	addi	a2,s0,-128
	mv	a0,a1
	call	blcrypto_suite_mpi_sub_mpi
.LVL1261:
	mv	s1,a0
.LVL1262:
	.loc 1 2619 24 discriminator 2
	beq	a0,zero,.L583
	j	.L579
.L599:
	.loc 1 2622 99 is_stmt 1 discriminator 2
	.loc 1 2623 13 discriminator 2
	.loc 1 2623 18 discriminator 2
	.loc 1 2623 31 is_stmt 0 discriminator 2
	li	a1,1
	addi	a0,s0,-92
	call	blcrypto_suite_mpi_shift_r
.LVL1263:
	j	.L602
.L589:
	.loc 1 2628 13 is_stmt 1
	.loc 1 2628 18
	.loc 1 2628 31 is_stmt 0
	li	a1,1
	addi	a0,s0,-68
	call	blcrypto_suite_mpi_shift_r
.LVL1264:
	mv	s1,a0
.LVL1265:
	.loc 1 2628 20
	bne	a0,zero,.L579
	.loc 1 2628 99 is_stmt 1 discriminator 2
	.loc 1 2630 13 discriminator 2
	.loc 1 2630 23 is_stmt 0 discriminator 2
	lw	a5,-48(s0)
	.loc 1 2630 27 discriminator 2
	lw	a5,0(a5)
	andi	a5,a5,1
	.loc 1 2630 15 discriminator 2
	bne	a5,zero,.L586
	.loc 1 2630 47 discriminator 1
	lw	a5,-36(s0)
	.loc 1 2630 51 discriminator 1
	lw	a5,0(a5)
	andi	a5,a5,1
	.loc 1 2630 38 discriminator 1
	bne	a5,zero,.L586
.L588:
	.loc 1 2633 110 is_stmt 1
	.loc 1 2636 13
	.loc 1 2636 18
	.loc 1 2636 31 is_stmt 0
	li	a1,1
	addi	a0,s0,-56
	call	blcrypto_suite_mpi_shift_r
.LVL1266:
	mv	s1,a0
.LVL1267:
	.loc 1 2636 20
	bne	a0,zero,.L579
	.loc 1 2636 99 is_stmt 1 discriminator 2
	.loc 1 2637 13 discriminator 2
	.loc 1 2637 18 discriminator 2
	.loc 1 2637 31 is_stmt 0 discriminator 2
	li	a1,1
	addi	a0,s0,-44
	call	blcrypto_suite_mpi_shift_r
.LVL1268:
	mv	s1,a0
.LVL1269:
	.loc 1 2637 20 discriminator 2
	beq	a0,zero,.L585
	j	.L579
.L586:
	.loc 1 2632 17 is_stmt 1
	.loc 1 2632 22
	.loc 1 2632 35 is_stmt 0
	addi	a1,s0,-56
	addi	a2,s0,-80
	mv	a0,a1
	call	blcrypto_suite_mpi_add_mpi
.LVL1270:
	mv	s1,a0
.LVL1271:
	.loc 1 2632 24
	bne	a0,zero,.L579
	.loc 1 2632 110 is_stmt 1 discriminator 2
	.loc 1 2633 17 discriminator 2
	.loc 1 2633 22 discriminator 2
	.loc 1 2633 35 is_stmt 0 discriminator 2
	addi	a1,s0,-44
	addi	a2,s0,-128
	mv	a0,a1
	call	blcrypto_suite_mpi_sub_mpi
.LVL1272:
	mv	s1,a0
.LVL1273:
	.loc 1 2633 24 discriminator 2
	beq	a0,zero,.L588
	j	.L579
.L590:
	.loc 1 2648 13 is_stmt 1
	.loc 1 2648 18
	.loc 1 2648 31 is_stmt 0
	addi	a1,s0,-68
	addi	a2,s0,-116
	mv	a0,a1
	call	blcrypto_suite_mpi_sub_mpi
.LVL1274:
	mv	s1,a0
.LVL1275:
	.loc 1 2648 20
	bne	a0,zero,.L579
	.loc 1 2648 106 is_stmt 1 discriminator 2
	.loc 1 2649 13 discriminator 2
	.loc 1 2649 18 discriminator 2
	.loc 1 2649 31 is_stmt 0 discriminator 2
	addi	a1,s0,-56
	addi	a2,s0,-104
	mv	a0,a1
	call	blcrypto_suite_mpi_sub_mpi
.LVL1276:
	mv	s1,a0
.LVL1277:
	.loc 1 2649 20 discriminator 2
	bne	a0,zero,.L579
	.loc 1 2649 106 is_stmt 1 discriminator 2
	.loc 1 2650 13 discriminator 2
	.loc 1 2650 18 discriminator 2
	.loc 1 2650 31 is_stmt 0 discriminator 2
	addi	a2,s0,-92
	addi	a1,s0,-44
	j	.L603
.L594:
	.loc 1 2656 9 is_stmt 1
	.loc 1 2656 14
	.loc 1 2656 27 is_stmt 0
	addi	a1,s0,-56
	mv	a2,s2
	mv	a0,a1
	call	blcrypto_suite_mpi_add_mpi
.LVL1278:
	mv	s1,a0
.LVL1279:
	.loc 1 2656 16
	beq	a0,zero,.L592
	j	.L579
.L596:
	.loc 1 2659 9 is_stmt 1
	.loc 1 2659 14
	.loc 1 2659 27 is_stmt 0
	addi	a1,s0,-56
	mv	a2,s2
	mv	a0,a1
	call	blcrypto_suite_mpi_sub_mpi
.LVL1280:
	mv	s1,a0
.LVL1281:
	.loc 1 2659 16
	beq	a0,zero,.L595
	j	.L579
	.cfi_endproc
.LFE61:
	.size	blcrypto_suite_mpi_inv_mod, .-blcrypto_suite_mpi_inv_mod
	.text
.Letext0:
	.file 2 "/home/dinhquangha/intern/Ai-Thinker-WB2/toolchain/riscv/Linux/lib/gcc/riscv64-unknown-elf/10.2.0/include/stddef.h"
	.file 3 "/home/dinhquangha/intern/Ai-Thinker-WB2/toolchain/riscv/Linux/lib/gcc/riscv64-unknown-elf/10.2.0/include/stdint-gcc.h"
	.file 4 "/home/dinhquangha/intern/Ai-Thinker-WB2/components/security/blcrypto_suite/inc/blcrypto_suite/blcrypto_suite_bignum.h"
	.file 5 "/home/dinhquangha/intern/Ai-Thinker-WB2/toolchain/riscv/Linux/riscv64-unknown-elf/include/string.h"
	.file 6 "/home/dinhquangha/intern/Ai-Thinker-WB2/components/security/blcrypto_suite/inc/blcrypto_suite/blcrypto_suite_platform_util.h"
	.file 7 "/home/dinhquangha/intern/Ai-Thinker-WB2/components/security/blcrypto_suite/inc/blcrypto_suite/blcrypto_suite_platform.h"