	.file	"panic_c.c"
	.option nopic
	.attribute arch, "rv32i2p0_m2p0_f2p0_c2p0"
	.attribute unaligned_access, 0
	.attribute stack_align, 16
	.text
.Ltext0:
	.cfi_sections	.debug_frame
	.section	.rodata.backtrace_riscv.str1.4,"aMS",@progbits,1
	.align	2
.LC0:
	.string	"=== backtrace start ===\r\n"
	.align	2
.LC1:
	.string	"backtrace: INVALID!!!\r\n"
	.align	2
.LC2:
	.string	"=== backtrace end ===\r\n\r\n"
	.align	2
.LC3:
	.string	"backtrace: %p\r\n"
	.align	2
.LC4:
	.string	"backtrace: %p   <--- TRAP\r\n"
	.align	2
.LC5:
	.string	"backtrace nested...\r\n"
	.section	.text.backtrace_riscv,"ax",@progbits
	.align	1
	.globl	backtrace_riscv
	.type	backtrace_riscv, @function
backtrace_riscv:
.LFB5:
	.file 1 "/home/quanghaictu/intern/Ai-Thinker-WB2/components/platform/soc/bl602/freertos_riscv_ram/panic/panic_c.c"
	.loc 1 90 1
	.cfi_startproc
.LVL0:
	addi	sp,sp,-48
	.cfi_def_cfa_offset 48
	sw	s0,40(sp)
	sw	s3,28(sp)
	sw	s6,16(sp)
	sw	s9,4(sp)
	sw	ra,44(sp)
	sw	s1,36(sp)
	sw	s2,32(sp)
	sw	s4,24(sp)
	sw	s5,20(sp)
	sw	s7,12(sp)
	sw	s8,8(sp)
	.cfi_offset 8, -8
	.cfi_offset 19, -20
	.cfi_offset 22, -32
	.cfi_offset 25, -44
	.cfi_offset 1, -4
	.cfi_offset 9, -12
	.cfi_offset 18, -16
	.cfi_offset 20, -24
	.cfi_offset 21, -28
	.cfi_offset 23, -36
	.cfi_offset 24, -40
	addi	s0,sp,48
	.cfi_def_cfa 8, 0
	.loc 1 94 30 is_stmt 0
	lui	s6,%hi(.LANCHOR0)
	.loc 1 90 1
	.loc 1 94 30
	addi	s6,s6,%lo(.LANCHOR0)
	lw	s9,0(s6)
	.loc 1 90 1
	mv	s3,a0
	.loc 1 91 5 is_stmt 1
	.loc 1 92 5
	.loc 1 94 5
	.loc 1 94 8 is_stmt 0
	bne	s9,zero,.L2
	.loc 1 103 5
	lui	a0,%hi(.LC0)
.LVL1:
	.loc 1 95 30
	li	a5,1
	.loc 1 103 5
	addi	a0,a0,%lo(.LC0)
	mv	s7,a1
	.loc 1 95 9 is_stmt 1
	.loc 1 95 30 is_stmt 0
	sw	a5,0(s6)
	.loc 1 101 5 is_stmt 1
	.loc 1 103 5 is_stmt 0
	jalr	s3
.LVL2:
	.loc 1 101 5
 #APP
# 101 "/home/quanghaictu/intern/Ai-Thinker-WB2/components/platform/soc/bl602/freertos_riscv_ram/panic/panic_c.c" 1
	add s1, x0, fp
# 0 "" 2
.LVL3:
	.loc 1 103 5 is_stmt 1
	.loc 1 105 5
 #NO_APP
.LBB6:
.LBB7:
	.loc 1 68 5
	.loc 1 69 5
	.loc 1 71 5
	.loc 1 72 9
	.loc 1 72 27 is_stmt 0
	lw	a1,-4(s1)
.LVL4:
	.loc 1 74 9 is_stmt 1
	.loc 1 74 12 is_stmt 0
	beq	a1,zero,.L6
	.loc 1 79 9 is_stmt 1
	lui	s4,%hi(.LC3)
	addi	a0,s4,%lo(.LC3)
	jalr	s3
.LVL5:
	.loc 1 80 9
	.loc 1 69 14 is_stmt 0
	li	s2,0
	.loc 1 80 12
	li	s5,1
	.loc 1 81 13
	lui	s8,%hi(.LC4)
.LVL6:
.L8:
	.loc 1 83 9 is_stmt 1
	.loc 1 83 27 is_stmt 0
	lw	s1,-8(s1)
.LVL7:
	.loc 1 85 9 is_stmt 1
	.loc 1 79 9 is_stmt 0
	addi	a0,s4,%lo(.LC3)
	.loc 1 85 11
	addi	s2,s2,1
.LVL8:
	.loc 1 79 9 is_stmt 1
	.loc 1 71 11
	.loc 1 71 5
	.loc 1 72 9
	.loc 1 72 27 is_stmt 0
	lw	a1,-4(s1)
.LVL9:
	.loc 1 74 9 is_stmt 1
	.loc 1 74 12 is_stmt 0
	beq	a1,zero,.L6
.L12:
	.loc 1 79 9
	jalr	s3
.LVL10:
	.loc 1 80 9 is_stmt 1
	.loc 1 80 12 is_stmt 0
	bne	s2,s5,.L8
.LVL11:
	.loc 1 81 13 is_stmt 1
	lw	a1,0(s7)
	addi	a0,s8,%lo(.LC4)
	.loc 1 85 11 is_stmt 0
	addi	s2,s2,1
	.loc 1 81 13
	jalr	s3
.LVL12:
	.loc 1 83 9 is_stmt 1
	.loc 1 83 27 is_stmt 0
	lw	s1,-8(s1)
.LVL13:
	.loc 1 85 9 is_stmt 1
	.loc 1 79 9
	.loc 1 71 11
	.loc 1 71 5
	.loc 1 72 9
	.loc 1 79 9 is_stmt 0
	addi	a0,s4,%lo(.LC3)
	.loc 1 72 27
	lw	a1,-4(s1)
.LVL14:
	.loc 1 74 9 is_stmt 1
	.loc 1 74 12 is_stmt 0
	bne	a1,zero,.L12
.LVL15:
.L6:
	.loc 1 75 13 is_stmt 1
	lui	a0,%hi(.LC1)
	addi	a0,a0,%lo(.LC1)
	jalr	s3
.LVL16:
	.loc 1 76 13
.LBE7:
.LBE6:
	.loc 1 107 5
	lui	a0,%hi(.LC2)
	addi	a0,a0,%lo(.LC2)
	jalr	s3
.LVL17:
	.loc 1 109 5
	.loc 1 109 26 is_stmt 0
	sw	zero,0(s6)
	.loc 1 111 5 is_stmt 1
.LVL18:
.L1:
	.loc 1 112 1 is_stmt 0
	lw	ra,44(sp)
	.cfi_remember_state
	.cfi_restore 1
	lw	s0,40(sp)
	.cfi_restore 8
	.cfi_def_cfa 2, 48
	lw	s1,36(sp)
	.cfi_restore 9
	lw	s2,32(sp)
	.cfi_restore 18
	lw	s3,28(sp)
	.cfi_restore 19
.LVL19:
	lw	s4,24(sp)
	.cfi_restore 20
	lw	s5,20(sp)
	.cfi_restore 21
	lw	s6,16(sp)
	.cfi_restore 22
	lw	s7,12(sp)
	.cfi_restore 23
	lw	s8,8(sp)
	.cfi_restore 24
	mv	a0,s9
	lw	s9,4(sp)
	.cfi_restore 25
	addi	sp,sp,48
	.cfi_def_cfa_offset 0
	jr	ra
.LVL20:
.L2:
	.cfi_restore_state
.LBB8:
.LBB9:
	.loc 1 97 9 is_stmt 1
	lui	a0,%hi(.LC5)
.LVL21:
	addi	a0,a0,%lo(.LC5)
	jalr	s3
.LVL22:
	.loc 1 98 9
	.loc 1 97 9 is_stmt 0
	li	s9,-1
	j	.L1
.LBE9:
.LBE8:
	.cfi_endproc
.LFE5:
	.size	backtrace_riscv, .-backtrace_riscv
	.weak	backtrace_now
	.set	backtrace_now,backtrace_riscv
	.section	.rodata.backtrace_now_app.str1.4,"aMS",@progbits,1
	.align	2
.LC6:
	.string	">> "
	.align	2
.LC7:
	.string	"!!\r\n"
	.align	2
.LC8:
	.string	" <<\r\n"
	.section	.text.backtrace_now_app,"ax",@progbits
	.align	1
	.globl	backtrace_now_app
	.type	backtrace_now_app, @function
backtrace_now_app:
.LFB7:
	.loc 1 148 64 is_stmt 1
	.cfi_startproc
.LVL23:
	.loc 1 149 3
	.loc 1 150 3
	.loc 1 152 3
	.loc 1 148 64 is_stmt 0
	addi	sp,sp,-16
	.cfi_def_cfa_offset 16
	sw	s0,8(sp)
	sw	s1,4(sp)
	sw	s2,0(sp)
	sw	ra,12(sp)
	.cfi_offset 8, -8
	.cfi_offset 9, -12
	.cfi_offset 18, -16
	.cfi_offset 1, -4
	addi	s0,sp,16
	.cfi_def_cfa 8, 0
	.loc 1 152 28
	lui	s1,%hi(.LANCHOR1)
	.loc 1 148 64
	.loc 1 152 28
	addi	s1,s1,%lo(.LANCHOR1)
	.loc 1 152 6
	lw	a5,0(s1)
	.loc 1 148 64
	mv	s2,a0
	.loc 1 152 6
	bne	a5,zero,.L16
	.loc 1 153 5 is_stmt 1
	.loc 1 166 3 is_stmt 0
	lui	a0,%hi(.LC6)
.LVL24:
	.loc 1 153 26
	li	a5,1
	.loc 1 166 3
	addi	a0,a0,%lo(.LC6)
	.loc 1 153 26
	sw	a5,0(s1)
	.loc 1 160 3 is_stmt 1
	.loc 1 166 3 is_stmt 0
	jalr	s2
.LVL25:
	li	a4,256
.LBB12:
.LBB13:
	.loc 1 118 58
	li	a6,-33554432
	li	a1,33554432
	.loc 1 125 25
	li	t1,-16777216
	.loc 1 125 8
	li	a7,50331648
.LBE13:
.LBE12:
	.loc 1 160 3
 #APP
# 160 "/home/quanghaictu/intern/Ai-Thinker-WB2/components/platform/soc/bl602/freertos_riscv_ram/panic/panic_c.c" 1
	add a2, x0, fp
# 0 "" 2
.LVL26:
	.loc 1 166 3 is_stmt 1
	.loc 1 167 3
 #NO_APP
.LBB16:
.LBB14:
	.loc 1 117 9
	j	.L21
.LVL27:
.L27:
	.loc 1 125 58 is_stmt 0
	bne	a3,a1,.L20
	.loc 1 130 8
	bne	a5,a1,.L24
	.loc 1 117 9 is_stmt 1
.LVL28:
	addi	a4,a4,-1
.LVL29:
	beq	a4,zero,.L18
.LVL30:
.L21:
	.loc 1 118 5
	.loc 1 123 5
	.loc 1 130 5
	.loc 1 118 58 is_stmt 0
	and	a5,a2,a6
	bne	a5,a1,.L20
	.loc 1 123 25
	lw	a5,-4(a2)
.LVL31:
	.loc 1 125 5 is_stmt 1
	.loc 1 125 25 is_stmt 0
	and	a3,a5,t1
	.loc 1 125 8
	bne	a3,a7,.L27
.L24:
	.loc 1 117 9
	addi	a4,a4,-1
.LVL32:
	.loc 1 135 10
	mv	a2,a5
.LVL33:
	.loc 1 117 9 is_stmt 1
	bne	a4,zero,.L21
.LVL34:
.L18:
.LBE14:
.LBE16:
	.loc 1 168 3
	lui	a0,%hi(.LC8)
	addi	a0,a0,%lo(.LC8)
	jalr	s2
.LVL35:
	.loc 1 170 3
	.loc 1 173 1 is_stmt 0
	lw	ra,12(sp)
	.cfi_remember_state
	.cfi_restore 1
	lw	s0,8(sp)
	.cfi_restore 8
	.cfi_def_cfa 2, 16
	.loc 1 170 24
	sw	zero,0(s1)
	.loc 1 172 3 is_stmt 1
	.loc 1 173 1 is_stmt 0
	lw	s2,0(sp)
	.cfi_restore 18
.LVL36:
	lw	s1,4(sp)
	.cfi_restore 9
	li	a0,0
	addi	sp,sp,16
	.cfi_def_cfa_offset 0
	jr	ra
.LVL37:
.L20:
	.cfi_restore_state
.LBB17:
.LBB15:
	.loc 1 119 7 is_stmt 1
	lui	a0,%hi(.LC7)
	addi	a0,a0,%lo(.LC7)
	jalr	s2
.LVL38:
	.loc 1 120 7
	j	.L18
.LVL39:
.L16:
.LBE15:
.LBE17:
	.loc 1 155 5
	lui	a0,%hi(.LC5)
.LVL40:
	addi	a0,a0,%lo(.LC5)
	jalr	s2
.LVL41:
	.loc 1 156 5
	.loc 1 173 1 is_stmt 0
	lw	ra,12(sp)
	.cfi_restore 1
	lw	s0,8(sp)
	.cfi_restore 8
	.cfi_def_cfa 2, 16
	lw	s1,4(sp)
	.cfi_restore 9
	lw	s2,0(sp)
	.cfi_restore 18
.LVL42:
	li	a0,0
	addi	sp,sp,16
	.cfi_def_cfa_offset 0
	jr	ra
	.cfi_endproc
.LFE7:
	.size	backtrace_now_app, .-backtrace_now_app
	.section	.text.xPortIsInsideInterrupt,"ax",@progbits
	.align	1
	.globl	xPortIsInsideInterrupt
	.type	xPortIsInsideInterrupt, @function
xPortIsInsideInterrupt:
.LFB8:
	.loc 1 221 1 is_stmt 1
	.cfi_startproc
	.loc 1 222 5
	.loc 1 221 1 is_stmt 0
	addi	sp,sp,-16
	.cfi_def_cfa_offset 16
	sw	s0,12(sp)
	.cfi_offset 8, -4
	addi	s0,sp,16
	.cfi_def_cfa 8, 0
	.loc 1 222 31
	lui	a5,%hi(TrapNetCounter)
	lw	a0,%lo(TrapNetCounter)(a5)
	.loc 1 223 1
	lw	s0,12(sp)
	.cfi_restore 8
	.cfi_def_cfa 2, 16
	snez	a0,a0
	addi	sp,sp,16
	.cfi_def_cfa_offset 0
	jr	ra
	.cfi_endproc
.LFE8:
	.size	xPortIsInsideInterrupt, .-xPortIsInsideInterrupt
	.section	.rodata.backtrace_now_task.str1.4,"aMS",@progbits,1
	.align	2
.LC9:
	.string	"==========\r\nTask name:"
	.align	2
.LC10:
	.string	"\r\nBacktrace:\r\n"
	.align	2
.LC11:
	.string	"%p"
	.align	2
.LC12:
	.string	"    "
	.align	2
.LC13:
	.string	"\r\n"
	.align	2
.LC14:
	.string	"CMD: riscv64-unknown-elf-addr2line -e "
	.align	2
.LC15:
	.string	" -a -f "
	.align	2
.LC16:
	.string	" "
	.section	.text.backtrace_now_task,"ax",@progbits
	.align	1
	.globl	backtrace_now_task
	.type	backtrace_now_task, @function
backtrace_now_task:
.LFB10:
	.loc 1 257 1 is_stmt 1
	.cfi_startproc
.LVL43:
	.loc 1 258 2
	.loc 1 259 2
	.loc 1 260 2
	.loc 1 261 2
	.loc 1 262 2
	.loc 1 263 2
	.loc 1 264 2
	.loc 1 268 2
	.loc 1 257 1 is_stmt 0
	addi	sp,sp,-304
	.cfi_def_cfa_offset 304
	sw	ra,300(sp)
	sw	s0,296(sp)
	sw	s1,292(sp)
	.cfi_offset 1, -4
	.cfi_offset 8, -8
	.cfi_offset 9, -12
	addi	s0,sp,304
	.cfi_def_cfa 8, 0
	sw	s2,288(sp)
	sw	s3,284(sp)
	sw	s4,280(sp)
	sw	s5,276(sp)
	sw	s6,272(sp)
	sw	s7,268(sp)
	sw	s8,264(sp)
	sw	s9,260(sp)
	sw	s10,256(sp)
	sw	s11,252(sp)
	mv	s1,a0
	.loc 1 268 2
	lui	a0,%hi(.LANCHOR2)
.LVL44:
	.loc 1 257 1
	.cfi_offset 18, -16
	.cfi_offset 19, -20
	.cfi_offset 20, -24
	.cfi_offset 21, -28
	.cfi_offset 22, -32
	.cfi_offset 23, -36
	.cfi_offset 24, -40
	.cfi_offset 25, -44
	.cfi_offset 26, -48
	.cfi_offset 27, -52
	.loc 1 268 2
	addi	a0,a0,%lo(.LANCHOR2)
	jalr	s1
.LVL45:
	.loc 1 270 2 is_stmt 1
	call	vTaskEnterCritical
.LVL46:
	.loc 1 272 2
	call	xAddTasksToAllList
.LVL47:
	.loc 1 273 2
	.loc 1 273 14 is_stmt 0
	call	pxTaskGetAllList
.LVL48:
	.loc 1 275 15
	lw	a5,0(a0)
	.loc 1 273 14
	sw	a0,-276(s0)
.LVL49:
	.loc 1 275 2 is_stmt 1
	.loc 1 275 5 is_stmt 0
	beq	a5,zero,.L31
.LBB24:
	.loc 1 277 5 is_stmt 1
.LVL50:
	.loc 1 277 49
	.loc 1 277 100 is_stmt 0
	lw	a5,4(a0)
	.loc 1 277 164
	addi	a3,a0,8
	sw	a3,-284(s0)
	.loc 1 277 100
	lw	a5,4(a5)
	.loc 1 277 74
	sw	a5,4(a0)
	.loc 1 277 110 is_stmt 1
	.loc 1 277 112 is_stmt 0
	beq	a5,a3,.L51
.L32:
	.loc 1 277 262 is_stmt 1 discriminator 3
	.loc 1 277 277 is_stmt 0 discriminator 3
	lw	a4,12(a5)
.LBE24:
.LBB25:
.LBB26:
	.loc 1 280 101 discriminator 3
	lw	a5,4(a5)
	lui	s4,%hi(.LC11)
.LBE26:
.LBE25:
.LBB39:
	.loc 1 277 277 discriminator 3
	sw	a4,-288(s0)
.LVL51:
.LBE39:
	.loc 1 277 315 is_stmt 1 discriminator 3
	.loc 1 278 3 discriminator 3
.LBB40:
.LBB27:
	.loc 1 280 6 discriminator 3
	.loc 1 280 50 discriminator 3
.LBE27:
	.loc 1 313 16 is_stmt 0 discriminator 3
	li	a4,1769234432
.LVL52:
	addi	a4,a4,356
	sw	a4,-292(s0)
	li	a4,1818570752
	addi	a4,a4,-413
	sw	a4,-296(s0)
.LBB28:
	.loc 1 280 75 discriminator 3
	lw	a4,-276(s0)
	lui	s5,%hi(.LC12)
	lui	s3,%hi(.LC13)
	sw	a5,4(a4)
	.loc 1 280 111 is_stmt 1 discriminator 3
	.loc 1 280 113 is_stmt 0 discriminator 3
	lw	a4,-284(s0)
	addi	s7,s0,-64
.LBE28:
.LBB29:
.LBB30:
	.loc 1 240 4 discriminator 3
	li	s6,218103808
.LBE30:
.LBE29:
.LBB32:
	.loc 1 280 113 discriminator 3
	beq	a4,a5,.L52
.LVL53:
.L33:
	.loc 1 280 263 is_stmt 1 discriminator 3
	.loc 1 280 277 is_stmt 0 discriminator 3
	lw	s8,12(a5)
.LBE32:
	.loc 1 285 4 discriminator 3
	li	a2,192
	li	a1,165
	addi	a0,s0,-256
	.loc 1 281 17 discriminator 3
	lw	s2,0(s8)
.LBB33:
	.loc 1 280 277 discriminator 3
	sw	s8,-280(s0)
.LVL54:
.LBE33:
	.loc 1 280 315 is_stmt 1 discriminator 3
	.loc 1 281 4 discriminator 3
	.loc 1 284 4 discriminator 3
	.loc 1 285 4 discriminator 3
	call	memset
.LVL55:
	.loc 1 287 4 discriminator 3
	lui	a5,%hi(.LC9)
	addi	a0,a5,%lo(.LC9)
	jalr	s1
.LVL56:
	.loc 1 288 4 discriminator 3
	.loc 1 288 15 is_stmt 0 discriminator 3
	mv	a0,s8
	call	pcTaskGetName
.LVL57:
	.loc 1 288 4 discriminator 3
	jalr	s1
.LVL58:
	.loc 1 289 4 is_stmt 1 discriminator 3
	lui	a5,%hi(.LC10)
	addi	a0,a5,%lo(.LC10)
	jalr	s1
.LVL59:
	.loc 1 292 4 discriminator 3
	.loc 1 293 4 discriminator 3
	.loc 1 297 4 is_stmt 0 discriminator 3
	lw	a3,0(s2)
	addi	a2,s4,%lo(.LC11)
	li	a1,12
	addi	a0,s0,-256
	.loc 1 293 7 discriminator 3
	lw	s9,156(s2)
.LVL60:
	.loc 1 296 4 is_stmt 1 discriminator 3
	.loc 1 297 4 discriminator 3
	call	snprintf
.LVL61:
	.loc 1 298 4 discriminator 3
	addi	a0,s5,%lo(.LC12)
	jalr	s1
.LVL62:
	.loc 1 299 4 discriminator 3
	addi	a0,s0,-256
	jalr	s1
.LVL63:
	.loc 1 300 4 discriminator 3
	addi	a0,s3,%lo(.LC13)
	jalr	s1
.LVL64:
	.loc 1 303 4 discriminator 3
	.loc 1 304 4 discriminator 3
	.loc 1 305 4 discriminator 3
	lw	a3,140(s2)
	addi	a2,s4,%lo(.LC11)
	li	a1,12
	addi	a0,s0,-244
	call	snprintf
.LVL65:
	.loc 1 306 4 discriminator 3
	addi	a0,s5,%lo(.LC12)
	jalr	s1
.LVL66:
	.loc 1 307 4 discriminator 3
	addi	a0,s0,-244
	jalr	s1
.LVL67:
	.loc 1 308 4 discriminator 3
	addi	a0,s3,%lo(.LC13)
	jalr	s1
.LVL68:
	.loc 1 311 4 discriminator 3
.LBB34:
.LBB31:
	.loc 1 236 8 discriminator 3
	addi	s8,s0,-232
.LVL69:
	addi	s2,s0,-256
.LVL70:
	.loc 1 236 39 is_stmt 0 discriminator 3
	li	s10,251658240
	.loc 1 236 15 discriminator 3
	li	s11,33554432
.LVL71:
.L34:
	.loc 1 237 3 is_stmt 1
	.loc 1 244 3
	.loc 1 236 39 is_stmt 0
	and	a5,s9,s10
	.loc 1 244 3
	addi	a2,s4,%lo(.LC11)
	li	a1,12
	mv	a0,s8
	.loc 1 236 15
	bne	a5,s11,.L38
	.loc 1 237 27
	lw	a3,-4(s9)
.LVL72:
	.loc 1 238 3 is_stmt 1
	.loc 1 238 24 is_stmt 0
	and	a4,a3,s10
	.loc 1 240 4
	and	a5,a3,s6
	.loc 1 239 4
	beq	a4,s11,.L35
	.loc 1 240 4
	li	a4,16777216
	bne	a5,a4,.L38
.L35:
	.loc 1 244 3
	call	snprintf
.LVL73:
	.loc 1 245 3 is_stmt 1
	addi	a0,s5,%lo(.LC12)
	jalr	s1
.LVL74:
	.loc 1 246 3
	mv	a0,s8
	jalr	s1
.LVL75:
	.loc 1 247 3
	addi	a0,s3,%lo(.LC13)
	.loc 1 236 8 is_stmt 0
	addi	s8,s8,12
	.loc 1 247 3
	jalr	s1
.LVL76:
	.loc 1 249 3 is_stmt 1
	.loc 1 249 31 is_stmt 0
	lw	s9,-8(s9)
.LVL77:
	.loc 1 250 3 is_stmt 1
	.loc 1 236 8
	bne	s8,s7,.L34
.L38:
.LVL78:
.LBE31:
.LBE34:
	.loc 1 313 11
	.loc 1 314 11 is_stmt 0
	lui	a5,%hi(.LC14)
	addi	a0,a5,%lo(.LC14)
	.loc 1 313 16
	lw	a5,-292(s0)
.LBB35:
	.loc 1 317 11
	li	s8,120
.LBE35:
	.loc 1 313 16
	sw	a5,-268(s0)
	lw	a5,-296(s0)
	sw	a5,-264(s0)
	li	a5,102
	sh	a5,-260(s0)
	.loc 1 314 11 is_stmt 1
	jalr	s1
.LVL79:
	.loc 1 315 11
	addi	a0,s0,-268
	jalr	s1
.LVL80:
	.loc 1 316 11
	lui	a5,%hi(.LC15)
	addi	a0,a5,%lo(.LC15)
	jalr	s1
.LVL81:
	.loc 1 317 11
.LBB36:
	.loc 1 317 16
	.loc 1 317 27
	.loc 1 317 11 is_stmt 0
	lbu	a4,-255(s0)
	li	a5,120
	bne	a4,a5,.L37
.LVL82:
.L36:
	.loc 1 319 15 is_stmt 1 discriminator 3
	mv	a0,s2
	jalr	s1
.LVL83:
	.loc 1 320 15 discriminator 3
	lui	a5,%hi(.LC16)
	addi	a0,a5,%lo(.LC16)
	.loc 1 317 11 is_stmt 0 discriminator 3
	addi	s2,s2,12
	.loc 1 320 15 discriminator 3
	jalr	s1
.LVL84:
	.loc 1 317 48 is_stmt 1 discriminator 3
	.loc 1 317 27 discriminator 3
	.loc 1 317 11 is_stmt 0 discriminator 3
	lbu	a5,1(s2)
	beq	a5,s8,.L36
.L37:
.LBE36:
	.loc 1 322 11 is_stmt 1
	addi	a0,s3,%lo(.LC13)
	jalr	s1
.LVL85:
.LBE40:
	.loc 1 324 11
	.loc 1 324 3 is_stmt 0
	lw	a5,-288(s0)
	lw	a4,-280(s0)
	beq	a5,a4,.L31
.LBB41:
.LBB37:
	.loc 1 280 92
	lw	a5,-276(s0)
	.loc 1 280 75
	lw	a4,-276(s0)
	.loc 1 280 92
	lw	a5,4(a5)
.LBE37:
.LBE41:
	.loc 1 277 315 is_stmt 1
	.loc 1 278 3
.LBB42:
.LBB38:
	.loc 1 280 6
.LVL86:
	.loc 1 280 50
	.loc 1 280 101 is_stmt 0
	lw	a5,4(a5)
	.loc 1 280 75
	sw	a5,4(a4)
	.loc 1 280 111 is_stmt 1
	.loc 1 280 113 is_stmt 0
	lw	a4,-284(s0)
.LVL87:
	bne	a4,a5,.L33
.LVL88:
.L52:
	.loc 1 280 200 is_stmt 1 discriminator 1
	.loc 1 280 251 is_stmt 0 discriminator 1
	lw	a5,4(a4)
	.loc 1 280 225 discriminator 1
	lw	a4,-276(s0)
	sw	a5,4(a4)
	j	.L33
.LVL89:
.L31:
.LBE38:
.LBE42:
	.loc 1 327 2 is_stmt 1
	.loc 1 328 1 is_stmt 0
	lw	ra,300(sp)
	.cfi_remember_state
	.cfi_restore 1
	lw	s0,296(sp)
	.cfi_restore 8
	.cfi_def_cfa 2, 304
.LVL90:
	lw	s1,292(sp)
	.cfi_restore 9
.LVL91:
	lw	s2,288(sp)
	.cfi_restore 18
	lw	s3,284(sp)
	.cfi_restore 19
	lw	s4,280(sp)
	.cfi_restore 20
	lw	s5,276(sp)
	.cfi_restore 21
	lw	s6,272(sp)
	.cfi_restore 22
	lw	s7,268(sp)
	.cfi_restore 23
	lw	s8,264(sp)
	.cfi_restore 24
	lw	s9,260(sp)
	.cfi_restore 25
	lw	s10,256(sp)
	.cfi_restore 26
	lw	s11,252(sp)
	.cfi_restore 27
	li	a0,0
	addi	sp,sp,304
	.cfi_def_cfa_offset 0
	jr	ra
.LVL92:
.L51:
	.cfi_restore_state
.LBB43:
	.loc 1 277 199 is_stmt 1 discriminator 1
	.loc 1 277 250 is_stmt 0 discriminator 1
	lw	a5,12(a0)
	.loc 1 277 224 discriminator 1
	sw	a5,4(a0)
	j	.L32
.LBE43:
	.cfi_endproc
.LFE10:
	.size	backtrace_now_task, .-backtrace_now_task
	.section	.data.log.2,"aw"
	.align	2
	.set	.LANCHOR2,. + 0
	.type	log.2, @object
	.size	log.2, 196
log.2:
	.string	"\r\n==========\r\nELF File: /home/quanghaictu/intern/Ai-Thinker-WB2/datic/build_out/datic.elf\r\nVisit https://dev.bouffalolab.com/media/doc/backtrace/html/QA/backtrace/backtrace.html for more detail\r\n"
	.section	.sbss.processing_backtrace.0,"aw",@nobits
	.align	2
	.set	.LANCHOR0,. + 0
	.type	processing_backtrace.0, @object
	.size	processing_backtrace.0, 4
processing_backtrace.0:
	.zero	4
	.section	.sbss.processing_backtrace.1,"aw",@nobits
	.align	2
	.set	.LANCHOR1,. + 0
	.type	processing_backtrace.1, @object
	.size	processing_backtrace.1, 4
processing_backtrace.1:
	.zero	4
	.text
.Letext0:
	.file 2 "/home/quanghaictu/intern/Ai-Thinker-WB2/toolchain/riscv/Linux/riscv64-unknown-elf/include/machine/_default_types.h"
	.file 3 "/home/quanghaictu/intern/Ai-Thinker-WB2/toolchain/riscv/Linux/riscv64-unknown-elf/include/sys/_stdint.h"
	.file 4 "/home/quanghaictu/intern/Ai-Thinker-WB2/components/platform/soc/bl602/freertos_riscv_ram/portable/GCC/RISC-V/portmacro.h"
	.file 5 "/home/quanghaictu/intern/Ai-Thinker-WB2/components/platform/soc/bl602/freertos_riscv_ram/config/list.h"
	.file 6 "/home/quanghaictu/intern/Ai-Thinker-WB2/components/platform/soc/bl602/freertos_riscv_ram/config/task.h"
	.file 7 "/home/quanghaictu/intern/Ai-Thinker-WB2/toolchain/riscv/Linux/riscv64-unknown-elf/include/stdio.h"
	.file 8 "/home/quanghaictu/intern/Ai-Thinker-WB2/toolchain/riscv/Linux/riscv64-unknown-elf/include/string.h"