	.file	"bl_port.c"
	.option nopic
	.attribute arch, "rv32i2p0_m2p0_f2p0_c2p0"
	.attribute unaligned_access, 0
	.attribute stack_align, 16
	.text
.Ltext0:
	.cfi_sections	.debug_frame
	.section	.text.ble_rand,"ax",@progbits
	.align	1
	.globl	ble_rand
	.type	ble_rand, @function
ble_rand:
.LFB68:
	.file 1 "/home/quanghaictu/intern/Ai-Thinker-WB2/components/network/ble/blestack/src/port/bl_port.c"
	.loc 1 30 1
	.cfi_startproc
	.loc 1 34 5
	.loc 1 30 1 is_stmt 0
	addi	sp,sp,-16
	.cfi_def_cfa_offset 16
	sw	s0,12(sp)
	.cfi_offset 8, -4
	addi	s0,sp,16
	.cfi_def_cfa 8, 0
	.loc 1 36 1
	lw	s0,12(sp)
	.cfi_restore 8
	.cfi_def_cfa 2, 16
	addi	sp,sp,16
	.cfi_def_cfa_offset 0
	.loc 1 34 12
	tail	bl_rand
.LVL0:
	.cfi_endproc
.LFE68:
	.size	ble_rand, .-ble_rand
	.section	.text.k_queue_init,"ax",@progbits
	.align	1
	.globl	k_queue_init
	.type	k_queue_init, @function
k_queue_init:
.LFB69:
	.loc 1 60 1 is_stmt 1
	.cfi_startproc
.LVL1:
	.loc 1 62 5
	.loc 1 65 5
	.loc 1 60 1 is_stmt 0
	addi	sp,sp,-16
	.cfi_def_cfa_offset 16
	sw	s0,8(sp)
	sw	s1,4(sp)
	sw	ra,12(sp)
	.cfi_offset 8, -8
	.cfi_offset 9, -12
	.cfi_offset 1, -4
	addi	s0,sp,16
	.cfi_def_cfa 8, 0
	mv	s1,a0
	.loc 1 60 1
	mv	a0,a1
.LVL2:
	.loc 1 65 18
	li	a2,0
	li	a1,4
.LVL3:
	call	xQueueGenericCreate
.LVL4:
	.loc 1 65 16
	sw	a0,0(s1)
	.loc 1 66 5 is_stmt 1
	.loc 1 66 7 is_stmt 0
	bne	a0,zero,.L4
	.loc 1 66 13 is_stmt 1 discriminator 1
	call	user_vAssertCalled
.LVL5:
.L4:
	.loc 1 68 5
	.loc 1 69 1 is_stmt 0
	lw	ra,12(sp)
	.cfi_restore 1
	lw	s0,8(sp)
	.cfi_restore 8
	.cfi_def_cfa 2, 16
	.loc 1 68 5
	addi	a5,s1,4
.LVL6:
.LBB11:
.LBB12:
	.file 2 "/home/quanghaictu/intern/Ai-Thinker-WB2/components/network/ble/blestack/src/common/include/misc/dlist.h"
	.loc 2 190 2 is_stmt 1
	.loc 2 190 13 is_stmt 0
	sw	a5,4(s1)
	.loc 2 191 2 is_stmt 1
	.loc 2 191 13 is_stmt 0
	sw	a5,8(s1)
.LVL7:
.LBE12:
.LBE11:
	.loc 1 69 1
	lw	s1,4(sp)
	.cfi_restore 9
.LVL8:
	addi	sp,sp,16
	.cfi_def_cfa_offset 0
	jr	ra
	.cfi_endproc
.LFE69:
	.size	k_queue_init, .-k_queue_init
	.section	.text.k_queue_insert,"ax",@progbits
	.align	1
	.globl	k_queue_insert
	.type	k_queue_insert, @function
k_queue_insert:
.LFB70:
	.loc 1 72 1 is_stmt 1
	.cfi_startproc
.LVL9:
	.loc 1 73 5
	.loc 1 74 5
	.loc 1 76 5
	.loc 1 72 1 is_stmt 0
	addi	sp,sp,-32
	.cfi_def_cfa_offset 32
	sw	s0,24(sp)
	sw	ra,28(sp)
	.cfi_offset 8, -8
	.cfi_offset 1, -4
	addi	s0,sp,32
	.cfi_def_cfa 8, 0
	.loc 1 76 11
	lw	a0,0(a0)
.LVL10:
	.loc 1 72 1
	sw	a2,-20(s0)
	.loc 1 76 11
	li	a3,0
	li	a2,-1
.LVL11:
	addi	a1,s0,-20
.LVL12:
	call	xQueueGenericSend
.LVL13:
	.loc 1 77 5 is_stmt 1
	.loc 1 77 7 is_stmt 0
	li	a5,1
	beq	a0,a5,.L6
	.loc 1 77 52 is_stmt 1 discriminator 1
	call	user_vAssertCalled
.LVL14:
.L6:
	.loc 1 78 1 is_stmt 0
	lw	ra,28(sp)
	.cfi_restore 1
	lw	s0,24(sp)
	.cfi_restore 8
	.cfi_def_cfa 2, 32
	addi	sp,sp,32
	.cfi_def_cfa_offset 0
	jr	ra
	.cfi_endproc
.LFE70:
	.size	k_queue_insert, .-k_queue_insert
	.section	.text.k_queue_append,"ax",@progbits
	.align	1
	.globl	k_queue_append
	.type	k_queue_append, @function
k_queue_append:
.LFB71:
	.loc 1 81 1 is_stmt 1
	.cfi_startproc
.LVL15:
	.loc 1 82 5
	.loc 1 81 1 is_stmt 0
	addi	sp,sp,-16
	.cfi_def_cfa_offset 16
	sw	s0,12(sp)
	.cfi_offset 8, -4
	addi	s0,sp,16
	.cfi_def_cfa 8, 0
	.loc 1 83 1
	lw	s0,12(sp)
	.cfi_restore 8
	.cfi_def_cfa 2, 16
	.loc 1 81 1
	mv	a2,a1
	.loc 1 82 5
	li	a1,0
.LVL16:
	.loc 1 83 1
	addi	sp,sp,16
	.cfi_def_cfa_offset 0
	.loc 1 82 5
	tail	k_queue_insert
.LVL17:
	.cfi_endproc
.LFE71:
	.size	k_queue_append, .-k_queue_append
	.section	.text.k_queue_insert_from_isr,"ax",@progbits
	.align	1
	.globl	k_queue_insert_from_isr
	.type	k_queue_insert_from_isr, @function
k_queue_insert_from_isr:
.LFB72:
	.loc 1 86 1 is_stmt 1
	.cfi_startproc
.LVL18:
	.loc 1 87 5
	.loc 1 89 5
	.loc 1 86 1 is_stmt 0
	addi	sp,sp,-48
	.cfi_def_cfa_offset 48
	sw	s0,40(sp)
	sw	ra,44(sp)
	.cfi_offset 8, -8
	.cfi_offset 1, -4
	addi	s0,sp,48
	.cfi_def_cfa 8, 0
	.loc 1 89 5
	lw	a0,0(a0)
.LVL19:
	.loc 1 86 1
	sw	a2,-36(s0)
	.loc 1 89 5
	li	a3,0
	addi	a2,s0,-20
.LVL20:
	addi	a1,s0,-36
.LVL21:
	call	xQueueGenericSendFromISR
.LVL22:
	.loc 1 90 5 is_stmt 1
	.loc 1 90 7 is_stmt 0
	lw	a4,-20(s0)
	li	a5,1
	bne	a4,a5,.L11
	.loc 1 92 9 is_stmt 1 discriminator 1
	.loc 1 92 40 discriminator 1
	call	vTaskSwitchContext
.LVL23:
.L11:
	.loc 1 94 1 is_stmt 0
	lw	ra,44(sp)
	.cfi_restore 1
	lw	s0,40(sp)
	.cfi_restore 8
	.cfi_def_cfa 2, 48
	addi	sp,sp,48
	.cfi_def_cfa_offset 0
	jr	ra
	.cfi_endproc
.LFE72:
	.size	k_queue_insert_from_isr, .-k_queue_insert_from_isr
	.section	.text.k_queue_append_from_isr,"ax",@progbits
	.align	1
	.globl	k_queue_append_from_isr
	.type	k_queue_append_from_isr, @function
k_queue_append_from_isr:
.LFB73:
	.loc 1 97 1 is_stmt 1
	.cfi_startproc
.LVL24:
	.loc 1 98 5
	.loc 1 97 1 is_stmt 0
	addi	sp,sp,-16
	.cfi_def_cfa_offset 16
	sw	s0,12(sp)
	.cfi_offset 8, -4
	addi	s0,sp,16
	.cfi_def_cfa 8, 0
	.loc 1 99 1
	lw	s0,12(sp)
	.cfi_restore 8
	.cfi_def_cfa 2, 16
	.loc 1 97 1
	mv	a2,a1
	.loc 1 98 5
	li	a1,0
.LVL25:
	.loc 1 99 1
	addi	sp,sp,16
	.cfi_def_cfa_offset 0
	.loc 1 98 5
	tail	k_queue_insert_from_isr
.LVL26:
	.cfi_endproc
.LFE73:
	.size	k_queue_append_from_isr, .-k_queue_append_from_isr
	.section	.rodata.k_queue_free.str1.4,"aMS",@progbits,1
	.align	2
.LC0:
	.string	"Queue is NULL\n, %s\r\n"
	.section	.text.k_queue_free,"ax",@progbits
	.align	1
	.globl	k_queue_free
	.type	k_queue_free, @function
k_queue_free:
.LFB74:
	.loc 1 102 1 is_stmt 1
	.cfi_startproc
.LVL27:
	.loc 1 103 5
	.loc 1 103 7 is_stmt 0
	beq	a0,zero,.L23
	.loc 1 102 1 discriminator 1
	addi	sp,sp,-16
	.cfi_def_cfa_offset 16
	sw	s0,8(sp)
	sw	s1,4(sp)
	sw	ra,12(sp)
	.cfi_offset 8, -8
	.cfi_offset 9, -12
	.cfi_offset 1, -4
	addi	s0,sp,16
	.cfi_def_cfa 8, 0
	mv	s1,a0
	.loc 1 103 37 discriminator 1
	lw	a0,0(a0)
.LVL28:
	.loc 1 103 21 discriminator 1
	bne	a0,zero,.L18
	.loc 1 105 9 is_stmt 1
	.loc 1 112 1 is_stmt 0
	lw	s0,8(sp)
	.cfi_restore 8
	.cfi_def_cfa 2, 16
	.loc 1 105 9
	lui	a1,%hi(.LANCHOR0)
	lui	a0,%hi(.LC0)
	.loc 1 112 1
	lw	ra,12(sp)
	.cfi_restore 1
	lw	s1,4(sp)
	.cfi_restore 9
.LVL29:
	.loc 1 105 9
	addi	a1,a1,%lo(.LANCHOR0)
	.loc 1 112 1
	.loc 1 105 9
	addi	a0,a0,%lo(.LC0)
	.loc 1 112 1
	addi	sp,sp,16
	.cfi_def_cfa_offset 0
.L26:
	.loc 1 105 9
	tail	printf
.LVL30:
.L18:
	.cfi_def_cfa_register 8
	.cfi_offset 1, -4
	.cfi_offset 8, -8
	.cfi_offset 9, -12
	.loc 1 109 5 is_stmt 1
	call	vQueueDelete
.LVL31:
	.loc 1 110 5
	.loc 1 110 16 is_stmt 0
	sw	zero,0(s1)
	.loc 1 111 5 is_stmt 1
	.loc 1 112 1 is_stmt 0
	lw	ra,12(sp)
	.cfi_restore 1
	lw	s0,8(sp)
	.cfi_restore 8
	.cfi_def_cfa 2, 16
	lw	s1,4(sp)
	.cfi_restore 9
.LVL32:
	addi	sp,sp,16
	.cfi_def_cfa_offset 0
	jr	ra
.LVL33:
.L23:
	.loc 1 105 9 is_stmt 1
	lui	a1,%hi(.LANCHOR0)
	lui	a0,%hi(.LC0)
.LVL34:
	addi	a1,a1,%lo(.LANCHOR0)
	addi	a0,a0,%lo(.LC0)
	j	.L26
	.cfi_endproc
.LFE74:
	.size	k_queue_free, .-k_queue_free
	.section	.text.k_queue_prepend,"ax",@progbits
	.align	1
	.globl	k_queue_prepend
	.type	k_queue_prepend, @function
k_queue_prepend:
.LFB107:
	.cfi_startproc
	addi	sp,sp,-16
	.cfi_def_cfa_offset 16
	sw	s0,12(sp)
	.cfi_offset 8, -4
	addi	s0,sp,16
	.cfi_def_cfa 8, 0
	lw	s0,12(sp)
	.cfi_restore 8
	.cfi_def_cfa 2, 16
	addi	sp,sp,16
	.cfi_def_cfa_offset 0
	tail	k_queue_append
	.cfi_endproc
.LFE107:
	.size	k_queue_prepend, .-k_queue_prepend
	.section	.text.k_queue_append_list,"ax",@progbits
	.align	1
	.globl	k_queue_append_list
	.type	k_queue_append_list, @function
k_queue_append_list:
.LFB76:
	.loc 1 120 1
	.cfi_startproc
.LVL35:
	.loc 1 120 1 is_stmt 0
	addi	sp,sp,-16
	.cfi_def_cfa_offset 16
	sw	s0,8(sp)
	sw	s1,4(sp)
	sw	s2,0(sp)
	sw	ra,12(sp)
	.cfi_offset 8, -8
	.cfi_offset 9, -12
	.cfi_offset 18, -16
	.cfi_offset 1, -4
	addi	s0,sp,16
	.cfi_def_cfa 8, 0
	mv	s2,a0
	mv	s1,a1
	.loc 1 121 5 is_stmt 1
.LVL36:
	.loc 1 123 5
.L30:
	.loc 1 123 45 discriminator 1
	.loc 1 123 5 is_stmt 0 discriminator 1
	bne	s1,zero,.L31
	.loc 1 126 1
	lw	ra,12(sp)
	.cfi_remember_state
	.cfi_restore 1
	lw	s0,8(sp)
	.cfi_restore 8
	.cfi_def_cfa 2, 16
	lw	s1,4(sp)
	.cfi_restore 9
.LVL37:
	lw	s2,0(sp)
	.cfi_restore 18
.LVL38:
	addi	sp,sp,16
	.cfi_def_cfa_offset 0
	jr	ra
.LVL39:
.L31:
	.cfi_restore_state
	.loc 1 124 9 is_stmt 1 discriminator 3
	mv	a1,s1
	mv	a0,s2
	call	k_queue_append
.LVL40:
	.loc 1 123 55 discriminator 3
	.loc 1 123 64 is_stmt 0 discriminator 3
	lw	s1,0(s1)
.LVL41:
	j	.L30
	.cfi_endproc
.LFE76:
	.size	k_queue_append_list, .-k_queue_append_list
	.section	.text.k_queue_get,"ax",@progbits
	.align	1
	.globl	k_queue_get
	.type	k_queue_get, @function
k_queue_get:
.LFB77:
	.loc 1 129 1 is_stmt 1
	.cfi_startproc
.LVL42:
	.loc 1 130 5
	.loc 1 129 1 is_stmt 0
	addi	sp,sp,-32
	.cfi_def_cfa_offset 32
	sw	s0,24(sp)
	sw	ra,28(sp)
	.cfi_offset 8, -8
	.cfi_offset 1, -4
	addi	s0,sp,32
	.cfi_def_cfa 8, 0
	.loc 1 130 11
	sw	zero,-20(s0)
	.loc 1 131 5 is_stmt 1
.LVL43:
	.loc 1 132 5
	.loc 1 134 5
	.loc 1 136 5
	.loc 1 136 8 is_stmt 0
	li	a5,-1
	.loc 1 142 30
	lw	a0,0(a0)
.LVL44:
	li	a2,-1
	.loc 1 136 8
	beq	a1,a5,.L34
	.loc 1 138 12 is_stmt 1 discriminator 1
.LVL45:
	.loc 1 142 134 is_stmt 0 discriminator 1
	li	a2,1000
	mul	a1,a1,a2
.LVL46:
	.loc 1 142 11 discriminator 1
	divu	a2,a1,a2
.L34:
	.loc 1 142 11 discriminator 4
	addi	a1,s0,-20
	call	xQueueReceive
.LVL47:
	.loc 1 143 5 is_stmt 1 discriminator 4
	.loc 1 143 8 is_stmt 0 discriminator 4
	li	a4,1
	.loc 1 146 15 discriminator 4
	li	a5,0
	.loc 1 143 8 discriminator 4
	bne	a0,a4,.L33
	.loc 1 144 9 is_stmt 1
	.loc 1 144 16 is_stmt 0
	lw	a5,-20(s0)
.L33:
	.loc 1 148 1
	lw	ra,28(sp)
	.cfi_restore 1
	lw	s0,24(sp)
	.cfi_restore 8
	.cfi_def_cfa 2, 32
	mv	a0,a5
.LVL48:
	addi	sp,sp,32
	.cfi_def_cfa_offset 0
	jr	ra
	.cfi_endproc
.LFE77:
	.size	k_queue_get, .-k_queue_get
	.section	.text.k_queue_is_empty,"ax",@progbits
	.align	1
	.globl	k_queue_is_empty
	.type	k_queue_is_empty, @function
k_queue_is_empty:
.LFB78:
	.loc 1 151 1 is_stmt 1
	.cfi_startproc
.LVL49:
	.loc 1 152 6
	.loc 1 151 1 is_stmt 0
	addi	sp,sp,-16
	.cfi_def_cfa_offset 16
	sw	s0,8(sp)
	sw	ra,12(sp)
	.cfi_offset 8, -8
	.cfi_offset 1, -4
	addi	s0,sp,16
	.cfi_def_cfa 8, 0
	.loc 1 152 13
	lw	a0,0(a0)
.LVL50:
	call	uxQueueMessagesWaiting
.LVL51:
	.loc 1 153 1
	lw	ra,12(sp)
	.cfi_restore 1
	lw	s0,8(sp)
	.cfi_restore 8
	.cfi_def_cfa 2, 16
	seqz	a0,a0
	addi	sp,sp,16
	.cfi_def_cfa_offset 0
	jr	ra
	.cfi_endproc
.LFE78:
	.size	k_queue_is_empty, .-k_queue_is_empty
	.section	.text.k_queue_get_cnt,"ax",@progbits
	.align	1
	.globl	k_queue_get_cnt
	.type	k_queue_get_cnt, @function
k_queue_get_cnt:
.LFB79:
	.loc 1 156 1 is_stmt 1
	.cfi_startproc
.LVL52:
	.loc 1 157 6
	.loc 1 156 1 is_stmt 0
	addi	sp,sp,-16
	.cfi_def_cfa_offset 16
	sw	s0,12(sp)
	.cfi_offset 8, -4
	addi	s0,sp,16
	.cfi_def_cfa 8, 0
	.loc 1 158 1
	lw	s0,12(sp)
	.cfi_restore 8
	.cfi_def_cfa 2, 16
	.loc 1 157 13
	lw	a0,0(a0)
.LVL53:
	.loc 1 158 1
	addi	sp,sp,16
	.cfi_def_cfa_offset 0
	.loc 1 157 13
	tail	uxQueueMessagesWaiting
.LVL54:
	.cfi_endproc
.LFE79:
	.size	k_queue_get_cnt, .-k_queue_get_cnt
	.section	.rodata.k_sem_init.str1.4,"aMS",@progbits,1
	.align	2
.LC1:
	.string	"sem is NULL\n, %s\r\n"
	.section	.text.k_sem_init,"ax",@progbits
	.align	1
	.globl	k_sem_init
	.type	k_sem_init, @function
k_sem_init:
.LFB80:
	.loc 1 161 1 is_stmt 1
	.cfi_startproc
.LVL55:
	.loc 1 162 5
	.loc 1 161 1 is_stmt 0
	addi	sp,sp,-16
	.cfi_def_cfa_offset 16
	sw	s0,8(sp)
	sw	s1,4(sp)
	sw	ra,12(sp)
	.cfi_offset 8, -8
	.cfi_offset 9, -12
	.cfi_offset 1, -4
	addi	s0,sp,16
	.cfi_def_cfa 8, 0
	.loc 1 161 1
	mv	s1,a0
	.loc 1 162 8
	bne	a0,zero,.L45
	.loc 1 163 9 is_stmt 1
	lui	a1,%hi(.LANCHOR1)
.LVL56:
	lui	a0,%hi(.LC1)
.LVL57:
	addi	a1,a1,%lo(.LANCHOR1)
	addi	a0,a0,%lo(.LC1)
	call	printf
.LVL58:
	.loc 1 164 9
	.loc 1 164 16 is_stmt 0
	li	a0,-22
.L44:
	.loc 1 170 1
	lw	ra,12(sp)
	.cfi_remember_state
	.cfi_restore 1
	lw	s0,8(sp)
	.cfi_restore 8
	.cfi_def_cfa 2, 16
	lw	s1,4(sp)
	.cfi_restore 9
.LVL59:
	addi	sp,sp,16
	.cfi_def_cfa_offset 0
	jr	ra
.LVL60:
.L45:
	.cfi_restore_state
	mv	a0,a2
	.loc 1 167 5 is_stmt 1
	.loc 1 167 20 is_stmt 0
	call	xQueueCreateCountingSemaphore
.LVL61:
	.loc 1 168 5
	addi	a5,s1,4
	.loc 1 167 18
	sw	a0,0(s1)
	.loc 1 168 5 is_stmt 1
.LVL62:
.LBB13:
.LBB14:
	.loc 2 190 2
	.loc 2 190 13 is_stmt 0
	sw	a5,4(s1)
	.loc 2 191 2 is_stmt 1
	.loc 2 191 13 is_stmt 0
	sw	a5,8(s1)
.LVL63:
.LBE14:
.LBE13:
	.loc 1 169 5 is_stmt 1
	.loc 1 169 12 is_stmt 0
	li	a0,0
	j	.L44
	.cfi_endproc
.LFE80:
	.size	k_sem_init, .-k_sem_init
	.section	.text.k_sem_take,"ax",@progbits
	.align	1
	.globl	k_sem_take
	.type	k_sem_take, @function
k_sem_take:
.LFB81:
	.loc 1 173 1 is_stmt 1
	.cfi_startproc
.LVL64:
	.loc 1 174 5
	.loc 1 175 5
	.loc 1 177 5
	.loc 1 178 5
	.loc 1 184 5
	.loc 1 184 7 is_stmt 0
	beq	a0,zero,.L51
	.loc 1 188 5 is_stmt 1
	.loc 1 173 1 is_stmt 0
	addi	sp,sp,-16
	.cfi_def_cfa_offset 16
	sw	s0,8(sp)
	sw	ra,12(sp)
	.cfi_offset 8, -8
	.cfi_offset 1, -4
	addi	s0,sp,16
	.cfi_def_cfa 8, 0
	.loc 1 188 11
	li	a5,-1
	.loc 1 188 42
	lw	a0,0(a0)
.LVL65:
	.loc 1 188 11
	beq	a1,a5,.L50
	.loc 1 188 143 discriminator 1
	li	a5,1000
	mul	a1,a1,a5
.LVL66:
	.loc 1 188 11 discriminator 1
	divu	a1,a1,a5
.L50:
	.loc 1 188 11 discriminator 4
	call	xQueueSemaphoreTake
.LVL67:
	.loc 1 189 5 is_stmt 1 discriminator 4
	.loc 1 190 1 is_stmt 0 discriminator 4
	lw	ra,12(sp)
	.cfi_restore 1
	lw	s0,8(sp)
	.cfi_restore 8
	.cfi_def_cfa 2, 16
	.loc 1 189 48 discriminator 4
	addi	a0,a0,-1
.LVL68:
	snez	a0,a0
.LVL69:
	neg	a0,a0
	.loc 1 190 1 discriminator 4
	addi	sp,sp,16
	.cfi_def_cfa_offset 0
	jr	ra
.LVL70:
.L51:
	.loc 1 185 16
	li	a0,-1
.LVL71:
	.loc 1 190 1
	ret
	.cfi_endproc
.LFE81:
	.size	k_sem_take, .-k_sem_take
	.section	.text.k_sem_give,"ax",@progbits
	.align	1
	.globl	k_sem_give
	.type	k_sem_give, @function
k_sem_give:
.LFB82:
	.loc 1 193 1 is_stmt 1
	.cfi_startproc
.LVL72:
	.loc 1 194 5
	.loc 1 195 5
	.loc 1 197 5
	.loc 1 193 1 is_stmt 0
	addi	sp,sp,-16
	.cfi_def_cfa_offset 16
	sw	s0,8(sp)
	sw	ra,12(sp)
	.cfi_offset 8, -8
	.cfi_offset 1, -4
	addi	s0,sp,16
	.cfi_def_cfa 8, 0
	.loc 1 197 8
	bne	a0,zero,.L57
	.loc 1 198 9 is_stmt 1
	lui	a1,%hi(.LANCHOR2)
	lui	a0,%hi(.LC1)
.LVL73:
	addi	a1,a1,%lo(.LANCHOR2)
	addi	a0,a0,%lo(.LC1)
	call	printf
.LVL74:
	.loc 1 199 9
	.loc 1 199 16 is_stmt 0
	li	a0,-22
.L56:
	.loc 1 204 1
	lw	ra,12(sp)
	.cfi_remember_state
	.cfi_restore 1
	lw	s0,8(sp)
	.cfi_restore 8
	.cfi_def_cfa 2, 16
	addi	sp,sp,16
	.cfi_def_cfa_offset 0
	jr	ra
.LVL75:
.L57:
	.cfi_restore_state
	.loc 1 202 5 is_stmt 1
	.loc 1 202 11 is_stmt 0
	lw	a0,0(a0)
.LVL76:
	li	a3,0
	li	a2,0
	li	a1,0
	call	xQueueGenericSend
.LVL77:
	.loc 1 203 5 is_stmt 1
	.loc 1 203 48 is_stmt 0
	addi	a0,a0,-1
.LVL78:
	snez	a0,a0
.LVL79:
	neg	a0,a0
	j	.L56
	.cfi_endproc
.LFE82:
	.size	k_sem_give, .-k_sem_give
	.section	.text.k_sem_delete,"ax",@progbits
	.align	1
	.globl	k_sem_delete
	.type	k_sem_delete, @function
k_sem_delete:
.LFB83:
	.loc 1 207 1 is_stmt 1
	.cfi_startproc
.LVL80:
	.loc 1 208 5
	.loc 1 207 1 is_stmt 0
	addi	sp,sp,-16
	.cfi_def_cfa_offset 16
	sw	s0,8(sp)
	sw	ra,12(sp)
	sw	s1,4(sp)
	.cfi_offset 8, -8
	.cfi_offset 1, -4
	.cfi_offset 9, -12
	addi	s0,sp,16
	.cfi_def_cfa 8, 0
	.loc 1 208 8
	beq	a0,zero,.L61
	mv	s1,a0
	.loc 1 208 39 discriminator 1
	lw	a0,0(a0)
.LVL81:
	.loc 1 208 20 discriminator 1
	bne	a0,zero,.L62
.LVL82:
.L61:
	.loc 1 209 9 is_stmt 1
	lui	a1,%hi(.LANCHOR3)
	lui	a0,%hi(.LC1)
	addi	a1,a1,%lo(.LANCHOR3)
	addi	a0,a0,%lo(.LC1)
	call	printf
.LVL83:
	.loc 1 210 9
	.loc 1 210 16 is_stmt 0
	li	a0,-22
.L60:
	.loc 1 216 1
	lw	ra,12(sp)
	.cfi_remember_state
	.cfi_restore 1
	lw	s0,8(sp)
	.cfi_restore 8
	.cfi_def_cfa 2, 16
	lw	s1,4(sp)
	.cfi_restore 9
	addi	sp,sp,16
	.cfi_def_cfa_offset 0
	jr	ra
.LVL84:
.L62:
	.cfi_restore_state
	.loc 1 213 5 is_stmt 1
	call	vQueueDelete
.LVL85:
	.loc 1 214 5
	.loc 1 215 12 is_stmt 0
	li	a0,0
	.loc 1 214 18
	sw	zero,0(s1)
	.loc 1 215 5 is_stmt 1
	.loc 1 215 12 is_stmt 0
	j	.L60
	.cfi_endproc
.LFE83:
	.size	k_sem_delete, .-k_sem_delete
	.section	.text.k_sem_count_get,"ax",@progbits
	.align	1
	.globl	k_sem_count_get
	.type	k_sem_count_get, @function
k_sem_count_get:
.LFB84:
	.loc 1 219 1 is_stmt 1
	.cfi_startproc
.LVL86:
	.loc 1 220 5
	.loc 1 219 1 is_stmt 0
	addi	sp,sp,-16
	.cfi_def_cfa_offset 16
	sw	s0,12(sp)
	.cfi_offset 8, -4
	addi	s0,sp,16
	.cfi_def_cfa 8, 0
	.loc 1 221 1
	lw	s0,12(sp)
	.cfi_restore 8
	.cfi_def_cfa 2, 16
	.loc 1 220 12
	lw	a0,0(a0)
.LVL87:
	.loc 1 221 1
	addi	sp,sp,16
	.cfi_def_cfa_offset 0
	.loc 1 220 12
	tail	uxQueueMessagesWaiting
.LVL88:
	.cfi_endproc
.LFE84:
	.size	k_sem_count_get, .-k_sem_count_get
	.section	.rodata.k_mutex_init.str1.4,"aMS",@progbits,1
	.align	2
.LC2:
	.string	"mutex is NULL\n, %s\r\n"
	.section	.text.k_mutex_init,"ax",@progbits
	.align	1
	.globl	k_mutex_init
	.type	k_mutex_init, @function
k_mutex_init:
.LFB85:
	.loc 1 224 1 is_stmt 1
	.cfi_startproc
.LVL89:
	.loc 1 226 5
	.loc 1 226 8 is_stmt 0
	bne	a0,zero,.L71
	.loc 1 227 9 is_stmt 1
	lui	a1,%hi(.LANCHOR4)
	lui	a0,%hi(.LC2)
.LVL90:
	addi	a1,a1,%lo(.LANCHOR4)
	addi	a0,a0,%lo(.LC2)
	tail	printf
.LVL91:
.L71:
	.loc 1 224 1 is_stmt 0
	addi	sp,sp,-16
	.cfi_def_cfa_offset 16
	sw	s0,8(sp)
	sw	s1,4(sp)
	sw	ra,12(sp)
	.cfi_offset 8, -8
	.cfi_offset 9, -12
	.cfi_offset 1, -4
	addi	s0,sp,16
	.cfi_def_cfa 8, 0
	mv	s1,a0
	.loc 1 231 5 is_stmt 1
	.loc 1 224 1 is_stmt 0
	.loc 1 231 24
	li	a0,1
.LVL92:
	call	xQueueCreateMutex
.LVL93:
	.loc 1 231 22
	sw	a0,0(s1)
	.loc 1 232 5 is_stmt 1
	.loc 1 232 7 is_stmt 0
	bne	a0,zero,.L72
	.loc 1 232 13 is_stmt 1 discriminator 1
	call	user_vAssertCalled
.LVL94:
.L72:
	.loc 1 233 5
	addi	a5,s1,4
.LVL95:
.LBB15:
.LBB16:
	.loc 2 190 2
	.loc 2 190 13 is_stmt 0
	sw	a5,4(s1)
	.loc 2 191 2 is_stmt 1
	.loc 2 191 13 is_stmt 0
	sw	a5,8(s1)
.LVL96:
.LBE16:
.LBE15:
	.loc 1 234 1
	lw	ra,12(sp)
	.cfi_restore 1
	lw	s0,8(sp)
	.cfi_restore 8
	.cfi_def_cfa 2, 16
	lw	s1,4(sp)
	.cfi_restore 9
.LVL97:
	addi	sp,sp,16
	.cfi_def_cfa_offset 0
	jr	ra
	.cfi_endproc
.LFE85:
	.size	k_mutex_init, .-k_mutex_init
	.section	.text.k_thread_create,"ax",@progbits
	.align	1
	.globl	k_thread_create
	.type	k_thread_create, @function
k_thread_create:
.LFB88:
	.loc 1 249 1 is_stmt 1
	.cfi_startproc
.LVL98:
	.loc 1 250 5
	.loc 1 251 5
	.loc 1 249 1 is_stmt 0
	addi	sp,sp,-16
	.cfi_def_cfa_offset 16
	.loc 1 250 16
	srli	a2,a2,2
.LVL99:
	.loc 1 249 1
	sw	s0,8(sp)
	sw	s1,4(sp)
	sw	ra,12(sp)
	.cfi_offset 8, -8
	.cfi_offset 9, -12
	.cfi_offset 1, -4
	addi	s0,sp,16
	.cfi_def_cfa 8, 0
	mv	s1,a0
	.loc 1 251 5
	slli	a2,a2,16
.LVL100:
	.loc 1 249 1
	.loc 1 249 1
	mv	a0,a3
.LVL101:
	.loc 1 251 5
	mv	a5,s1
	li	a3,0
.LVL102:
	srli	a2,a2,16
	call	xTaskCreate
.LVL103:
	.loc 1 253 5 is_stmt 1
	.loc 1 253 32 is_stmt 0
	lw	a0,0(s1)
	.loc 1 254 1
	lw	ra,12(sp)
	.cfi_restore 1
	lw	s0,8(sp)
	.cfi_restore 8
	.cfi_def_cfa 2, 16
	.loc 1 253 32
	seqz	a0,a0
	.loc 1 254 1
	lw	s1,4(sp)
	.cfi_restore 9
.LVL104:
	neg	a0,a0
	addi	sp,sp,16
	.cfi_def_cfa_offset 0
	jr	ra
	.cfi_endproc
.LFE88:
	.size	k_thread_create, .-k_thread_create
	.section	.rodata.k_thread_delete.str1.4,"aMS",@progbits,1
	.align	2
.LC3:
	.string	"task is NULL\n, %s\r\n"
	.section	.text.k_thread_delete,"ax",@progbits
	.align	1
	.globl	k_thread_delete
	.type	k_thread_delete, @function
k_thread_delete:
.LFB89:
	.loc 1 257 1 is_stmt 1
	.cfi_startproc
.LVL105:
	.loc 1 258 5
	.loc 1 258 7 is_stmt 0
	beq	a0,zero,.L84
	.loc 1 257 1 discriminator 1
	addi	sp,sp,-16
	.cfi_def_cfa_offset 16
	sw	s0,8(sp)
	sw	s1,4(sp)
	sw	ra,12(sp)
	.cfi_offset 8, -8
	.cfi_offset 9, -12
	.cfi_offset 1, -4
	addi	s0,sp,16
	.cfi_def_cfa 8, 0
	mv	s1,a0
	.loc 1 258 36 discriminator 1
	lw	a0,0(a0)
.LVL106:
	.loc 1 258 22 discriminator 1
	bne	a0,zero,.L79
	.loc 1 260 9 is_stmt 1
	.loc 1 267 1 is_stmt 0
	lw	s0,8(sp)
	.cfi_restore 8
	.cfi_def_cfa 2, 16
	.loc 1 260 9
	lui	a1,%hi(.LANCHOR5)
	lui	a0,%hi(.LC3)
	.loc 1 267 1
	lw	ra,12(sp)
	.cfi_restore 1
	lw	s1,4(sp)
	.cfi_restore 9
.LVL107:
	.loc 1 260 9
	addi	a1,a1,%lo(.LANCHOR5)
	.loc 1 267 1
	.loc 1 260 9
	addi	a0,a0,%lo(.LC3)
	.loc 1 267 1
	addi	sp,sp,16
	.cfi_def_cfa_offset 0
.L87:
	.loc 1 260 9
	tail	printf
.LVL108:
.L79:
	.cfi_def_cfa_register 8
	.cfi_offset 1, -4
	.cfi_offset 8, -8
	.cfi_offset 9, -12
	.loc 1 264 5 is_stmt 1
	call	vTaskDelete
.LVL109:
	.loc 1 265 5
	.loc 1 265 18 is_stmt 0
	sw	zero,0(s1)
	.loc 1 266 5 is_stmt 1
	.loc 1 267 1 is_stmt 0
	lw	ra,12(sp)
	.cfi_restore 1
	lw	s0,8(sp)
	.cfi_restore 8
	.cfi_def_cfa 2, 16
	lw	s1,4(sp)
	.cfi_restore 9
.LVL110:
	addi	sp,sp,16
	.cfi_def_cfa_offset 0
	jr	ra
.LVL111:
.L84:
	.loc 1 260 9 is_stmt 1
	lui	a1,%hi(.LANCHOR5)
	lui	a0,%hi(.LC3)
.LVL112:
	addi	a1,a1,%lo(.LANCHOR5)
	addi	a0,a0,%lo(.LC3)
	j	.L87
	.cfi_endproc
.LFE89:
	.size	k_thread_delete, .-k_thread_delete
	.section	.text.k_is_current_thread,"ax",@progbits
	.align	1
	.globl	k_is_current_thread
	.type	k_is_current_thread, @function
k_is_current_thread:
.LFB90:
	.loc 1 270 1
	.cfi_startproc
.LVL113:
	.loc 1 271 5
	.loc 1 270 1 is_stmt 0
	addi	sp,sp,-16
	.cfi_def_cfa_offset 16
	sw	s0,8(sp)
	sw	ra,12(sp)
	.cfi_offset 8, -8
	.cfi_offset 1, -4
	addi	s0,sp,16
	.cfi_def_cfa 8, 0
	.loc 1 271 31
	lw	a0,0(a0)
.LVL114:
	call	eTaskGetState
.LVL115:
	.loc 1 272 5 is_stmt 1
	.loc 1 276 1 is_stmt 0
	lw	ra,12(sp)
	.cfi_restore 1
	lw	s0,8(sp)
	.cfi_restore 8
	.cfi_def_cfa 2, 16
	seqz	a0,a0
.LVL116:
	addi	sp,sp,16
	.cfi_def_cfa_offset 0
	jr	ra
	.cfi_endproc
.LFE90:
	.size	k_is_current_thread, .-k_is_current_thread
	.section	.text.k_yield,"ax",@progbits
	.align	1
	.globl	k_yield
	.type	k_yield, @function
k_yield:
.LFB91:
	.loc 1 279 1 is_stmt 1
	.cfi_startproc
	.loc 1 280 5
	.loc 1 279 1 is_stmt 0
	addi	sp,sp,-16
	.cfi_def_cfa_offset 16
	sw	s0,8(sp)
	sw	ra,12(sp)
	.cfi_offset 8, -8
	.cfi_offset 1, -4
	addi	s0,sp,16
	.cfi_def_cfa 8, 0
	.loc 1 280 5
	li	a0,1
	call	vEnvironmentCall
.LVL117:
	.loc 1 281 5 is_stmt 1
	.loc 1 282 1 is_stmt 0
	lw	ra,12(sp)
	.cfi_restore 1
	lw	s0,8(sp)
	.cfi_restore 8
	.cfi_def_cfa 2, 16
	li	a0,0
	addi	sp,sp,16
	.cfi_def_cfa_offset 0
	jr	ra
	.cfi_endproc
.LFE91:
	.size	k_yield, .-k_yield
	.section	.text.k_sleep,"ax",@progbits
	.align	1
	.globl	k_sleep
	.type	k_sleep, @function
k_sleep:
.LFB92:
	.loc 1 285 1 is_stmt 1
	.cfi_startproc
.LVL118:
	.loc 1 286 5
	.loc 1 287 5
	.loc 1 288 5
	.loc 1 287 60 is_stmt 0
	li	a5,1000
	mul	a0,a0,a5
.LVL119:
	.loc 1 285 1
	addi	sp,sp,-16
	.cfi_def_cfa_offset 16
	sw	s0,12(sp)
	.cfi_offset 8, -4
	addi	s0,sp,16
	.cfi_def_cfa 8, 0
	.loc 1 289 1
	lw	s0,12(sp)
	.cfi_restore 8
	.cfi_def_cfa 2, 16
	addi	sp,sp,16
	.cfi_def_cfa_offset 0
	.loc 1 288 5
	divu	a0,a0,a5
.LVL120:
	tail	vTaskDelay
.LVL121:
	.cfi_endproc
.LFE92:
	.size	k_sleep, .-k_sleep
	.section	.text.irq_lock,"ax",@progbits
	.align	1
	.globl	irq_lock
	.type	irq_lock, @function
irq_lock:
.LFB93:
	.loc 1 292 1 is_stmt 1
	.cfi_startproc
	.loc 1 293 2
	.loc 1 292 1 is_stmt 0
	addi	sp,sp,-16
	.cfi_def_cfa_offset 16
	sw	s0,8(sp)
	sw	ra,12(sp)
	.cfi_offset 8, -8
	.cfi_offset 1, -4
	addi	s0,sp,16
	.cfi_def_cfa 8, 0
	.loc 1 293 2
	call	vTaskEnterCritical
.LVL122:
	.loc 1 294 5 is_stmt 1
	.loc 1 295 1 is_stmt 0
	lw	ra,12(sp)
	.cfi_restore 1
	lw	s0,8(sp)
	.cfi_restore 8
	.cfi_def_cfa 2, 16
	li	a0,1
	addi	sp,sp,16
	.cfi_def_cfa_offset 0
	jr	ra
	.cfi_endproc
.LFE93:
	.size	irq_lock, .-irq_lock
	.section	.text.irq_unlock,"ax",@progbits
	.align	1
	.globl	irq_unlock
	.type	irq_unlock, @function
irq_unlock:
.LFB94:
	.loc 1 298 1 is_stmt 1
	.cfi_startproc
.LVL123:
	.loc 1 299 2
	.loc 1 298 1 is_stmt 0
	addi	sp,sp,-16
	.cfi_def_cfa_offset 16
	sw	s0,12(sp)
	.cfi_offset 8, -4
	addi	s0,sp,16
	.cfi_def_cfa 8, 0
	.loc 1 300 1
	lw	s0,12(sp)
	.cfi_restore 8
	.cfi_def_cfa 2, 16
	addi	sp,sp,16
	.cfi_def_cfa_offset 0
	.loc 1 299 2
	tail	vTaskExitCritical
.LVL124:
	.cfi_endproc
.LFE94:
	.size	irq_unlock, .-irq_unlock
	.section	.text.k_is_in_isr,"ax",@progbits
	.align	1
	.globl	k_is_in_isr
	.type	k_is_in_isr, @function
k_is_in_isr:
.LFB95:
	.loc 1 303 1 is_stmt 1
	.cfi_startproc
	.loc 1 305 5
	.loc 1 303 1 is_stmt 0
	addi	sp,sp,-16
	.cfi_def_cfa_offset 16
	sw	s0,12(sp)
	.cfi_offset 8, -4
	addi	s0,sp,16
	.cfi_def_cfa 8, 0
	.loc 1 312 1
	lw	s0,12(sp)
	.cfi_restore 8
	.cfi_def_cfa 2, 16
	addi	sp,sp,16
	.cfi_def_cfa_offset 0
	.loc 1 305 13
	tail	xPortIsInsideInterrupt
.LVL125:
	.cfi_endproc
.LFE95:
	.size	k_is_in_isr, .-k_is_in_isr
	.section	.rodata.k_timer_init.str1.4,"aMS",@progbits,1
	.align	2
.LC4:
	.string	"Timer"
	.section	.text.k_timer_init,"ax",@progbits
	.align	1
	.globl	k_timer_init
	.type	k_timer_init, @function
k_timer_init:
.LFB96:
	.loc 1 315 1 is_stmt 1
	.cfi_startproc
.LVL126:
	.loc 1 316 5
	.loc 1 315 1 is_stmt 0
	addi	sp,sp,-32
	.cfi_def_cfa_offset 32
	sw	s0,24(sp)
	sw	s1,20(sp)
	sw	ra,28(sp)
	.cfi_offset 8, -8
	.cfi_offset 9, -12
	.cfi_offset 1, -4
	addi	s0,sp,32
	.cfi_def_cfa 8, 0
	.loc 1 315 1
	mv	s1,a0
	mv	a4,a1
	mv	a3,a2
	.loc 1 316 7
	bne	a0,zero,.L101
	sw	a2,-24(s0)
	sw	a1,-20(s0)
	.loc 1 316 13 is_stmt 1 discriminator 1
	call	user_vAssertCalled
.LVL127:
	lw	a3,-24(s0)
	lw	a4,-20(s0)
.LVL128:
.L101:
	.loc 1 317 5
	.loc 1 320 24 is_stmt 0
	lui	a0,%hi(.LC4)
	.loc 1 317 20
	sw	a4,4(s1)
	.loc 1 318 5 is_stmt 1
	.loc 1 318 17 is_stmt 0
	sw	a3,8(s1)
	.loc 1 320 5 is_stmt 1
	.loc 1 320 24 is_stmt 0
	li	a2,0
	li	a1,1000
	addi	a0,a0,%lo(.LC4)
	call	xTimerCreate
.LVL129:
	.loc 1 320 22
	sw	a0,0(s1)
	.loc 1 321 5 is_stmt 1
	.loc 1 321 7 is_stmt 0
	bne	a0,zero,.L100
	.loc 1 321 13 is_stmt 1 discriminator 1
	.loc 1 322 1 is_stmt 0 discriminator 1
	lw	s0,24(sp)
	.cfi_remember_state
	.cfi_restore 8
	.cfi_def_cfa 2, 32
	lw	ra,28(sp)
	.cfi_restore 1
	lw	s1,20(sp)
	.cfi_restore 9
.LVL130:
	addi	sp,sp,32
	.cfi_def_cfa_offset 0
	.loc 1 321 13 discriminator 1
	tail	user_vAssertCalled
.LVL131:
.L100:
	.cfi_restore_state
	.loc 1 322 1
	lw	ra,28(sp)
	.cfi_restore 1
	lw	s0,24(sp)
	.cfi_restore 8
	.cfi_def_cfa 2, 32
	lw	s1,20(sp)
	.cfi_restore 9
.LVL132:
	addi	sp,sp,32
	.cfi_def_cfa_offset 0
	jr	ra
	.cfi_endproc
.LFE96:
	.size	k_timer_init, .-k_timer_init
	.section	.text.k_timer_get_id,"ax",@progbits
	.align	1
	.globl	k_timer_get_id
	.type	k_timer_get_id, @function
k_timer_get_id:
.LFB97:
	.loc 1 325 1 is_stmt 1
	.cfi_startproc
.LVL133:
	.loc 1 326 2
	.loc 1 325 1 is_stmt 0
	addi	sp,sp,-16
	.cfi_def_cfa_offset 16
	sw	s0,12(sp)
	.cfi_offset 8, -4
	addi	s0,sp,16
	.cfi_def_cfa 8, 0
	.loc 1 327 1
	lw	s0,12(sp)
	.cfi_restore 8
	.cfi_def_cfa 2, 16
	addi	sp,sp,16
	.cfi_def_cfa_offset 0
	.loc 1 326 9
	tail	pvTimerGetTimerID
.LVL134:
	.cfi_endproc
.LFE97:
	.size	k_timer_get_id, .-k_timer_get_id
	.section	.text.k_timer_reset,"ax",@progbits
	.align	1
	.globl	k_timer_reset
	.type	k_timer_reset, @function
k_timer_reset:
.LFB99:
	.loc 1 345 1 is_stmt 1
	.cfi_startproc
.LVL135:
	.loc 1 346 5
	.loc 1 348 5
	.loc 1 349 5
	.loc 1 345 1 is_stmt 0
	addi	sp,sp,-16
	.cfi_def_cfa_offset 16
	sw	s0,8(sp)
	sw	s1,4(sp)
	sw	ra,12(sp)
	.cfi_offset 8, -8
	.cfi_offset 9, -12
	.cfi_offset 1, -4
	addi	s0,sp,16
	.cfi_def_cfa 8, 0
	.loc 1 345 1
	mv	s1,a0
	.loc 1 349 7
	bne	a0,zero,.L107
	.loc 1 349 13 is_stmt 1 discriminator 1
	call	user_vAssertCalled
.LVL136:
.L107:
	.loc 1 351 5
	.loc 1 351 47 is_stmt 0
	lw	s1,0(s1)
.LVL137:
	.loc 1 351 11
	call	xTaskGetTickCount
.LVL138:
	mv	a2,a0
	li	a4,0
	li	a3,0
	li	a1,2
	mv	a0,s1
	call	xTimerGenericCommand
.LVL139:
	.loc 1 352 5 is_stmt 1
	.loc 1 352 7 is_stmt 0
	li	a5,1
	beq	a0,a5,.L106
	.loc 1 352 52 is_stmt 1 discriminator 1
	.loc 1 353 1 is_stmt 0 discriminator 1
	lw	s0,8(sp)
	.cfi_remember_state
	.cfi_restore 8
	.cfi_def_cfa 2, 16
	lw	ra,12(sp)
	.cfi_restore 1
	lw	s1,4(sp)
	.cfi_restore 9
	addi	sp,sp,16
	.cfi_def_cfa_offset 0
	.loc 1 352 52 discriminator 1
	tail	user_vAssertCalled
.LVL140:
.L106:
	.cfi_restore_state
	.loc 1 353 1
	lw	ra,12(sp)
	.cfi_restore 1
	lw	s0,8(sp)
	.cfi_restore 8
	.cfi_def_cfa 2, 16
	lw	s1,4(sp)
	.cfi_restore 9
	addi	sp,sp,16
	.cfi_def_cfa_offset 0
	jr	ra
	.cfi_endproc
.LFE99:
	.size	k_timer_reset, .-k_timer_reset
	.section	.text.k_timer_stop,"ax",@progbits
	.align	1
	.globl	k_timer_stop
	.type	k_timer_stop, @function
k_timer_stop:
.LFB100:
	.loc 1 356 1 is_stmt 1
	.cfi_startproc
.LVL141:
	.loc 1 357 5
	.loc 1 359 5
	.loc 1 360 5
	.loc 1 356 1 is_stmt 0
	addi	sp,sp,-16
	.cfi_def_cfa_offset 16
	sw	s0,8(sp)
	sw	s1,4(sp)
	sw	ra,12(sp)
	.cfi_offset 8, -8
	.cfi_offset 9, -12
	.cfi_offset 1, -4
	addi	s0,sp,16
	.cfi_def_cfa 8, 0
	.loc 1 356 1
	mv	s1,a0
	.loc 1 360 7
	bne	a0,zero,.L111
	.loc 1 360 13 is_stmt 1 discriminator 1
	call	user_vAssertCalled
.LVL142:
.L111:
	.loc 1 362 5
	.loc 1 362 11 is_stmt 0
	lw	a0,0(s1)
	li	a4,0
	li	a3,0
	li	a2,0
	li	a1,3
	call	xTimerGenericCommand
.LVL143:
	.loc 1 363 5 is_stmt 1
	.loc 1 363 7 is_stmt 0
	li	a5,1
	beq	a0,a5,.L110
	.loc 1 363 52 is_stmt 1 discriminator 1
	.loc 1 364 1 is_stmt 0 discriminator 1
	lw	s0,8(sp)
	.cfi_remember_state
	.cfi_restore 8
	.cfi_def_cfa 2, 16
	lw	ra,12(sp)
	.cfi_restore 1
	lw	s1,4(sp)
	.cfi_restore 9
.LVL144:
	addi	sp,sp,16
	.cfi_def_cfa_offset 0
	.loc 1 363 52 discriminator 1
	tail	user_vAssertCalled
.LVL145:
.L110:
	.cfi_restore_state
	.loc 1 364 1
	lw	ra,12(sp)
	.cfi_restore 1
	lw	s0,8(sp)
	.cfi_restore 8
	.cfi_def_cfa 2, 16
	lw	s1,4(sp)
	.cfi_restore 9
.LVL146:
	addi	sp,sp,16
	.cfi_def_cfa_offset 0
	jr	ra
	.cfi_endproc
.LFE100:
	.size	k_timer_stop, .-k_timer_stop
	.section	.text.k_timer_delete,"ax",@progbits
	.align	1
	.globl	k_timer_delete
	.type	k_timer_delete, @function
k_timer_delete:
.LFB101:
	.loc 1 367 1 is_stmt 1
	.cfi_startproc
.LVL147:
	.loc 1 368 5
	.loc 1 369 5
	.loc 1 371 5
	.loc 1 367 1 is_stmt 0
	addi	sp,sp,-16
	.cfi_def_cfa_offset 16
	sw	s0,8(sp)
	sw	s1,4(sp)
	sw	ra,12(sp)
	.cfi_offset 8, -8
	.cfi_offset 9, -12
	.cfi_offset 1, -4
	addi	s0,sp,16
	.cfi_def_cfa 8, 0
	.loc 1 367 1
	mv	s1,a0
	.loc 1 371 7
	bne	a0,zero,.L115
	.loc 1 371 13 is_stmt 1 discriminator 1
	call	user_vAssertCalled
.LVL148:
.L115:
	.loc 1 373 5
	.loc 1 373 11 is_stmt 0
	lw	a0,0(s1)
	li	a4,0
	li	a3,0
	li	a2,0
	li	a1,5
	call	xTimerGenericCommand
.LVL149:
	.loc 1 374 5 is_stmt 1
	.loc 1 374 7 is_stmt 0
	li	a5,1
	beq	a0,a5,.L114
	.loc 1 374 52 is_stmt 1 discriminator 1
	.loc 1 375 1 is_stmt 0 discriminator 1
	lw	s0,8(sp)
	.cfi_remember_state
	.cfi_restore 8
	.cfi_def_cfa 2, 16
	lw	ra,12(sp)
	.cfi_restore 1
	lw	s1,4(sp)
	.cfi_restore 9
.LVL150:
	addi	sp,sp,16
	.cfi_def_cfa_offset 0
	.loc 1 374 52 discriminator 1
	tail	user_vAssertCalled
.LVL151:
.L114:
	.cfi_restore_state
	.loc 1 375 1
	lw	ra,12(sp)
	.cfi_restore 1
	lw	s0,8(sp)
	.cfi_restore 8
	.cfi_def_cfa 2, 16
	lw	s1,4(sp)
	.cfi_restore 9
.LVL152:
	addi	sp,sp,16
	.cfi_def_cfa_offset 0
	jr	ra
	.cfi_endproc
.LFE101:
	.size	k_timer_delete, .-k_timer_delete
	.section	.text.k_now_ms,"ax",@progbits
	.align	1
	.globl	k_now_ms
	.type	k_now_ms, @function
k_now_ms:
.LFB102:
	.loc 1 378 1 is_stmt 1
	.cfi_startproc
	.loc 1 379 5
	.loc 1 378 1 is_stmt 0
	addi	sp,sp,-16
	.cfi_def_cfa_offset 16
	sw	s0,8(sp)
	sw	ra,12(sp)
	.cfi_offset 8, -8
	.cfi_offset 1, -4
	addi	s0,sp,16
	.cfi_def_cfa 8, 0
	.loc 1 379 24
	call	xTaskGetTickCount
.LVL153:
	.loc 1 379 44
	li	a5,1000
	mul	a0,a0,a5
	.loc 1 380 1
	lw	ra,12(sp)
	.cfi_restore 1
	lw	s0,8(sp)
	.cfi_restore 8
	.cfi_def_cfa 2, 16
	li	a1,0
	addi	sp,sp,16
	.cfi_def_cfa_offset 0
	divu	a0,a0,a5
	jr	ra
	.cfi_endproc
.LFE102:
	.size	k_now_ms, .-k_now_ms
	.section	.text.k_uptime_get,"ax",@progbits
	.align	1
	.globl	k_uptime_get
	.type	k_uptime_get, @function
k_uptime_get:
.LFB86:
	.loc 1 237 1 is_stmt 1
	.cfi_startproc
	.loc 1 238 5
	.loc 1 237 1 is_stmt 0
	addi	sp,sp,-16
	.cfi_def_cfa_offset 16
	sw	s0,12(sp)
	.cfi_offset 8, -4
	addi	s0,sp,16
	.cfi_def_cfa 8, 0
	.loc 1 239 1
	lw	s0,12(sp)
	.cfi_restore 8
	.cfi_def_cfa 2, 16
	addi	sp,sp,16
	.cfi_def_cfa_offset 0
	.loc 1 238 12
	tail	k_now_ms
.LVL154:
	.cfi_endproc
.LFE86:
	.size	k_uptime_get, .-k_uptime_get
	.section	.text.k_uptime_get_32,"ax",@progbits
	.align	1
	.globl	k_uptime_get_32
	.type	k_uptime_get_32, @function
k_uptime_get_32:
.LFB87:
	.loc 1 242 1 is_stmt 1
	.cfi_startproc
	.loc 1 243 5
	.loc 1 242 1 is_stmt 0
	addi	sp,sp,-16
	.cfi_def_cfa_offset 16
	sw	s0,8(sp)
	sw	ra,12(sp)
	.cfi_offset 8, -8
	.cfi_offset 1, -4
	addi	s0,sp,16
	.cfi_def_cfa 8, 0
	.loc 1 243 19
	call	k_now_ms
.LVL155:
	.loc 1 244 1
	lw	ra,12(sp)
	.cfi_restore 1
	lw	s0,8(sp)
	.cfi_restore 8
	.cfi_def_cfa 2, 16
	addi	sp,sp,16
	.cfi_def_cfa_offset 0
	jr	ra
	.cfi_endproc
.LFE87:
	.size	k_uptime_get_32, .-k_uptime_get_32
	.section	.text.k_timer_start,"ax",@progbits
	.align	1
	.globl	k_timer_start
	.type	k_timer_start, @function
k_timer_start:
.LFB98:
	.loc 1 330 1 is_stmt 1
	.cfi_startproc
.LVL156:
	.loc 1 331 5
	.loc 1 332 5
	.loc 1 334 5
	.loc 1 330 1 is_stmt 0
	addi	sp,sp,-16
	.cfi_def_cfa_offset 16
	sw	s0,8(sp)
	sw	s1,4(sp)
	sw	s2,0(sp)
	sw	ra,12(sp)
	.cfi_offset 8, -8
	.cfi_offset 9, -12
	.cfi_offset 18, -16
	.cfi_offset 1, -4
	addi	s0,sp,16
	.cfi_def_cfa 8, 0
	.loc 1 330 1
	mv	s1,a0
	mv	s2,a1
	.loc 1 334 7
	bne	a0,zero,.L125
	.loc 1 334 13 is_stmt 1 discriminator 1
	call	user_vAssertCalled
.LVL157:
.L125:
	.loc 1 335 5
	.loc 1 335 20 is_stmt 0
	sw	s2,12(s1)
	.loc 1 336 5 is_stmt 1
	.loc 1 336 23 is_stmt 0
	call	k_now_ms
.LVL158:
	.loc 1 338 127
	li	a2,1000
	mul	s2,s2,a2
.LVL159:
	.loc 1 336 21
	sw	a0,16(s1)
	.loc 1 338 5 is_stmt 1
	.loc 1 338 11 is_stmt 0
	lw	a0,0(s1)
	li	a4,0
	li	a3,0
	li	a1,4
	divu	a2,s2,a2
	call	xTimerGenericCommand
.LVL160:
	.loc 1 339 5 is_stmt 1
	.loc 1 339 7 is_stmt 0
	li	a5,1
	beq	a0,a5,.L126
	.loc 1 339 52 is_stmt 1 discriminator 1
	call	user_vAssertCalled
.LVL161:
.L126:
	.loc 1 340 5
	.loc 1 340 47 is_stmt 0
	lw	s1,0(s1)
.LVL162:
	.loc 1 340 11
	call	xTaskGetTickCount
.LVL163:
	mv	a2,a0
	li	a4,0
	li	a3,0
	li	a1,1
	mv	a0,s1
	call	xTimerGenericCommand
.LVL164:
	.loc 1 341 5 is_stmt 1
	.loc 1 341 7 is_stmt 0
	li	a5,1
	beq	a0,a5,.L124
	.loc 1 341 52 is_stmt 1 discriminator 1
	.loc 1 342 1 is_stmt 0 discriminator 1
	lw	s0,8(sp)
	.cfi_remember_state
	.cfi_restore 8
	.cfi_def_cfa 2, 16
	lw	ra,12(sp)
	.cfi_restore 1
	lw	s1,4(sp)
	.cfi_restore 9
	lw	s2,0(sp)
	.cfi_restore 18
	addi	sp,sp,16
	.cfi_def_cfa_offset 0
	.loc 1 341 52 discriminator 1
	tail	user_vAssertCalled
.LVL165:
.L124:
	.cfi_restore_state
	.loc 1 342 1
	lw	ra,12(sp)
	.cfi_restore 1
	lw	s0,8(sp)
	.cfi_restore 8
	.cfi_def_cfa 2, 16
	lw	s1,4(sp)
	.cfi_restore 9
	lw	s2,0(sp)
	.cfi_restore 18
	addi	sp,sp,16
	.cfi_def_cfa_offset 0
	jr	ra
	.cfi_endproc
.LFE98:
	.size	k_timer_start, .-k_timer_start
	.section	.text.k_get_random_byte_array,"ax",@progbits
	.align	1
	.globl	k_get_random_byte_array
	.type	k_get_random_byte_array, @function
k_get_random_byte_array:
.LFB103:
	.loc 1 383 1 is_stmt 1
	.cfi_startproc
.LVL166:
	.loc 1 385 5
.LBB17:
	.loc 1 385 9
.LBE17:
	.loc 1 383 1 is_stmt 0
	addi	sp,sp,-16
	.cfi_def_cfa_offset 16
	sw	s0,8(sp)
	sw	s1,4(sp)
	sw	s2,0(sp)
	sw	ra,12(sp)
	.cfi_offset 8, -8
	.cfi_offset 9, -12
	.cfi_offset 18, -16
	.cfi_offset 1, -4
	addi	s0,sp,16
	.cfi_def_cfa 8, 0
	mv	s1,a0
	add	s2,a0,a1
.LVL167:
.L130:
.LBB20:
	.loc 1 385 20 is_stmt 1 discriminator 1
	.loc 1 385 5 is_stmt 0 discriminator 1
	bne	s1,s2,.L131
.LBE20:
	.loc 1 389 1
	lw	ra,12(sp)
	.cfi_remember_state
	.cfi_restore 1
	lw	s0,8(sp)
	.cfi_restore 8
	.cfi_def_cfa 2, 16
	lw	s1,4(sp)
	.cfi_restore 9
.LVL168:
	lw	s2,0(sp)
	.cfi_restore 18
	addi	sp,sp,16
	.cfi_def_cfa_offset 0
	jr	ra
.LVL169:
.L131:
	.cfi_restore_state
.LBB21:
	.loc 1 387 9 is_stmt 1
.LBB18:
.LBB19:
	.loc 1 34 5
	.loc 1 34 12 is_stmt 0
	call	bl_rand
.LVL170:
.LBE19:
.LBE18:
	.loc 1 387 22
	sb	a0,0(s1)
	.loc 1 385 29 is_stmt 1
.LVL171:
	addi	s1,s1,1
.LVL172:
	j	.L130
.LBE21:
	.cfi_endproc
.LFE103:
	.size	k_get_random_byte_array, .-k_get_random_byte_array
	.section	.text.k_malloc,"ax",@progbits
	.align	1
	.globl	k_malloc
	.type	k_malloc, @function
k_malloc:
.LFB104:
	.loc 1 392 1
	.cfi_startproc
.LVL173:
	.loc 1 396 5
	.loc 1 392 1 is_stmt 0
	addi	sp,sp,-16
	.cfi_def_cfa_offset 16
	sw	s0,12(sp)
	.cfi_offset 8, -4
	addi	s0,sp,16
	.cfi_def_cfa 8, 0
	.loc 1 398 1
	lw	s0,12(sp)
	.cfi_restore 8
	.cfi_def_cfa 2, 16
	addi	sp,sp,16
	.cfi_def_cfa_offset 0
	.loc 1 396 12
	tail	pvPortMalloc
.LVL174:
	.cfi_endproc
.LFE104:
	.size	k_malloc, .-k_malloc
	.section	.text.k_free,"ax",@progbits
	.align	1
	.globl	k_free
	.type	k_free, @function
k_free:
.LFB105:
	.loc 1 401 1 is_stmt 1
	.cfi_startproc
.LVL175:
	.loc 1 405 5
	.loc 1 401 1 is_stmt 0
	addi	sp,sp,-16
	.cfi_def_cfa_offset 16
	sw	s0,12(sp)
	.cfi_offset 8, -4
	addi	s0,sp,16
	.cfi_def_cfa 8, 0
	.loc 1 407 1
	lw	s0,12(sp)
	.cfi_restore 8
	.cfi_def_cfa 2, 16
	addi	sp,sp,16
	.cfi_def_cfa_offset 0
	.loc 1 405 12
	tail	vPortFree
.LVL176:
	.cfi_endproc
.LFE105:
	.size	k_free, .-k_free
	.section	.rodata.__func__.0,"a"
	.align	2
	.set	.LANCHOR5,. + 0
	.type	__func__.0, @object
	.size	__func__.0, 16
__func__.0:
	.string	"k_thread_delete"
	.section	.rodata.__func__.1,"a"
	.align	2
	.set	.LANCHOR4,. + 0
	.type	__func__.1, @object
	.size	__func__.1, 13
__func__.1:
	.string	"k_mutex_init"
	.section	.rodata.__func__.2,"a"
	.align	2
	.set	.LANCHOR3,. + 0
	.type	__func__.2, @object
	.size	__func__.2, 13
__func__.2:
	.string	"k_sem_delete"
	.section	.rodata.__func__.3,"a"
	.align	2
	.set	.LANCHOR2,. + 0
	.type	__func__.3, @object
	.size	__func__.3, 11
__func__.3:
	.string	"k_sem_give"
	.section	.rodata.__func__.4,"a"
	.align	2
	.set	.LANCHOR1,. + 0
	.type	__func__.4, @object
	.size	__func__.4, 11
__func__.4:
	.string	"k_sem_init"
	.section	.rodata.__func__.5,"a"
	.align	2
	.set	.LANCHOR0,. + 0
	.type	__func__.5, @object
	.size	__func__.5, 13
__func__.5:
	.string	"k_queue_free"
	.text
.Letext0:
	.file 3 "/home/quanghaictu/intern/Ai-Thinker-WB2/toolchain/riscv/Linux/lib/gcc/riscv64-unknown-elf/10.2.0/include/stdint-gcc.h"
	.file 4 "/home/quanghaictu/intern/Ai-Thinker-WB2/toolchain/riscv/Linux/lib/gcc/riscv64-unknown-elf/10.2.0/include/stddef.h"
	.file 5 "/home/quanghaictu/intern/Ai-Thinker-WB2/components/network/ble/blestack/src/common/include/zephyr/types.h"
	.file 6 "/home/quanghaictu/intern/Ai-Thinker-WB2/components/network/ble/blestack/src/common/include/misc/slist.h"
	.file 7 "/home/quanghaictu/intern/Ai-Thinker-WB2/components/network/ble/blestack/src/port/include/bl_port.h"
	.file 8 "/home/quanghaictu/intern/Ai-Thinker-WB2/components/network/ble/blestack/src/common/include/net/buf.h"
	.file 9 "/home/quanghaictu/intern/Ai-Thinker-WB2/components/platform/soc/bl602/freertos_riscv_ram/portable/GCC/RISC-V/portmacro.h"
	.file 10 "/home/quanghaictu/intern/Ai-Thinker-WB2/components/platform/soc/bl602/freertos_riscv_ram/config/task.h"
	.file 11 "/home/quanghaictu/intern/Ai-Thinker-WB2/components/platform/soc/bl602/freertos_riscv_ram/config/queue.h"
	.file 12 "/home/quanghaictu/intern/Ai-Thinker-WB2/components/platform/soc/bl602/freertos_riscv_ram/config/timers.h"
	.file 13 "/home/quanghaictu/intern/Ai-Thinker-WB2/components/platform/soc/bl602/freertos_riscv_ram/config/portable.h"
	.file 14 "/home/quanghaictu/intern/Ai-Thinker-WB2/components/network/ble/blestack/src/common/log.h"
	.file 15 "/home/quanghaictu/intern/Ai-Thinker-WB2/toolchain/riscv/Linux/riscv64-unknown-elf/include/stdio.h"