	.file	"wps_enrollee.c"
	.option nopic
	.attribute arch, "rv32i2p0_m2p0_f2p0_c2p0"
	.attribute unaligned_access, 0
	.attribute stack_align, 16
	.text
.Ltext0:
	.cfi_sections	.debug_frame
	.section	.text.wpabuf_put_be16,"ax",@progbits
	.align	1
	.type	wpabuf_put_be16, @function
wpabuf_put_be16:
.LFB62:
	.file 1 "/home/dinhquangha/intern/Ai-Thinker-WB2/components/security/wpa_supplicant/include/utils/wpabuf.h"
	.loc 1 127 1
	.cfi_startproc
.LVL0:
	.loc 1 128 2
	.loc 1 127 1 is_stmt 0
	addi	sp,sp,-16
	.cfi_def_cfa_offset 16
	sw	s0,8(sp)
	sw	s1,4(sp)
	sw	ra,12(sp)
	.cfi_offset 8, -8
	.cfi_offset 9, -12
	.cfi_offset 1, -4
	addi	s0,sp,16
	.cfi_def_cfa 8, 0
	.loc 1 127 1
	mv	s1,a1
	.loc 1 128 12
	li	a1,2
.LVL1:
	call	wpabuf_put
.LVL2:
	.loc 1 129 2 is_stmt 1
.LBB29:
.LBB30:
	.file 2 "/home/dinhquangha/intern/Ai-Thinker-WB2/components/security/wpa_supplicant/src/utils/common.h"
	.loc 2 132 2
	.loc 2 132 7 is_stmt 0
	srli	a5,s1,8
	sb	a5,0(a0)
	.loc 2 133 2 is_stmt 1
	.loc 2 133 7 is_stmt 0
	sb	s1,1(a0)
.LVL3:
.LBE30:
.LBE29:
	.loc 1 130 1
	lw	ra,12(sp)
	.cfi_restore 1
	lw	s0,8(sp)
	.cfi_restore 8
	.cfi_def_cfa 2, 16
	lw	s1,4(sp)
	.cfi_restore 9
	addi	sp,sp,16
	.cfi_def_cfa_offset 0
	jr	ra
	.cfi_endproc
.LFE62:
	.size	wpabuf_put_be16, .-wpabuf_put_be16
	.section	.text.wps_process_enrollee_nonce,"ax",@progbits
	.align	1
	.type	wps_process_enrollee_nonce, @function
wps_process_enrollee_nonce:
.LFB87:
	.file 3 "/home/dinhquangha/intern/Ai-Thinker-WB2/components/security/wpa_supplicant/src/wps/wps_enrollee.c"
	.loc 3 488 1 is_stmt 1
	.cfi_startproc
.LVL4:
	.loc 3 489 2
	.loc 3 489 5 is_stmt 0
	beq	a1,zero,.L5
	.loc 3 494 2 is_stmt 1
	.loc 3 488 1 is_stmt 0
	addi	sp,sp,-16
	.cfi_def_cfa_offset 16
	sw	s0,8(sp)
	sw	ra,12(sp)
	.cfi_offset 8, -8
	.cfi_offset 1, -4
	addi	s0,sp,16
	.cfi_def_cfa 8, 0
	.loc 3 494 6
	li	a2,16
	addi	a0,a0,54
.LVL5:
	call	memcmp
.LVL6:
	.loc 3 500 1
	lw	ra,12(sp)
	.cfi_restore 1
	lw	s0,8(sp)
	.cfi_restore 8
	.cfi_def_cfa 2, 16
	.loc 3 494 5
	snez	a0,a0
	neg	a0,a0
	.loc 3 500 1
	addi	sp,sp,16
	.cfi_def_cfa_offset 0
	jr	ra
.LVL7:
.L5:
	.loc 3 491 10
	li	a0,-1
.LVL8:
	.loc 3 500 1
	ret
	.cfi_endproc
.LFE87:
	.size	wps_process_enrollee_nonce, .-wps_process_enrollee_nonce
	.section	.text.wpabuf_put_data,"ax",@progbits
	.align	1
	.type	wpabuf_put_data, @function
wpabuf_put_data:
.LFB65:
	.loc 1 146 1 is_stmt 1
	.cfi_startproc
.LVL9:
	.loc 1 147 2
	.loc 1 147 5 is_stmt 0
	beq	a1,zero,.L10
	.loc 1 146 1
	addi	sp,sp,-32
	.cfi_def_cfa_offset 32
	sw	s0,24(sp)
	sw	s1,20(sp)
	.cfi_offset 8, -8
	.cfi_offset 9, -12
	addi	s0,sp,32
	.cfi_def_cfa 8, 0
	sw	ra,28(sp)
	.cfi_offset 1, -4
	mv	s1,a1
.LVL10:
.LBB33:
.LBB34:
	.loc 1 148 3 is_stmt 1
	mv	a1,a2
.LVL11:
	sw	a2,-20(s0)
	call	wpabuf_put
.LVL12:
	lw	a2,-20(s0)
.LBE34:
.LBE33:
	.loc 1 149 1 is_stmt 0
	lw	s0,24(sp)
	.cfi_restore 8
	.cfi_def_cfa 2, 32
.LVL13:
	lw	ra,28(sp)
	.cfi_restore 1
.LBB37:
.LBB35:
	.loc 1 148 3
	mv	a1,s1
.LBE35:
.LBE37:
	.loc 1 149 1
	lw	s1,20(sp)
	.cfi_restore 9
.LVL14:
	addi	sp,sp,32
	.cfi_def_cfa_offset 0
.LBB38:
.LBB36:
	.loc 1 148 3
	tail	memcpy
.LVL15:
.L10:
	ret
.LBE36:
.LBE38:
	.cfi_endproc
.LFE65:
	.size	wpabuf_put_data, .-wpabuf_put_data
	.section	.text.wps_enrollee_get_msg,"ax",@progbits
	.align	1
	.globl	wps_enrollee_get_msg
	.type	wps_enrollee_get_msg, @function
wps_enrollee_get_msg:
.LFB85:
	.loc 3 413 1 is_stmt 1
	.cfi_startproc
.LVL16:
	.loc 3 414 2
	.loc 3 416 2
	.loc 3 413 1 is_stmt 0
	addi	sp,sp,-64
	.cfi_def_cfa_offset 64
	sw	s0,56(sp)
	sw	s2,48(sp)
	sw	s4,40(sp)
	sw	ra,60(sp)
	sw	s1,52(sp)
	sw	s3,44(sp)
	sw	s5,36(sp)
	sw	s6,32(sp)
	.cfi_offset 8, -8
	.cfi_offset 18, -16
	.cfi_offset 20, -24
	.cfi_offset 1, -4
	.cfi_offset 9, -12
	.cfi_offset 19, -20
	.cfi_offset 21, -28
	.cfi_offset 22, -32
	addi	s0,sp,64
	.cfi_def_cfa 8, 0
	lw	a5,12(a0)
	li	a4,12
	.loc 3 413 1
	mv	s2,a0
	mv	s4,a1
	bgtu	a5,a4,.L64
	lui	a4,%hi(.L18)
	slli	a5,a5,2
	addi	a4,a4,%lo(.L18)
	add	a5,a5,a4
	lw	a5,0(a5)
	jr	a5
	.section	.rodata.wps_enrollee_get_msg,"a",@progbits
	.align	2
	.align	2
.L18:
	.word	.L24
	.word	.L64
	.word	.L23
	.word	.L64
	.word	.L22
	.word	.L64
	.word	.L21
	.word	.L64
	.word	.L20
	.word	.L19
	.word	.L64
	.word	.L64
	.word	.L124
	.section	.text.wps_enrollee_get_msg
.L24:
	.loc 3 418 3 is_stmt 1
.LVL17:
.LBB81:
.LBB82:
	.loc 3 115 2
	.loc 3 116 2
	.loc 3 118 2
	.loc 3 118 6 is_stmt 0
	li	a1,16
.LVL18:
	addi	a0,a0,54
.LVL19:
	call	os_get_random
.LVL20:
	.loc 3 118 5
	bge	a0,zero,.L25
.LVL21:
.L120:
.LBE82:
.LBE81:
.LBB91:
.LBB92:
	.loc 3 199 3 is_stmt 1
	.loc 3 199 9 is_stmt 0
	li	s1,0
.L48:
.LVL22:
.LBE92:
.LBE91:
	.loc 3 431 3 is_stmt 1
	.loc 3 431 12 is_stmt 0
	li	a5,4
.L123:
	.loc 3 452 12
	sw	a5,0(s4)
	.loc 3 453 3 is_stmt 1
	j	.L16
.LVL23:
.L25:
.LBB107:
.LBB89:
	.loc 3 120 2
	.loc 3 120 6
	.loc 3 120 13
	.loc 3 123 2
	.loc 3 123 6
	.loc 3 123 13
	.loc 3 124 2
	.loc 3 124 8 is_stmt 0
	li	a0,1000
	call	wpabuf_alloc
.LVL24:
	mv	s1,a0
.LVL25:
	.loc 3 125 2 is_stmt 1
	.loc 3 125 5 is_stmt 0
	beq	a0,zero,.L120
	.loc 3 128 2 is_stmt 1
	.loc 3 128 22 is_stmt 0
	lw	a5,0(s2)
	.loc 3 128 17
	lhu	s3,216(a5)
.LVL26:
	.loc 3 129 2 is_stmt 1
	.loc 3 129 5 is_stmt 0
	lw	a5,0(a5)
	beq	a5,zero,.L28
	.loc 3 129 19
	lw	a5,660(s2)
	bne	a5,zero,.L28
	.loc 3 129 38
	lw	a5,316(s2)
	bne	a5,zero,.L29
	.loc 3 130 34
	andi	a5,s3,8
	beq	a5,zero,.L28
.L29:
	.loc 3 141 3 is_stmt 1
.LVL27:
	.loc 3 143 3
	.loc 3 143 18 is_stmt 0
	andi	s3,s3,-1665
.LVL28:
	slli	s3,s3,16
	srli	s3,s3,16
.LVL29:
.L28:
	.loc 3 148 2 is_stmt 1
	.loc 3 148 6 is_stmt 0
	mv	a0,s1
	call	wps_build_version
.LVL30:
	.loc 3 148 5
	beq	a0,zero,.L30
.LVL31:
.L37:
.LBE89:
.LBE107:
.LBB108:
.LBB105:
	.loc 3 198 3 is_stmt 1
	mv	a0,s1
	call	wpabuf_free
.LVL32:
	j	.L120
.LVL33:
.L30:
.LBE105:
.LBE108:
.LBB109:
.LBB90:
	.loc 3 149 6 is_stmt 0
	li	a1,4
	mv	a0,s1
	call	wps_build_msg_type
.LVL34:
	.loc 3 148 29
	bne	a0,zero,.L37
	.loc 3 150 6
	addi	a1,s2,16
	mv	a0,s1
	call	wps_build_uuid_e
.LVL35:
	.loc 3 149 38
	bne	a0,zero,.L37
.LVL36:
.LBB83:
.LBB84:
	.loc 3 20 2 is_stmt 1
	.loc 3 20 6
	.loc 3 20 13
	.loc 3 21 2
	li	a1,4096
	addi	a1,a1,32
	mv	a0,s1
	call	wpabuf_put_be16
.LVL37:
	.loc 3 22 2
	li	a1,6
	mv	a0,s1
	call	wpabuf_put_be16
.LVL38:
	.loc 3 23 2
	addi	a1,s2,48
	mv	a0,s1
	li	a2,6
	call	wpabuf_put_data
.LVL39:
	.loc 3 24 2
.LBE84:
.LBE83:
	.loc 3 152 6 is_stmt 0
	mv	a1,s1
	mv	a0,s2
	call	wps_build_enrollee_nonce
.LVL40:
	.loc 3 151 35
	bne	a0,zero,.L37
	.loc 3 153 6
	li	a2,1
	mv	a1,s1
	mv	a0,s2
	call	wps_build_public_key
.LVL41:
	.loc 3 152 41
	bne	a0,zero,.L37
	.loc 3 154 6
	mv	a1,s1
	mv	a0,s2
	call	wps_build_auth_type_flags
.LVL42:
	.loc 3 153 59
	bne	a0,zero,.L37
	.loc 3 155 6
	mv	a1,s1
	mv	a0,s2
	call	wps_build_encr_type_flags
.LVL43:
	.loc 3 154 42
	bne	a0,zero,.L37
	.loc 3 156 6
	mv	a1,s1
	mv	a0,s2
	call	wps_build_conn_type_flags
.LVL44:
	.loc 3 155 42
	bne	a0,zero,.L37
	.loc 3 157 6
	mv	a1,s3
	mv	a0,s1
	call	wps_build_config_methods
.LVL45:
	.loc 3 156 42
	bne	a0,zero,.L37
	lw	a5,0(s2)
.LVL46:
.LBB85:
.LBB86:
	.loc 3 30 2 is_stmt 1
	.loc 3 31 2
	.loc 3 34 9 is_stmt 0
	li	s3,1
.LVL47:
	.loc 3 31 5
	lw	a4,0(a5)
	beq	a4,zero,.L32
	.loc 3 32 3 is_stmt 1
	.loc 3 32 9 is_stmt 0
	lbu	s3,8(a5)
.LVL48:
.L32:
	.loc 3 35 2 is_stmt 1
	.loc 3 35 6
	.loc 3 35 13
	.loc 3 37 2
	li	a1,4096
	addi	a1,a1,68
	mv	a0,s1
	call	wpabuf_put_be16
.LVL49:
	.loc 3 38 2
	li	a1,1
	mv	a0,s1
	call	wpabuf_put_be16
.LVL50:
	.loc 3 39 2
.LBB87:
.LBB88:
	.loc 1 110 2
	.loc 1 110 12 is_stmt 0
	li	a1,1
	mv	a0,s1
	call	wpabuf_put
.LVL51:
	.loc 1 111 2 is_stmt 1
	.loc 1 111 7 is_stmt 0
	sb	s3,0(a0)
.LVL52:
.LBE88:
.LBE87:
	.loc 3 40 2 is_stmt 1
.LBE86:
.LBE85:
	.loc 3 159 6 is_stmt 0
	lw	a0,0(s2)
	mv	a1,s1
	addi	a0,a0,68
	call	wps_build_device_attrs
.LVL53:
	.loc 3 158 36
	bne	a0,zero,.L37
	.loc 3 160 6
	lw	a0,0(s2)
	mv	a1,s1
	addi	a0,a0,68
	call	wps_build_rf_bands
.LVL54:
	.loc 3 159 50
	bne	a0,zero,.L37
	.loc 3 161 6
	mv	a1,s1
	mv	a0,s2
	call	wps_build_assoc_state
.LVL55:
	.loc 3 160 46
	bne	a0,zero,.L37
	.loc 3 162 6
	lhu	a1,320(s2)
	mv	a0,s1
	call	wps_build_dev_password_id
.LVL56:
	.loc 3 161 38
	bne	a0,zero,.L37
	.loc 3 163 6
	li	a1,0
	mv	a0,s1
	call	wps_build_config_error
.LVL57:
	.loc 3 162 53
	bne	a0,zero,.L37
	.loc 3 164 6
	lw	a0,0(s2)
	mv	a1,s1
	addi	a0,a0,68
	call	wps_build_os_version
.LVL58:
	.loc 3 163 52
	bne	a0,zero,.L37
	.loc 3 165 6
	li	a3,0
	li	a2,0
	li	a1,0
	mv	a0,s1
	call	wps_build_wfa_ext
.LVL59:
	.loc 3 164 48
	bne	a0,zero,.L37
	.loc 3 166 6
	lw	a0,0(s2)
	mv	a1,s1
	addi	a0,a0,68
	call	wps_build_vendor_ext_m1
.LVL60:
	.loc 3 171 13
	li	a5,1
	.loc 3 165 40
	bne	a0,zero,.L37
.LVL61:
.L125:
.LBE90:
.LBE109:
.LBB110:
.LBB111:
	.loc 3 377 13
	sw	a5,12(s2)
	.loc 3 378 2 is_stmt 1
	.loc 3 378 9 is_stmt 0
	j	.L48
.LVL62:
.L23:
.LBE111:
.LBE110:
	.loc 3 422 3 is_stmt 1
.LBB135:
.LBB106:
	.loc 3 178 2
	.loc 3 180 2
	.loc 3 180 6
	.loc 3 180 13
	.loc 3 182 2
	.loc 3 182 9 is_stmt 0
	lw	a1,312(a0)
.LVL63:
	.loc 3 182 5
	beq	a1,zero,.L120
	.loc 3 186 2 is_stmt 1
	lw	a2,316(a0)
	call	wps_derive_psk
.LVL64:
	.loc 3 188 2
	.loc 3 188 8 is_stmt 0
	li	a0,1000
	call	wpabuf_alloc
.LVL65:
	mv	s1,a0
.LVL66:
	.loc 3 189 2 is_stmt 1
	.loc 3 189 5 is_stmt 0
	beq	a0,zero,.L120
	.loc 3 192 2 is_stmt 1
	.loc 3 192 6 is_stmt 0
	call	wps_build_version
.LVL67:
	.loc 3 192 5
	bne	a0,zero,.L37
	.loc 3 193 6
	li	a1,7
	mv	a0,s1
	call	wps_build_msg_type
.LVL68:
	.loc 3 192 29
	bne	a0,zero,.L37
	.loc 3 194 6
	mv	a1,s1
	mv	a0,s2
	call	wps_build_registrar_nonce
.LVL69:
	.loc 3 193 38
	bne	a0,zero,.L37
.LVL70:
.LBB93:
.LBB94:
	.loc 3 46 2 is_stmt 1
	.loc 3 47 2
	.loc 3 48 2
	.loc 3 50 2
	.loc 3 50 24 is_stmt 0
	addi	s3,s2,118
	.loc 3 50 6
	li	a1,32
	mv	a0,s3
	call	os_get_random
.LVL71:
	.loc 3 50 5
	blt	a0,zero,.L37
	.loc 3 52 2 is_stmt 1
	.loc 3 52 6
	.loc 3 52 13
	.loc 3 53 2
	.loc 3 53 6
	.loc 3 53 13
	.loc 3 56 2
	.loc 3 56 5 is_stmt 0
	lw	a5,220(s2)
	beq	a5,zero,.L37
	.loc 3 56 30
	lw	a5,224(s2)
	beq	a5,zero,.L37
	.loc 3 62 2 is_stmt 1
	.loc 3 62 6
	.loc 3 62 13
	.loc 3 63 2
	li	a1,4096
	addi	a1,a1,20
	mv	a0,s1
	call	wpabuf_put_be16
.LVL72:
	.loc 3 64 2
	li	a1,32
	mv	a0,s1
	call	wpabuf_put_be16
.LVL73:
	.loc 3 65 2
	.loc 3 65 9 is_stmt 0
	li	a1,32
	mv	a0,s1
	call	wpabuf_put
.LVL74:
	.loc 3 68 9
	li	a4,16
	sw	a4,-48(s0)
	.loc 3 70 9
	sw	a4,-44(s0)
	.loc 3 71 27
	lw	a4,220(s2)
	.loc 3 69 12
	addi	a3,s2,86
	.loc 3 69 10
	sw	a3,-60(s0)
.LBB95:
.LBB96:
	.loc 1 81 9
	lw	a3,8(a4)
.LBE96:
.LBE95:
	.loc 3 67 10
	sw	s3,-64(s0)
	.loc 3 65 9
	mv	a5,a0
.LVL75:
	.loc 3 67 2 is_stmt 1
	.loc 3 68 2
	.loc 3 69 2
	.loc 3 70 2
	.loc 3 71 2
.LBB98:
.LBB97:
	.loc 1 81 2
	.loc 1 81 5 is_stmt 0
	bne	a3,zero,.L41
	.loc 1 83 2 is_stmt 1
	.loc 1 83 13 is_stmt 0
	addi	a3,a4,12
.L41:
.LVL76:
.LBE97:
.LBE98:
	.loc 3 71 10
	sw	a3,-56(s0)
	.loc 3 72 2 is_stmt 1
.LVL77:
.LBB99:
.LBB100:
	.loc 1 61 2
	.loc 1 61 12 is_stmt 0
	lw	a4,4(a4)
.LVL78:
.LBE100:
.LBE99:
	.loc 3 72 9
	sw	a4,-40(s0)
	.loc 3 73 2 is_stmt 1
	.loc 3 73 27 is_stmt 0
	lw	a4,224(s2)
.LVL79:
.LBB101:
.LBB102:
	.loc 1 81 2 is_stmt 1
	.loc 1 81 9 is_stmt 0
	lw	a3,8(a4)
	.loc 1 81 5
	bne	a3,zero,.L42
	.loc 1 83 2 is_stmt 1
	.loc 1 83 13 is_stmt 0
	addi	a3,a4,12
.L42:
.LVL80:
.LBE102:
.LBE101:
	.loc 3 73 10
	sw	a3,-52(s0)
	.loc 3 74 2 is_stmt 1
.LVL81:
.LBB103:
.LBB104:
	.loc 1 61 2
	.loc 1 61 12 is_stmt 0
	lw	a4,4(a4)
.LVL82:
.LBE104:
.LBE103:
	.loc 3 75 24
	addi	s3,s2,228
	.loc 3 75 2
	addi	a3,s0,-64
	li	a2,4
	.loc 3 74 9
	sw	a4,-36(s0)
	.loc 3 75 2 is_stmt 1
	li	a1,32
	addi	a4,s0,-48
	mv	a0,s3
.LVL83:
	call	hmac_sha256_vector
.LVL84:
	.loc 3 76 2
	.loc 3 76 6
	.loc 3 76 13
	.loc 3 78 2
	.loc 3 78 6
	.loc 3 78 13
	.loc 3 79 2
	li	a1,4096
	addi	a1,a1,21
	mv	a0,s1
	call	wpabuf_put_be16
.LVL85:
	.loc 3 80 2
	li	a1,32
	mv	a0,s1
	call	wpabuf_put_be16
.LVL86:
	.loc 3 81 2
	.loc 3 81 9 is_stmt 0
	li	a1,32
	mv	a0,s1
	call	wpabuf_put
.LVL87:
	.loc 3 83 24
	addi	a4,s2,134
	.loc 3 83 10
	sw	a4,-64(s0)
	.loc 3 84 12
	addi	a4,s2,102
	.loc 3 81 9
	mv	a5,a0
.LVL88:
	.loc 3 83 2 is_stmt 1
	.loc 3 84 2
	.loc 3 84 10 is_stmt 0
	sw	a4,-60(s0)
	.loc 3 85 2 is_stmt 1
	addi	a3,s0,-64
	li	a2,4
	li	a1,32
	addi	a4,s0,-48
	mv	a0,s3
.LVL89:
	call	hmac_sha256_vector
.LVL90:
	.loc 3 86 2
	.loc 3 86 6
	.loc 3 86 13
	.loc 3 88 2
.LBE94:
.LBE93:
	.loc 3 196 6 is_stmt 0
	li	a3,0
	li	a2,0
	li	a1,0
	mv	a0,s1
	call	wps_build_wfa_ext
.LVL91:
	.loc 3 195 33
	bne	a0,zero,.L37
	.loc 3 197 6
	mv	a1,s1
	mv	a0,s2
	call	wps_build_authenticator
.LVL92:
	.loc 3 202 13
	li	a5,3
	.loc 3 196 40
	beq	a0,zero,.L125
	j	.L37
.LVL93:
.L22:
.LBE106:
.LBE135:
	.loc 3 426 3 is_stmt 1
.LBB136:
.LBB137:
	.loc 3 209 2
	.loc 3 211 2
	.loc 3 211 6
	.loc 3 211 13
	.loc 3 213 2
	.loc 3 213 10 is_stmt 0
	li	a0,200
.LVL94:
	call	wpabuf_alloc
.LVL95:
	mv	s3,a0
.LVL96:
	.loc 3 214 2 is_stmt 1
	.loc 3 215 9 is_stmt 0
	li	s1,0
	.loc 3 214 5
	beq	a0,zero,.L48
	.loc 3 217 2 is_stmt 1
	.loc 3 217 8 is_stmt 0
	li	a0,1000
.LVL97:
	call	wpabuf_alloc
.LVL98:
	mv	s1,a0
.LVL99:
	.loc 3 218 2 is_stmt 1
	.loc 3 218 5 is_stmt 0
	bne	a0,zero,.L45
.LVL100:
.L126:
.LBE137:
.LBE136:
.LBB142:
.LBB132:
	.loc 3 348 3 is_stmt 1
	mv	a0,s3
	call	wpabuf_free
.LVL101:
	.loc 3 349 3
	.loc 3 349 9 is_stmt 0
	j	.L48
.LVL102:
.L45:
.LBE132:
.LBE142:
.LBB143:
.LBB140:
	.loc 3 223 2 is_stmt 1
	.loc 3 223 6 is_stmt 0
	call	wps_build_version
.LVL103:
	.loc 3 223 5
	beq	a0,zero,.L46
.LVL104:
.L51:
.LBE140:
.LBE143:
.LBB144:
.LBB133:
	.loc 3 361 3 is_stmt 1
	mv	a0,s3
	call	wpabuf_free
.LVL105:
	.loc 3 362 3
	j	.L37
.LVL106:
.L46:
.LBE133:
.LBE144:
.LBB145:
.LBB141:
	.loc 3 224 6 is_stmt 0
	li	a1,9
	mv	a0,s1
	call	wps_build_msg_type
.LVL107:
	.loc 3 223 29
	bne	a0,zero,.L51
	.loc 3 225 6
	mv	a1,s1
	mv	a0,s2
	call	wps_build_registrar_nonce
.LVL108:
	.loc 3 224 38
	bne	a0,zero,.L51
.LVL109:
.LBB138:
.LBB139:
	.loc 3 94 2 is_stmt 1
	.loc 3 94 6
	.loc 3 94 13
	.loc 3 95 2
	li	a1,4096
	addi	a1,a1,22
	mv	a0,s3
	call	wpabuf_put_be16
.LVL110:
	.loc 3 96 2
	li	a1,16
	mv	a0,s3
	call	wpabuf_put_be16
.LVL111:
	.loc 3 97 2
	addi	a1,s2,118
	mv	a0,s3
	li	a2,16
	call	wpabuf_put_data
.LVL112:
	.loc 3 98 2
.LBE139:
.LBE138:
	.loc 3 227 6 is_stmt 0
	mv	a1,s3
	mv	a0,s2
	call	wps_build_key_wrap_auth
.LVL113:
	.loc 3 226 38
	bne	a0,zero,.L51
	.loc 3 228 6
	mv	a2,s3
	mv	a1,s1
	mv	a0,s2
	call	wps_build_encr_settings
.LVL114:
	.loc 3 227 42
	bne	a0,zero,.L51
	.loc 3 229 6
	li	a3,0
	li	a2,0
	li	a1,0
	mv	a0,s1
	call	wps_build_wfa_ext
.LVL115:
	.loc 3 228 47
	bne	a0,zero,.L51
	.loc 3 230 6
	mv	a1,s1
	mv	a0,s2
	call	wps_build_authenticator
.LVL116:
	.loc 3 229 40
	bne	a0,zero,.L51
	.loc 3 235 2 is_stmt 1
	mv	a0,s3
	call	wpabuf_free
.LVL117:
	.loc 3 237 2
	.loc 3 237 13 is_stmt 0
	li	a5,5
	j	.L125
.LVL118:
.L21:
.LBE141:
.LBE145:
	.loc 3 430 3 is_stmt 1
.LBB146:
.LBB134:
	.loc 3 338 2
	.loc 3 340 2
	.loc 3 340 6
	.loc 3 340 13
	.loc 3 342 2
	.loc 3 342 37 is_stmt 0
	lw	a5,0(a0)
	.loc 3 344 9
	li	s1,0
	.loc 3 342 10
	lw	a0,272(a5)
.LVL119:
	addi	a0,a0,500
	call	wpabuf_alloc
.LVL120:
	mv	s3,a0
.LVL121:
	.loc 3 343 2 is_stmt 1
	.loc 3 343 5 is_stmt 0
	beq	a0,zero,.L48
	.loc 3 346 2 is_stmt 1
	.loc 3 346 36 is_stmt 0
	lw	a5,0(s2)
	.loc 3 346 8
	lw	a0,272(a5)
.LVL122:
	addi	a0,a0,1000
	call	wpabuf_alloc
.LVL123:
	mv	s1,a0
.LVL124:
	.loc 3 347 2 is_stmt 1
	.loc 3 347 5 is_stmt 0
	beq	a0,zero,.L126
	.loc 3 352 2 is_stmt 1
	.loc 3 352 6 is_stmt 0
	call	wps_build_version
.LVL125:
	.loc 3 352 5
	bne	a0,zero,.L51
	.loc 3 353 6
	li	a1,11
	mv	a0,s1
	call	wps_build_msg_type
.LVL126:
	.loc 3 352 29
	bne	a0,zero,.L51
	.loc 3 354 6
	mv	a1,s1
	mv	a0,s2
	call	wps_build_registrar_nonce
.LVL127:
	.loc 3 353 38
	bne	a0,zero,.L51
.LVL128:
.LBB112:
.LBB113:
	.loc 3 104 2 is_stmt 1
	.loc 3 104 6
	.loc 3 104 13
	.loc 3 105 2
	li	s5,4096
	addi	a1,s5,23
	mv	a0,s3
	call	wpabuf_put_be16
.LVL129:
	.loc 3 106 2
	li	a1,16
	mv	a0,s3
	call	wpabuf_put_be16
.LVL130:
	.loc 3 107 2
	li	a2,16
	addi	a1,s2,134
	mv	a0,s3
	call	wpabuf_put_data
.LVL131:
	.loc 3 109 2
.LBE113:
.LBE112:
	.loc 3 356 10 is_stmt 0
	lw	a5,0(s2)
	.loc 3 355 38
	lw	a4,0(a5)
	beq	a4,zero,.L52
.LVL132:
.LBB114:
.LBB115:
	.loc 3 321 2 is_stmt 1
	.loc 3 321 14 is_stmt 0
	lw	a1,268(a5)
	.loc 3 321 5
	beq	a1,zero,.L53
	.loc 3 322 3 is_stmt 1
	.loc 3 322 7
	.loc 3 322 14
	.loc 3 323 3
	lw	a2,272(a5)
.L121:
.LBB116:
.LBB117:
	.loc 3 304 2 is_stmt 0
	mv	a0,s3
	call	wpabuf_put_data
.LVL133:
	.loc 3 305 2 is_stmt 1
.L52:
.LBE117:
.LBE116:
.LBE115:
.LBE114:
	.loc 3 357 6 is_stmt 0
	mv	a1,s3
	mv	a0,s2
	call	wps_build_key_wrap_auth
.LVL134:
	.loc 3 356 58
	bne	a0,zero,.L51
	.loc 3 358 6
	mv	a2,s3
	mv	a1,s1
	mv	a0,s2
	call	wps_build_encr_settings
.LVL135:
	.loc 3 357 42
	bne	a0,zero,.L51
	.loc 3 359 6
	li	a3,0
	li	a2,0
	li	a1,0
	mv	a0,s1
	call	wps_build_wfa_ext
.LVL136:
	.loc 3 358 47
	bne	a0,zero,.L51
	.loc 3 360 6
	mv	a1,s1
	mv	a0,s2
	call	wps_build_authenticator
.LVL137:
	.loc 3 359 40
	bne	a0,zero,.L51
	.loc 3 365 2 is_stmt 1
	mv	a0,s3
	call	wpabuf_free
.LVL138:
	.loc 3 367 2
	.loc 3 367 9 is_stmt 0
	lw	a5,0(s2)
	.loc 3 367 5
	lw	a4,0(a5)
	beq	a4,zero,.L57
	.loc 3 367 30
	lw	a0,4(a5)
	.loc 3 367 19
	beq	a0,zero,.L57
	.loc 3 373 3 is_stmt 1
	addi	a2,s2,32
	addi	a1,s2,480
	call	wps_device_store
.LVL139:
.L57:
	.loc 3 377 2
	.loc 3 377 13 is_stmt 0
	li	a5,7
	j	.L125
.LVL140:
.L53:
.LBB131:
.LBB130:
	.loc 3 328 2 is_stmt 1
.LBB119:
.LBB120:
	.loc 3 244 2
	.loc 3 244 6
	.loc 3 244 13
	.loc 3 245 2
	addi	a1,s5,69
	mv	a0,s3
	call	wpabuf_put_be16
.LVL141:
	.loc 3 246 2
	.loc 3 246 31 is_stmt 0
	lw	a5,0(s2)
	.loc 3 246 2
	mv	a0,s3
	lhu	a1,64(a5)
	call	wpabuf_put_be16
.LVL142:
	.loc 3 247 2 is_stmt 1
	.loc 3 247 26 is_stmt 0
	lw	a1,0(s2)
	.loc 3 247 2
	mv	a0,s3
	lw	a2,64(a1)
	addi	a1,a1,32
	call	wpabuf_put_data
.LVL143:
	.loc 3 248 2 is_stmt 1
.LBE120:
.LBE119:
.LBB121:
.LBB122:
	.loc 3 311 2
	.loc 3 311 6
	.loc 3 311 13
	.loc 3 312 2
	addi	a1,s5,32
	mv	a0,s3
	call	wpabuf_put_be16
.LVL144:
	.loc 3 313 2
	li	a1,6
	mv	a0,s3
	call	wpabuf_put_be16
.LVL145:
	.loc 3 314 2
	.loc 3 314 36 is_stmt 0
	lw	a1,0(s2)
	.loc 3 314 2
	li	a2,6
	mv	a0,s3
	addi	a1,a1,68
	call	wpabuf_put_data
.LVL146:
	.loc 3 315 2 is_stmt 1
.LBE122:
.LBE121:
.LBB123:
.LBB124:
	.loc 3 254 2
	.loc 3 254 6 is_stmt 0
	lw	a5,0(s2)
	.loc 3 258 13
	li	s5,32
	.loc 3 254 6
	lhu	a5,220(a5)
.LVL147:
	.loc 3 257 2 is_stmt 1
	.loc 3 257 5 is_stmt 0
	andi	a4,a5,32
	bne	a4,zero,.L54
	.loc 3 259 7 is_stmt 1
	.loc 3 259 10 is_stmt 0
	andi	a4,a5,2
	.loc 3 260 13
	li	s5,2
	.loc 3 259 10
	bne	a4,zero,.L54
	.loc 3 261 7 is_stmt 1
	andi	s5,a5,1
	.loc 3 261 10 is_stmt 0
	bne	s5,zero,.L54
	.loc 3 263 7 is_stmt 1
	.loc 3 263 10 is_stmt 0
	andi	a4,a5,4
	mv	s5,a5
	beq	a4,zero,.L54
	.loc 3 264 13
	li	s5,4
.L54:
.LVL148:
	.loc 3 266 2 is_stmt 1
	.loc 3 266 6
	.loc 3 266 13
	.loc 3 267 2
	li	a1,4096
	addi	a1,a1,3
	mv	a0,s3
	call	wpabuf_put_be16
.LVL149:
	.loc 3 268 2
	li	a1,2
	mv	a0,s3
	call	wpabuf_put_be16
.LVL150:
	.loc 3 269 2
	mv	a1,s5
	mv	a0,s3
	call	wpabuf_put_be16
.LVL151:
	.loc 3 270 2
	lw	a5,0(s2)
.LVL152:
.LBE124:
.LBE123:
.LBB125:
.LBB126:
	.loc 3 276 2
	.loc 3 276 6 is_stmt 0
	lhu	s5,218(a5)
.LVL153:
	.loc 3 279 2 is_stmt 1
	.loc 3 279 5 is_stmt 0
	lhu	a5,220(a5)
	andi	a5,a5,34
	beq	a5,zero,.L55
	.loc 3 280 3 is_stmt 1
	.loc 3 280 6 is_stmt 0
	andi	a5,s5,8
	bne	a5,zero,.L71
	.loc 3 282 8 is_stmt 1
	.loc 3 282 11 is_stmt 0
	andi	a5,s5,4
	beq	a5,zero,.L56
	.loc 3 283 14
	li	s5,4
.LVL154:
.L56:
	.loc 3 291 2 is_stmt 1
	.loc 3 291 6
	.loc 3 291 13
	.loc 3 292 2
	li	s6,4096
	addi	a1,s6,15
	mv	a0,s3
	call	wpabuf_put_be16
.LVL155:
	.loc 3 293 2
	li	a1,2
	mv	a0,s3
	call	wpabuf_put_be16
.LVL156:
	.loc 3 294 2
	mv	a1,s5
	mv	a0,s3
	call	wpabuf_put_be16
.LVL157:
	.loc 3 295 2
.LBE126:
.LBE125:
.LBB128:
.LBB118:
	.loc 3 301 2
	.loc 3 301 6
	.loc 3 301 13
	.loc 3 302 2
	addi	a1,s6,39
	mv	a0,s3
	call	wpabuf_put_be16
.LVL158:
	.loc 3 303 2
	.loc 3 303 31 is_stmt 0
	lw	a5,0(s2)
	.loc 3 303 2
	mv	a0,s3
	lhu	a1,228(a5)
	call	wpabuf_put_be16
.LVL159:
	.loc 3 304 2 is_stmt 1
	.loc 3 304 26 is_stmt 0
	lw	a5,0(s2)
	.loc 3 304 2
	lw	a2,228(a5)
	lw	a1,224(a5)
	j	.L121
.LVL160:
.L55:
.LBE118:
.LBE128:
.LBB129:
.LBB127:
	.loc 3 285 3 is_stmt 1
	.loc 3 285 6 is_stmt 0
	andi	a5,s5,2
	bne	a5,zero,.L72
	.loc 3 287 8 is_stmt 1
	andi	a5,s5,1
	.loc 3 287 11 is_stmt 0
	beq	a5,zero,.L56
	.loc 3 288 14
	mv	s5,a5
.LVL161:
	j	.L56
.LVL162:
.L71:
	.loc 3 281 14
	li	s5,8
.LVL163:
	j	.L56
.LVL164:
.L72:
	.loc 3 286 14
	li	s5,2
.LVL165:
	j	.L56
.LVL166:
.L20:
.LBE127:
.LBE129:
.LBE130:
.LBE131:
.LBE134:
.LBE146:
	.loc 3 434 3 is_stmt 1
	.loc 3 434 15 is_stmt 0
	lw	a5,0(a0)
	.loc 3 434 6
	lw	a5,0(a5)
	beq	a5,zero,.L58
.L124:
	.loc 3 447 9
	call	wps_build_wsc_nack
.LVL167:
	mv	s1,a0
.LVL168:
	.loc 3 448 3 is_stmt 1
	.loc 3 448 12 is_stmt 0
	li	a5,3
	j	.L123
.LVL169:
.L58:
	.loc 3 439 3 is_stmt 1
	.loc 3 439 9 is_stmt 0
	call	wps_build_wsc_ack
.LVL170:
	.loc 3 440 12
	li	a5,2
	sw	a5,0(s4)
	.loc 3 439 9
	mv	s1,a0
.LVL171:
	.loc 3 440 3 is_stmt 1
	.loc 3 441 3
	.loc 3 441 6 is_stmt 0
	beq	a0,zero,.L16
	.loc 3 443 4 is_stmt 1
	.loc 3 443 15 is_stmt 0
	li	a5,1
	sw	a5,12(s2)
.LVL172:
.L16:
	.loc 3 461 2 is_stmt 1
	.loc 3 461 5 is_stmt 0
	lw	a4,0(s4)
	li	a5,4
	bne	a4,a5,.L15
	.loc 3 461 26 discriminator 1
	beq	s1,zero,.L15
	.loc 3 464 3 is_stmt 1
	lw	a0,308(s2)
	call	wpabuf_free
.LVL173:
	.loc 3 465 3
	.loc 3 465 19 is_stmt 0
	mv	a0,s1
	call	wpabuf_dup
.LVL174:
	.loc 3 465 17
	sw	a0,308(s2)
.LVL175:
	.loc 3 468 2 is_stmt 1
.L15:
	.loc 3 469 1 is_stmt 0
	lw	ra,60(sp)
	.cfi_remember_state
	.cfi_restore 1
	lw	s0,56(sp)
	.cfi_restore 8
	.cfi_def_cfa 2, 64
	lw	s2,48(sp)
	.cfi_restore 18
.LVL176:
	lw	s3,44(sp)
	.cfi_restore 19
	lw	s4,40(sp)
	.cfi_restore 20
.LVL177:
	lw	s5,36(sp)
	.cfi_restore 21
	lw	s6,32(sp)
	.cfi_restore 22
	mv	a0,s1
	lw	s1,52(sp)
	.cfi_restore 9
	addi	sp,sp,64
	.cfi_def_cfa_offset 0
	jr	ra
.LVL178:
.L19:
	.cfi_restore_state
	.loc 3 451 3 is_stmt 1
.LBB147:
.LBB148:
	.loc 3 384 2
	.loc 3 386 2
	.loc 3 386 6
	.loc 3 386 13
	.loc 3 388 2
	.loc 3 388 8 is_stmt 0
	li	a0,1000
.LVL179:
	call	wpabuf_alloc
.LVL180:
	mv	s1,a0
.LVL181:
	.loc 3 389 2 is_stmt 1
	.loc 3 389 5 is_stmt 0
	beq	a0,zero,.L59
	.loc 3 392 2 is_stmt 1
	.loc 3 392 6 is_stmt 0
	call	wps_build_version
.LVL182:
	.loc 3 392 5
	beq	a0,zero,.L60
.L61:
	.loc 3 397 3 is_stmt 1
	mv	a0,s1
	call	wpabuf_free
.LVL183:
	.loc 3 398 3
	.loc 3 398 9 is_stmt 0
	li	s1,0
.LVL184:
.L59:
.LBE148:
.LBE147:
	.loc 3 452 3 is_stmt 1
	.loc 3 452 12 is_stmt 0
	li	a5,5
	j	.L123
.LVL185:
.L60:
.LBB150:
.LBB149:
	.loc 3 393 6
	li	a1,15
	mv	a0,s1
	call	wps_build_msg_type
.LVL186:
	.loc 3 392 29
	bne	a0,zero,.L61
	.loc 3 394 6
	mv	a1,s1
	mv	a0,s2
	call	wps_build_enrollee_nonce
.LVL187:
	.loc 3 393 44
	bne	a0,zero,.L61
	.loc 3 395 6
	mv	a1,s1
	mv	a0,s2
	call	wps_build_registrar_nonce
.LVL188:
	.loc 3 394 41
	bne	a0,zero,.L61
	.loc 3 396 6
	li	a3,0
	li	a2,0
	li	a1,0
	mv	a0,s1
	call	wps_build_wfa_ext
.LVL189:
	.loc 3 395 42
	bne	a0,zero,.L61
	.loc 3 401 2 is_stmt 1
	.loc 3 401 9 is_stmt 0
	lw	a0,0(s2)
	.loc 3 401 5
	lw	a5,0(a0)
	beq	a5,zero,.L62
	.loc 3 402 3 is_stmt 1
	.loc 3 402 14 is_stmt 0
	li	a5,10
.L122:
	.loc 3 405 14
	sw	a5,12(s2)
	j	.L59
.L62:
	.loc 3 404 3 is_stmt 1
	call	wps_success_event
.LVL190:
	.loc 3 405 3
	.loc 3 405 14 is_stmt 0
	li	a5,11
	j	.L122
.LVL191:
.L64:
.LBE149:
.LBE150:
	.loc 3 416 13
	li	s1,0
	j	.L16
	.cfi_endproc
.LFE85:
	.size	wps_enrollee_get_msg, .-wps_enrollee_get_msg
	.section	.text.wps_enrollee_process_msg,"ax",@progbits
	.align	1
	.globl	wps_enrollee_process_msg
	.type	wps_enrollee_process_msg, @function
wps_enrollee_process_msg:
.LFB106:
	.loc 3 1511 1 is_stmt 1
	.cfi_startproc
.LVL192:
	addi	sp,sp,-640
	.cfi_def_cfa_offset 640
	sw	s0,632(sp)
	sw	s1,628(sp)
	sw	s3,620(sp)
	sw	ra,636(sp)
	sw	s2,624(sp)
	sw	s4,616(sp)
	sw	s5,612(sp)
	sw	s6,608(sp)
	sw	s7,604(sp)
	sw	s8,600(sp)
	sw	s9,596(sp)
	sw	s10,592(sp)
	sw	s11,588(sp)
	.cfi_offset 8, -8
	.cfi_offset 9, -12
	.cfi_offset 19, -20
	.cfi_offset 1, -4
	.cfi_offset 18, -16
	.cfi_offset 20, -24
	.cfi_offset 21, -28
	.cfi_offset 22, -32
	.cfi_offset 23, -36
	.cfi_offset 24, -40
	.cfi_offset 25, -44
	.cfi_offset 26, -48
	.cfi_offset 27, -52
	addi	s0,sp,640
	.cfi_def_cfa 8, 0
	.loc 3 1511 1 is_stmt 0
	mv	s1,a0
	.loc 3 1513 2 is_stmt 1
	.loc 3 1513 6
	.loc 3 1513 13
	.loc 3 1517 2
	.loc 3 1511 1 is_stmt 0
	mv	s3,a2
	.loc 3 1517 5
	bne	a1,zero,.L128
.LBB222:
	.loc 3 1519 3 is_stmt 1
	.loc 3 1520 3
	.loc 3 1520 7 is_stmt 0
	addi	a1,s0,-564
.LVL193:
	mv	a0,a2
.LVL194:
	call	wps_parse_msg
.LVL195:
	.loc 3 1520 6
	bne	a0,zero,.L133
	.loc 3 1520 45 discriminator 1
	lw	a5,-556(s0)
	.loc 3 1520 38 discriminator 1
	beq	a5,zero,.L133
	.loc 3 1521 4 is_stmt 1
	.loc 3 1521 8 is_stmt 0
	lbu	a5,0(a5)
	.loc 3 1521 7
	li	a4,13
	beq	a5,a4,.L131
	.loc 3 1523 9 is_stmt 1
	.loc 3 1523 12 is_stmt 0
	li	a4,14
	bne	a5,a4,.L133
.LVL196:
.L132:
.LBE222:
	.loc 3 1539 3 is_stmt 1
	.loc 3 1539 7 is_stmt 0
	mv	a0,s3
	call	wps_validate_wsc_nack
.LVL197:
	.loc 3 1539 6
	blt	a0,zero,.L374
	.loc 3 1541 3 is_stmt 1
.LVL198:
.LBB223:
.LBB224:
	.loc 3 1414 2
	.loc 3 1415 2
	.loc 3 1416 2
	.loc 3 1418 2
	.loc 3 1418 6
	.loc 3 1418 13
	.loc 3 1420 2
	.loc 3 1420 34 is_stmt 0
	li	a1,500
	li	a0,1
	call	wpa_supplicant_zalloc
.LVL199:
	mv	s2,a0
.LVL200:
	.loc 3 1421 9 is_stmt 1
	.loc 3 1421 12 is_stmt 0
	beq	a0,zero,.L374
	.loc 3 1426 2 is_stmt 1
	.loc 3 1426 6 is_stmt 0
	mv	a1,a0
	mv	a0,s3
.LVL201:
	call	wps_parse_msg
.LVL202:
	.loc 3 1426 5
	blt	a0,zero,.L232
	.loc 3 1431 2 is_stmt 1
	.loc 3 1431 10 is_stmt 0
	lw	a5,8(s2)
	.loc 3 1431 5
	beq	a5,zero,.L232
	.loc 3 1437 2 is_stmt 1
	.loc 3 1437 5 is_stmt 0
	lbu	a4,0(a5)
	li	a5,14
	bne	a4,a5,.L232
	.loc 3 1444 2 is_stmt 1
	.loc 3 1444 10 is_stmt 0
	lw	a1,16(s2)
	.loc 3 1444 5
	beq	a1,zero,.L232
	.loc 3 1445 6
	li	a2,16
	addi	a0,s1,70
	call	memcmp
.LVL203:
	.loc 3 1444 35
	bne	a0,zero,.L232
	.loc 3 1456 2 is_stmt 1
	.loc 3 1456 10 is_stmt 0
	lw	a1,12(s2)
	.loc 3 1456 5
	beq	a1,zero,.L232
	.loc 3 1457 6
	li	a2,16
	addi	a0,s1,54
	call	memcmp
.LVL204:
	.loc 3 1456 34
	bne	a0,zero,.L232
	.loc 3 1467 2 is_stmt 1
	.loc 3 1467 10 is_stmt 0
	lw	a5,60(s2)
	.loc 3 1467 5
	beq	a5,zero,.L232
	.loc 3 1474 2 is_stmt 1
.LVL205:
.LBE224:
.LBE223:
	.loc 2 127 2
	lbu	a2,1(a5)
	lbu	a4,0(a5)
	slli	a2,a2,8
	or	a2,a2,a4
	slli	a5,a2,8
.LVL206:
	srli	a2,a2,8
	or	a2,a5,a2
.LBB227:
.LBB225:
	.loc 3 1478 13 is_stmt 0
	lw	a5,12(s1)
	slli	a2,a2,16
	.loc 3 1478 2
	li	a4,5
	srli	a2,a2,16
.LVL207:
	.loc 3 1475 2 is_stmt 1
	.loc 3 1475 6
	.loc 3 1475 13
	.loc 3 1478 2
	beq	a5,a4,.L229
	li	a4,7
	beq	a5,a4,.L230
	li	a4,3
	bne	a5,a4,.L231
	.loc 3 1480 3
	lhu	a3,618(s1)
	li	a1,7
.L368:
	.loc 3 1488 3 is_stmt 0
	lw	a0,0(s1)
	call	wps_fail_event
.LVL208:
	.loc 3 1490 3 is_stmt 1
.L231:
	.loc 3 1497 2
	.loc 3 1497 13 is_stmt 0
	li	a5,12
	sw	a5,12(s1)
	.loc 3 1499 2 is_stmt 1
.LVL209:
.L232:
	.loc 3 1501 2
	.loc 3 1502 3
	mv	a0,s2
	call	wpa_supplicant_free
.LVL210:
	j	.L374
.LVL211:
.L128:
	addi	a5,a1,-1
	li	a4,3
	mv	s4,a1
.LBE225:
.LBE227:
	.loc 3 1528 2
	bgtu	a5,a4,.L374
	lui	a4,%hi(.L135)
	slli	a5,a5,2
	addi	a4,a4,%lo(.L135)
	add	a5,a5,a4
	lw	a5,0(a5)
	jr	a5
	.section	.rodata.wps_enrollee_process_msg,"a",@progbits
	.align	2
	.align	2
.L135:
	.word	.L136
	.word	.L131
	.word	.L132
	.word	.L133
	.section	.text.wps_enrollee_process_msg
.L136:
	.loc 3 1530 17
.LVL212:
.LBB228:
.LBB229:
	.loc 3 1220 2
	.loc 3 1220 22 is_stmt 0
	call	wps_sm_get
.LVL213:
	.loc 3 1221 2 is_stmt 1
	.loc 3 1223 2
	.loc 3 1223 6
	.loc 3 1223 13
	.loc 3 1224 5
	addi	a0,a0,1120
.LVL214:
	call	bl_wifi_timer_disarm
.LVL215:
	.loc 3 1225 5
	.loc 3 1225 16 is_stmt 0
	sw	zero,12(s1)
	.loc 3 1226 2 is_stmt 1
.LVL216:
.L362:
.LBE229:
.LBE228:
	.loc 3 1546 1 is_stmt 0
	lw	ra,636(sp)
	.cfi_remember_state
	.cfi_restore 1
	lw	s0,632(sp)
	.cfi_restore 8
	.cfi_def_cfa 2, 640
	lw	s1,628(sp)
	.cfi_restore 9
.LVL217:
	lw	s2,624(sp)
	.cfi_restore 18
	lw	s3,620(sp)
	.cfi_restore 19
.LVL218:
	lw	s5,612(sp)
	.cfi_restore 21
	lw	s6,608(sp)
	.cfi_restore 22
	lw	s7,604(sp)
	.cfi_restore 23
	lw	s8,600(sp)
	.cfi_restore 24
	lw	s9,596(sp)
	.cfi_restore 25
	lw	s10,592(sp)
	.cfi_restore 26
	lw	s11,588(sp)
	.cfi_restore 27
	mv	a0,s4
	lw	s4,616(sp)
	.cfi_restore 20
	addi	sp,sp,640
	.cfi_def_cfa_offset 0
	jr	ra
.LVL219:
.L133:
	.cfi_restore_state
	.loc 3 1533 3 is_stmt 1
.LBB230:
.LBB231:
	.loc 3 1238 2
	.loc 3 1239 2
	.loc 3 1241 2
	.loc 3 1241 6
	.loc 3 1241 13
	.loc 3 1243 2
	.loc 3 1243 34 is_stmt 0
	li	a1,500
	li	a0,1
	call	wpa_supplicant_zalloc
.LVL220:
	mv	s2,a0
.LVL221:
	.loc 3 1244 9 is_stmt 1
	.loc 3 1244 12 is_stmt 0
	bne	a0,zero,.L137
.LVL222:
.L374:
.LBE231:
.LBE230:
	.loc 3 1541 10
	li	s4,2
	j	.L362
.LVL223:
.L137:
.LBB332:
.LBB326:
	.loc 3 1249 2 is_stmt 1
	.loc 3 1249 6 is_stmt 0
	mv	a1,a0
	mv	a0,s3
.LVL224:
	call	wps_parse_msg
.LVL225:
	.loc 3 1249 5
	bge	a0,zero,.L138
.LVL226:
.L226:
.LBE326:
.LBE332:
.LBB333:
.LBB334:
	.loc 3 1361 7
	li	s4,2
	j	.L227
.LVL227:
.L138:
.LBE334:
.LBE333:
.LBB337:
.LBB327:
	.loc 3 1254 2 is_stmt 1
	.loc 3 1254 10 is_stmt 0
	lw	a1,12(s2)
	.loc 3 1254 5
	beq	a1,zero,.L226
	.loc 3 1255 6
	li	a2,16
	addi	a0,s1,54
	call	memcmp
.LVL228:
	.loc 3 1254 34
	bne	a0,zero,.L226
	.loc 3 1261 2 is_stmt 1
	.loc 3 1261 10 is_stmt 0
	lw	a5,8(s2)
	.loc 3 1261 5
	bne	a5,zero,.L141
	.loc 3 1262 3 is_stmt 1
	.loc 3 1262 7
	.loc 3 1262 14
	.loc 3 1263 3
	.loc 3 1263 14 is_stmt 0
	li	a5,12
	sw	a5,12(s1)
	.loc 3 1264 3 is_stmt 1
	.loc 3 1265 3
.LVL229:
	.loc 3 1264 7 is_stmt 0
	li	s4,1
.LVL230:
.L227:
.LBE327:
.LBE337:
.LBB338:
.LBB335:
	.loc 3 1404 2 is_stmt 1
	.loc 3 1405 3
	mv	a0,s2
	call	wpa_supplicant_free
.LVL231:
	j	.L362
.LVL232:
.L141:
.LBE335:
.LBE338:
.LBB339:
.LBB328:
	.loc 3 1268 2
	lbu	a5,0(a5)
	li	a4,7
	addi	a5,a5,-5
	andi	a5,a5,0xff
	bgtu	a5,a4,.L226
	lui	a4,%hi(.L143)
	slli	a5,a5,2
	addi	a4,a4,%lo(.L143)
	add	a5,a5,a4
	lw	a5,0(a5)
	jr	a5
	.section	.rodata.wps_enrollee_process_msg
	.align	2
	.align	2
.L143:
	.word	.L147
	.word	.L146
	.word	.L226
	.word	.L145
	.word	.L226
	.word	.L144
	.word	.L226
	.word	.L142
	.section	.text.wps_enrollee_process_msg
.L147:
	.loc 3 1270 17
	.loc 3 1270 22
	.loc 3 1270 48 is_stmt 0
	lw	a5,12(s1)
	.loc 3 1270 25
	li	s5,1
	.loc 3 1270 122
	li	s4,4
	.loc 3 1270 48
	addi	a5,a5,-2
	.loc 3 1270 25
	bleu	a5,s5,.L362
	.loc 3 1270 143 is_stmt 1
	.loc 3 1271 3
	.loc 3 1271 7 is_stmt 0
	mv	a0,s3
	call	wps_validate_m2
.LVL233:
	.loc 3 1271 6
	blt	a0,zero,.L226
	.loc 3 1275 3 is_stmt 1
.LVL234:
.LBB232:
.LBB233:
	.loc 3 884 2
	.loc 3 884 6
	.loc 3 884 13
	.loc 3 886 2
	.loc 3 886 5 is_stmt 0
	lw	a5,12(s1)
	beq	a5,s5,.L148
.LVL235:
.L375:
	.loc 3 912 3 is_stmt 1
	.loc 3 912 14 is_stmt 0
	li	a5,12
.L366:
	.loc 3 923 13
	sw	a5,12(s1)
	.loc 3 924 2 is_stmt 1
.L149:
.LBE233:
.LBE232:
	.loc 3 1331 2
	.loc 3 1331 29 is_stmt 0
	lw	a5,8(s2)
	.loc 3 1338 1
	li	s4,1
	.loc 3 1331 26
	lbu	a4,0(a5)
	li	a5,6
	beq	a4,a5,.L227
	.loc 3 1334 3 is_stmt 1
	lw	a0,308(s1)
	call	wpabuf_free
.LVL236:
	.loc 3 1335 3
	.loc 3 1335 19 is_stmt 0
	mv	a0,s3
	call	wpabuf_dup
.LVL237:
	.loc 3 1335 17
	sw	a0,308(s1)
.LVL238:
	j	.L227
.LVL239:
.L148:
.LBB241:
.LBB240:
	.loc 3 893 2 is_stmt 1
	.loc 3 893 6 is_stmt 0
	lw	a1,16(s2)
.LVL240:
.LBB234:
.LBB235:
	.loc 3 474 2 is_stmt 1
	.loc 3 474 5 is_stmt 0
	beq	a1,zero,.L375
	.loc 3 479 2 is_stmt 1
	li	a2,16
	addi	a0,s1,70
	call	memcpy
.LVL241:
	.loc 3 480 2
	.loc 3 480 6
	.loc 3 480 13
	.loc 3 483 2
.LBE235:
.LBE234:
	.loc 3 894 6 is_stmt 0
	lw	a1,12(s2)
	mv	a0,s1
	call	wps_process_enrollee_nonce
.LVL242:
	.loc 3 893 62
	bne	a0,zero,.L375
	.loc 3 895 6
	lw	a1,20(s2)
.LVL243:
.LBB236:
.LBB237:
	.loc 3 505 2 is_stmt 1
	.loc 3 505 5 is_stmt 0
	beq	a1,zero,.L375
	.loc 3 510 2 is_stmt 1
	li	a2,16
	addi	a0,s1,32
	call	memcpy
.LVL244:
	.loc 3 511 2
	.loc 3 511 6
	.loc 3 511 13
	.loc 3 513 2
.LBE237:
.LBE236:
	.loc 3 906 2
	.loc 3 906 9 is_stmt 0
	lw	a5,0(s1)
	.loc 3 906 5
	lw	a4,0(a5)
	beq	a4,zero,.L152
	.loc 3 906 19
	lw	a5,12(a5)
	andi	a5,a5,-3
	bne	a5,zero,.L154
	.loc 3 907 69
	lw	a5,312(s1)
	bne	a5,zero,.L152
.L154:
	.loc 3 909 3 is_stmt 1
	.loc 3 909 7
	.loc 3 909 14
	.loc 3 911 3
	.loc 3 911 21 is_stmt 0
	li	a5,15
	sh	a5,616(s1)
	j	.L375
.L152:
	.loc 3 916 2 is_stmt 1
	.loc 3 916 6 is_stmt 0
	lw	s4,216(s2)
	lw	a1,220(s2)
.LVL245:
.LBB238:
.LBB239:
	.loc 3 520 2 is_stmt 1
	.loc 3 520 5 is_stmt 0
	beq	s4,zero,.L375
	.loc 3 520 16
	sw	a1,-612(s0)
	beq	a1,zero,.L375
	.loc 3 525 2 is_stmt 1
	lw	a0,224(s1)
	call	wpabuf_free
.LVL246:
	.loc 3 526 2
	.loc 3 526 21 is_stmt 0
	lw	a1,-612(s0)
	mv	a0,s4
	call	wpabuf_alloc_copy
.LVL247:
	.loc 3 526 19
	sw	a0,224(s1)
	.loc 3 527 2 is_stmt 1
	.loc 3 527 5 is_stmt 0
	beq	a0,zero,.L375
	.loc 3 530 2 is_stmt 1
	.loc 3 530 6
	.loc 3 530 13
	.loc 3 532 2
	.loc 3 532 6 is_stmt 0
	mv	a0,s1
	call	wps_derive_keys
.LVL248:
	.loc 3 532 5
	blt	a0,zero,.L375
.LVL249:
.LBE239:
.LBE238:
	.loc 3 917 6
	lw	a1,76(s2)
	mv	a2,s3
	mv	a0,s1
	call	wps_process_authenticator
.LVL250:
	.loc 3 916 70
	bne	a0,zero,.L375
	.loc 3 918 6
	mv	a1,s2
	addi	a0,s1,480
	call	wps_process_device_attrs
.LVL251:
	.loc 3 917 63
	bne	a0,zero,.L375
	.loc 3 923 2 is_stmt 1
	.loc 3 923 13 is_stmt 0
	li	a5,2
	j	.L366
.LVL252:
.L146:
.LBE240:
.LBE241:
	.loc 3 1278 3 is_stmt 1
	.loc 3 1278 7 is_stmt 0
	mv	a0,s3
	call	wps_validate_m2d
.LVL253:
	.loc 3 1278 6
	blt	a0,zero,.L226
	.loc 3 1282 3 is_stmt 1
.LVL254:
.LBB242:
.LBB243:
	.loc 3 931 2
	.loc 3 931 6
	.loc 3 931 13
	.loc 3 933 2
	.loc 3 933 5 is_stmt 0
	lw	a4,12(s1)
	li	a5,1
	bne	a4,a5,.L375
	.loc 3 940 2 is_stmt 1
	.loc 3 940 6
	.loc 3 940 13
	.loc 3 942 2
	.loc 3 942 6
	.loc 3 942 13
	.loc 3 944 2
	.loc 3 944 6
	.loc 3 944 13
	.loc 3 946 2
	.loc 3 946 6
	.loc 3 946 13
	.loc 3 948 2
	.loc 3 948 6
	.loc 3 948 13
	.loc 3 951 2
	.loc 3 951 14 is_stmt 0
	lw	a5,0(s1)
	.loc 3 951 5
	lw	a5,300(a5)
	beq	a5,zero,.L155
.LBB244:
	.loc 3 952 3 is_stmt 1
	.loc 3 953 3
.LVL255:
	.loc 3 954 3
	li	a2,52
	li	a1,0
	addi	a0,s0,-564
.LVL256:
	call	memset
.LVL257:
	.loc 3 955 3
	.loc 3 955 11 is_stmt 0
	lw	a4,40(s2)
	.loc 3 955 6
	beq	a4,zero,.L156
	.loc 3 956 4 is_stmt 1
.LVL258:
.LBE244:
.LBE243:
.LBE242:
.LBE328:
.LBE339:
	.loc 2 127 2
.LBB340:
.LBB329:
.LBB251:
.LBB248:
.LBB245:
	.loc 3 956 24 is_stmt 0
	lbu	a5,1(a4)
	lbu	a3,0(a4)
	slli	a5,a5,8
	or	a5,a5,a3
	slli	a4,a5,8
	srli	a5,a5,8
	or	a5,a4,a5
	sh	a5,-564(s0)
.L156:
	.loc 3 958 3 is_stmt 1
	.loc 3 958 21 is_stmt 0
	addi	a5,s2,128
	lw	a4,48(a5)
	sw	a4,-560(s0)
	.loc 3 959 3 is_stmt 1
	.loc 3 959 25 is_stmt 0
	lw	a4,52(a5)
	sw	a4,-556(s0)
	.loc 3 960 3 is_stmt 1
	.loc 3 960 19 is_stmt 0
	lw	a4,56(a5)
	sw	a4,-552(s0)
	.loc 3 961 3 is_stmt 1
	.loc 3 961 23 is_stmt 0
	lw	a4,60(a5)
	sw	a4,-548(s0)
	.loc 3 962 3 is_stmt 1
	.loc 3 962 21 is_stmt 0
	lw	a4,64(a5)
	sw	a4,-544(s0)
	.loc 3 963 3 is_stmt 1
	.loc 3 963 25 is_stmt 0
	lw	a4,68(a5)
	sw	a4,-540(s0)
	.loc 3 964 3 is_stmt 1
	.loc 3 964 22 is_stmt 0
	lw	a4,72(a5)
	sw	a4,-536(s0)
	.loc 3 965 3 is_stmt 1
	.loc 3 965 26 is_stmt 0
	lw	a4,76(a5)
	sw	a4,-532(s0)
	.loc 3 966 3 is_stmt 1
	.loc 3 966 17 is_stmt 0
	lw	a4,80(a5)
	sw	a4,-528(s0)
	.loc 3 967 3 is_stmt 1
	.loc 3 967 21 is_stmt 0
	lw	a5,84(a5)
	sw	a5,-524(s0)
	.loc 3 968 3 is_stmt 1
	.loc 3 968 25 is_stmt 0
	lw	a5,48(s2)
	sw	a5,-520(s0)
	.loc 3 969 3 is_stmt 1
	.loc 3 969 11 is_stmt 0
	lw	a4,60(s2)
	.loc 3 969 6
	beq	a4,zero,.L157
	.loc 3 970 4 is_stmt 1
.LVL259:
.LBE245:
.LBE248:
.LBE251:
.LBE329:
.LBE340:
	.loc 2 127 2
.LBB341:
.LBB330:
.LBB252:
.LBB249:
.LBB246:
	.loc 3 970 22 is_stmt 0
	lbu	a5,1(a4)
	lbu	a3,0(a4)
	slli	a5,a5,8
	or	a5,a5,a3
	slli	a4,a5,8
	srli	a5,a5,8
	or	a5,a4,a5
	sh	a5,-516(s0)
.L157:
	.loc 3 972 3 is_stmt 1
	.loc 3 972 11 is_stmt 0
	lw	a4,64(s2)
	.loc 3 972 6
	beq	a4,zero,.L158
	.loc 3 973 4 is_stmt 1
.LVL260:
.LBE246:
.LBE249:
.LBE252:
.LBE330:
.LBE341:
	.loc 2 127 2
.LBB342:
.LBB331:
.LBB253:
.LBB250:
.LBB247:
	.loc 3 973 25 is_stmt 0
	lbu	a5,1(a4)
	lbu	a3,0(a4)
	slli	a5,a5,8
	or	a5,a5,a3
	slli	a4,a5,8
	srli	a5,a5,8
	or	a5,a4,a5
	sh	a5,-514(s0)
.L158:
	.loc 3 975 3 is_stmt 1
	.loc 3 975 6 is_stmt 0
	lw	a5,0(s1)
	.loc 3 975 3
	addi	a2,s0,-564
.LVL261:
	li	a1,0
	lw	a4,300(a5)
	lw	a0,304(a5)
	jalr	a4
.LVL262:
.L155:
.LBE247:
	.loc 3 978 2 is_stmt 1
	.loc 3 978 13 is_stmt 0
	li	a5,8
	j	.L366
.LVL263:
.L145:
.LBE250:
.LBE253:
	.loc 3 1285 17 is_stmt 1
	.loc 3 1285 22
	.loc 3 1285 48 is_stmt 0
	lw	a5,12(s1)
	.loc 3 1285 25
	li	a4,1
	.loc 3 1270 122
	li	s4,4
	.loc 3 1285 48
	addi	a5,a5,-4
	.loc 3 1285 25
	bleu	a5,a4,.L362
	.loc 3 1285 143 is_stmt 1
	.loc 3 1286 3
	.loc 3 1286 7 is_stmt 0
	mv	a0,s3
	call	wps_validate_m4
.LVL264:
	.loc 3 1286 6
	blt	a0,zero,.L226
	.loc 3 1290 3 is_stmt 1
.LVL265:
.LBB254:
.LBB255:
	.loc 3 987 2
	.loc 3 988 2
	.loc 3 989 2
	.loc 3 991 2
	.loc 3 991 6
	.loc 3 991 13
	.loc 3 993 2
	.loc 3 993 35 is_stmt 0
	li	a1,500
	li	a0,1
	call	wpa_supplicant_zalloc
.LVL266:
	mv	s5,a0
.LVL267:
	.loc 3 994 9 is_stmt 1
	.loc 3 994 12 is_stmt 0
	bne	a0,zero,.L159
	.loc 3 995 3 is_stmt 1
	.loc 3 995 14 is_stmt 0
	li	a5,12
	sw	a5,12(s1)
	.loc 3 996 3 is_stmt 1
.LVL268:
	.loc 3 997 3
	.loc 3 1049 2
	.loc 3 1051 2
.LBE255:
.LBE254:
	.loc 3 1291 3
.L160:
	.loc 3 1292 4
	lhu	a3,618(s1)
	lhu	a2,616(s1)
	li	a1,8
.LVL269:
.L367:
	.loc 3 1314 4 is_stmt 0
	lw	a0,0(s1)
	call	wps_fail_event
.LVL270:
	j	.L149
.LVL271:
.L159:
.LBB271:
.LBB270:
	.loc 3 1000 2 is_stmt 1
	.loc 3 1000 5 is_stmt 0
	lw	a4,12(s1)
	li	a5,3
	beq	a4,a5,.L161
.LVL272:
.L376:
	.loc 3 1040 3 is_stmt 1
	.loc 3 1040 14 is_stmt 0
	li	a5,12
	j	.L369
.LVL273:
.L161:
	.loc 3 1008 2 is_stmt 1
	.loc 3 1008 6 is_stmt 0
	lw	a1,12(s2)
	mv	a0,s1
.LVL274:
	call	wps_process_enrollee_nonce
.LVL275:
	.loc 3 1008 5
	bne	a0,zero,.L376
	.loc 3 1009 6
	lw	a1,76(s2)
	mv	a2,s3
	mv	a0,s1
	call	wps_process_authenticator
.LVL276:
	.loc 3 1008 60
	bne	a0,zero,.L376
	.loc 3 1010 6
	lw	a1,80(s2)
.LVL277:
.LBB256:
.LBB257:
	.loc 3 544 2 is_stmt 1
	.loc 3 544 5 is_stmt 0
	beq	a1,zero,.L376
	.loc 3 549 2 is_stmt 1
	.loc 3 549 13 is_stmt 0
	addi	s6,s1,150
	.loc 3 549 2
	li	a2,32
	mv	a0,s6
	call	memcpy
.LVL278:
	.loc 3 550 2 is_stmt 1
	.loc 3 550 6
	.loc 3 550 13
	.loc 3 552 2
.LBE257:
.LBE256:
	.loc 3 1011 6 is_stmt 0
	lw	a1,84(s2)
.LVL279:
.LBB258:
.LBB259:
	.loc 3 558 2 is_stmt 1
	.loc 3 558 5 is_stmt 0
	beq	a1,zero,.L376
	.loc 3 563 2 is_stmt 1
	li	a2,32
	addi	a0,s1,182
	call	memcpy
.LVL280:
	.loc 3 564 2
	.loc 3 564 6
	.loc 3 564 13
	.loc 3 566 2
.LBE259:
.LBE258:
	.loc 3 1017 2
	.loc 3 1017 14 is_stmt 0
	lw	a2,228(s2)
	lw	a1,224(s2)
	mv	a0,s1
	call	wps_decrypt_encr_settings
.LVL281:
	mv	s4,a0
.LVL282:
	.loc 3 1019 2 is_stmt 1
	.loc 3 1019 5 is_stmt 0
	beq	a0,zero,.L376
	.loc 3 1027 2 is_stmt 1
	.loc 3 1027 6 is_stmt 0
	lw	a1,4(s2)
	snez	a1,a1
	call	wps_validate_m4_encr
.LVL283:
	.loc 3 1027 5
	bge	a0,zero,.L166
.L168:
	.loc 3 1039 3 is_stmt 1
	mv	a0,s4
	call	wpabuf_free
.LVL284:
	j	.L376
.L166:
	.loc 3 1034 2
	.loc 3 1034 6
	.loc 3 1034 13
	.loc 3 1036 2
	.loc 3 1036 6 is_stmt 0
	mv	a1,s5
	mv	a0,s4
	call	wps_parse_msg
.LVL285:
	.loc 3 1036 5
	blt	a0,zero,.L168
	.loc 3 1037 6
	lw	a2,112(s5)
	mv	a1,s4
	mv	a0,s1
	call	wps_process_key_wrap_auth
.LVL286:
	.loc 3 1036 42
	bne	a0,zero,.L168
	.loc 3 1038 6
	lw	a5,96(s5)
.LVL287:
.LBB260:
.LBB261:
	.loc 3 572 2 is_stmt 1
	.loc 3 573 2
	.loc 3 574 2
	.loc 3 576 2
	.loc 3 576 5 is_stmt 0
	beq	a5,zero,.L168
	.loc 3 581 2 is_stmt 1
	.loc 3 581 6
	.loc 3 581 13
	.loc 3 585 2
	.loc 3 585 10 is_stmt 0
	sw	a5,-596(s0)
	.loc 3 586 2 is_stmt 1
	.loc 3 586 9 is_stmt 0
	li	a5,16
.LVL288:
	sw	a5,-580(s0)
	.loc 3 587 2 is_stmt 1
	.loc 3 588 9 is_stmt 0
	sw	a5,-576(s0)
	.loc 3 589 27
	lw	a5,220(s1)
	.loc 3 587 12
	addi	a4,s1,86
	.loc 3 587 10
	sw	a4,-592(s0)
	.loc 3 588 2 is_stmt 1
	.loc 3 589 2
.LVL289:
.LBB262:
.LBB263:
	.loc 1 81 2
	.loc 1 81 9 is_stmt 0
	lw	a4,8(a5)
	.loc 1 81 5
	bne	a4,zero,.L171
	.loc 1 83 2 is_stmt 1
	.loc 1 83 13 is_stmt 0
	addi	a4,a5,12
.L171:
.LVL290:
.LBE263:
.LBE262:
	.loc 3 589 10
	sw	a4,-588(s0)
	.loc 3 590 2 is_stmt 1
.LVL291:
.LBB264:
.LBB265:
	.loc 1 61 2
	.loc 1 61 12 is_stmt 0
	lw	a5,4(a5)
.LVL292:
.LBE265:
.LBE264:
	.loc 3 590 9
	sw	a5,-572(s0)
	.loc 3 591 2 is_stmt 1
	.loc 3 591 27 is_stmt 0
	lw	a5,224(s1)
.LVL293:
.LBB266:
.LBB267:
	.loc 1 81 2 is_stmt 1
	.loc 1 81 9 is_stmt 0
	lw	a4,8(a5)
	.loc 1 81 5
	bne	a4,zero,.L172
	.loc 1 83 2 is_stmt 1
	.loc 1 83 13 is_stmt 0
	addi	a4,a5,12
.L172:
.LVL294:
.LBE267:
.LBE266:
	.loc 3 591 10
	sw	a4,-584(s0)
	.loc 3 592 2 is_stmt 1
.LVL295:
.LBB268:
.LBB269:
	.loc 1 61 2
	.loc 1 61 12 is_stmt 0
	lw	a5,4(a5)
.LVL296:
.LBE269:
.LBE268:
	.loc 3 594 2
	li	a2,4
	li	a1,32
	.loc 3 592 9
	sw	a5,-568(s0)
	.loc 3 594 2 is_stmt 1
	addi	a4,s0,-580
	addi	a5,s0,-564
	addi	a3,s0,-596
.LVL297:
	addi	a0,s1,228
	call	hmac_sha256_vector
.LVL298:
	.loc 3 595 2
	.loc 3 595 6 is_stmt 0
	li	a2,32
	addi	a1,s0,-564
	mv	a0,s6
	call	memcmp
.LVL299:
	.loc 3 595 5
	beq	a0,zero,.L173
	.loc 3 596 3 is_stmt 1
	.loc 3 596 7
	.loc 3 596 14
	.loc 3 598 3
	.loc 3 599 3 is_stmt 0
	lw	a0,0(s1)
	.loc 3 598 21
	li	a5,18
	sh	a5,616(s1)
	.loc 3 599 3 is_stmt 1
	li	a2,1
	li	a1,1
	call	wps_pwd_auth_fail_event
.LVL300:
	.loc 3 600 3
	j	.L168
.LVL301:
.L173:
.LBE261:
.LBE260:
	.loc 3 1044 2
	mv	a0,s4
	call	wpabuf_free
.LVL302:
	.loc 3 1046 2
	.loc 3 1046 13 is_stmt 0
	li	a5,4
.LVL303:
.L369:
	sw	a5,12(s1)
	.loc 3 1047 2 is_stmt 1
.LVL304:
	.loc 3 1049 2
	.loc 3 1050 3
	mv	a0,s5
	call	wpa_supplicant_free
.LVL305:
	.loc 3 1051 2
.LBE270:
.LBE271:
	.loc 3 1291 3
	.loc 3 1291 26 is_stmt 0
	lw	a4,12(s1)
	li	a5,12
	bne	a4,a5,.L149
	j	.L160
.LVL306:
.L144:
	.loc 3 1296 17 is_stmt 1
	.loc 3 1296 22
	.loc 3 1296 48 is_stmt 0
	lw	a5,12(s1)
	.loc 3 1296 25
	li	a4,1
	.loc 3 1270 122
	li	s4,4
	.loc 3 1296 48
	addi	a5,a5,-6
	.loc 3 1296 25
	bleu	a5,a4,.L362
	.loc 3 1296 143 is_stmt 1
	.loc 3 1297 3
	.loc 3 1297 7 is_stmt 0
	mv	a0,s3
	call	wps_validate_m6
.LVL307:
	.loc 3 1297 6
	blt	a0,zero,.L226
	.loc 3 1301 3 is_stmt 1
.LVL308:
.LBB272:
.LBB273:
	.loc 3 1059 2
	.loc 3 1060 2
	.loc 3 1061 2
	.loc 3 1063 2
	.loc 3 1063 6
	.loc 3 1063 13
	.loc 3 1065 2
	.loc 3 1065 35 is_stmt 0
	li	a1,500
	li	a0,1
	call	wpa_supplicant_zalloc
.LVL309:
	mv	s5,a0
.LVL310:
	.loc 3 1066 9 is_stmt 1
	.loc 3 1066 12 is_stmt 0
	bne	a0,zero,.L174
	.loc 3 1067 3 is_stmt 1
	.loc 3 1067 14 is_stmt 0
	li	a5,12
	sw	a5,12(s1)
	.loc 3 1068 3 is_stmt 1
.LVL311:
	.loc 3 1069 3
	.loc 3 1123 2
	.loc 3 1125 2
.LBE273:
.LBE272:
	.loc 3 1302 3
.L175:
	.loc 3 1303 4
	lhu	a3,618(s1)
	lhu	a2,616(s1)
	li	a1,10
	j	.L367
.LVL312:
.L174:
.LBB286:
.LBB284:
	.loc 3 1072 2
	.loc 3 1072 5 is_stmt 0
	lw	a4,12(s1)
	li	a5,5
	beq	a4,a5,.L176
.LVL313:
.L377:
	.loc 3 1110 3 is_stmt 1
	.loc 3 1110 14 is_stmt 0
	li	a5,12
.L370:
	.loc 3 1120 13
	sw	a5,12(s1)
	.loc 3 1121 2 is_stmt 1
.LVL314:
	.loc 3 1123 2
	.loc 3 1124 3
	mv	a0,s5
	call	wpa_supplicant_free
.LVL315:
	.loc 3 1125 2
.LBE284:
.LBE286:
	.loc 3 1302 3
	.loc 3 1302 26 is_stmt 0
	lw	a4,12(s1)
	li	a5,12
	bne	a4,a5,.L149
	j	.L175
.LVL316:
.L176:
.LBB287:
.LBB285:
	.loc 3 1080 2 is_stmt 1
	.loc 3 1080 6 is_stmt 0
	lw	a1,12(s2)
	mv	a0,s1
.LVL317:
	call	wps_process_enrollee_nonce
.LVL318:
	.loc 3 1080 5
	bne	a0,zero,.L377
	.loc 3 1081 6
	lw	a1,76(s2)
	mv	a2,s3
	mv	a0,s1
	call	wps_process_authenticator
.LVL319:
	.loc 3 1080 60
	bne	a0,zero,.L377
	.loc 3 1087 2 is_stmt 1
	.loc 3 1087 14 is_stmt 0
	lw	a2,228(s2)
	lw	a1,224(s2)
	mv	a0,s1
	call	wps_decrypt_encr_settings
.LVL320:
	mv	s4,a0
.LVL321:
	.loc 3 1089 2 is_stmt 1
	.loc 3 1089 5 is_stmt 0
	beq	a0,zero,.L377
	.loc 3 1097 2 is_stmt 1
	.loc 3 1097 6 is_stmt 0
	lw	a1,4(s2)
	snez	a1,a1
	call	wps_validate_m6_encr
.LVL322:
	.loc 3 1097 5
	bge	a0,zero,.L181
.L183:
	.loc 3 1109 3 is_stmt 1
	mv	a0,s4
	call	wpabuf_free
.LVL323:
	j	.L377
.L181:
	.loc 3 1104 2
	.loc 3 1104 6
	.loc 3 1104 13
	.loc 3 1106 2
	.loc 3 1106 6 is_stmt 0
	mv	a1,s5
	mv	a0,s4
	call	wps_parse_msg
.LVL324:
	.loc 3 1106 5
	blt	a0,zero,.L183
	.loc 3 1107 6
	lw	a2,112(s5)
	mv	a1,s4
	mv	a0,s1
	call	wps_process_key_wrap_auth
.LVL325:
	.loc 3 1106 42
	bne	a0,zero,.L183
	.loc 3 1108 6
	lw	a5,100(s5)
.LVL326:
.LBB274:
.LBB275:
	.loc 3 612 2 is_stmt 1
	.loc 3 613 2
	.loc 3 614 2
	.loc 3 616 2
	.loc 3 616 5 is_stmt 0
	beq	a5,zero,.L183
	.loc 3 621 2 is_stmt 1
	.loc 3 621 6
	.loc 3 621 13
	.loc 3 625 2
	.loc 3 625 10 is_stmt 0
	sw	a5,-596(s0)
	.loc 3 626 2 is_stmt 1
	.loc 3 626 9 is_stmt 0
	li	a5,16
.LVL327:
	sw	a5,-580(s0)
	.loc 3 627 2 is_stmt 1
	.loc 3 628 9 is_stmt 0
	sw	a5,-576(s0)
	.loc 3 629 27
	lw	a5,220(s1)
	.loc 3 627 12
	addi	a4,s1,102
	.loc 3 627 10
	sw	a4,-592(s0)
	.loc 3 628 2 is_stmt 1
	.loc 3 629 2
.LVL328:
.LBB276:
.LBB277:
	.loc 1 81 2
	.loc 1 81 9 is_stmt 0
	lw	a4,8(a5)
	.loc 1 81 5
	bne	a4,zero,.L186
	.loc 1 83 2 is_stmt 1
	.loc 1 83 13 is_stmt 0
	addi	a4,a5,12
.L186:
.LVL329:
.LBE277:
.LBE276:
	.loc 3 629 10
	sw	a4,-588(s0)
	.loc 3 630 2 is_stmt 1
.LVL330:
.LBB278:
.LBB279:
	.loc 1 61 2
	.loc 1 61 12 is_stmt 0
	lw	a5,4(a5)
.LVL331:
.LBE279:
.LBE278:
	.loc 3 630 9
	sw	a5,-572(s0)
	.loc 3 631 2 is_stmt 1
	.loc 3 631 27 is_stmt 0
	lw	a5,224(s1)
.LVL332:
.LBB280:
.LBB281:
	.loc 1 81 2 is_stmt 1
	.loc 1 81 9 is_stmt 0
	lw	a4,8(a5)
	.loc 1 81 5
	bne	a4,zero,.L187
	.loc 1 83 2 is_stmt 1
	.loc 1 83 13 is_stmt 0
	addi	a4,a5,12
.L187:
.LVL333:
.LBE281:
.LBE280:
	.loc 3 631 10
	sw	a4,-584(s0)
	.loc 3 632 2 is_stmt 1
.LVL334:
.LBB282:
.LBB283:
	.loc 1 61 2
	.loc 1 61 12 is_stmt 0
	lw	a5,4(a5)
.LVL335:
.LBE283:
.LBE282:
	.loc 3 634 2
	li	a2,4
	li	a1,32
	.loc 3 632 9
	sw	a5,-568(s0)
	.loc 3 634 2 is_stmt 1
	addi	a4,s0,-580
	addi	a5,s0,-564
	addi	a3,s0,-596
.LVL336:
	addi	a0,s1,228
	call	hmac_sha256_vector
.LVL337:
	.loc 3 636 2
	.loc 3 636 6 is_stmt 0
	li	a2,32
	addi	a1,s0,-564
	addi	a0,s1,182
	call	memcmp
.LVL338:
	.loc 3 636 5
	beq	a0,zero,.L188
	.loc 3 637 3 is_stmt 1
	.loc 3 637 7
	.loc 3 637 14
	.loc 3 639 3
	.loc 3 640 3 is_stmt 0
	lw	a0,0(s1)
	.loc 3 639 21
	li	a5,18
	sh	a5,616(s1)
	.loc 3 640 3 is_stmt 1
	li	a2,2
	li	a1,1
	call	wps_pwd_auth_fail_event
.LVL339:
	.loc 3 641 3
	j	.L183
.LVL340:
.L188:
.LBE275:
.LBE274:
	.loc 3 1114 2
	mv	a0,s4
	call	wpabuf_free
.LVL341:
	.loc 3 1116 2
	.loc 3 1116 9 is_stmt 0
	lw	a5,0(s1)
	.loc 3 1116 5
	lw	a4,0(a5)
	bne	a4,zero,.L189
.L190:
	.loc 3 1120 2 is_stmt 1
	.loc 3 1120 13 is_stmt 0
	li	a5,6
	j	.L370
.L189:
	.loc 3 1117 3 is_stmt 1
	lw	a4,300(a5)
	lw	a0,304(a5)
	li	a2,0
	li	a1,12
	jalr	a4
.LVL342:
	j	.L190
.LVL343:
.L142:
.LBE285:
.LBE287:
	.loc 3 1307 17
	.loc 3 1307 22
	.loc 3 1307 143
	.loc 3 1308 3
	.loc 3 1308 7 is_stmt 0
	mv	a0,s3
	call	wps_validate_m8
.LVL344:
	.loc 3 1308 6
	blt	a0,zero,.L226
	.loc 3 1312 3 is_stmt 1
.LVL345:
.LBB288:
.LBB289:
	.loc 3 1133 2
	.loc 3 1134 2
	.loc 3 1135 2
	.loc 3 1137 2
	.loc 3 1137 6
	.loc 3 1137 13
	.loc 3 1139 2
	.loc 3 1139 35 is_stmt 0
	li	a1,500
	li	a0,1
	call	wpa_supplicant_zalloc
.LVL346:
	mv	s5,a0
.LVL347:
	.loc 3 1140 9 is_stmt 1
	.loc 3 1140 12 is_stmt 0
	bne	a0,zero,.L191
	.loc 3 1141 3 is_stmt 1
	.loc 3 1141 14 is_stmt 0
	li	a5,12
	sw	a5,12(s1)
	.loc 3 1142 3 is_stmt 1
.LVL348:
	.loc 3 1143 3
	.loc 3 1212 2
	.loc 3 1214 2
.LBE289:
.LBE288:
	.loc 3 1313 3
.L192:
	.loc 3 1314 4
	lhu	a3,618(s1)
	lhu	a2,616(s1)
	li	a1,12
	j	.L367
.LVL349:
.L191:
.LBB324:
.LBB322:
	.loc 3 1146 2
	.loc 3 1146 5 is_stmt 0
	lw	a4,12(s1)
	li	a5,7
	beq	a4,a5,.L193
.LVL350:
.L378:
	.loc 3 1202 3 is_stmt 1
	.loc 3 1202 14 is_stmt 0
	li	a5,12
.L371:
	.loc 3 1208 13
	sw	a5,12(s1)
	.loc 3 1209 2 is_stmt 1
.LVL351:
	.loc 3 1212 2
	.loc 3 1213 3
	mv	a0,s5
	call	wpa_supplicant_free
.LVL352:
	.loc 3 1214 2
.LBE322:
.LBE324:
	.loc 3 1313 3
	.loc 3 1313 26 is_stmt 0
	lw	a4,12(s1)
	li	a5,12
	bne	a4,a5,.L149
	j	.L192
.LVL353:
.L193:
.LBB325:
.LBB323:
	.loc 3 1154 2 is_stmt 1
	.loc 3 1154 6 is_stmt 0
	lw	a1,12(s2)
	mv	a0,s1
.LVL354:
	call	wps_process_enrollee_nonce
.LVL355:
	.loc 3 1154 5
	bne	a0,zero,.L378
	.loc 3 1155 6
	lw	a1,76(s2)
	mv	a2,s3
	mv	a0,s1
	call	wps_process_authenticator
.LVL356:
	.loc 3 1154 60
	bne	a0,zero,.L378
	.loc 3 1161 2 is_stmt 1
	.loc 3 1161 9 is_stmt 0
	lw	a5,0(s1)
	.loc 3 1161 5
	lw	a4,0(a5)
	beq	a4,zero,.L198
	.loc 3 1161 19
	lw	a5,12(a5)
	beq	a5,zero,.L198
	.loc 3 1167 3 is_stmt 1
	.loc 3 1167 7
	.loc 3 1167 14
	.loc 3 1169 3
	.loc 3 1169 21 is_stmt 0
	li	a5,15
	sh	a5,616(s1)
	.loc 3 1170 3 is_stmt 1
	j	.L378
.L198:
	.loc 3 1175 2
	.loc 3 1175 14 is_stmt 0
	lw	a2,228(s2)
	lw	a1,224(s2)
	mv	a0,s1
	call	wps_decrypt_encr_settings
.LVL357:
	mv	s4,a0
.LVL358:
	.loc 3 1177 2 is_stmt 1
	.loc 3 1177 5 is_stmt 0
	beq	a0,zero,.L378
	.loc 3 1185 2 is_stmt 1
	.loc 3 1185 6 is_stmt 0
	lw	a5,0(s1)
	lw	a2,4(s2)
	lw	a1,0(a5)
	snez	a2,a2
	call	wps_validate_m8_encr
.LVL359:
	.loc 3 1185 5
	bge	a0,zero,.L199
.L204:
	.loc 3 1201 3 is_stmt 1
	mv	a0,s4
	call	wpabuf_free
.LVL360:
	j	.L378
.L199:
	.loc 3 1193 2
	.loc 3 1193 6
	.loc 3 1193 13
	.loc 3 1195 2
	.loc 3 1195 6 is_stmt 0
	mv	a1,s5
	mv	a0,s4
	call	wps_parse_msg
.LVL361:
	.loc 3 1195 5
	blt	a0,zero,.L204
	.loc 3 1196 6
	lw	a2,112(s5)
	mv	a1,s4
	mv	a0,s1
	call	wps_process_key_wrap_auth
.LVL362:
	mv	s6,a0
	.loc 3 1195 42
	bne	a0,zero,.L204
.LVL363:
.LBB290:
.LBB291:
	.loc 3 733 2 is_stmt 1
	.loc 3 734 2
	.loc 3 736 2
	.loc 3 736 14 is_stmt 0
	lw	a5,0(s1)
	lw	s8,0(a5)
	.loc 3 736 5
	beq	s8,zero,.L201
.LVL364:
.L213:
.LBE291:
.LBE290:
.LBB309:
.LBB310:
	.loc 3 774 34
	li	a1,132
	li	a0,1
.LBE310:
.LBE309:
	.loc 3 1200 15
	lw	s8,4(s2)
.LVL365:
.LBB317:
.LBB315:
	.loc 3 771 2 is_stmt 1
	.loc 3 772 2
	.loc 3 774 2
	.loc 3 774 34 is_stmt 0
	call	wpa_supplicant_zalloc
.LVL366:
	mv	s7,a0
.LVL367:
	.loc 3 775 2 is_stmt 1
	.loc 3 775 5 is_stmt 0
	beq	a0,zero,.L204
	.loc 3 780 2 is_stmt 1
	.loc 3 780 15 is_stmt 0
	lw	a5,0(s1)
	.loc 3 780 5
	lw	a5,0(a5)
	beq	a5,zero,.L216
	.loc 3 785 2 is_stmt 1
	.loc 3 785 6 is_stmt 0
	mv	a1,a0
	mv	a0,s5
.LVL368:
	call	wps_process_ap_settings
.LVL369:
	.loc 3 785 5
	bge	a0,zero,.L215
.L373:
	.loc 3 844 4 is_stmt 1
.LVL370:
	.loc 3 845 4
	.loc 3 844 8 is_stmt 0
	li	s6,-1
.LVL371:
.L216:
	.loc 3 873 2 is_stmt 1
	.loc 3 874 3
	mv	a0,s7
	call	wpa_supplicant_free
.LVL372:
	.loc 3 876 2
.LBE315:
.LBE317:
	.loc 3 1198 50 is_stmt 0
	bne	s6,zero,.L204
	.loc 3 1206 2 is_stmt 1
	mv	a0,s4
	call	wpabuf_free
.LVL373:
	.loc 3 1208 2
	.loc 3 1208 13 is_stmt 0
	li	a5,9
	j	.L371
.LVL374:
.L201:
	.loc 3 1197 6
	lw	a5,368(s5)
	sw	a5,-620(s0)
.LBB318:
.LBB306:
	.loc 3 739 2 is_stmt 1
	.loc 3 739 5 is_stmt 0
	beq	a5,zero,.L204
.LBE306:
.LBE318:
	.loc 3 1198 31
	lw	a5,4(s2)
	addi	s10,s5,288
.LBB319:
.LBB307:
	.loc 3 745 9
	li	s9,0
.LBE307:
.LBE319:
	.loc 3 1198 31
	sw	a5,-628(s0)
.LBB320:
.LBB308:
.LBB292:
.LBB293:
.LBB294:
	.loc 3 672 23
	addi	a5,s1,460
	sw	a5,-632(s0)
	.loc 3 712 79
	addi	a5,s1,389
	.loc 3 664 9
	addi	s11,s1,348
	.loc 3 712 79
	sw	a5,-636(s0)
.LVL375:
.L212:
.LBE294:
.LBE293:
	.loc 3 746 3 is_stmt 1
	.loc 3 747 3
	.loc 3 747 9 is_stmt 0
	lw	a5,0(s10)
.LBB302:
.LBB299:
	.loc 3 660 34
	li	a1,500
	li	a0,1
.LBE299:
.LBE302:
	.loc 3 747 9
	sw	a5,-624(s0)
	lw	a5,40(s10)
	sw	a5,-616(s0)
.LVL376:
.LBB303:
.LBB300:
	.loc 3 654 2 is_stmt 1
	.loc 3 655 2
	.loc 3 656 2
	.loc 3 658 2
	.loc 3 658 6
	.loc 3 658 13
	.loc 3 660 2
	.loc 3 660 34 is_stmt 0
	call	wpa_supplicant_zalloc
.LVL377:
	sw	a0,-612(s0)
.LVL378:
	.loc 3 661 2 is_stmt 1
	.loc 3 661 5 is_stmt 0
	beq	a0,zero,.L204
	.loc 3 664 2 is_stmt 1
	li	a1,0
	li	a2,132
	mv	a0,s11
.LVL379:
	call	memset
.LVL380:
	.loc 3 665 2
.LBB295:
.LBB296:
	.loc 1 159 2
	.loc 1 159 16 is_stmt 0
	lw	a5,-624(s0)
.LBE296:
.LBE295:
	.loc 3 666 6
	lw	a1,-612(s0)
	addi	a0,s0,-564
.LVL381:
.LBB298:
.LBB297:
	.loc 1 159 16
	sw	a5,-556(s0)
	.loc 1 160 2 is_stmt 1
	.loc 1 160 24 is_stmt 0
	lw	a5,-616(s0)
	sw	a5,-560(s0)
	.loc 1 160 12
	sw	a5,-564(s0)
.LVL382:
.LBE297:
.LBE298:
	.loc 3 666 2 is_stmt 1
	.loc 3 666 6 is_stmt 0
	call	wps_parse_msg
.LVL383:
	.loc 3 666 5
	bge	a0,zero,.L205
.L207:
	.loc 3 668 7
	li	s7,-1
.LVL384:
.L206:
	.loc 3 723 2 is_stmt 1
	.loc 3 724 3
	lw	a0,-612(s0)
	call	wpa_supplicant_free
.LVL385:
	.loc 3 726 2
.LBE300:
.LBE303:
	.loc 3 748 3
	.loc 3 748 6 is_stmt 0
	bne	s7,zero,.L210
.LVL386:
	.loc 3 749 4 is_stmt 1
	.loc 3 749 6 is_stmt 0
	addi	s8,s8,1
.LVL387:
.L211:
.LBE292:
	.loc 3 745 28 is_stmt 1
	.loc 3 745 2 is_stmt 0
	lw	a5,-620(s0)
	.loc 3 745 29
	addi	s9,s9,1
.LVL388:
	.loc 3 745 14 is_stmt 1
	.loc 3 745 2 is_stmt 0
	addi	s10,s10,4
	bne	a5,s9,.L212
	.loc 3 757 2 is_stmt 1
	.loc 3 757 5 is_stmt 0
	bne	s8,zero,.L213
	j	.L204
.LVL389:
.L205:
.LBB305:
.LBB304:
.LBB301:
	.loc 3 667 6
	lw	a0,-612(s0)
	mv	a1,s11
	call	wps_process_cred
.LVL390:
	mv	s7,a0
	.loc 3 666 36
	bne	a0,zero,.L207
	.loc 3 672 2 is_stmt 1
	.loc 3 672 49 is_stmt 0
	lw	a1,0(s1)
	.loc 3 672 6
	lw	a0,-632(s0)
	li	a2,6
	addi	a1,a1,68
	call	memcmp
.LVL391:
	.loc 3 672 5
	beq	a0,zero,.L208
	.loc 3 674 3 is_stmt 1
	.loc 3 674 7
	.loc 3 674 14
	.loc 3 686 3
	.loc 3 686 6 is_stmt 0
	lw	a5,-628(s0)
	bne	a5,zero,.L207
.L208:
	.loc 3 696 2 is_stmt 1
	.loc 3 696 17 is_stmt 0
	lhu	a4,386(s1)
	.loc 3 696 5
	andi	a3,a4,13
	bne	a3,zero,.L209
	.loc 3 698 3 is_stmt 1
	.loc 3 698 6 is_stmt 0
	andi	a4,a4,2
	beq	a4,zero,.L207
	.loc 3 699 4 is_stmt 1
	.loc 3 699 8
	.loc 3 699 15
	.loc 3 701 4
	.loc 3 701 26 is_stmt 0
	li	a5,2
	sh	a5,618(s1)
	.loc 3 702 4 is_stmt 1
.LVL392:
	.loc 3 703 4
	.loc 3 702 8 is_stmt 0
	li	s7,-2
	.loc 3 703 4
	j	.L206
.LVL393:
.L209:
	.loc 3 712 5 is_stmt 1
	lbu	a4,456(s1)
	lw	a3,-636(s0)
	lbu	a2,380(s1)
	mv	a1,s11
	andi	a0,s9,0xff
	call	wps_credential_save
.LVL394:
	.loc 3 714 2
	.loc 3 714 9 is_stmt 0
	lw	a4,0(s1)
	.loc 3 714 5
	lw	a3,296(a4)
	beq	a3,zero,.L206
	.loc 3 715 3 is_stmt 1
	.loc 3 715 30 is_stmt 0
	lw	a5,-624(s0)
	.loc 3 717 9
	mv	a1,s11
	.loc 3 715 30
	addi	a5,a5,-4
	.loc 3 715 23
	sw	a5,468(s1)
	.loc 3 716 3 is_stmt 1
	.loc 3 716 38 is_stmt 0
	lw	a5,-616(s0)
	addi	a5,a5,4
	.loc 3 716 27
	sw	a5,472(s1)
	.loc 3 717 3 is_stmt 1
	.loc 3 717 9 is_stmt 0
	lw	a5,296(a4)
	lw	a0,304(a4)
	jalr	a5
.LVL395:
	mv	s7,a0
.LVL396:
	.loc 3 718 3 is_stmt 1
	.loc 3 718 23 is_stmt 0
	sw	zero,468(s1)
	.loc 3 719 3 is_stmt 1
	.loc 3 719 27 is_stmt 0
	sw	zero,472(s1)
	j	.L206
.LVL397:
.L210:
.LBE301:
.LBE304:
	.loc 3 750 8 is_stmt 1
	.loc 3 750 11 is_stmt 0
	li	a5,-2
	beq	s7,a5,.L211
	j	.L204
.LVL398:
.L215:
.LBE305:
.LBE308:
.LBE320:
.LBB321:
.LBB316:
	.loc 3 790 2 is_stmt 1
	.loc 3 790 6
	.loc 3 790 13
	.loc 3 793 2
	.loc 3 793 45 is_stmt 0
	lw	a1,0(s1)
	.loc 3 793 6
	li	a2,6
	addi	a0,s7,112
	addi	a1,a1,68
	call	memcmp
.LVL399:
	.loc 3 793 5
	beq	a0,zero,.L217
	.loc 3 795 3 is_stmt 1
	.loc 3 795 7
	.loc 3 795 14
	.loc 3 807 3
	.loc 3 807 6 is_stmt 0
	bne	s8,zero,.L373
.L217:
	.loc 3 817 2 is_stmt 1
	.loc 3 817 12 is_stmt 0
	lhu	a5,38(s7)
	.loc 3 817 5
	andi	a4,a5,13
	bne	a4,zero,.L219
	.loc 3 819 3 is_stmt 1
	.loc 3 819 6 is_stmt 0
	andi	a5,a5,2
	beq	a5,zero,.L373
	.loc 3 820 4 is_stmt 1
	.loc 3 820 8
	.loc 3 820 15
	.loc 3 822 4
	.loc 3 822 26 is_stmt 0
	li	a5,2
.L372:
	.loc 3 842 26
	sh	a5,618(s1)
	j	.L373
.L219:
	.loc 3 835 2 is_stmt 1
	andi	a4,a5,12
	.loc 3 835 5 is_stmt 0
	beq	s8,zero,.L220
	.loc 3 836 3 is_stmt 1
	.loc 3 836 6 is_stmt 0
	li	a5,4
	beq	a4,a5,.L221
	.loc 3 837 14
	lhu	a5,36(s7)
	li	a4,2
	andi	a5,a5,34
	bne	a5,a4,.L222
.L221:
	.loc 3 840 4 is_stmt 1
	.loc 3 840 8
	.loc 3 840 15
	.loc 3 842 4
	.loc 3 842 26 is_stmt 0
	li	a5,1
	j	.L372
.L220:
	.loc 3 851 2 is_stmt 1
	.loc 3 851 5 is_stmt 0
	li	a3,4
	bne	a4,a3,.L222
	.loc 3 853 3 is_stmt 1
	.loc 3 853 7
	.loc 3 853 14
	.loc 3 855 3
	.loc 3 855 19 is_stmt 0
	ori	a5,a5,8
	sh	a5,38(s7)
.L222:
	.loc 3 858 2 is_stmt 1
	.loc 3 858 11 is_stmt 0
	lhu	a5,36(s7)
	.loc 3 858 5
	li	a4,2
	andi	a3,a5,34
	bne	a3,a4,.L223
	.loc 3 860 3 is_stmt 1
	.loc 3 860 7
	.loc 3 860 14
	.loc 3 862 3
	.loc 3 862 19 is_stmt 0
	ori	a5,a5,32
	sh	a5,36(s7)
.L223:
	.loc 3 866 2 is_stmt 1
	.loc 3 866 14 is_stmt 0
	lw	a5,0(s1)
	.loc 3 866 5
	lw	a5,296(a5)
	beq	a5,zero,.L216
	.loc 3 867 3 is_stmt 1
.LVL400:
.LBB311:
.LBB312:
	.loc 1 81 2
	.loc 1 81 9 is_stmt 0
	lw	a5,8(s4)
	.loc 1 81 5
	bne	a5,zero,.L224
	.loc 1 83 2 is_stmt 1
	.loc 1 83 13 is_stmt 0
	addi	a5,s4,12
.L224:
.LVL401:
.LBE312:
.LBE311:
	.loc 3 867 19
	sw	a5,120(s7)
	.loc 3 868 3 is_stmt 1
.LVL402:
.LBB313:
.LBB314:
	.loc 1 61 2
	.loc 1 61 12 is_stmt 0
	lw	a5,4(s4)
.LVL403:
.LBE314:
.LBE313:
	.loc 3 869 3
	mv	a1,s7
	.loc 3 868 23
	sw	a5,124(s7)
	.loc 3 869 3 is_stmt 1
	.loc 3 869 6 is_stmt 0
	lw	a5,0(s1)
	.loc 3 869 3
	lw	a4,296(a5)
	lw	a0,304(a5)
	jalr	a4
.LVL404:
	j	.L216
.L139:
.LVL405:
.L131:
.LBE316:
.LBE321:
.LBE323:
.LBE325:
.LBE331:
.LBE342:
	.loc 3 1535 3 is_stmt 1
	.loc 3 1535 7 is_stmt 0
	mv	a0,s3
	call	wps_validate_wsc_ack
.LVL406:
	.loc 3 1535 6
	blt	a0,zero,.L374
	.loc 3 1537 3 is_stmt 1
.LVL407:
.LBB343:
.LBB336:
	.loc 3 1349 2
	.loc 3 1350 2
	.loc 3 1352 2
	.loc 3 1352 6
	.loc 3 1352 13
	.loc 3 1354 2
	.loc 3 1354 34 is_stmt 0
	li	a1,500
	li	a0,1
	call	wpa_supplicant_zalloc
.LVL408:
	mv	s2,a0
.LVL409:
	.loc 3 1355 9 is_stmt 1
	.loc 3 1355 12 is_stmt 0
	beq	a0,zero,.L374
	.loc 3 1360 2 is_stmt 1
	.loc 3 1360 6 is_stmt 0
	mv	a1,a0
	mv	a0,s3
.LVL410:
	call	wps_parse_msg
.LVL411:
	.loc 3 1360 5
	blt	a0,zero,.L226
	.loc 3 1365 2 is_stmt 1
	.loc 3 1365 10 is_stmt 0
	lw	a5,8(s2)
	.loc 3 1365 5
	beq	a5,zero,.L226
	.loc 3 1371 2 is_stmt 1
	.loc 3 1371 5 is_stmt 0
	lbu	a4,0(a5)
	li	a5,13
	bne	a4,a5,.L226
	.loc 3 1378 2 is_stmt 1
	.loc 3 1378 10 is_stmt 0
	lw	a1,16(s2)
	.loc 3 1378 5
	beq	a1,zero,.L226
	.loc 3 1379 6
	li	a2,16
	addi	a0,s1,70
	call	memcmp
.LVL412:
	.loc 3 1378 35
	bne	a0,zero,.L226
	.loc 3 1386 2 is_stmt 1
	.loc 3 1386 10 is_stmt 0
	lw	a1,12(s2)
	.loc 3 1386 5
	beq	a1,zero,.L226
	.loc 3 1387 6
	li	a2,16
	addi	a0,s1,54
	call	memcmp
.LVL413:
	.loc 3 1386 34
	bne	a0,zero,.L226
	.loc 3 1393 2 is_stmt 1
	.loc 3 1393 5 is_stmt 0
	lw	a4,12(s1)
	li	a5,10
	bne	a4,a5,.L226
	.loc 3 1393 35
	lw	a0,0(s1)
	.loc 3 1393 29
	lw	a5,0(a0)
	beq	a5,zero,.L226
	.loc 3 1394 3 is_stmt 1
	.loc 3 1394 7
	.loc 3 1394 14
	.loc 3 1396 3
	call	wps_success_event
.LVL414:
	.loc 3 1397 3
	.loc 3 1397 14 is_stmt 0
	li	a5,11
	sw	a5,12(s1)
	.loc 3 1398 3 is_stmt 1
.LVL415:
	.loc 3 1399 3
	.loc 3 1398 7 is_stmt 0
	li	s4,0
	.loc 3 1399 3
	j	.L227
.LVL416:
.L229:
.LBE336:
.LBE343:
.LBB344:
.LBB226:
	.loc 3 1484 3 is_stmt 1
	lhu	a3,618(s1)
	li	a1,9
	j	.L368
.L230:
	.loc 3 1488 3
	lhu	a3,618(s1)
	li	a1,11
	j	.L368
.LBE226:
.LBE344:
	.cfi_endproc
.LFE106:
	.size	wps_enrollee_process_msg, .-wps_enrollee_process_msg
	.text
.Letext0:
	.file 4 "/home/dinhquangha/intern/Ai-Thinker-WB2/toolchain/riscv/Linux/lib/gcc/riscv64-unknown-elf/10.2.0/include/stddef.h"
	.file 5 "/home/dinhquangha/intern/Ai-Thinker-WB2/toolchain/riscv/Linux/riscv64-unknown-elf/include/machine/_default_types.h"
	.file 6 "/home/dinhquangha/intern/Ai-Thinker-WB2/toolchain/riscv/Linux/riscv64-unknown-elf/include/sys/_stdint.h"
	.file 7 "/home/dinhquangha/intern/Ai-Thinker-WB2/components/platform/soc/bl602/freertos_riscv_ram/config/projdefs.h"
	.file 8 "/home/dinhquangha/intern/Ai-Thinker-WB2/components/platform/soc/bl602/freertos_riscv_ram/portable/GCC/RISC-V/portmacro.h"
	.file 9 "/home/dinhquangha/intern/Ai-Thinker-WB2/components/platform/soc/bl602/freertos_riscv_ram/config/FreeRTOS.h"
	.file 10 "/home/dinhquangha/intern/Ai-Thinker-WB2/components/platform/soc/bl602/freertos_riscv_ram/config/task.h"
	.file 11 "/home/dinhquangha/intern/Ai-Thinker-WB2/components/platform/soc/bl602/freertos_riscv_ram/config/queue.h"
	.file 12 "/home/dinhquangha/intern/Ai-Thinker-WB2/components/platform/soc/bl602/freertos_riscv_ram/config/timers.h"
	.file 13 "/home/dinhquangha/intern/Ai-Thinker-WB2/components/security/wpa_supplicant/src/wps/wps_defs.h"
	.file 14 "/home/dinhquangha/intern/Ai-Thinker-WB2/components/security/wpa_supplicant/include/bl_supplicant/bl_wps.h"
	.file 15 "/home/dinhquangha/intern/Ai-Thinker-WB2/components/network/wifi/include/supplicant_api.h"
	.file 16 "/home/dinhquangha/intern/Ai-Thinker-WB2/components/security/wpa_supplicant/src/wps/wps.h"
	.file 17 "/home/dinhquangha/intern/Ai-Thinker-WB2/components/security/wpa_supplicant/src/wps/wps_i.h"
	.file 18 "/home/dinhquangha/intern/Ai-Thinker-WB2/components/security/wpa_supplicant/src/wps/wps_attr_parse.h"
	.file 19 "/home/dinhquangha/intern/Ai-Thinker-WB2/components/security/wpa_supplicant/port/include/os.h"
	.file 20 "/home/dinhquangha/intern/Ai-Thinker-WB2/toolchain/riscv/Linux/riscv64-unknown-elf/include/string.h"
	.file 21 "/home/dinhquangha/intern/Ai-Thinker-WB2/components/security/wpa_supplicant/src/wps/wps_dev_attr.h"
	.file 22 "/home/dinhquangha/intern/Ai-Thinker-WB2/components/security/wpa_supplicant/src/crypto/sha256.h"