	.file	"bl_sec_aes.c"
	.option nopic
	.attribute arch, "rv32i2p0_m2p0_f2p0_c2p0"
	.attribute unaligned_access, 0
	.attribute stack_align, 16
	.text
.Ltext0:
	.cfi_sections	.debug_frame
	.section	.text.bl_sec_aes_init,"ax",@progbits
	.align	1
	.globl	bl_sec_aes_init
	.type	bl_sec_aes_init, @function
bl_sec_aes_init:
.LFB8:
	.file 1 "/home/quanghaictu/intern/Ai-Thinker-WB2/components/platform/hosal/sec_common/bl_sec_aes.c"
	.loc 1 8 1
	.cfi_startproc
	.loc 1 9 5
	.loc 1 8 1 is_stmt 0
	addi	sp,sp,-16
	.cfi_def_cfa_offset 16
	sw	s0,8(sp)
	sw	ra,12(sp)
	.cfi_offset 8, -8
	.cfi_offset 1, -4
	addi	s0,sp,16
	.cfi_def_cfa 8, 0
	.loc 1 9 5
	li	a0,0
	call	Sec_Eng_AES_Enable_BE
.LVL0:
	.loc 1 10 5 is_stmt 1
	.loc 1 11 1 is_stmt 0
	lw	ra,12(sp)
	.cfi_restore 1
	lw	s0,8(sp)
	.cfi_restore 8
	.cfi_def_cfa 2, 16
	li	a0,0
	addi	sp,sp,16
	.cfi_def_cfa_offset 0
	jr	ra
	.cfi_endproc
.LFE8:
	.size	bl_sec_aes_init, .-bl_sec_aes_init
	.section	.text.bl_aes_acquire_hw,"ax",@progbits
	.align	1
	.globl	bl_aes_acquire_hw
	.type	bl_aes_acquire_hw, @function
bl_aes_acquire_hw:
.LFB9:
	.loc 1 14 1 is_stmt 1
	.cfi_startproc
	.loc 1 15 5
	.loc 1 14 1 is_stmt 0
	addi	sp,sp,-16
	.cfi_def_cfa_offset 16
	sw	s0,8(sp)
	sw	ra,12(sp)
	.cfi_offset 8, -8
	.cfi_offset 1, -4
	addi	s0,sp,16
	.cfi_def_cfa 8, 0
	.loc 1 15 5
	call	vTaskEnterCritical
.LVL1:
	.loc 1 16 5 is_stmt 1
	.loc 1 17 1 is_stmt 0
	lw	ra,12(sp)
	.cfi_restore 1
	lw	s0,8(sp)
	.cfi_restore 8
	.cfi_def_cfa 2, 16
	li	a0,0
	addi	sp,sp,16
	.cfi_def_cfa_offset 0
	jr	ra
	.cfi_endproc
.LFE9:
	.size	bl_aes_acquire_hw, .-bl_aes_acquire_hw
	.section	.text.bl_aes_release_hw,"ax",@progbits
	.align	1
	.globl	bl_aes_release_hw
	.type	bl_aes_release_hw, @function
bl_aes_release_hw:
.LFB10:
	.loc 1 20 1 is_stmt 1
	.cfi_startproc
	.loc 1 21 5
	.loc 1 20 1 is_stmt 0
	addi	sp,sp,-16
	.cfi_def_cfa_offset 16
	sw	s0,8(sp)
	sw	ra,12(sp)
	.cfi_offset 8, -8
	.cfi_offset 1, -4
	addi	s0,sp,16
	.cfi_def_cfa 8, 0
	.loc 1 21 5
	call	vTaskExitCritical
.LVL2:
	.loc 1 22 5 is_stmt 1
	.loc 1 23 1 is_stmt 0
	lw	ra,12(sp)
	.cfi_restore 1
	lw	s0,8(sp)
	.cfi_restore 8
	.cfi_def_cfa 2, 16
	li	a0,0
	addi	sp,sp,16
	.cfi_def_cfa_offset 0
	jr	ra
	.cfi_endproc
.LFE10:
	.size	bl_aes_release_hw, .-bl_aes_release_hw
	.section	.text.bl_aes_init,"ax",@progbits
	.align	1
	.globl	bl_aes_init
	.type	bl_aes_init, @function
bl_aes_init:
.LFB11:
	.loc 1 26 1 is_stmt 1
	.cfi_startproc
.LVL3:
	.loc 1 27 5
	.loc 1 27 8 is_stmt 0
	beq	a0,zero,.L9
	.loc 1 26 1
	addi	sp,sp,-16
	.cfi_def_cfa_offset 16
	sw	s0,8(sp)
	sw	s1,4(sp)
	sw	ra,12(sp)
	.cfi_offset 8, -8
	.cfi_offset 9, -12
	.cfi_offset 1, -4
	addi	s0,sp,16
	.cfi_def_cfa 8, 0
	.loc 1 30 5
	li	a2,60
	li	a1,0
	mv	s1,a0
	.loc 1 30 5 is_stmt 1
	call	memset
.LVL4:
	.loc 1 31 5
	.loc 1 32 5
	.loc 1 31 29 is_stmt 0
	lbu	a5,1(s1)
	.loc 1 34 12
	li	a0,0
	.loc 1 31 29
	andi	a5,a5,-51
	ori	a5,a5,2
	sb	a5,1(s1)
	.loc 1 34 5 is_stmt 1
	.loc 1 35 1 is_stmt 0
	lw	ra,12(sp)
	.cfi_restore 1
	lw	s0,8(sp)
	.cfi_restore 8
	.cfi_def_cfa 2, 16
	lw	s1,4(sp)
	.cfi_restore 9
.LVL5:
	addi	sp,sp,16
	.cfi_def_cfa_offset 0
	jr	ra
.LVL6:
.L9:
	.loc 1 28 16
	li	a0,-1
.LVL7:
	.loc 1 35 1
	ret
	.cfi_endproc
.LFE11:
	.size	bl_aes_init, .-bl_aes_init
	.section	.text.bl_aes_set_key,"ax",@progbits
	.align	1
	.globl	bl_aes_set_key
	.type	bl_aes_set_key, @function
bl_aes_set_key:
.LFB12:
	.loc 1 38 1 is_stmt 1
	.cfi_startproc
.LVL8:
	.loc 1 39 5
	.loc 1 39 8 is_stmt 0
	beq	a0,zero,.L18
	mv	a5,a0
	mv	a1,a2
.LVL9:
	.loc 1 40 16 discriminator 1
	li	a0,-1
.LVL10:
	.loc 1 39 15 discriminator 1
	beq	a2,zero,.L24
	mv	a2,a3
.LVL11:
	.loc 1 39 9 discriminator 2
	andi	a4,a3,-9
	li	a3,16
.LVL12:
	beq	a4,a3,.L16
	.loc 1 39 57 discriminator 4
	li	a4,32
	bne	a2,a4,.L24
.L16:
	.loc 1 42 5 is_stmt 1
	.loc 1 44 5
	.loc 1 38 1 is_stmt 0
	addi	sp,sp,-16
	.cfi_def_cfa_offset 16
	sw	s0,8(sp)
	sw	ra,12(sp)
	.cfi_offset 8, -8
	.cfi_offset 1, -4
	addi	s0,sp,16
	.cfi_def_cfa 8, 0
	.loc 1 44 32
	lw	a4,0(a5)
	.loc 1 46 8
	li	a3,16
	.loc 1 44 32
	andi	a4,a4,-65
	sw	a4,0(a5)
	.loc 1 45 5 is_stmt 1
	.loc 1 46 5
	.loc 1 47 18 is_stmt 0
	li	a4,0
	.loc 1 46 8
	beq	a2,a3,.L17
	.loc 1 48 12 is_stmt 1
	.loc 1 48 15 is_stmt 0
	li	a3,24
	.loc 1 49 18
	li	a4,2
	.loc 1 48 15
	beq	a2,a3,.L17
	.loc 1 51 18
	li	a4,1
.L17:
.LVL13:
	.loc 1 53 5 is_stmt 1
	.loc 1 53 27 is_stmt 0
	slli	a3,a4,3
	lw	a4,0(a5)
.LVL14:
	.loc 1 54 5
	addi	a0,a5,28
	.loc 1 53 27
	andi	a4,a4,-25
	or	a4,a4,a3
	sw	a4,0(a5)
	.loc 1 54 5 is_stmt 1
	call	memcpy
.LVL15:
	.loc 1 56 5
	.loc 1 57 1 is_stmt 0
	lw	ra,12(sp)
	.cfi_restore 1
	lw	s0,8(sp)
	.cfi_restore 8
	.cfi_def_cfa 2, 16
	.loc 1 56 12
	li	a0,0
	.loc 1 57 1
	addi	sp,sp,16
	.cfi_def_cfa_offset 0
	jr	ra
.LVL16:
.L18:
	.loc 1 40 16
	li	a0,-1
.LVL17:
	ret
.LVL18:
.L24:
	.loc 1 57 1
	ret
	.cfi_endproc
.LFE12:
	.size	bl_aes_set_key, .-bl_aes_set_key
	.section	.text.bl_aes_set_mode,"ax",@progbits
	.align	1
	.globl	bl_aes_set_mode
	.type	bl_aes_set_mode, @function
bl_aes_set_mode:
.LFB13:
	.loc 1 60 1 is_stmt 1
	.cfi_startproc
.LVL19:
	.loc 1 61 5
	.loc 1 60 1 is_stmt 0
	addi	sp,sp,-16
	.cfi_def_cfa_offset 16
	sw	s0,8(sp)
	sw	s2,0(sp)
	sw	ra,12(sp)
	sw	s1,4(sp)
	.cfi_offset 8, -8
	.cfi_offset 18, -16
	.cfi_offset 1, -4
	.cfi_offset 9, -12
	addi	s0,sp,16
	.cfi_def_cfa 8, 0
	.loc 1 62 16
	li	s2,-1
	.loc 1 61 8
	beq	a0,zero,.L26
	.loc 1 64 32
	lw	a4,0(a0)
	mv	a5,a1
	li	a3,-12288
	andi	a5,a5,3
	addi	a3,a3,-1
	slli	a5,a5,12
	and	a4,a4,a3
	or	a5,a4,a5
	sw	a5,0(a0)
	mv	s1,a0
	mv	a1,a2
.LVL20:
	.loc 1 64 5 is_stmt 1
	.loc 1 65 5
	.loc 1 70 12 is_stmt 0
	li	s2,0
	.loc 1 65 8
	beq	a2,zero,.L26
	.loc 1 66 9 is_stmt 1
	li	a2,16
.LVL21:
	addi	a0,a0,12
.LVL22:
	call	memcpy
.LVL23:
	.loc 1 67 9
	.loc 1 67 32 is_stmt 0
	lw	a5,0(s1)
	li	a4,-16384
	addi	a4,a4,-1
	and	a5,a5,a4
	sw	a5,0(s1)
.LVL24:
.L26:
	.loc 1 71 1
	lw	ra,12(sp)
	.cfi_restore 1
	lw	s0,8(sp)
	.cfi_restore 8
	.cfi_def_cfa 2, 16
	lw	s1,4(sp)
	.cfi_restore 9
	mv	a0,s2
	lw	s2,0(sp)
	.cfi_restore 18
	addi	sp,sp,16
	.cfi_def_cfa_offset 0
	jr	ra
	.cfi_endproc
.LFE13:
	.size	bl_aes_set_mode, .-bl_aes_set_mode
	.section	.text.bl_aes_transform_blocks,"ax",@progbits
	.align	1
	.globl	bl_aes_transform_blocks
	.type	bl_aes_transform_blocks, @function
bl_aes_transform_blocks:
.LFB14:
	.loc 1 74 1 is_stmt 1
	.cfi_startproc
.LVL25:
	.loc 1 75 5
	.loc 1 76 5
	.loc 1 76 8 is_stmt 0
	beq	a0,zero,.L34
	.loc 1 74 1 discriminator 1
	addi	sp,sp,-32
	.cfi_def_cfa_offset 32
	sw	s0,24(sp)
	sw	s1,20(sp)
	.cfi_offset 8, -8
	.cfi_offset 9, -12
	addi	s0,sp,32
	.cfi_def_cfa 8, 0
	sw	ra,28(sp)
	sw	s2,16(sp)
	.cfi_offset 1, -4
	.cfi_offset 18, -16
	.loc 1 76 15 discriminator 1
	sw	a2,-24(s0)
	mv	s1,a0
	.loc 1 77 16 discriminator 1
	li	a0,-1
.LVL26:
	.loc 1 76 15 discriminator 1
	beq	a2,zero,.L32
	.loc 1 76 9 discriminator 2
	sw	a4,-20(s0)
	beq	a4,zero,.L32
	mv	s2,a3
	.loc 1 80 5 is_stmt 1
	.loc 1 81 16 is_stmt 0
	li	a0,0
	.loc 1 80 8
	beq	a3,zero,.L32
.LVL27:
.LBB4:
.LBB5:
	.loc 1 83 5 is_stmt 1
	lw	a5,0(s1)
	snez	a1,a1
.LVL28:
	slli	a1,a1,5
	andi	a5,a5,-33
	or	a1,a5,a1
	sw	a1,0(s1)
	.loc 1 89 5
	call	Sec_Eng_AES_Enable_Link
.LVL29:
	.loc 1 90 5
	.loc 1 90 11 is_stmt 0
	lw	a4,-20(s0)
	lw	a2,-24(s0)
	mv	a1,s1
	slli	a3,s2,4
	li	a0,0
	call	Sec_Eng_AES_Link_Work
.LVL30:
	mv	s1,a0
.LVL31:
	.loc 1 91 5 is_stmt 1
	li	a0,0
	call	Sec_Eng_AES_Disable_Link
.LVL32:
	.loc 1 93 5
	.loc 1 93 12 is_stmt 0
	snez	a0,s1
.LVL33:
.L32:
.LBE5:
.LBE4:
	.loc 1 94 1
	lw	ra,28(sp)
	.cfi_restore 1
	lw	s0,24(sp)
	.cfi_restore 8
	.cfi_def_cfa 2, 32
	lw	s1,20(sp)
	.cfi_restore 9
	lw	s2,16(sp)
	.cfi_restore 18
	addi	sp,sp,32
	.cfi_def_cfa_offset 0
	jr	ra
.LVL34:
.L34:
	.loc 1 77 16
	li	a0,-1
.LVL35:
	.loc 1 94 1
	ret
	.cfi_endproc
.LFE14:
	.size	bl_aes_transform_blocks, .-bl_aes_transform_blocks
	.section	.text.bl_aes_transform,"ax",@progbits
	.align	1
	.globl	bl_aes_transform
	.type	bl_aes_transform, @function
bl_aes_transform:
.LFB15:
	.loc 1 97 1 is_stmt 1
	.cfi_startproc
.LVL36:
	.loc 1 98 5
	.loc 1 97 1 is_stmt 0
	addi	sp,sp,-16
	.cfi_def_cfa_offset 16
	sw	s0,12(sp)
	.cfi_offset 8, -4
	addi	s0,sp,16
	.cfi_def_cfa 8, 0
	.loc 1 99 1
	lw	s0,12(sp)
	.cfi_restore 8
	.cfi_def_cfa 2, 16
	.loc 1 97 1
	mv	a4,a3
	.loc 1 98 12
	li	a3,1
.LVL37:
	.loc 1 99 1
	addi	sp,sp,16
	.cfi_def_cfa_offset 0
	.loc 1 98 12
	tail	bl_aes_transform_blocks
.LVL38:
	.cfi_endproc
.LFE15:
	.size	bl_aes_transform, .-bl_aes_transform
	.text
.Letext0:
	.file 2 "/home/quanghaictu/intern/Ai-Thinker-WB2/toolchain/riscv/Linux/lib/gcc/riscv64-unknown-elf/10.2.0/include/stddef.h"
	.file 3 "/home/quanghaictu/intern/Ai-Thinker-WB2/toolchain/riscv/Linux/lib/gcc/riscv64-unknown-elf/10.2.0/include/stdint-gcc.h"
	.file 4 "/home/quanghaictu/intern/Ai-Thinker-WB2/components/platform/hosal/sec_common/bl_sec_aes.h"
	.file 5 "/home/quanghaictu/intern/Ai-Thinker-WB2/components/platform/soc/bl602/bl602_std/bl602_std/StdDriver/Inc/bl602_common.h"
	.file 6 "/home/quanghaictu/intern/Ai-Thinker-WB2/components/platform/soc/bl602/bl602_std/bl602_std/StdDriver/Inc/bl602_sec_eng.h"
	.file 7 "/home/quanghaictu/intern/Ai-Thinker-WB2/toolchain/riscv/Linux/riscv64-unknown-elf/include/string.h"
	.file 8 "/home/quanghaictu/intern/Ai-Thinker-WB2/components/platform/soc/bl602/freertos_riscv_ram/portable/GCC/RISC-V/portmacro.h"