	.file	"bl_host_assist.c"
	.option nopic
	.attribute arch, "rv32i2p0_m2p0_f2p0_c2p0"
	.attribute unaligned_access, 0
	.attribute stack_align, 16
	.text
.Ltext0:
	.cfi_sections	.debug_frame
	.section	.text.blhast_ble_construct_ad,"ax",@progbits
	.align	1
	.type	blhast_ble_construct_ad, @function
blhast_ble_construct_ad:
.LFB88:
	.file 1 "/home/dinhquangha/intern/Ai-Thinker-WB2/components/network/ble/blestack/src/host/bl_host_assist.c"
	.loc 1 57 1
	.cfi_startproc
.LVL0:
	.loc 1 58 6
	.loc 1 59 6
	.loc 1 60 3
	.loc 1 57 1 is_stmt 0
	addi	sp,sp,-32
	.cfi_def_cfa_offset 32
	sw	s0,24(sp)
.LVL1:
	sw	s1,20(sp)
	sw	s2,16(sp)
	sw	s3,12(sp)
	sw	ra,28(sp)
	sw	s4,8(sp)
	.cfi_offset 8, -8
	.cfi_offset 9, -12
	.cfi_offset 18, -16
	.cfi_offset 19, -20
	.cfi_offset 1, -4
	.cfi_offset 20, -24
	addi	s0,sp,32
	.cfi_def_cfa 8, 0
	lw	s4,32(a0)
	.loc 1 60 9
	mv	s1,a0
.LVL2:
	.loc 1 63 3 is_stmt 1
	mv	s2,a1
	.loc 1 63 9 is_stmt 0
	li	s3,0
.LVL3:
.L2:
	.loc 1 63 14 is_stmt 1 discriminator 1
	.loc 1 63 3 is_stmt 0 discriminator 1
	bne	s3,s4,.L3
	.loc 1 69 1
	lw	ra,28(sp)
	.cfi_remember_state
	.cfi_restore 1
	lw	s0,24(sp)
	.cfi_restore 8
	.cfi_def_cfa 2, 32
	lw	s1,20(sp)
	.cfi_restore 9
.LVL4:
	lw	s2,16(sp)
	.cfi_restore 18
	lw	s3,12(sp)
	.cfi_restore 19
.LVL5:
	lw	s4,8(sp)
	.cfi_restore 20
	addi	sp,sp,32
	.cfi_def_cfa_offset 0
	jr	ra
.LVL6:
.L3:
	.cfi_restore_state
	.loc 1 64 10 is_stmt 1 discriminator 3
	mv	a1,s1
	mv	a0,s2
	li	a2,2
	call	memcpy
.LVL7:
	.loc 1 65 10 discriminator 3
	.loc 1 67 24 is_stmt 0 discriminator 3
	lbu	a0,1(s2)
	.loc 1 65 15 discriminator 3
	addi	s1,s1,2
.LVL8:
	.loc 1 66 10 is_stmt 1 discriminator 3
	.loc 1 66 25 is_stmt 0 discriminator 3
	sw	s1,4(s2)
	.loc 1 67 7 is_stmt 1 discriminator 3
	.loc 1 63 27 is_stmt 0 discriminator 3
	addi	s3,s3,1
.LVL9:
	.loc 1 67 12 discriminator 3
	add	s1,s1,a0
.LVL10:
	.loc 1 63 26 is_stmt 1 discriminator 3
	addi	s2,s2,8
	j	.L2
	.cfi_endproc
.LFE88:
	.size	blhast_ble_construct_ad, .-blhast_ble_construct_ad
	.section	.text.blhast_ble_get_ad,"ax",@progbits
	.align	1
	.type	blhast_ble_get_ad, @function
blhast_ble_get_ad:
.LFB87:
	.loc 1 39 1
	.cfi_startproc
.LVL11:
	.loc 1 40 5
	.loc 1 41 2
	.loc 1 43 2
	.loc 1 39 1 is_stmt 0
	addi	sp,sp,-32
	.cfi_def_cfa_offset 32
	sw	s0,24(sp)
	sw	s2,16(sp)
	sw	s3,12(sp)
	sw	s4,8(sp)
	sw	s5,4(sp)
	sw	ra,28(sp)
	sw	s1,20(sp)
	.cfi_offset 8, -8
	.cfi_offset 18, -16
	.cfi_offset 19, -20
	.cfi_offset 20, -24
	.cfi_offset 21, -28
	.cfi_offset 1, -4
	.cfi_offset 9, -12
	addi	s0,sp,32
	.cfi_def_cfa 8, 0
	.loc 1 39 1
	mv	s4,a1
	mv	s3,a2
	mv	s2,a0
	.loc 1 41 10
	li	a5,0
	.loc 1 43 9
	li	s5,0
.LVL12:
.L6:
	.loc 1 43 14 is_stmt 1 discriminator 1
	.loc 1 43 2 is_stmt 0 discriminator 1
	bne	s5,s4,.L7
	.loc 1 54 1
	lw	ra,28(sp)
	.cfi_remember_state
	.cfi_restore 1
	lw	s0,24(sp)
	.cfi_restore 8
	.cfi_def_cfa 2, 32
	lw	s1,20(sp)
	.cfi_restore 9
	lw	s2,16(sp)
	.cfi_restore 18
	lw	s3,12(sp)
	.cfi_restore 19
.LVL13:
	lw	s4,8(sp)
	.cfi_restore 20
.LVL14:
	lw	s5,4(sp)
	.cfi_restore 21
.LVL15:
	addi	sp,sp,32
	.cfi_def_cfa_offset 0
	jr	ra
.LVL16:
.L7:
	.cfi_restore_state
	.loc 1 44 3 is_stmt 1 discriminator 3
	.loc 1 44 31 is_stmt 0 discriminator 3
	lbu	a3,0(s2)
	.loc 1 44 24 discriminator 3
	add	a4,s3,a5
	.loc 1 43 27 discriminator 3
	addi	s5,s5,1
.LVL17:
	.loc 1 44 24 discriminator 3
	sb	a3,0(a4)
	.loc 1 45 3 is_stmt 1 discriminator 3
.LVL18:
	.loc 1 47 9 discriminator 3
	.loc 1 47 37 is_stmt 0 discriminator 3
	lbu	a2,1(s2)
	.loc 1 45 11 discriminator 3
	addi	a4,a5,1
	.loc 1 47 18 discriminator 3
	andi	a4,a4,0xff
	.loc 1 47 30 discriminator 3
	add	a4,s3,a4
	sb	a2,0(a4)
	.loc 1 48 3 is_stmt 1 discriminator 3
	.loc 1 48 11 is_stmt 0 discriminator 3
	addi	a5,a5,2
.LVL19:
	.loc 1 50 3 discriminator 3
	lw	a1,4(s2)
	.loc 1 48 11 discriminator 3
	andi	s1,a5,0xff
.LVL20:
	.loc 1 50 3 is_stmt 1 discriminator 3
	add	a0,s3,s1
	call	memcpy
.LVL21:
	.loc 1 52 3 discriminator 3
	.loc 1 52 12 is_stmt 0 discriminator 3
	lbu	a5,1(s2)
	addi	s2,s2,8
	add	a5,s1,a5
	andi	a5,a5,0xff
.LVL22:
	.loc 1 43 26 is_stmt 1 discriminator 3
	j	.L6
	.cfi_endproc
.LFE87:
	.size	blhast_ble_get_ad, .-blhast_ble_get_ad
	.section	.text.blhast_ble_scan_assist_cb,"ax",@progbits
	.align	1
	.type	blhast_ble_scan_assist_cb, @function
blhast_ble_scan_assist_cb:
.LFB86:
	.loc 1 33 1
	.cfi_startproc
.LVL23:
	.loc 1 34 5
	.loc 1 33 1 is_stmt 0
	addi	sp,sp,-16
	.cfi_def_cfa_offset 16
	sw	s0,8(sp)
	sw	s1,4(sp)
	sw	ra,12(sp)
	.cfi_offset 8, -8
	.cfi_offset 9, -12
	.cfi_offset 1, -4
	addi	s0,sp,16
	.cfi_def_cfa 8, 0
	mv	s1,a1
	.loc 1 34 5
	mv	a1,a0
.LVL24:
	lui	a0,%hi(.LANCHOR0)
.LVL25:
	.loc 1 33 1
	.loc 1 34 5
	li	a2,6
	addi	a0,a0,%lo(.LANCHOR0)
	call	memcpy
.LVL26:
	.loc 1 35 2 is_stmt 1
	.loc 1 36 1 is_stmt 0
	lw	ra,12(sp)
	.cfi_restore 1
	lw	s0,8(sp)
	.cfi_restore 8
	.cfi_def_cfa 2, 16
	.loc 1 35 20
	lui	a5,%hi(.LANCHOR1)
	sw	s1,%lo(.LANCHOR1)(a5)
	.loc 1 36 1
	lw	s1,4(sp)
	.cfi_restore 9
.LVL27:
	addi	sp,sp,16
	.cfi_def_cfa_offset 0
	jr	ra
	.cfi_endproc
.LFE86:
	.size	blhast_ble_scan_assist_cb, .-blhast_ble_scan_assist_cb
	.section	.text.blhast_ble_adv_assist_cb,"ax",@progbits
	.align	1
	.type	blhast_ble_adv_assist_cb, @function
blhast_ble_adv_assist_cb:
.LFB89:
	.loc 1 73 1 is_stmt 1
	.cfi_startproc
.LVL28:
	addi	sp,sp,-32
	.cfi_def_cfa_offset 32
	sw	s0,24(sp)
	sw	s1,20(sp)
	sw	s2,16(sp)
	sw	s3,12(sp)
	sw	s4,8(sp)
	sw	ra,28(sp)
	sw	s5,4(sp)
	.cfi_offset 8, -8
	.cfi_offset 9, -12
	.cfi_offset 18, -16
	.cfi_offset 19, -20
	.cfi_offset 20, -24
	.cfi_offset 1, -4
	.cfi_offset 21, -28
	addi	s0,sp,32
	.cfi_def_cfa 8, 0
	mv	s3,a1
	.loc 1 74 5
	mv	a1,a0
.LVL29:
	lui	a0,%hi(.LANCHOR2)
.LVL30:
	.loc 1 73 1 is_stmt 0
	mv	s4,a2
	.loc 1 74 5
	li	a2,6
.LVL31:
	addi	a0,a0,%lo(.LANCHOR2)
	.loc 1 73 1
	mv	s1,a3
	mv	s2,a4
	.loc 1 74 5
	call	memcpy
.LVL32:
	.loc 1 76 2 is_stmt 1
	.loc 1 76 4 is_stmt 0
	beq	s3,zero,.L12
	.loc 1 77 6 is_stmt 1
	.loc 1 77 26 is_stmt 0
	lui	s5,%hi(.LANCHOR3)
	addi	a5,s5,%lo(.LANCHOR3)
	.loc 1 78 6
	li	a2,31
	li	a1,0
	addi	a0,s5,%lo(.LANCHOR3)
	.loc 1 77 26
	sw	s4,32(a5)
	.loc 1 78 6 is_stmt 1
	call	memset
.LVL33:
	.loc 1 79 6
	addi	a2,s5,%lo(.LANCHOR3)
	mv	a1,s4
	mv	a0,s3
	call	blhast_ble_get_ad
.LVL34:
.L12:
	.loc 1 82 2
	.loc 1 82 4 is_stmt 0
	beq	s1,zero,.L11
.LVL35:
.LBB12:
.LBB13:
	.loc 1 83 6 is_stmt 1
	.loc 1 83 26 is_stmt 0
	lui	s3,%hi(.LANCHOR4)
.LVL36:
	addi	a5,s3,%lo(.LANCHOR4)
	.loc 1 84 6
	li	a2,31
	li	a1,0
	addi	a0,s3,%lo(.LANCHOR4)
	.loc 1 83 26
	sw	s2,32(a5)
	.loc 1 84 6 is_stmt 1
	call	memset
.LVL37:
	.loc 1 85 6
.LBE13:
.LBE12:
	.loc 1 87 1 is_stmt 0
	lw	s0,24(sp)
	.cfi_remember_state
	.cfi_restore 8
	.cfi_def_cfa 2, 32
	lw	ra,28(sp)
	.cfi_restore 1
	lw	s4,8(sp)
	.cfi_restore 20
.LVL38:
	lw	s5,4(sp)
	.cfi_restore 21
.LBB17:
.LBB14:
	.loc 1 85 6
	addi	a2,s3,%lo(.LANCHOR4)
	mv	a1,s2
.LBE14:
.LBE17:
	.loc 1 87 1
	lw	s3,12(sp)
	.cfi_restore 19
	lw	s2,16(sp)
	.cfi_restore 18
.LVL39:
.LBB18:
.LBB15:
	.loc 1 85 6
	mv	a0,s1
.LBE15:
.LBE18:
	.loc 1 87 1
	lw	s1,20(sp)
	.cfi_restore 9
.LVL40:
	addi	sp,sp,32
	.cfi_def_cfa_offset 0
.LBB19:
.LBB16:
	.loc 1 85 6
	tail	blhast_ble_get_ad
.LVL41:
.L11:
	.cfi_restore_state
.LBE16:
.LBE19:
	.loc 1 87 1
	lw	ra,28(sp)
	.cfi_restore 1
	lw	s0,24(sp)
	.cfi_restore 8
	.cfi_def_cfa 2, 32
	lw	s1,20(sp)
	.cfi_restore 9
.LVL42:
	lw	s2,16(sp)
	.cfi_restore 18
.LVL43:
	lw	s3,12(sp)
	.cfi_restore 19
.LVL44:
	lw	s4,8(sp)
	.cfi_restore 20
.LVL45:
	lw	s5,4(sp)
	.cfi_restore 21
	addi	sp,sp,32
	.cfi_def_cfa_offset 0
	jr	ra
	.cfi_endproc
.LFE89:
	.size	blhast_ble_adv_assist_cb, .-blhast_ble_adv_assist_cb
	.section	.rodata.blhast_bt_reset.str1.4,"aMS",@progbits,1
	.align	2
.LC0:
	.string	"Non-LE capable controller detected!, %s\r\n"
	.align	2
.LC1:
	.string	"Restore BLE scan\r\n, %s\r\n"
	.align	2
.LC2:
	.string	"Restore BLE advertising\r\n, %s\r\n"
	.section	.text.blhast_bt_reset,"ax",@progbits
	.align	1
	.globl	blhast_bt_reset
	.type	blhast_bt_reset, @function
blhast_bt_reset:
.LFB94:
	.loc 1 362 1 is_stmt 1
	.cfi_startproc
	.loc 1 363 5
	.loc 1 362 1 is_stmt 0
	addi	sp,sp,-48
	.cfi_def_cfa_offset 48
	sw	ra,44(sp)
	sw	s0,40(sp)
	sw	s1,36(sp)
	.cfi_offset 1, -4
	.cfi_offset 8, -8
	.cfi_offset 9, -12
	addi	s0,sp,48
	.cfi_def_cfa 8, 0
	sw	s2,32(sp)
	sw	s3,28(sp)
	sw	s4,24(sp)
	sw	s5,20(sp)
	sw	s6,16(sp)
	.cfi_offset 18, -16
	.cfi_offset 19, -20
	.cfi_offset 20, -24
	.cfi_offset 21, -28
	.cfi_offset 22, -32
	.loc 1 363 5
	call	ble_controller_reset
.LVL46:
	.loc 1 364 2 is_stmt 1
.LBB40:
.LBB41:
	.loc 1 311 5
	.loc 1 312 2
	.loc 1 313 5
	lui	a0,%hi(bt_dev+152)
	.loc 1 314 5 is_stmt 0
	lui	s2,%hi(bt_dev)
	.loc 1 313 5
	addi	a0,a0,%lo(bt_dev+152)
	call	k_sem_give
.LVL47:
	.loc 1 314 5 is_stmt 1
	addi	s3,s2,%lo(bt_dev)
	lw	a0,164(s3)
.LBB42:
.LBB43:
	.loc 1 277 2 is_stmt 0
	lui	s1,%hi(bt_dev+108)
	addi	s2,s2,%lo(bt_dev)
.LBE43:
.LBE42:
	.loc 1 314 5
	call	net_buf_unref
.LVL48:
	.loc 1 315 5 is_stmt 1
.LBB55:
.LBB52:
	.loc 1 277 2 is_stmt 0
	li	a2,4
	addi	a1,s1,%lo(bt_dev+108)
	addi	a0,s0,-40
.LBE52:
.LBE55:
	.loc 1 315 21
	sw	zero,164(s3)
	.loc 1 317 2 is_stmt 1
.LBB56:
.LBB53:
	.loc 1 275 5
	.loc 1 276 2
	.loc 1 277 2
	call	memcpy
.LVL49:
	.loc 1 279 2
.LBB44:
.LBB45:
	.loc 1 92 2
	.loc 1 93 2
	.loc 1 95 5
	.loc 1 95 21 is_stmt 0
	lw	a5,180(s3)
	.loc 1 95 30
	lw	a5,8(a5)
	andi	a5,a5,1
	.loc 1 95 8
	bne	a5,zero,.L20
	.loc 1 97 3 is_stmt 1
	.loc 1 97 9 is_stmt 0
	li	a0,4096
	addi	a2,s0,-36
	li	a1,0
	addi	a0,a0,-1021
	call	bt_hci_cmd_send_sync
.LVL50:
	.loc 1 98 3 is_stmt 1
	.loc 1 98 6 is_stmt 0
	bne	a0,zero,.L22
	.loc 1 101 3 is_stmt 1
	lw	a0,-36(s0)
.LVL51:
	call	bt_hci_reset_complete
.LVL52:
	.loc 1 102 3
	lw	a0,-36(s0)
	call	net_buf_unref
.LVL53:
.LBE45:
.LBE44:
	.loc 1 281 2
.L20:
	.loc 1 285 2
.LBB46:
.LBB47:
	.loc 1 117 5
	.loc 1 118 2
	.loc 1 119 2
	.loc 1 121 2
	.loc 1 121 26 is_stmt 0
	lbu	a5,28(s2)
	.loc 1 121 5
	andi	a4,a5,64
	bne	a4,zero,.L23
	.loc 1 122 3 is_stmt 1
	lui	a1,%hi(.LANCHOR5)
	lui	a0,%hi(.LC0)
	addi	a1,a1,%lo(.LANCHOR5)
	addi	a0,a0,%lo(.LC0)
	call	printf
.LVL54:
	.loc 1 123 3
.LBE47:
.LBE46:
	.loc 1 286 2
.L22:
.LBE53:
.LBE56:
	.loc 1 320 2
	call	bt_notify_disconnected
.LVL55:
	.loc 1 323 5
.LBB57:
.LBB58:
	.file 2 "/home/dinhquangha/intern/Ai-Thinker-WB2/components/network/ble/blestack/src/common/include/atomic.h"
	.loc 2 409 2
	.loc 2 411 2
	li	a1,262144
	addi	a0,s1,%lo(bt_dev+108)
	call	atomic_or
.LVL56:
.LBE58:
.LBE57:
	.loc 1 326 2
.LBB59:
.LBB60:
	.loc 2 331 2
	.loc 2 331 21 is_stmt 0
	addi	a0,s1,%lo(bt_dev+108)
	call	atomic_get
.LVL57:
	.loc 2 333 2 is_stmt 1
	.loc 2 333 19 is_stmt 0
	srai	a0,a0,11
	.loc 2 333 12
	andi	a0,a0,1
.LBE60:
.LBE59:
	.loc 1 326 4
	beq	a0,zero,.L29
	.loc 1 328 7 is_stmt 1
	lui	a1,%hi(.LANCHOR6)
	lui	a0,%hi(.LC1)
	addi	a1,a1,%lo(.LANCHOR6)
	addi	a0,a0,%lo(.LC1)
	call	printf
.LVL58:
	.loc 1 329 9
.LBB61:
.LBB62:
	.loc 2 391 2
	.loc 2 393 2
	li	a1,-4096
	addi	a1,a1,2047
	addi	a0,s1,%lo(bt_dev+108)
	call	atomic_and
.LVL59:
.LBE62:
.LBE61:
	.loc 1 330 6
.LBB63:
.LBB64:
	.loc 2 391 2
	.loc 2 393 2
	li	a1,-1025
	addi	a0,s1,%lo(bt_dev+108)
	call	atomic_and
.LVL60:
.LBE64:
.LBE63:
	.loc 1 331 3
	lui	a5,%hi(.LANCHOR1)
	lw	a1,%lo(.LANCHOR1)(a5)
	lui	a0,%hi(.LANCHOR0)
	addi	a0,a0,%lo(.LANCHOR0)
	call	bt_le_scan_start
.LVL61:
.L29:
	.loc 1 335 2
.LBB65:
.LBB66:
	.loc 2 349 2
	.loc 2 350 2
	.loc 2 352 2
	.loc 2 352 8 is_stmt 0
	li	a1,-65
	addi	a0,s1,%lo(bt_dev+108)
	call	atomic_and
.LVL62:
	.loc 2 354 2 is_stmt 1
	.loc 2 354 14 is_stmt 0
	andi	a0,a0,64
.LBE66:
.LBE65:
	.loc 1 335 4
	beq	a0,zero,.L31
	.loc 1 337 7 is_stmt 1
	lui	a1,%hi(.LANCHOR6)
	lui	a0,%hi(.LC2)
	addi	a1,a1,%lo(.LANCHOR6)
	addi	a0,a0,%lo(.LC2)
	call	printf
.LVL63:
	.loc 1 338 6
	.loc 1 338 21 is_stmt 0
	lui	s2,%hi(.LANCHOR3)
	addi	a5,s2,%lo(.LANCHOR3)
	lw	a0,32(a5)
	addi	s5,s2,%lo(.LANCHOR3)
	.loc 1 311 21
	li	s3,0
	.loc 1 338 8
	beq	a0,zero,.L32
	.loc 1 340 10 is_stmt 1
	.loc 1 340 15 is_stmt 0
	slli	a0,a0,3
	call	k_malloc
.LVL64:
	mv	s3,a0
.LVL65:
	.loc 1 341 10 is_stmt 1
	mv	a1,a0
	addi	a0,s2,%lo(.LANCHOR3)
.LVL66:
	call	blhast_ble_construct_ad
.LVL67:
.L32:
	.loc 1 343 3
	.loc 1 343 18 is_stmt 0
	lui	s4,%hi(.LANCHOR4)
	addi	a5,s4,%lo(.LANCHOR4)
	lw	a0,32(a5)
	addi	s6,s4,%lo(.LANCHOR4)
	.loc 1 312 18
	li	s2,0
	.loc 1 343 5
	beq	a0,zero,.L33
	.loc 1 345 7 is_stmt 1
	.loc 1 345 12 is_stmt 0
	slli	a0,a0,3
	call	k_malloc
.LVL68:
	mv	s2,a0
.LVL69:
	.loc 1 346 10 is_stmt 1
	mv	a1,a0
	addi	a0,s4,%lo(.LANCHOR4)
.LVL70:
	call	blhast_ble_construct_ad
.LVL71:
.L33:
	.loc 1 349 9
	lw	a4,32(s6)
	lw	a2,32(s5)
	lui	a0,%hi(.LANCHOR2)
	mv	a3,s2
	mv	a1,s3
	addi	a0,a0,%lo(.LANCHOR2)
	call	bt_le_adv_start
.LVL72:
	.loc 1 352 3
	.loc 1 352 5 is_stmt 0
	beq	s3,zero,.L34
	.loc 1 353 4 is_stmt 1
	mv	a0,s3
	call	k_free
.LVL73:
.L34:
	.loc 1 354 3
	.loc 1 354 5 is_stmt 0
	beq	s2,zero,.L31
	.loc 1 355 4 is_stmt 1
	mv	a0,s2
	call	k_free
.LVL74:
.L31:
	.loc 1 358 2
.LBB67:
.LBB68:
	.loc 2 391 2
	.loc 2 393 2
.LBE68:
.LBE67:
.LBE41:
.LBE40:
	.loc 1 365 1 is_stmt 0
	lw	s0,40(sp)
	.cfi_remember_state
	.cfi_restore 8
	.cfi_def_cfa 2, 48
	lw	ra,44(sp)
	.cfi_restore 1
	lw	s2,32(sp)
	.cfi_restore 18
	lw	s3,28(sp)
	.cfi_restore 19
	lw	s4,24(sp)
	.cfi_restore 20
	lw	s5,20(sp)
	.cfi_restore 21
	lw	s6,16(sp)
	.cfi_restore 22
.LBB82:
.LBB78:
.LBB73:
.LBB69:
	.loc 2 393 2
	addi	a0,s1,%lo(bt_dev+108)
.LBE69:
.LBE73:
.LBE78:
.LBE82:
	.loc 1 365 1
	lw	s1,36(sp)
	.cfi_restore 9
.LBB83:
.LBB79:
.LBB74:
.LBB70:
	.loc 2 393 2
	li	a1,-262144
.LBE70:
.LBE74:
.LBE79:
.LBE83:
	.loc 1 365 1
.LBB84:
.LBB80:
.LBB75:
.LBB71:
	.loc 2 393 2
	addi	a1,a1,-1
.LBE71:
.LBE75:
.LBE80:
.LBE84:
	.loc 1 365 1
	addi	sp,sp,48
	.cfi_def_cfa_offset 0
.LBB85:
.LBB81:
.LBB76:
.LBB72:
	.loc 2 393 2
	tail	atomic_and
.LVL75:
.L23:
	.cfi_restore_state
.LBE72:
.LBE76:
.LBB77:
.LBB54:
.LBB50:
.LBB48:
	.loc 1 126 2 is_stmt 1
	.loc 1 126 5 is_stmt 0
	andi	a5,a5,32
	beq	a5,zero,.L24
.L28:
	.loc 1 145 2 is_stmt 1
	.loc 1 180 2
	.loc 1 180 9 is_stmt 0
	call	bt_le_set_event_mask
.LVL76:
.LBE48:
.LBE50:
	.loc 1 286 2 is_stmt 1
	.loc 1 286 5 is_stmt 0
	bne	a0,zero,.L22
	.loc 1 299 2 is_stmt 1
	.loc 1 299 8 is_stmt 0
	call	bt_set_event_mask
.LVL77:
	.loc 1 300 2 is_stmt 1
	.loc 1 300 5 is_stmt 0
	bne	a0,zero,.L22
	.loc 1 304 5 is_stmt 1
	li	a2,4
	addi	a1,s0,-40
	addi	a0,s1,%lo(bt_dev+108)
.LVL78:
	call	memcpy
.LVL79:
	.loc 1 306 2
	.loc 1 306 9 is_stmt 0
	j	.L22
.L24:
.LBB51:
.LBB49:
	.loc 1 127 3 is_stmt 1
	.loc 1 127 9 is_stmt 0
	li	s3,4096
	li	a1,2
	addi	a0,s3,-915
	call	bt_hci_cmd_create
.LVL80:
	mv	s2,a0
.LVL81:
	.loc 1 129 3 is_stmt 1
	.loc 1 129 6 is_stmt 0
	beq	a0,zero,.L22
	.loc 1 133 3 is_stmt 1
	.loc 1 133 11 is_stmt 0
	li	a1,2
	addi	a0,a0,8
.LVL82:
	call	net_buf_simple_add
.LVL83:
	.loc 1 136 3 is_stmt 1
	.loc 1 136 13 is_stmt 0
	li	a5,1
	sb	a5,0(a0)
	.loc 1 137 3 is_stmt 1
	.loc 1 137 16 is_stmt 0
	sb	zero,1(a0)
	.loc 1 138 3 is_stmt 1
	.loc 1 138 9 is_stmt 0
	li	a2,0
	mv	a1,s2
	addi	a0,s3,-915
.LVL84:
	call	bt_hci_cmd_send_sync
.LVL85:
	.loc 1 140 3 is_stmt 1
	.loc 1 140 6 is_stmt 0
	beq	a0,zero,.L28
	j	.L22
.LBE49:
.LBE51:
.LBE54:
.LBE77:
.LBE81:
.LBE85:
	.cfi_endproc
.LFE94:
	.size	blhast_bt_reset, .-blhast_bt_reset
	.section	.text.blhast_init,"ax",@progbits
	.align	1
	.globl	blhast_init
	.type	blhast_init, @function
blhast_init:
.LFB95:
	.loc 1 368 1 is_stmt 1
	.cfi_startproc
	.loc 1 369 5
	.loc 1 368 1 is_stmt 0
	addi	sp,sp,-16
	.cfi_def_cfa_offset 16
	sw	ra,12(sp)
	sw	s0,8(sp)
	.loc 1 369 5
	lui	a0,%hi(.LANCHOR3)
	.cfi_offset 1, -4
	.cfi_offset 8, -8
	.loc 1 368 1
	addi	s0,sp,16
	.cfi_def_cfa 8, 0
	.loc 1 369 5
	li	a2,36
	li	a1,0
	addi	a0,a0,%lo(.LANCHOR3)
	call	memset
.LVL86:
	.loc 1 370 2 is_stmt 1
	lui	a0,%hi(.LANCHOR4)
	li	a2,36
	li	a1,0
	addi	a0,a0,%lo(.LANCHOR4)
	call	memset
.LVL87:
	.loc 1 371 5
	.loc 1 372 1 is_stmt 0
	lw	s0,8(sp)
	.cfi_restore 8
	.cfi_def_cfa 2, 16
	lw	ra,12(sp)
	.cfi_restore 1
	.loc 1 371 5
	lui	a0,%hi(.LANCHOR7)
	.loc 1 372 1
	.loc 1 371 5
	addi	a0,a0,%lo(.LANCHOR7)
	.loc 1 372 1
	addi	sp,sp,16
	.cfi_def_cfa_offset 0
	.loc 1 371 5
	tail	bt_register_host_assist_cb
.LVL88:
	.cfi_endproc
.LFE95:
	.size	blhast_init, .-blhast_init
	.section	.bss.blhast_le_ad,"aw",@nobits
	.align	2
	.set	.LANCHOR3,. + 0
	.type	blhast_le_ad, @object
	.size	blhast_le_ad, 36
blhast_le_ad:
	.zero	36
	.section	.bss.blhast_le_sd,"aw",@nobits
	.align	2
	.set	.LANCHOR4,. + 0
	.type	blhast_le_sd, @object
	.size	blhast_le_sd, 36
blhast_le_sd:
	.zero	36
	.section	.rodata.__func__.0,"a"
	.align	2
	.set	.LANCHOR5,. + 0
	.type	__func__.0, @object
	.size	__func__.0, 17
__func__.0:
	.string	"blhast_ble_reset"
	.section	.rodata.__func__.1,"a"
	.align	2
	.set	.LANCHOR6,. + 0
	.type	__func__.1, @object
	.size	__func__.1, 26
__func__.1:
	.string	"blhast_host_state_restore"
	.section	.sbss.blhast_le_adv_param,"aw",@nobits
	.align	2
	.set	.LANCHOR2,. + 0
	.type	blhast_le_adv_param, @object
	.size	blhast_le_adv_param, 6
blhast_le_adv_param:
	.zero	6
	.section	.sbss.blhast_le_scan_cb,"aw",@nobits
	.align	2
	.set	.LANCHOR1,. + 0
	.type	blhast_le_scan_cb, @object
	.size	blhast_le_scan_cb, 4
blhast_le_scan_cb:
	.zero	4
	.section	.sbss.blhast_le_scan_param,"aw",@nobits
	.align	2
	.set	.LANCHOR0,. + 0
	.type	blhast_le_scan_param, @object
	.size	blhast_le_scan_param, 6
blhast_le_scan_param:
	.zero	6
	.section	.sdata.assist_cb,"aw"
	.align	2
	.set	.LANCHOR7,. + 0
	.type	assist_cb, @object
	.size	assist_cb, 8
assist_cb:
	.word	blhast_ble_scan_assist_cb
	.word	blhast_ble_adv_assist_cb
	.text
.Letext0:
	.file 3 "/home/dinhquangha/intern/Ai-Thinker-WB2/toolchain/riscv/Linux/lib/gcc/riscv64-unknown-elf/10.2.0/include/stdint-gcc.h"
	.file 4 "/home/dinhquangha/intern/Ai-Thinker-WB2/toolchain/riscv/Linux/lib/gcc/riscv64-unknown-elf/10.2.0/include/stddef.h"
	.file 5 "/home/dinhquangha/intern/Ai-Thinker-WB2/components/network/ble/blestack/src/common/include/zephyr/types.h"
	.file 6 "/home/dinhquangha/intern/Ai-Thinker-WB2/components/network/ble/blestack/src/common/include/misc/slist.h"
	.file 7 "/home/dinhquangha/intern/Ai-Thinker-WB2/components/network/ble/blestack/src/common/include/misc/dlist.h"
	.file 8 "/home/dinhquangha/intern/Ai-Thinker-WB2/components/network/ble/blestack/src/port/include/bl_port.h"
	.file 9 "/home/dinhquangha/intern/Ai-Thinker-WB2/components/network/ble/blestack/src/common/include/work_q.h"
	.file 10 "/home/dinhquangha/intern/Ai-Thinker-WB2/components/network/ble/blestack/src/port/include/zephyr.h"
	.file 11 "/home/dinhquangha/intern/Ai-Thinker-WB2/components/network/ble/blestack/src/common/include/net/buf.h"
	.file 12 "/home/dinhquangha/intern/Ai-Thinker-WB2/components/network/ble/blestack/src/include/bluetooth/addr.h"
	.file 13 "/home/dinhquangha/intern/Ai-Thinker-WB2/components/network/ble/blestack/src/include/bluetooth/hci_host.h"
	.file 14 "/home/dinhquangha/intern/Ai-Thinker-WB2/components/network/ble/blestack/src/include/bluetooth/bluetooth.h"
	.file 15 "/home/dinhquangha/intern/Ai-Thinker-WB2/components/network/ble/blestack/src/host/hci_core.h"
	.file 16 "/home/dinhquangha/intern/Ai-Thinker-WB2/components/network/ble/blestack/src/include/drivers/bluetooth/hci_driver.h"
	.file 17 "/home/dinhquangha/intern/Ai-Thinker-WB2/toolchain/riscv/Linux/riscv64-unknown-elf/include/string.h"
	.file 18 "/home/dinhquangha/intern/Ai-Thinker-WB2/toolchain/riscv/Linux/riscv64-unknown-elf/include/stdio.h"
	.file 19 "/home/dinhquangha/intern/Ai-Thinker-WB2/components/network/ble/blestack/src/include/bluetooth/conn.h"
	.file 20 "/home/dinhquangha/intern/Ai-Thinker-WB2/components/network/ble/blecontroller/ble_inc/ble_lib_api.h"