	.file	"crypto.c"
	.option nopic
	.attribute arch, "rv32i2p0_m2p0_f2p0_c2p0"
	.attribute unaligned_access, 0
	.attribute stack_align, 16
	.text
.Ltext0:
	.cfi_sections	.debug_frame
	.section	.rodata.prng_init.str1.4,"aMS",@progbits,1
	.align	2
.LC0:
	.string	"Failed to initialize PRNG, %s\r\n"
	.align	2
.LC1:
	.string	"Failed to re-seed PRNG, %s\r\n"
	.section	.text.prng_init,"ax",@progbits
	.align	1
	.globl	prng_init
	.type	prng_init, @function
prng_init:
.LFB87:
	.file 1 "/home/dinhquangha/Ai-Thinker-WB2/components/network/ble/blestack/src/host/crypto.c"
	.loc 1 65 1
	.cfi_startproc
	.loc 1 66 2
	.loc 1 67 2
	.loc 1 68 2
	.loc 1 71 2
	.loc 1 65 1 is_stmt 0
	addi	sp,sp,-80
	.cfi_def_cfa_offset 80
	sw	s0,72(sp)
	sw	s1,68(sp)
	sw	ra,76(sp)
	sw	s2,64(sp)
	sw	s3,60(sp)
	sw	s4,56(sp)
	sw	s5,52(sp)
	.cfi_offset 8, -8
	.cfi_offset 9, -12
	.cfi_offset 1, -4
	.cfi_offset 18, -16
	.cfi_offset 19, -20
	.cfi_offset 20, -24
	.cfi_offset 21, -28
	addi	s0,sp,80
	.cfi_def_cfa 8, 0
	.loc 1 71 33
	lui	a5,%hi(bt_dev+59)
	.loc 1 71 5
	lb	a5,%lo(bt_dev+59)(a5)
	.loc 1 72 10
	li	s1,-134
	.loc 1 71 5
	bge	a5,zero,.L1
	.loc 1 75 2 is_stmt 1
	.loc 1 75 8 is_stmt 0
	li	s3,8192
	addi	a2,s0,-76
	li	a1,0
	addi	a0,s3,24
	call	bt_hci_cmd_send_sync
.LVL0:
	mv	s1,a0
.LVL1:
	.loc 1 76 2 is_stmt 1
	.loc 1 76 5 is_stmt 0
	bne	a0,zero,.L1
	.loc 1 80 2 is_stmt 1
.LVL2:
	.loc 1 82 2
	.loc 1 80 5 is_stmt 0
	lw	a5,-76(s0)
	.loc 1 82 8
	lui	s4,%hi(.LANCHOR0)
	li	a2,8
	.loc 1 82 35
	lw	a1,8(a5)
	.loc 1 82 8
	addi	a0,s4,%lo(.LANCHOR0)
	addi	a1,a1,1
	call	tc_hmac_prng_init
.LVL3:
	mv	s1,a0
.LVL4:
	.loc 1 84 2 is_stmt 1
	lw	a0,-76(s0)
	call	net_buf_unref
.LVL5:
	.loc 1 86 2
	.loc 1 86 5 is_stmt 0
	bne	s1,zero,.L3
	.loc 1 87 3 is_stmt 1
	lui	a1,%hi(.LANCHOR1)
	lui	a0,%hi(.LC0)
	addi	a1,a1,%lo(.LANCHOR1)
	addi	a0,a0,%lo(.LC0)
.LVL6:
.L10:
.LBB7:
.LBB8:
	.loc 1 57 3 is_stmt 0
	call	printf
.LVL7:
	.loc 1 58 3 is_stmt 1
	.loc 1 58 10 is_stmt 0
	li	s1,-5
.L1:
.LBE8:
.LBE7:
	.loc 1 93 1
	lw	ra,76(sp)
	.cfi_remember_state
	.cfi_restore 1
	lw	s0,72(sp)
	.cfi_restore 8
	.cfi_def_cfa 2, 80
	lw	s2,64(sp)
	.cfi_restore 18
	lw	s3,60(sp)
	.cfi_restore 19
	lw	s4,56(sp)
	.cfi_restore 20
	lw	s5,52(sp)
	.cfi_restore 21
	mv	a0,s1
	lw	s1,68(sp)
	.cfi_restore 9
	addi	sp,sp,80
	.cfi_def_cfa_offset 0
	jr	ra
.LVL8:
.L3:
	.cfi_restore_state
	addi	s2,s0,-64
	mv	s5,s2
.LBB12:
.LBB11:
.LBB9:
	.loc 1 41 9
	addi	s3,s3,24
.LVL9:
.L6:
	.loc 1 38 3 is_stmt 1
	.loc 1 39 3
	.loc 1 41 3
	.loc 1 41 9 is_stmt 0
	addi	a2,s0,-72
	li	a1,0
	mv	a0,s3
	call	bt_hci_cmd_send_sync
.LVL10:
	mv	s1,a0
.LVL11:
	.loc 1 42 3 is_stmt 1
	.loc 1 42 6 is_stmt 0
	bne	a0,zero,.L1
	.loc 1 46 3 is_stmt 1
.LVL12:
	.loc 1 47 3
	.loc 1 46 6 is_stmt 0
	lw	a5,-72(s0)
	.loc 1 47 3
	li	a2,8
	mv	a0,s2
	.loc 1 47 26
	lw	a1,8(a5)
.LBE9:
	.loc 1 37 2
	addi	s2,s2,8
.LBB10:
	.loc 1 47 3
	addi	a1,a1,1
	call	memcpy
.LVL13:
	.loc 1 49 3 is_stmt 1
	lw	a0,-72(s0)
	call	net_buf_unref
.LVL14:
.LBE10:
	.loc 1 37 38
	.loc 1 37 14
	.loc 1 37 2 is_stmt 0
	addi	a5,s0,-32
	bne	s2,a5,.L6
	.loc 1 52 2 is_stmt 1
	.loc 1 52 10 is_stmt 0
	call	k_uptime_get
.LVL15:
	.loc 1 52 8
	sw	a0,-72(s0)
	sw	a1,-68(s0)
	.loc 1 54 2 is_stmt 1
	.loc 1 54 8 is_stmt 0
	li	a4,8
	addi	a3,s0,-72
	li	a2,32
	mv	a1,s5
	addi	a0,s4,%lo(.LANCHOR0)
	call	tc_hmac_prng_reseed
.LVL16:
	.loc 1 56 2 is_stmt 1
	.loc 1 56 5 is_stmt 0
	bne	a0,zero,.L1
	.loc 1 57 3 is_stmt 1
	lui	a1,%hi(.LANCHOR2)
	lui	a0,%hi(.LC1)
.LVL17:
	addi	a1,a1,%lo(.LANCHOR2)
	addi	a0,a0,%lo(.LC1)
	j	.L10
.LBE11:
.LBE12:
	.cfi_endproc
.LFE87:
	.size	prng_init, .-prng_init
	.section	.text.bt_rand,"ax",@progbits
	.align	1
	.globl	bt_rand
	.type	bt_rand, @function
bt_rand:
.LFB88:
	.loc 1 96 1
	.cfi_startproc
.LVL18:
	.loc 1 98 5
	.loc 1 96 1 is_stmt 0
	addi	sp,sp,-16
	.cfi_def_cfa_offset 16
	sw	s0,8(sp)
	sw	ra,12(sp)
	.cfi_offset 8, -8
	.cfi_offset 1, -4
	addi	s0,sp,16
	.cfi_def_cfa 8, 0
	.loc 1 98 5
	call	k_get_random_byte_array
.LVL19:
	.loc 1 99 5 is_stmt 1
	.loc 1 118 1 is_stmt 0
	lw	ra,12(sp)
	.cfi_restore 1
	lw	s0,8(sp)
	.cfi_restore 8
	.cfi_def_cfa 2, 16
	li	a0,0
	addi	sp,sp,16
	.cfi_def_cfa_offset 0
	jr	ra
	.cfi_endproc
.LFE88:
	.size	bt_rand, .-bt_rand
	.section	.text.bt_encrypt_le,"ax",@progbits
	.align	1
	.globl	bt_encrypt_le
	.type	bt_encrypt_le, @function
bt_encrypt_le:
.LFB89:
	.loc 1 122 1 is_stmt 1
	.cfi_startproc
.LVL20:
	addi	sp,sp,-208
	.cfi_def_cfa_offset 208
	sw	s0,200(sp)
	.cfi_offset 8, -8
	addi	s0,sp,208
	.cfi_def_cfa 8, 0
	sw	s1,196(sp)
	sw	s2,192(sp)
	sw	ra,204(sp)
.LBB20:
.LBB21:
	.file 2 "/home/dinhquangha/Ai-Thinker-WB2/components/network/ble/blestack/src/common/include/misc/byteorder.h"
	.loc 2 377 6 is_stmt 0
	addi	a4,s0,-208
	.cfi_offset 9, -12
	.cfi_offset 18, -16
	.cfi_offset 1, -4
.LBE21:
.LBE20:
	.loc 1 122 1
	mv	s2,a1
	.loc 1 123 2 is_stmt 1
	.loc 1 124 2
	.loc 1 126 2
	.loc 1 127 2
	.loc 1 129 2
.LVL21:
.LBB24:
.LBB22:
	.loc 2 373 2
	.loc 2 373 7
	.loc 2 373 15
	.loc 2 377 2
	.loc 2 377 6 is_stmt 0
	addi	a5,a0,15
.LVL22:
	.loc 2 379 2 is_stmt 1
	.loc 2 379 9
.LBE22:
.LBE24:
	.loc 1 122 1 is_stmt 0
	.loc 1 122 1
	mv	s1,a2
	addi	a0,a0,-1
.LVL23:
	mv	a1,a4
.LVL24:
.L14:
.LBB25:
.LBB23:
	.loc 2 380 3 is_stmt 1
	.loc 2 380 20 is_stmt 0
	lbu	a3,0(a5)
	.loc 2 380 24
	addi	a5,a5,-1
.LVL25:
	.loc 2 380 5
	addi	a4,a4,1
.LVL26:
	.loc 2 380 20
	sb	a3,-1(a4)
	.loc 2 379 21 is_stmt 1
.LVL27:
	.loc 2 379 9
	.loc 2 379 2 is_stmt 0
	bne	a0,a5,.L14
.LVL28:
.LBE23:
.LBE25:
	.loc 1 131 2 is_stmt 1
	.loc 1 131 6 is_stmt 0
	addi	a0,s0,-192
.LVL29:
	call	tc_aes128_set_encrypt_key
.LVL30:
	.loc 1 131 5
	beq	a0,zero,.L15
	.loc 1 135 2 is_stmt 1
.LVL31:
.LBB26:
.LBB27:
	.loc 2 373 2
	.loc 2 373 7
	.loc 2 373 15
	.loc 2 377 2
	.loc 2 377 6 is_stmt 0
	addi	a1,s0,-208
.LVL32:
	addi	a5,s2,15
.LVL33:
	.loc 2 379 2 is_stmt 1
	.loc 2 379 9
	.loc 2 377 6 is_stmt 0
	mv	a4,a1
	addi	s2,s2,-1
.LVL34:
.L16:
	.loc 2 380 3 is_stmt 1
	.loc 2 380 20 is_stmt 0
	lbu	a3,0(a5)
	.loc 2 380 24
	addi	a5,a5,-1
.LVL35:
	.loc 2 380 5
	addi	a4,a4,1
.LVL36:
	.loc 2 380 20
	sb	a3,-1(a4)
	.loc 2 379 21 is_stmt 1
.LVL37:
	.loc 2 379 9
	.loc 2 379 2 is_stmt 0
	bne	a5,s2,.L16
.LVL38:
.LBE27:
.LBE26:
	.loc 1 137 2 is_stmt 1
	.loc 1 137 6 is_stmt 0
	addi	a2,s0,-192
	mv	a0,s1
	call	tc_aes_encrypt
.LVL39:
	.loc 1 137 5
	beq	a0,zero,.L15
	mv	a2,s1
	addi	a5,s1,15
	addi	a4,s1,7
.L17:
.LVL40:
.LBB28:
.LBB29:
.LBB30:
	.loc 2 399 3 is_stmt 1
	.loc 2 401 35 is_stmt 0
	lbu	a1,0(a5)
	.loc 2 399 8
	lbu	a3,0(a2)
.LVL41:
	.loc 2 401 3 is_stmt 1
.LBE30:
	.loc 2 398 2 is_stmt 0
	addi	a5,a5,-1
.LBB31:
	.loc 2 401 20
	sb	a1,0(a2)
	.loc 2 402 3 is_stmt 1
	.loc 2 402 33 is_stmt 0
	sb	a3,1(a5)
.LBE31:
	.loc 2 398 30 is_stmt 1
.LVL42:
	.loc 2 398 14
	.loc 2 398 2 is_stmt 0
	addi	a2,a2,1
.LVL43:
	bne	a5,a4,.L17
.LBE29:
.LBE28:
	.loc 1 145 9
	li	a0,0
.LVL44:
.L13:
	.loc 1 146 1
	lw	ra,204(sp)
	.cfi_remember_state
	.cfi_restore 1
	lw	s0,200(sp)
	.cfi_restore 8
	.cfi_def_cfa 2, 208
	lw	s1,196(sp)
	.cfi_restore 9
.LVL45:
	lw	s2,192(sp)
	.cfi_restore 18
	addi	sp,sp,208
	.cfi_def_cfa_offset 0
	jr	ra
.LVL46:
.L15:
	.cfi_restore_state
	.loc 1 132 10
	li	a0,-22
	j	.L13
	.cfi_endproc
.LFE89:
	.size	bt_encrypt_le, .-bt_encrypt_le
	.section	.text.bt_encrypt_be,"ax",@progbits
	.align	1
	.globl	bt_encrypt_be
	.type	bt_encrypt_be, @function
bt_encrypt_be:
.LFB90:
	.loc 1 150 1 is_stmt 1
	.cfi_startproc
.LVL47:
	.loc 1 151 2
	.loc 1 153 2
	.loc 1 154 2
	.loc 1 156 2
	.loc 1 150 1 is_stmt 0
	addi	sp,sp,-192
	.cfi_def_cfa_offset 192
	sw	s0,184(sp)
	sw	s1,180(sp)
	sw	s2,176(sp)
	.cfi_offset 8, -8
	.cfi_offset 9, -12
	.cfi_offset 18, -16
	addi	s0,sp,192
	.cfi_def_cfa 8, 0
	sw	ra,188(sp)
	mv	s2,a1
	.cfi_offset 1, -4
	.loc 1 156 6
	mv	a1,a0
.LVL48:
	addi	a0,s0,-192
.LVL49:
	.loc 1 150 1
	mv	s1,a2
	.loc 1 156 6
	call	tc_aes128_set_encrypt_key
.LVL50:
	.loc 1 156 5
	beq	a0,zero,.L30
	.loc 1 160 2 is_stmt 1
	.loc 1 160 6 is_stmt 0
	addi	a2,s0,-192
	mv	a1,s2
	mv	a0,s1
	call	tc_aes_encrypt
.LVL51:
	.loc 1 166 9
	li	a5,0
	.loc 1 160 5
	bne	a0,zero,.L29
.L30:
	.loc 1 161 3 is_stmt 1
	.loc 1 161 10 is_stmt 0
	li	a5,-22
.L29:
	.loc 1 167 1
	lw	ra,188(sp)
	.cfi_restore 1
	lw	s0,184(sp)
	.cfi_restore 8
	.cfi_def_cfa 2, 192
	lw	s1,180(sp)
	.cfi_restore 9
.LVL52:
	lw	s2,176(sp)
	.cfi_restore 18
.LVL53:
	mv	a0,a5
	addi	sp,sp,192
	.cfi_def_cfa_offset 0
	jr	ra
	.cfi_endproc
.LFE90:
	.size	bt_encrypt_be, .-bt_encrypt_be
	.section	.bss.prng,"aw",@nobits
	.align	3
	.set	.LANCHOR0,. + 0
	.type	prng, @object
	.size	prng, 312
prng:
	.zero	312
	.section	.rodata.__func__.0,"a"
	.align	2
	.set	.LANCHOR2,. + 0
	.type	__func__.0, @object
	.size	__func__.0, 12
__func__.0:
	.string	"prng_reseed"
	.section	.rodata.__func__.1,"a"
	.align	2
	.set	.LANCHOR1,. + 0
	.type	__func__.1, @object
	.size	__func__.1, 10
__func__.1:
	.string	"prng_init"
	.text
.Letext0:
	.file 3 "/home/dinhquangha/Ai-Thinker-WB2/toolchain/riscv/Linux/lib/gcc/riscv64-unknown-elf/10.2.0/include/stddef.h"
	.file 4 "/home/dinhquangha/Ai-Thinker-WB2/toolchain/riscv/Linux/lib/gcc/riscv64-unknown-elf/10.2.0/include/stdint-gcc.h"
	.file 5 "/home/dinhquangha/Ai-Thinker-WB2/components/network/ble/blestack/src/common/include/zephyr/types.h"
	.file 6 "/home/dinhquangha/Ai-Thinker-WB2/components/network/ble/blestack/src/common/include/misc/slist.h"
	.file 7 "/home/dinhquangha/Ai-Thinker-WB2/components/network/ble/blestack/src/common/include/misc/dlist.h"
	.file 8 "/home/dinhquangha/Ai-Thinker-WB2/components/network/ble/blestack/src/port/include/bl_port.h"
	.file 9 "/home/dinhquangha/Ai-Thinker-WB2/components/network/ble/blestack/src/common/include/atomic.h"
	.file 10 "/home/dinhquangha/Ai-Thinker-WB2/components/network/ble/blestack/src/common/include/work_q.h"
	.file 11 "/home/dinhquangha/Ai-Thinker-WB2/components/network/ble/blestack/src/port/include/zephyr.h"
	.file 12 "/home/dinhquangha/Ai-Thinker-WB2/components/network/ble/blestack/src/common/include/net/buf.h"
	.file 13 "/home/dinhquangha/Ai-Thinker-WB2/components/network/ble/blestack/src/include/bluetooth/addr.h"
	.file 14 "/home/dinhquangha/Ai-Thinker-WB2/components/network/ble/blestack/src/include/bluetooth/hci_host.h"
	.file 15 "/home/dinhquangha/Ai-Thinker-WB2/components/network/ble/blestack/src/common/tinycrypt/include/tinycrypt/sha256.h"
	.file 16 "/home/dinhquangha/Ai-Thinker-WB2/components/network/ble/blestack/src/common/tinycrypt/include/tinycrypt/hmac.h"
	.file 17 "/home/dinhquangha/Ai-Thinker-WB2/components/network/ble/blestack/src/common/tinycrypt/include/tinycrypt/hmac_prng.h"
	.file 18 "/home/dinhquangha/Ai-Thinker-WB2/components/network/ble/blestack/src/common/tinycrypt/include/tinycrypt/aes.h"
	.file 19 "/home/dinhquangha/Ai-Thinker-WB2/components/network/ble/blestack/src/host/hci_core.h"
	.file 20 "/home/dinhquangha/Ai-Thinker-WB2/toolchain/riscv/Linux/riscv64-unknown-elf/include/string.h"
	.file 21 "/home/dinhquangha/Ai-Thinker-WB2/toolchain/riscv/Linux/riscv64-unknown-elf/include/stdio.h"