	.file	"hci_core.c"
	.option nopic
	.attribute arch, "rv32i2p0_m2p0_f2p0_c2p0"
	.attribute unaligned_access, 0
	.attribute stack_align, 16
	.text
.Ltext0:
	.cfi_sections	.debug_frame
	.section	.text.le_dhkey_complete,"ax",@progbits
	.align	1
	.type	le_dhkey_complete, @function
le_dhkey_complete:
.LFB154:
	.file 1 "/home/quanghaictu/intern/Ai-Thinker-WB2/components/network/ble/blestack/src/host/hci_core.c"
	.loc 1 3834 1
	.cfi_startproc
.LVL0:
	.loc 1 3835 2
	.loc 1 3837 2
	.loc 1 3839 2
	.loc 1 3839 6 is_stmt 0
	lui	a5,%hi(.LANCHOR0)
	lw	a4,%lo(.LANCHOR0)(a5)
	.loc 1 3839 5
	beq	a4,zero,.L9
	.loc 1 3834 1
	addi	sp,sp,-16
	.cfi_def_cfa_offset 16
	sw	s0,8(sp)
.LVL1:
	sw	s1,4(sp)
	sw	ra,12(sp)
	.cfi_offset 8, -8
	.cfi_offset 9, -12
	.cfi_offset 1, -4
	addi	s0,sp,16
	.cfi_def_cfa 8, 0
	addi	s1,a5,%lo(.LANCHOR0)
	.loc 1 3835 48
	lw	a5,8(a0)
	.loc 1 3840 3 is_stmt 1
	li	a0,0
.LVL2:
	lbu	a3,0(a5)
	bne	a3,zero,.L3
	.loc 1 3840 3 is_stmt 0 discriminator 1
	addi	a0,a5,1
.L3:
	.loc 1 3840 3 discriminator 4
	jalr	a4
.LVL3:
	.loc 1 3841 3 is_stmt 1 discriminator 4
	.loc 1 3843 1 is_stmt 0 discriminator 4
	lw	ra,12(sp)
	.cfi_restore 1
	lw	s0,8(sp)
	.cfi_restore 8
	.cfi_def_cfa 2, 16
	.loc 1 3841 13 discriminator 4
	sw	zero,0(s1)
	.loc 1 3843 1 discriminator 4
	lw	s1,4(sp)
	.cfi_restore 9
	addi	sp,sp,16
	.cfi_def_cfa_offset 0
	jr	ra
.LVL4:
.L9:
	ret
	.cfi_endproc
.LFE154:
	.size	le_dhkey_complete, .-le_dhkey_complete
	.section	.rodata.hci_data_buf_overflow.str1.4,"aMS",@progbits,1
	.align	2
.LC1:
	.string	"Data buffer overflow (link type 0x%02x), %s\r\n"
	.section	.text.hci_data_buf_overflow,"ax",@progbits
	.align	1
	.type	hci_data_buf_overflow, @function
hci_data_buf_overflow:
.LFB112:
	.loc 1 928 1 is_stmt 1
	.cfi_startproc
.LVL5:
	.loc 1 929 2
	.loc 1 931 2
	.loc 1 928 1 is_stmt 0
	addi	sp,sp,-16
	.cfi_def_cfa_offset 16
	sw	s0,12(sp)
.LVL6:
	.cfi_offset 8, -4
	addi	s0,sp,16
	.cfi_def_cfa 8, 0
	.loc 1 931 65
	lw	a5,8(a0)
	.loc 1 934 1
	lw	s0,12(sp)
	.cfi_restore 8
	.cfi_def_cfa 2, 16
	.loc 1 931 2
	lui	a2,%hi(.LANCHOR1)
	lbu	a1,0(a5)
	lui	a0,%hi(.LC1)
.LVL7:
	.loc 1 934 1
	.loc 1 931 2
	addi	a2,a2,%lo(.LANCHOR1)
	addi	a0,a0,%lo(.LC1)
	.loc 1 934 1
	addi	sp,sp,16
	.cfi_def_cfa_offset 0
	.loc 1 931 2
	tail	printf
.LVL8:
	.cfi_endproc
.LFE112:
	.size	hci_data_buf_overflow, .-hci_data_buf_overflow
	.section	.text.atomic_test_bit,"ax",@progbits
	.align	1
	.type	atomic_test_bit, @function
atomic_test_bit:
.LFB35:
	.file 2 "/home/quanghaictu/intern/Ai-Thinker-WB2/components/network/ble/blestack/src/common/include/atomic.h"
	.loc 2 330 1 is_stmt 1
	.cfi_startproc
.LVL9:
	.loc 2 331 2
	.loc 2 330 1 is_stmt 0
	addi	sp,sp,-16
	.cfi_def_cfa_offset 16
	sw	s0,8(sp)
	sw	s1,4(sp)
	sw	ra,12(sp)
	.cfi_offset 8, -8
	.cfi_offset 9, -12
	.cfi_offset 1, -4
	addi	s0,sp,16
	.cfi_def_cfa 8, 0
	.loc 2 330 1
	mv	s1,a1
	.loc 2 331 21
	call	atomic_get
.LVL10:
	.loc 2 333 2 is_stmt 1
	.loc 2 334 1 is_stmt 0
	lw	ra,12(sp)
	.cfi_restore 1
	lw	s0,8(sp)
	.cfi_restore 8
	.cfi_def_cfa 2, 16
	.loc 2 333 19
	sra	a0,a0,s1
.LVL11:
	.loc 2 334 1
	andi	a0,a0,1
	lw	s1,4(sp)
	.cfi_restore 9
.LVL12:
	addi	sp,sp,16
	.cfi_def_cfa_offset 0
	jr	ra
	.cfi_endproc
.LFE35:
	.size	atomic_test_bit, .-atomic_test_bit
	.section	.text.bt_addr_le_copy,"ax",@progbits
	.align	1
	.type	bt_addr_le_copy, @function
bt_addr_le_copy:
.LFB76:
	.file 3 "/home/quanghaictu/intern/Ai-Thinker-WB2/components/network/ble/blestack/src/include/bluetooth/addr.h"
	.loc 3 58 1 is_stmt 1
	.cfi_startproc
.LVL13:
	.loc 3 59 2
	.loc 3 58 1 is_stmt 0
	addi	sp,sp,-16
	.cfi_def_cfa_offset 16
	sw	s0,12(sp)
	.cfi_offset 8, -4
	addi	s0,sp,16
	.cfi_def_cfa 8, 0
	.loc 3 60 1
	lw	s0,12(sp)
	.cfi_restore 8
	.cfi_def_cfa 2, 16
	.loc 3 59 2
	li	a2,7
	.loc 3 60 1
	addi	sp,sp,16
	.cfi_def_cfa_offset 0
	.loc 3 59 2
	tail	memcpy
.LVL14:
	.cfi_endproc
.LFE76:
	.size	bt_addr_le_copy, .-bt_addr_le_copy
	.section	.text.id_find,"ax",@progbits
	.align	1
	.type	id_find, @function
id_find:
.LFB209:
	.loc 1 6327 1 is_stmt 1
	.cfi_startproc
.LVL15:
	.loc 1 6328 2
	.loc 1 6330 2
	.loc 1 6327 1 is_stmt 0
	addi	sp,sp,-32
	.cfi_def_cfa_offset 32
	sw	s0,24(sp)
	sw	s1,20(sp)
	sw	s2,16(sp)
	sw	s3,12(sp)
	sw	s5,4(sp)
	sw	ra,28(sp)
	sw	s4,8(sp)
	.cfi_offset 8, -8
	.cfi_offset 9, -12
	.cfi_offset 18, -16
	.cfi_offset 19, -20
	.cfi_offset 21, -28
	.cfi_offset 1, -4
	.cfi_offset 20, -24
	addi	s0,sp,32
	.cfi_def_cfa 8, 0
	.loc 1 6330 27
	lui	s2,%hi(.LANCHOR2)
	.loc 1 6327 1
	.loc 1 6327 1
	mv	s3,a0
	.loc 1 6330 10
	li	s1,0
	.loc 1 6330 27
	addi	s2,s2,%lo(.LANCHOR2)
	.loc 1 6331 29
	li	s5,7
.LVL16:
.L19:
	.loc 1 6330 16 is_stmt 1 discriminator 1
	.loc 1 6330 2 is_stmt 0 discriminator 1
	lbu	a5,7(s2)
	bgtu	a5,s1,.L21
	.loc 1 6336 9
	li	s4,-2
.L18:
	.loc 1 6337 1
	lw	ra,28(sp)
	.cfi_remember_state
	.cfi_restore 1
	lw	s0,24(sp)
	.cfi_restore 8
	.cfi_def_cfa 2, 32
	lw	s1,20(sp)
	.cfi_restore 9
.LVL17:
	lw	s2,16(sp)
	.cfi_restore 18
	lw	s3,12(sp)
	.cfi_restore 19
.LVL18:
	lw	s5,4(sp)
	.cfi_restore 21
	mv	a0,s4
	lw	s4,8(sp)
	.cfi_restore 20
	addi	sp,sp,32
	.cfi_def_cfa_offset 0
	jr	ra
.LVL19:
.L21:
	.cfi_restore_state
	.loc 1 6331 3 is_stmt 1
	.loc 1 6331 29 is_stmt 0
	mul	a1,s1,s5
.LBB132:
.LBB133:
	.loc 3 49 9
	li	a2,7
	mv	a0,s3
.LBE133:
.LBE132:
	.loc 1 6331 44
	mv	s4,s1
.LVL20:
.LBB135:
.LBB134:
	.loc 3 49 2 is_stmt 1
	.loc 3 49 9 is_stmt 0
	add	a1,s2,a1
	call	memcmp
.LVL21:
.LBE134:
.LBE135:
	.loc 1 6331 6
	beq	a0,zero,.L18
	.loc 1 6330 38 is_stmt 1 discriminator 2
	.loc 1 6330 40 is_stmt 0 discriminator 2
	addi	s1,s1,1
.LVL22:
	andi	s1,s1,0xff
.LVL23:
	j	.L19
	.cfi_endproc
.LFE209:
	.size	id_find, .-id_find
	.section	.text.atomic_set_bit_to,"ax",@progbits
	.align	1
	.type	atomic_set_bit_to, @function
atomic_set_bit_to:
.LFB40:
	.loc 2 427 1 is_stmt 1
	.cfi_startproc
.LVL24:
	.loc 2 428 2
	.loc 2 427 1 is_stmt 0
	addi	sp,sp,-16
	.cfi_def_cfa_offset 16
	mv	a5,a1
	.loc 2 428 15
	li	a1,1
.LVL25:
	.loc 2 427 1
	sw	s0,12(sp)
	.loc 2 428 15
	sll	a1,a1,a5
.LVL26:
	.loc 2 430 2 is_stmt 1
	.cfi_offset 8, -4
	.loc 2 427 1 is_stmt 0
	addi	s0,sp,16
	.cfi_def_cfa 8, 0
	.loc 2 431 38
	srli	a5,a5,5
.LVL27:
	.loc 2 431 29
	slli	a5,a5,2
	.loc 2 427 1
	.loc 2 431 9
	add	a0,a0,a5
.LVL28:
	.loc 2 430 5
	beq	a2,zero,.L27
	.loc 2 431 3 is_stmt 1
	.loc 2 435 1 is_stmt 0
	lw	s0,12(sp)
	.cfi_remember_state
	.cfi_restore 8
	.cfi_def_cfa 2, 16
	addi	sp,sp,16
	.cfi_def_cfa_offset 0
	.loc 2 431 9
	tail	atomic_or
.LVL29:
.L27:
	.cfi_restore_state
	.loc 2 433 3 is_stmt 1
	.loc 2 435 1 is_stmt 0
	lw	s0,12(sp)
	.cfi_restore 8
	.cfi_def_cfa 2, 16
	.loc 2 433 9
	not	a1,a1
.LVL30:
	.loc 2 435 1
	addi	sp,sp,16
	.cfi_def_cfa_offset 0
	.loc 2 433 9
	tail	atomic_and
.LVL31:
	.cfi_endproc
.LFE40:
	.size	atomic_set_bit_to, .-atomic_set_bit_to
	.section	.text.le_pkey_complete,"ax",@progbits
	.align	1
	.type	le_pkey_complete, @function
le_pkey_complete:
.LFB153:
	.loc 1 3813 1 is_stmt 1
	.cfi_startproc
.LVL32:
	.loc 1 3814 2
	.loc 1 3813 1 is_stmt 0
	addi	sp,sp,-32
	.cfi_def_cfa_offset 32
	sw	s0,24(sp)
	sw	s1,20(sp)
	sw	ra,28(sp)
	sw	s2,16(sp)
	sw	s3,12(sp)
	sw	s4,8(sp)
	.cfi_offset 8, -8
	.cfi_offset 9, -12
	.cfi_offset 1, -4
	.cfi_offset 18, -16
	.cfi_offset 19, -20
	.cfi_offset 20, -24
	addi	s0,sp,32
	.cfi_def_cfa 8, 0
.LBB136:
.LBB137:
	.loc 2 393 2
	lui	s1,%hi(.LANCHOR2+108)
.LBE137:
.LBE136:
	.loc 1 3814 49
	lw	s3,8(a0)
.LVL33:
	.loc 1 3815 2 is_stmt 1
	.loc 1 3817 2
	.loc 1 3819 2
.LBB139:
.LBB138:
	.loc 2 391 2
	.loc 2 393 2
	addi	s1,s1,%lo(.LANCHOR2+108)
	li	a1,-33
	mv	a0,s1
.LVL34:
	call	atomic_and
.LVL35:
.LBE138:
.LBE139:
	.loc 1 3821 2
	.loc 1 3821 5 is_stmt 0
	lbu	a5,0(s3)
	bne	a5,zero,.L30
	.loc 1 3822 3 is_stmt 1
	lui	a0,%hi(.LANCHOR3)
	addi	a1,s3,1
	li	a2,64
	addi	a0,a0,%lo(.LANCHOR3)
	call	memcpy
.LVL36:
	.loc 1 3823 3
.LBB140:
.LBB141:
	.loc 2 409 2
	.loc 2 411 2
	li	a1,16
	mv	a0,s1
	call	atomic_or
.LVL37:
.L30:
.LBE141:
.LBE140:
	.loc 1 3826 2
	.loc 1 3826 10 is_stmt 0
	lui	a5,%hi(.LANCHOR4)
	lw	s2,%lo(.LANCHOR4)(a5)
.LVL38:
	.loc 1 3827 3
	lui	s4,%hi(.LANCHOR3)
	addi	s1,a5,%lo(.LANCHOR4)
	addi	s4,s4,%lo(.LANCHOR3)
.L31:
	.loc 1 3826 24 is_stmt 1 discriminator 2
	.loc 1 3826 2 is_stmt 0 discriminator 2
	bne	s2,zero,.L33
	.loc 1 3830 2 is_stmt 1
	.loc 1 3830 13 is_stmt 0
	sw	zero,0(s1)
	.loc 1 3831 1
	lw	ra,28(sp)
	.cfi_remember_state
	.cfi_restore 1
	lw	s0,24(sp)
	.cfi_restore 8
	.cfi_def_cfa 2, 32
	lw	s1,20(sp)
	.cfi_restore 9
	lw	s2,16(sp)
	.cfi_restore 18
.LVL39:
	lw	s3,12(sp)
	.cfi_restore 19
.LVL40:
	lw	s4,8(sp)
	.cfi_restore 20
	addi	sp,sp,32
	.cfi_def_cfa_offset 0
	jr	ra
.LVL41:
.L33:
	.cfi_restore_state
	.loc 1 3827 3 is_stmt 1
	lbu	a4,0(s3)
	.loc 1 3827 5 is_stmt 0
	lw	a5,0(s2)
	.loc 1 3827 3
	mv	a0,s4
	beq	a4,zero,.L32
	li	a0,0
.L32:
	.loc 1 3827 3 discriminator 4
	jalr	a5
.LVL42:
	.loc 1 3826 28 is_stmt 1 discriminator 4
	.loc 1 3826 31 is_stmt 0 discriminator 4
	lw	s2,4(s2)
.LVL43:
	j	.L31
	.cfi_endproc
.LFE153:
	.size	le_pkey_complete, .-le_pkey_complete
	.section	.rodata.le_phy_update_complete.str1.4,"aMS",@progbits,1
	.align	2
.LC2:
	.string	"Unable to lookup conn for handle %u, %s\r\n"
	.section	.text.le_phy_update_complete,"ax",@progbits
	.align	1
	.type	le_phy_update_complete, @function
le_phy_update_complete:
.LFB130:
	.loc 1 1852 1 is_stmt 1
	.cfi_startproc
.LVL44:
	.loc 1 1853 2
	.loc 1 1852 1 is_stmt 0
	addi	sp,sp,-32
	.cfi_def_cfa_offset 32
	sw	s0,24(sp)
	sw	ra,28(sp)
	sw	s1,20(sp)
	sw	s2,16(sp)
	.cfi_offset 8, -8
	.cfi_offset 1, -4
	.cfi_offset 9, -12
	.cfi_offset 18, -16
	addi	s0,sp,32
	.cfi_def_cfa 8, 0
	.loc 1 1853 44
	lw	s2,8(a0)
.LVL45:
	.loc 1 1854 2 is_stmt 1
	.loc 1 1854 8 is_stmt 0
	lbu	a1,2(s2)
	lbu	a5,1(s2)
	slli	a1,a1,8
	or	a1,a1,a5
.LVL46:
	.loc 1 1855 2 is_stmt 1
	.loc 1 1857 2
	.loc 1 1857 9 is_stmt 0
	mv	a0,a1
.LVL47:
	sw	a1,-20(s0)
	call	bt_conn_lookup_handle
.LVL48:
	.loc 1 1858 2 is_stmt 1
	.loc 1 1858 5 is_stmt 0
	lw	a1,-20(s0)
	bne	a0,zero,.L37
	.loc 1 1859 3 is_stmt 1
	.loc 1 1886 1 is_stmt 0
	lw	s0,24(sp)
	.cfi_remember_state
	.cfi_restore 8
	.cfi_def_cfa 2, 32
.LVL49:
	lw	ra,28(sp)
	.cfi_restore 1
	lw	s1,20(sp)
	.cfi_restore 9
	lw	s2,16(sp)
	.cfi_restore 18
.LVL50:
	.loc 1 1859 3
	lui	a2,%hi(.LANCHOR5)
	lui	a0,%hi(.LC2)
.LVL51:
	.loc 1 1886 1
	.loc 1 1859 3
	addi	a2,a2,%lo(.LANCHOR5)
	addi	a0,a0,%lo(.LC2)
	.loc 1 1886 1
	addi	sp,sp,32
	.cfi_def_cfa_offset 0
	.loc 1 1859 3
	tail	printf
.LVL52:
.L37:
	.cfi_restore_state
	.loc 1 1866 2
	lbu	a2,4(s2)
	lbu	a1,3(s2)
	mv	s1,a0
	.loc 1 1864 47 is_stmt 1
	.loc 1 1866 2
	call	notify_le_phy_updated
.LVL53:
	.loc 1 1868 2
	.loc 1 1870 3
.LDL1:
	.loc 1 1885 2
	.loc 1 1886 1 is_stmt 0
	lw	s0,24(sp)
	.cfi_restore 8
	.cfi_def_cfa 2, 32
	lw	ra,28(sp)
	.cfi_restore 1
	lw	s2,16(sp)
	.cfi_restore 18
.LVL54:
	.loc 1 1885 2
	mv	a0,s1
	.loc 1 1886 1
	lw	s1,20(sp)
	.cfi_restore 9
.LVL55:
	addi	sp,sp,32
	.cfi_def_cfa_offset 0
	.loc 1 1885 2
	tail	bt_conn_unref
.LVL56:
	.cfi_endproc
.LFE130:
	.size	le_phy_update_complete, .-le_phy_update_complete
	.section	.text.slave_update_conn_param,"ax",@progbits
	.align	1
	.type	slave_update_conn_param, @function
slave_update_conn_param:
.LFB123:
	.loc 1 1422 1 is_stmt 1
	.cfi_startproc
.LVL57:
	.loc 1 1423 2
	.loc 1 1428 2
	.loc 1 1422 1 is_stmt 0
	addi	sp,sp,-16
	.cfi_def_cfa_offset 16
	sw	s0,8(sp)
	sw	s1,4(sp)
	sw	ra,12(sp)
	.cfi_offset 8, -8
	.cfi_offset 9, -12
	.cfi_offset 1, -4
	addi	s0,sp,16
	.cfi_def_cfa 8, 0
	mv	s1,a0
	.loc 1 1428 6
	li	a1,8
	addi	a0,a0,4
.LVL58:
	call	atomic_test_bit
.LVL59:
	.loc 1 1428 5
	bne	a0,zero,.L39
	.loc 1 1437 2 is_stmt 1
	.loc 1 1438 1 is_stmt 0
	lw	s0,8(sp)
	.cfi_remember_state
	.cfi_restore 8
	.cfi_def_cfa 2, 16
	lw	ra,12(sp)
	.cfi_restore 1
	.loc 1 1437 2
	addi	a0,s1,76
	.loc 1 1438 1
	lw	s1,4(sp)
	.cfi_restore 9
.LVL60:
	.loc 1 1437 2
	li	a1,4096
	.loc 1 1438 1
	.loc 1 1437 2
	addi	a1,a1,904
	.loc 1 1438 1
	addi	sp,sp,16
	.cfi_def_cfa_offset 0
	.loc 1 1437 2
	tail	k_delayed_work_submit
.LVL61:
.L39:
	.cfi_restore_state
	.loc 1 1438 1
	lw	ra,12(sp)
	.cfi_restore 1
	lw	s0,8(sp)
	.cfi_restore 8
	.cfi_def_cfa 2, 16
	lw	s1,4(sp)
	.cfi_restore 9
.LVL62:
	addi	sp,sp,16
	.cfi_def_cfa_offset 0
	jr	ra
	.cfi_endproc
.LFE123:
	.size	slave_update_conn_param, .-slave_update_conn_param
	.section	.text.le_remote_feat_complete,"ax",@progbits
	.align	1
	.type	le_remote_feat_complete, @function
le_remote_feat_complete:
.LFB129:
	.loc 1 1773 1 is_stmt 1
	.cfi_startproc
.LVL63:
	.loc 1 1774 2
	.loc 1 1773 1 is_stmt 0
	addi	sp,sp,-32
	.cfi_def_cfa_offset 32
	sw	s0,24(sp)
	sw	ra,28(sp)
	sw	s1,20(sp)
	sw	s2,16(sp)
	sw	s3,12(sp)
	.cfi_offset 8, -8
	.cfi_offset 1, -4
	.cfi_offset 9, -12
	.cfi_offset 18, -16
	.cfi_offset 19, -20
	addi	s0,sp,32
	.cfi_def_cfa 8, 0
	.loc 1 1774 45
	lw	s3,8(a0)
.LVL64:
	.loc 1 1775 2 is_stmt 1
	.loc 1 1775 8 is_stmt 0
	lbu	s2,2(s3)
	lbu	a1,1(s3)
	slli	s2,s2,8
	or	s2,s2,a1
.LVL65:
	.loc 1 1776 2 is_stmt 1
	.loc 1 1778 2
	.loc 1 1778 9 is_stmt 0
	mv	a0,s2
.LVL66:
	call	bt_conn_lookup_handle
.LVL67:
	.loc 1 1779 2 is_stmt 1
	.loc 1 1779 5 is_stmt 0
	bne	a0,zero,.L43
	.loc 1 1780 3 is_stmt 1
	.loc 1 1817 1 is_stmt 0
	lw	s0,24(sp)
	.cfi_remember_state
	.cfi_restore 8
	.cfi_def_cfa 2, 32
	lw	ra,28(sp)
	.cfi_restore 1
	lw	s1,20(sp)
	.cfi_restore 9
	lw	s3,12(sp)
	.cfi_restore 19
.LVL68:
	.loc 1 1780 3
	mv	a1,s2
	.loc 1 1817 1
	lw	s2,16(sp)
	.cfi_restore 18
.LVL69:
	.loc 1 1780 3
	lui	a2,%hi(.LANCHOR6)
	lui	a0,%hi(.LC2)
.LVL70:
	.loc 1 1817 1
	.loc 1 1780 3
	addi	a2,a2,%lo(.LANCHOR6)
	addi	a0,a0,%lo(.LC2)
	.loc 1 1817 1
	addi	sp,sp,32
	.cfi_def_cfa_offset 0
	.loc 1 1780 3
	tail	printf
.LVL71:
.L43:
	.cfi_restore_state
	.loc 1 1784 5
	lbu	a5,0(s3)
	mv	s1,a0
	.loc 1 1784 2 is_stmt 1
	.loc 1 1784 5 is_stmt 0
	bne	a5,zero,.L44
.LVL72:
	.loc 1 1785 3 is_stmt 1
	li	a2,8
	addi	a1,s3,3
	addi	a0,a0,148
	call	memcpy
.LVL73:
.L44:
	.loc 1 1789 2
	.loc 1 1803 2
	.loc 1 1810 2
	.loc 1 1810 5 is_stmt 0
	lbu	a4,3(s1)
	li	a5,1
	bne	a4,a5,.L45
	.loc 1 1812 3 is_stmt 1
	mv	a0,s1
	call	slave_update_conn_param
.LVL74:
.L45:
	.loc 1 1816 2
	.loc 1 1817 1 is_stmt 0
	lw	s0,24(sp)
	.cfi_restore 8
	.cfi_def_cfa 2, 32
	lw	ra,28(sp)
	.cfi_restore 1
	lw	s2,16(sp)
	.cfi_restore 18
.LVL75:
	lw	s3,12(sp)
	.cfi_restore 19
.LVL76:
	.loc 1 1816 2
	mv	a0,s1
	.loc 1 1817 1
	lw	s1,20(sp)
	.cfi_restore 9
.LVL77:
	addi	sp,sp,32
	.cfi_def_cfa_offset 0
	.loc 1 1816 2
	tail	bt_conn_unref
.LVL78:
	.cfi_endproc
.LFE129:
	.size	le_remote_feat_complete, .-le_remote_feat_complete
	.section	.text.le_conn_update_complete,"ax",@progbits
	.align	1
	.type	le_conn_update_complete, @function
le_conn_update_complete:
.LFB135:
	.loc 1 1983 1 is_stmt 1
	.cfi_startproc
.LVL79:
	.loc 1 1984 2
	.loc 1 1983 1 is_stmt 0
	addi	sp,sp,-48
	.cfi_def_cfa_offset 48
	sw	s0,40(sp)
	sw	ra,44(sp)
	sw	s1,36(sp)
	sw	s2,32(sp)
	.cfi_offset 8, -8
	.cfi_offset 1, -4
	.cfi_offset 9, -12
	.cfi_offset 18, -16
	addi	s0,sp,48
	.cfi_def_cfa 8, 0
	.loc 1 1984 45
	lw	s2,8(a0)
.LVL80:
	.loc 1 1985 2 is_stmt 1
	.loc 1 1986 2
	.loc 1 1988 2
	.loc 1 1988 9 is_stmt 0
	lbu	a1,2(s2)
	lbu	a5,1(s2)
	slli	a1,a1,8
	or	a1,a1,a5
.LVL81:
	.loc 1 1990 2 is_stmt 1
	.loc 1 1992 2
	.loc 1 1992 9 is_stmt 0
	mv	a0,a1
.LVL82:
	sw	a1,-36(s0)
	call	bt_conn_lookup_handle
.LVL83:
	.loc 1 1993 2 is_stmt 1
	.loc 1 1993 5 is_stmt 0
	lw	a1,-36(s0)
	bne	a0,zero,.L48
	.loc 1 1994 3 is_stmt 1
	.loc 1 2019 1 is_stmt 0
	lw	s0,40(sp)
	.cfi_remember_state
	.cfi_restore 8
	.cfi_def_cfa 2, 48
.LVL84:
	lw	ra,44(sp)
	.cfi_restore 1
	lw	s1,36(sp)
	.cfi_restore 9
	lw	s2,32(sp)
	.cfi_restore 18
.LVL85:
	.loc 1 1994 3
	lui	a2,%hi(.LANCHOR7)
	lui	a0,%hi(.LC2)
.LVL86:
	.loc 1 2019 1
	.loc 1 1994 3
	addi	a2,a2,%lo(.LANCHOR7)
	addi	a0,a0,%lo(.LC2)
	.loc 1 2019 1
	addi	sp,sp,48
	.cfi_def_cfa_offset 0
	.loc 1 1994 3
	tail	printf
.LVL87:
.L48:
	.cfi_restore_state
	.loc 1 1998 10
	lbu	a5,0(s2)
	mv	s1,a0
	.loc 1 1998 2 is_stmt 1
	.loc 1 1998 5 is_stmt 0
	bne	a5,zero,.L49
.LVL88:
	.loc 1 1999 3 is_stmt 1
	.loc 1 1999 27 is_stmt 0
	lbu	a5,4(s2)
	lbu	a4,3(s2)
	slli	a5,a5,8
	or	a5,a5,a4
	.loc 1 1999 21
	sh	a5,134(a0)
	.loc 1 2000 3 is_stmt 1
	.loc 1 2000 26 is_stmt 0
	lbu	a5,6(s2)
	lbu	a4,5(s2)
	slli	a5,a5,8
	or	a5,a5,a4
	.loc 1 2000 20
	sh	a5,140(a0)
	.loc 1 2001 3 is_stmt 1
	.loc 1 2001 26 is_stmt 0
	lbu	a5,8(s2)
	lbu	a4,7(s2)
	slli	a5,a5,8
	or	a5,a5,a4
	.loc 1 2001 20
	sh	a5,142(a0)
	.loc 1 2002 3 is_stmt 1
	call	notify_le_param_updated
.LVL89:
.L50:
	.loc 1 2018 2
	.loc 1 2019 1 is_stmt 0
	lw	s0,40(sp)
	.cfi_remember_state
	.cfi_restore 8
	.cfi_def_cfa 2, 48
	lw	ra,44(sp)
	.cfi_restore 1
	lw	s2,32(sp)
	.cfi_restore 18
.LVL90:
	.loc 1 2018 2
	mv	a0,s1
	.loc 1 2019 1
	lw	s1,36(sp)
	.cfi_restore 9
.LVL91:
	addi	sp,sp,48
	.cfi_def_cfa_offset 0
	.loc 1 2018 2
	tail	bt_conn_unref
.LVL92:
.L49:
	.cfi_restore_state
	.loc 1 2003 9 is_stmt 1
	.loc 1 2003 12 is_stmt 0
	li	a4,26
	bne	a5,a4,.L50
	.loc 1 2003 33 discriminator 1
	lbu	a4,3(a0)
	li	a5,1
	bne	a4,a5,.L50
.LVL93:
.LBB145:
.LBB146:
	.loc 2 370 2 is_stmt 1
	.loc 2 371 2
	.loc 2 373 2
	.loc 2 373 8 is_stmt 0
	li	a1,1024
	addi	a0,a0,4
.LVL94:
	call	atomic_or
.LVL95:
	.loc 2 375 2 is_stmt 1
	.loc 2 375 14 is_stmt 0
	andi	a0,a0,1024
.LBE146:
.LBE145:
	.loc 1 2004 25
	bne	a0,zero,.L50
.LBB147:
	.loc 1 2008 3 is_stmt 1
	.loc 1 2010 3
	.loc 1 2011 3
	.loc 1 2010 22 is_stmt 0
	lw	a5,136(s1)
	.loc 1 2015 3
	addi	a1,s0,-24
	mv	a0,s1
	.loc 1 2010 22
	sw	a5,-24(s0)
	.loc 1 2012 3 is_stmt 1
	.loc 1 2013 3
	.loc 1 2012 17 is_stmt 0
	lw	a5,144(s1)
	sw	a5,-20(s0)
	.loc 1 2015 3 is_stmt 1
	call	bt_l2cap_update_conn_param
.LVL96:
	j	.L50
.LBE147:
	.cfi_endproc
.LFE135:
	.size	le_conn_update_complete, .-le_conn_update_complete
	.section	.rodata.hci_num_completed_packets.str1.4,"aMS",@progbits,1
	.align	2
.LC3:
	.string	"No connection for handle %u, %s\r\n"
	.align	2
.LC4:
	.string	"packets count mismatch, %s\r\n"
	.section	.text.hci_num_completed_packets,"ax",@progbits
	.align	1
	.type	hci_num_completed_packets, @function
hci_num_completed_packets:
.LFB113:
	.loc 1 937 1
	.cfi_startproc
.LVL97:
	.loc 1 938 2
	.loc 1 937 1 is_stmt 0
	addi	sp,sp,-48
	.cfi_def_cfa_offset 48
	sw	s0,40(sp)
	sw	s4,24(sp)
	sw	s6,16(sp)
	sw	s7,12(sp)
	sw	s8,8(sp)
	sw	s9,4(sp)
	sw	ra,44(sp)
	sw	s1,36(sp)
	sw	s2,32(sp)
	sw	s3,28(sp)
	sw	s5,20(sp)
	sw	s10,0(sp)
	.cfi_offset 8, -8
	.cfi_offset 20, -24
	.cfi_offset 22, -32
	.cfi_offset 23, -36
	.cfi_offset 24, -40
	.cfi_offset 25, -44
	.cfi_offset 1, -4
	.cfi_offset 9, -12
	.cfi_offset 18, -16
	.cfi_offset 19, -20
	.cfi_offset 21, -28
	.cfi_offset 26, -48
	addi	s0,sp,48
	.cfi_def_cfa 8, 0
	.loc 1 938 43
	lw	s5,8(a0)
.LVL98:
	.loc 1 939 2 is_stmt 1
	.loc 1 941 2
	.loc 1 943 2
	.loc 1 943 9 is_stmt 0
	li	s4,0
.LBB158:
.LBB159:
	.loc 1 996 13
	lui	s7,%hi(g_poll_sem)
	.loc 1 981 5
	lui	s6,%hi(.LANCHOR8)
	lui	s8,%hi(.LC4)
.LBE159:
	.loc 1 958 4
	lui	s9,%hi(.LC3)
.LVL99:
.L55:
.LBE158:
	.loc 1 943 14 is_stmt 1 discriminator 1
	.loc 1 943 21 is_stmt 0 discriminator 1
	lbu	a5,0(s5)
	.loc 1 943 2 discriminator 1
	bgt	a5,s4,.L67
	.loc 1 1002 1
	lw	ra,44(sp)
	.cfi_remember_state
	.cfi_restore 1
	lw	s0,40(sp)
	.cfi_restore 8
	.cfi_def_cfa 2, 48
	lw	s1,36(sp)
	.cfi_restore 9
	lw	s2,32(sp)
	.cfi_restore 18
	lw	s3,28(sp)
	.cfi_restore 19
	lw	s4,24(sp)
	.cfi_restore 20
.LVL100:
	lw	s5,20(sp)
	.cfi_restore 21
.LVL101:
	lw	s6,16(sp)
	.cfi_restore 22
	lw	s7,12(sp)
	.cfi_restore 23
	lw	s8,8(sp)
	.cfi_restore 24
	lw	s9,4(sp)
	.cfi_restore 25
	lw	s10,0(sp)
	.cfi_restore 26
	addi	sp,sp,48
	.cfi_def_cfa_offset 0
	jr	ra
.LVL102:
.L67:
	.cfi_restore_state
.LBB173:
	.loc 1 944 3 is_stmt 1
	.loc 1 945 3
	.loc 1 946 3
	.loc 1 948 3
	slli	a5,s4,2
	add	a5,s5,a5
	.loc 1 948 10 is_stmt 0
	lbu	s2,2(a5)
	lbu	a4,1(a5)
	.loc 1 949 9
	lbu	s3,4(a5)
	.loc 1 948 10
	slli	s2,s2,8
	or	s2,s2,a4
.LVL103:
	.loc 1 949 3 is_stmt 1
	.loc 1 949 9 is_stmt 0
	lbu	a4,3(a5)
	slli	s3,s3,8
	or	s3,s3,a4
.LVL104:
	.loc 1 951 3 is_stmt 1
	.loc 1 953 3
	.loc 1 953 9 is_stmt 0
	call	irq_lock
.LVL105:
	mv	s10,a0
.LVL106:
	.loc 1 955 3 is_stmt 1
	.loc 1 955 10 is_stmt 0
	mv	a0,s2
.LVL107:
	call	bt_conn_lookup_handle
.LVL108:
	mv	s1,a0
.LVL109:
	.loc 1 956 3 is_stmt 1
	.loc 1 957 4 is_stmt 0
	mv	a0,s10
	.loc 1 956 6
	bne	s1,zero,.L56
	.loc 1 957 4 is_stmt 1
	call	irq_unlock
.LVL110:
	.loc 1 958 4
	addi	a2,s6,%lo(.LANCHOR8)
	mv	a1,s2
	addi	a0,s9,%lo(.LC3)
	call	printf
.LVL111:
	.loc 1 959 4
.L57:
.LBE173:
	.loc 1 943 36 discriminator 2
	.loc 1 943 37 is_stmt 0 discriminator 2
	addi	s4,s4,1
.LVL112:
	j	.L55
.LVL113:
.L56:
.LBB174:
	.loc 1 962 3 is_stmt 1
	call	irq_unlock
.LVL114:
	.loc 1 964 3
.LBB170:
	.loc 1 993 4 is_stmt 0
	addi	s10,s1,40
.LVL115:
.L58:
.LBE170:
	.loc 1 964 9 is_stmt 1
	beq	s3,zero,.L63
.LBB171:
	.loc 1 965 4
	.loc 1 966 4
	.loc 1 968 4
	.loc 1 968 10 is_stmt 0
	call	irq_lock
.LVL116:
	.loc 1 970 12
	lw	a5,28(s1)
	.loc 1 968 10
	mv	a4,a0
.LVL117:
	.loc 1 970 4 is_stmt 1
	.loc 1 970 7 is_stmt 0
	beq	a5,zero,.L59
	.loc 1 971 5 is_stmt 1
	.loc 1 971 24 is_stmt 0
	addi	a5,a5,-1
	sw	a5,28(s1)
	.loc 1 972 5 is_stmt 1
	call	irq_unlock
.LVL118:
	.loc 1 973 5
	mv	a0,s1
	call	bt_conn_get_pkts
.LVL119:
.L72:
	addi	s3,s3,-1
.LVL120:
	slli	s3,s3,16
	.loc 1 996 13 is_stmt 0
	call	k_sem_give
.LVL121:
	srli	s3,s3,16
	j	.L58
.LVL122:
.L59:
	.loc 1 977 4 is_stmt 1
.LBB160:
.LBB161:
	.file 4 "/home/quanghaictu/intern/Ai-Thinker-WB2/components/network/ble/blestack/src/common/include/misc/slist.h"
	.loc 4 399 2
.LBB162:
.LBB163:
	.loc 4 209 2
	.loc 4 209 15 is_stmt 0
	lw	s2,20(s1)
.LVL123:
.LBE163:
.LBE162:
	.loc 4 399 40
	beq	s2,zero,.L61
.LVL124:
.LBB164:
.LBB165:
	.loc 4 378 2 is_stmt 1
	.loc 4 380 2
	.loc 4 380 19 is_stmt 0
	lw	a5,0(s2)
	.loc 4 381 5
	lw	a3,24(s1)
	.loc 4 380 13
	sw	a5,20(s1)
	.loc 4 381 2 is_stmt 1
	.loc 4 381 5 is_stmt 0
	bne	s2,a3,.L61
	.loc 4 382 3 is_stmt 1
	.loc 4 382 14 is_stmt 0
	sw	a5,24(s1)
.LVL125:
.L61:
.LBE165:
.LBE164:
.LBE161:
.LBE160:
	.loc 1 978 4 is_stmt 1
	mv	a0,a4
.LVL126:
	call	irq_unlock
.LVL127:
	.loc 1 980 4
	.loc 1 980 7 is_stmt 0
	bne	s2,zero,.L62
.LVL128:
	.loc 1 981 5 is_stmt 1
	addi	a1,s6,%lo(.LANCHOR8)
	addi	a0,s8,%lo(.LC4)
	call	printf
.LVL129:
	.loc 1 982 5
.L63:
.LBE171:
	.loc 1 1000 3
	mv	a0,s1
	call	bt_conn_unref
.LVL130:
	j	.L57
.LVL131:
.L62:
.LBB172:
	.loc 1 985 4
	.loc 1 987 4
	.loc 1 987 10 is_stmt 0
	call	irq_lock
.LVL132:
	.loc 1 988 4 is_stmt 1
	.loc 1 988 28 is_stmt 0
	lw	a5,12(s2)
	.loc 1 988 24
	sw	a5,28(s1)
	.loc 1 989 4 is_stmt 1
	.loc 1 989 22 is_stmt 0
	sw	zero,12(s2)
	.loc 1 990 4 is_stmt 1
.LVL133:
.LBB166:
.LBB167:
	.loc 4 292 2
	.loc 4 292 13 is_stmt 0
	sw	zero,0(s2)
	.loc 4 294 2 is_stmt 1
	.loc 4 294 11 is_stmt 0
	lw	a5,36(s1)
	.loc 4 294 5
	bne	a5,zero,.L64
	.loc 4 295 3 is_stmt 1
	.loc 4 295 14 is_stmt 0
	sw	s2,36(s1)
	.loc 4 296 3 is_stmt 1
	.loc 4 296 14 is_stmt 0
	sw	s2,32(s1)
.L65:
.LVL134:
.LBE167:
.LBE166:
	.loc 1 991 4 is_stmt 1
	call	irq_unlock
.LVL135:
	.loc 1 993 4
	mv	a0,s10
	call	k_work_submit
.LVL136:
	.loc 1 994 4
	mv	a0,s1
	call	bt_conn_get_pkts
.LVL137:
	call	k_sem_give
.LVL138:
	.loc 1 996 13
	addi	a0,s7,%lo(g_poll_sem)
	j	.L72
.LVL139:
.L64:
.LBB169:
.LBB168:
	.loc 4 298 3
	.loc 4 298 20 is_stmt 0
	sw	s2,0(a5)
	.loc 4 299 3 is_stmt 1
	.loc 4 299 14 is_stmt 0
	sw	s2,36(s1)
	j	.L65
.LBE168:
.LBE169:
.LBE172:
.LBE174:
	.cfi_endproc
.LFE113:
	.size	hci_num_completed_packets, .-hci_num_completed_packets
	.section	.text.hci_reset_complete.part.0,"ax",@progbits
	.align	1
	.type	hci_reset_complete.part.0, @function
hci_reset_complete.part.0:
.LFB254:
	.loc 1 3846 13 is_stmt 1
	.cfi_startproc
.LVL140:
	.loc 1 3857 2
	.loc 1 3846 13 is_stmt 0
	addi	sp,sp,-16
	.cfi_def_cfa_offset 16
	sw	s1,4(sp)
	.cfi_offset 9, -12
	.loc 1 3865 11
	lui	s1,%hi(.LANCHOR2+108)
	.loc 1 3846 13
	sw	s0,8(sp)
	sw	ra,12(sp)
	.cfi_offset 8, -8
	.cfi_offset 1, -4
	addi	s0,sp,16
	.cfi_def_cfa 8, 0
	.loc 1 3865 11
	addi	s1,s1,%lo(.LANCHOR2+108)
	.loc 1 3846 13
	.loc 1 3857 20
	lui	a5,%hi(.LANCHOR9)
	.loc 1 3865 11
	mv	a0,s1
	.loc 1 3857 20
	sw	zero,%lo(.LANCHOR9)(a5)
	.loc 1 3865 2 is_stmt 1
	.loc 1 3865 11 is_stmt 0
	call	atomic_get
.LVL141:
	.loc 1 3866 2 is_stmt 1
	.loc 1 3867 1 is_stmt 0
	lw	s0,8(sp)
	.cfi_restore 8
	.cfi_def_cfa 2, 16
	lw	ra,12(sp)
	.cfi_restore 1
	.loc 1 3866 2
	andi	a1,a0,13
.LVL142:
	mv	a0,s1
	.loc 1 3867 1
	lw	s1,4(sp)
	.cfi_restore 9
	addi	sp,sp,16
	.cfi_def_cfa_offset 0
	.loc 1 3866 2
	tail	atomic_set
.LVL143:
	.cfi_endproc
.LFE254:
	.size	hci_reset_complete.part.0, .-hci_reset_complete.part.0
	.section	.rodata.update_sec_level.part.0.str1.4,"aMS",@progbits,1
	.align	2
.LC5:
	.string	"Failed to set required security level, %s\r\n"
	.section	.text.update_sec_level.part.0,"ax",@progbits
	.align	1
	.type	update_sec_level.part.0, @function
update_sec_level.part.0:
.LFB255:
	.loc 1 3600 13 is_stmt 1
	.cfi_startproc
.LVL144:
	.loc 1 3607 2
	.loc 1 3600 13 is_stmt 0
	addi	sp,sp,-16
	.cfi_def_cfa_offset 16
	sw	s0,8(sp)
	sw	s1,4(sp)
	sw	ra,12(sp)
	.cfi_offset 8, -8
	.cfi_offset 9, -12
	.cfi_offset 1, -4
	addi	s0,sp,16
	.cfi_def_cfa 8, 0
	.loc 1 3607 14
	lw	a4,156(a0)
	.loc 1 3600 13
	mv	s1,a0
	.loc 1 3607 5
	beq	a4,zero,.L76
	.loc 1 3607 37
	lbu	a5,9(a4)
	.loc 1 3607 20
	andi	a3,a5,1
	beq	a3,zero,.L76
	.loc 1 3608 3 is_stmt 1
	.loc 1 3608 6 is_stmt 0
	andi	a5,a5,16
	beq	a5,zero,.L77
	.loc 1 3608 41
	lbu	a4,8(a4)
	li	a5,16
	bne	a4,a5,.L77
	.loc 1 3610 4 is_stmt 1
	.loc 1 3610 20 is_stmt 0
	li	a5,4
.L90:
	.loc 1 3615 19
	sb	a5,9(s1)
	.loc 1 3618 2 is_stmt 1
	.loc 1 3618 5 is_stmt 0
	lbu	a4,10(s1)
	lbu	a5,9(s1)
	bleu	a4,a5,.L75
	.loc 1 3619 3 is_stmt 1
	lui	a1,%hi(.LANCHOR10)
	lui	a0,%hi(.LC5)
.LVL145:
	addi	a1,a1,%lo(.LANCHOR10)
	addi	a0,a0,%lo(.LC5)
	call	printf
.LVL146:
	.loc 1 3620 3
	.loc 1 3622 1 is_stmt 0
	lw	s0,8(sp)
	.cfi_remember_state
	.cfi_restore 8
	.cfi_def_cfa 2, 16
	lw	ra,12(sp)
	.cfi_restore 1
	.loc 1 3620 3
	mv	a0,s1
	.loc 1 3622 1
	lw	s1,4(sp)
	.cfi_restore 9
.LVL147:
	.loc 1 3620 3
	li	a1,5
	.loc 1 3622 1
	addi	sp,sp,16
	.cfi_def_cfa_offset 0
	.loc 1 3620 3
	tail	bt_conn_disconnect
.LVL148:
.L77:
	.cfi_restore_state
	.loc 1 3612 4 is_stmt 1
	.loc 1 3612 20 is_stmt 0
	li	a5,3
	j	.L90
.L76:
	.loc 1 3615 3 is_stmt 1
	.loc 1 3615 19 is_stmt 0
	li	a5,2
	j	.L90
.L75:
	.loc 1 3622 1
	lw	ra,12(sp)
	.cfi_restore 1
	lw	s0,8(sp)
	.cfi_restore 8
	.cfi_def_cfa 2, 16
	lw	s1,4(sp)
	.cfi_restore 9
.LVL149:
	addi	sp,sp,16
	.cfi_def_cfa_offset 0
	jr	ra
	.cfi_endproc
.LFE255:
	.size	update_sec_level.part.0, .-update_sec_level.part.0
	.section	.text.find_pending_connect,"ax",@progbits
	.align	1
	.type	find_pending_connect, @function
find_pending_connect:
.LFB125:
	.loc 1 1458 1 is_stmt 1
	.cfi_startproc
.LVL150:
	.loc 1 1459 2
	.loc 1 1465 2
	.loc 1 1458 1 is_stmt 0
	addi	sp,sp,-16
	.cfi_def_cfa_offset 16
	sw	s0,8(sp)
	sw	s1,4(sp)
	sw	ra,12(sp)
	.cfi_offset 8, -8
	.cfi_offset 9, -12
	.cfi_offset 1, -4
	addi	s0,sp,16
	.cfi_def_cfa 8, 0
	.loc 1 1465 9
	li	a1,3
	.loc 1 1458 1
	mv	s1,a0
	.loc 1 1465 9
	call	bt_conn_lookup_state_le
.LVL151:
	.loc 1 1466 2 is_stmt 1
	.loc 1 1466 5 is_stmt 0
	bne	a0,zero,.L91
.LVL152:
.LBB177:
.LBB178:
	.loc 1 1470 2 is_stmt 1
.LBE178:
.LBE177:
	.loc 1 1471 1 is_stmt 0
	lw	s0,8(sp)
	.cfi_remember_state
	.cfi_restore 8
	.cfi_def_cfa 2, 16
	lw	ra,12(sp)
	.cfi_restore 1
.LBB182:
.LBB179:
	.loc 1 1470 9
	mv	a0,s1
.LVL153:
.LBE179:
.LBE182:
	.loc 1 1471 1
	lw	s1,4(sp)
	.cfi_restore 9
.LVL154:
.LBB183:
.LBB180:
	.loc 1 1470 9
	li	a1,2
.LBE180:
.LBE183:
	.loc 1 1471 1
	addi	sp,sp,16
	.cfi_def_cfa_offset 0
.LBB184:
.LBB181:
	.loc 1 1470 9
	tail	bt_conn_lookup_state_le
.LVL155:
.L91:
	.cfi_restore_state
.LBE181:
.LBE184:
	.loc 1 1471 1
	lw	ra,12(sp)
	.cfi_restore 1
	lw	s0,8(sp)
	.cfi_restore 8
	.cfi_def_cfa 2, 16
	lw	s1,4(sp)
	.cfi_restore 9
.LVL156:
	addi	sp,sp,16
	.cfi_def_cfa_offset 0
	jr	ra
	.cfi_endproc
.LFE125:
	.size	find_pending_connect, .-find_pending_connect
	.section	.text.hci_vendor_event,"ax",@progbits
	.align	1
	.type	hci_vendor_event, @function
hci_vendor_event:
.LFB165:
	.loc 1 4264 1 is_stmt 1
	.cfi_startproc
.LVL157:
	.loc 1 4265 1
	.loc 1 4268 2
	.loc 1 4264 1 is_stmt 0
	addi	sp,sp,-32
	.cfi_def_cfa_offset 32
	sw	s0,24(sp)
	sw	s3,12(sp)
	sw	ra,28(sp)
	sw	s1,20(sp)
	sw	s2,16(sp)
	sw	s4,8(sp)
	sw	s5,4(sp)
	.cfi_offset 8, -8
	.cfi_offset 19, -20
	.cfi_offset 1, -4
	.cfi_offset 9, -12
	.cfi_offset 18, -16
	.cfi_offset 20, -24
	.cfi_offset 21, -28
	addi	s0,sp,32
	.cfi_def_cfa 8, 0
	.loc 1 4268 6
	lui	s3,%hi(.LANCHOR11)
	.loc 1 4264 1
	.loc 1 4268 6
	addi	s3,s3,%lo(.LANCHOR11)
	.loc 1 4268 5
	lw	a5,0(s3)
	beq	a5,zero,.L94
.LBB192:
.LBB193:
.LBB194:
	.loc 1 4271 3
	addi	s4,a0,8
	mv	s1,a0
.LVL158:
	.loc 1 4269 3 is_stmt 1
	.loc 1 4271 3
.LBB195:
.LBB196:
	.file 5 "/home/quanghaictu/intern/Ai-Thinker-WB2/components/network/ble/blestack/src/common/include/net/buf.h"
	.loc 5 520 2
	.loc 5 520 18 is_stmt 0
	mv	a0,s4
.LVL159:
	call	net_buf_simple_headroom
.LVL160:
.LBE196:
.LBE195:
	.loc 1 4273 13
	lw	a5,0(s3)
.LBB199:
.LBB197:
	.loc 5 520 18
	mv	s2,a0
	.loc 5 521 2 is_stmt 1
.LBE197:
.LBE199:
	.loc 1 4273 13 is_stmt 0
	mv	a0,s4
.LBB200:
.LBB198:
	.loc 5 521 18
	lhu	s5,12(s1)
.LVL161:
.LBE198:
.LBE200:
	.loc 1 4273 3 is_stmt 1
	.loc 1 4273 13 is_stmt 0
	jalr	a5
.LVL162:
	.loc 1 4275 3 is_stmt 1
.LBB201:
.LBB202:
	.loc 5 536 2
	.loc 5 536 25 is_stmt 0
	lw	a0,16(s1)
	slli	s2,s2,16
	srli	s2,s2,16
	add	s2,a0,s2
	.loc 5 536 12
	sw	s2,8(s1)
	.loc 5 537 2 is_stmt 1
	.loc 5 537 11 is_stmt 0
	sh	s5,12(s1)
.LVL163:
.LBE202:
.LBE201:
.LBE194:
.LBE193:
.LBE192:
	.loc 1 4279 2 is_stmt 1
.L94:
	.loc 1 4284 1 is_stmt 0
	lw	ra,28(sp)
	.cfi_restore 1
	lw	s0,24(sp)
	.cfi_restore 8
	.cfi_def_cfa 2, 32
	lw	s1,20(sp)
	.cfi_restore 9
	lw	s2,16(sp)
	.cfi_restore 18
	lw	s3,12(sp)
	.cfi_restore 19
	lw	s4,8(sp)
	.cfi_restore 20
	lw	s5,4(sp)
	.cfi_restore 21
	addi	sp,sp,32
	.cfi_def_cfa_offset 0
	jr	ra
	.cfi_endproc
.LFE165:
	.size	hci_vendor_event, .-hci_vendor_event
	.section	.rodata.handle_event.str1.4,"aMS",@progbits,1
	.align	2
.LC6:
	.string	"Too small (%u bytes) event 0x%02x, %s\r\n"
	.align	2
.LC7:
	.string	"Unhandled event 0x%02x len %u: %s, %s\r\n"
	.section	.text.handle_event,"ax",@progbits
	.align	1
	.type	handle_event, @function
handle_event:
.LFB99:
	.loc 1 279 1 is_stmt 1
	.cfi_startproc
.LVL164:
	addi	sp,sp,-32
	.cfi_def_cfa_offset 32
	sw	s0,24(sp)
	sw	s1,20(sp)
	sw	ra,28(sp)
	.cfi_offset 8, -8
	.cfi_offset 9, -12
	.cfi_offset 1, -4
	addi	s0,sp,32
	.cfi_def_cfa 8, 0
	slli	a3,a3,3
.LVL165:
	mv	s1,a0
	.loc 1 279 1 is_stmt 0
	mv	a0,a1
.LVL166:
	.loc 1 280 2 is_stmt 1
	.loc 1 282 2
	.loc 1 282 14
	add	a3,a2,a3
.LVL167:
.L102:
.LBB207:
	.loc 1 283 3
	.loc 1 285 3
	.loc 1 285 6 is_stmt 0
	lbu	a5,0(a2)
	beq	a5,s1,.L101
	.loc 1 286 4 is_stmt 1
.LBE207:
	.loc 1 282 32
	.loc 1 282 14
	.loc 1 282 2 is_stmt 0
	addi	a2,a2,8
.LVL168:
	bne	a2,a3,.L102
.LVL169:
.LBB208:
.LBB209:
	.loc 1 299 2 is_stmt 1
	.loc 1 299 66 is_stmt 0
	lhu	a2,12(a0)
.LVL170:
	.loc 1 299 2
	lw	a0,8(a0)
	mv	a1,a2
.LVL171:
	sw	a2,-20(s0)
	call	bt_hex_real
.LVL172:
	lw	a2,-20(s0)
.LBE209:
.LBE208:
	.loc 1 301 1
	lw	s0,24(sp)
	.cfi_remember_state
	.cfi_restore 8
	.cfi_def_cfa 2, 32
	lw	ra,28(sp)
	.cfi_restore 1
.LBB215:
.LBB210:
	.loc 1 299 2
	mv	a1,s1
.LBE210:
.LBE215:
	.loc 1 301 1
	lw	s1,20(sp)
	.cfi_restore 9
.LVL173:
.LBB216:
.LBB211:
	.loc 1 299 2
	mv	a3,a0
.LVL174:
.LBE211:
.LBE216:
	.file 6 "/home/quanghaictu/intern/Ai-Thinker-WB2/components/network/ble/blestack/src/common/log.h"
	.loc 6 111 2 is_stmt 1
.LBB217:
.LBB212:
	.loc 1 299 2 is_stmt 0
	lui	a4,%hi(.LANCHOR12)
	lui	a0,%hi(.LC7)
.LBE212:
.LBE217:
	.loc 1 301 1
.LBB218:
.LBB213:
	.loc 1 299 2
	addi	a4,a4,%lo(.LANCHOR12)
	addi	a0,a0,%lo(.LC7)
.LBE213:
.LBE218:
	.loc 1 301 1
	addi	sp,sp,32
	.cfi_def_cfa_offset 0
.LBB219:
.LBB214:
	.loc 1 299 2
	tail	printf
.LVL175:
.L101:
	.cfi_restore_state
.LBE214:
.LBE219:
.LBB220:
	.loc 1 289 3 is_stmt 1
	.loc 1 289 10 is_stmt 0
	lhu	a1,12(a0)
	.loc 1 289 6
	lbu	a5,1(a2)
	bleu	a5,a1,.L104
	.loc 1 290 4 is_stmt 1
.LBE220:
	.loc 1 301 1 is_stmt 0
	lw	s0,24(sp)
	.cfi_remember_state
	.cfi_restore 8
	.cfi_def_cfa 2, 32
	lw	ra,28(sp)
	.cfi_restore 1
.LBB221:
	.loc 1 290 4
	mv	a2,s1
.LVL176:
.LBE221:
	.loc 1 301 1
	lw	s1,20(sp)
	.cfi_restore 9
.LBB222:
	.loc 1 290 4
	lui	a3,%hi(.LANCHOR12)
	lui	a0,%hi(.LC6)
.LVL177:
.LBE222:
	.loc 1 301 1
.LBB223:
	.loc 1 290 4
	addi	a3,a3,%lo(.LANCHOR12)
	addi	a0,a0,%lo(.LC6)
.LBE223:
	.loc 1 301 1
	addi	sp,sp,32
	.cfi_def_cfa_offset 0
.LBB224:
	.loc 1 290 4
	tail	printf
.LVL178:
.L104:
	.cfi_restore_state
	.loc 1 295 3 is_stmt 1
.LBE224:
	.loc 1 301 1 is_stmt 0
	lw	s0,24(sp)
	.cfi_restore 8
	.cfi_def_cfa 2, 32
	lw	ra,28(sp)
	.cfi_restore 1
	lw	s1,20(sp)
	.cfi_restore 9
.LBB225:
	.loc 1 295 3
	lw	a5,4(a2)
.LBE225:
	.loc 1 301 1
	addi	sp,sp,32
	.cfi_def_cfa_offset 0
.LBB226:
	.loc 1 295 3
	jr	a5
.LVL179:
.LBE226:
	.cfi_endproc
.LFE99:
	.size	handle_event, .-handle_event
	.section	.text.hci_le_meta_event,"ax",@progbits
	.align	1
	.type	hci_le_meta_event, @function
hci_le_meta_event:
.LFB166:
	.loc 1 4327 1 is_stmt 1
	.cfi_startproc
.LVL180:
	.loc 1 4328 2
	.loc 1 4330 2
	.loc 1 4327 1 is_stmt 0
	addi	sp,sp,-16
	.cfi_def_cfa_offset 16
	sw	s0,8(sp)
	sw	s1,4(sp)
	sw	ra,12(sp)
	.cfi_offset 8, -8
	.cfi_offset 9, -12
	.cfi_offset 1, -4
	addi	s0,sp,16
	.cfi_def_cfa 8, 0
	.loc 1 4327 1
	mv	s1,a0
	.loc 1 4330 8
	li	a1,1
	addi	a0,a0,8
.LVL181:
	call	net_buf_simple_pull_mem
.LVL182:
	.loc 1 4332 2 is_stmt 1
	.loc 1 4334 2
	.loc 1 4335 1 is_stmt 0
	lw	s0,8(sp)
	.cfi_restore 8
	.cfi_def_cfa 2, 16
	lw	ra,12(sp)
	.cfi_restore 1
	.loc 1 4334 2
	lbu	a0,0(a0)
.LVL183:
	mv	a1,s1
	.loc 1 4335 1
	lw	s1,4(sp)
	.cfi_restore 9
.LVL184:
	.loc 1 4334 2
	lui	a2,%hi(.LANCHOR13)
	.loc 1 4335 1
	.loc 1 4334 2
	li	a3,10
	addi	a2,a2,%lo(.LANCHOR13)
	.loc 1 4335 1
	addi	sp,sp,16
	.cfi_def_cfa_offset 0
	.loc 1 4334 2
	tail	handle_event
.LVL185:
	.cfi_endproc
.LFE166:
	.size	hci_le_meta_event, .-hci_le_meta_event
	.section	.rodata.hci_cmd_done.str1.4,"aMS",@progbits,1
	.align	2
.LC8:
	.string	"opcode 0x%04x pool id %u pool %p != &hci_cmd_pool %p, %s\r\n"
	.align	2
.LC9:
	.string	"OpCode 0x%04x completed instead of expected 0x%04x, %s\r\n"
	.section	.text.hci_cmd_done,"ax",@progbits
	.align	1
	.type	hci_cmd_done, @function
hci_cmd_done:
.LFB156:
	.loc 1 3870 1 is_stmt 1
	.cfi_startproc
.LVL186:
	.loc 1 3871 2
	.loc 1 3873 2
	.loc 1 3870 1 is_stmt 0
	addi	sp,sp,-48
	.cfi_def_cfa_offset 48
	sw	s0,40(sp)
	sw	s1,36(sp)
	sw	s2,32(sp)
	sw	s3,28(sp)
	sw	s4,24(sp)
	sw	ra,44(sp)
	sw	s5,20(sp)
	.cfi_offset 8, -8
	.cfi_offset 9, -12
	.cfi_offset 18, -16
	.cfi_offset 19, -20
	.cfi_offset 20, -24
	.cfi_offset 1, -4
	.cfi_offset 21, -28
	addi	s0,sp,48
	.cfi_def_cfa 8, 0
	.loc 1 3870 1
	mv	s4,a0
	.loc 1 3873 6
	lbu	a0,6(a2)
.LVL187:
	.loc 1 3870 1
	mv	s3,a1
	mv	s2,a2
	.loc 1 3873 5
	lui	s1,%hi(hci_cmd_pool)
	.loc 1 3873 6
	call	net_buf_pool_get
.LVL188:
	.loc 1 3873 5
	addi	a5,s1,%lo(hci_cmd_pool)
	beq	a5,a0,.L111
	.loc 1 3874 3 is_stmt 1
	lbu	a2,6(s2)
	mv	a0,a2
	sw	a2,-36(s0)
	call	net_buf_pool_get
.LVL189:
	lw	a2,-36(s0)
	.loc 1 3906 1 is_stmt 0
	lw	s0,40(sp)
	.cfi_remember_state
	.cfi_restore 8
	.cfi_def_cfa 2, 48
	lw	ra,44(sp)
	.cfi_restore 1
	lw	s2,32(sp)
	.cfi_restore 18
.LVL190:
	lw	s3,28(sp)
	.cfi_restore 19
	lw	s5,20(sp)
	.cfi_restore 21
	.loc 1 3874 3
	addi	a4,s1,%lo(hci_cmd_pool)
	mv	a1,s4
	.loc 1 3906 1
	lw	s1,36(sp)
	.cfi_restore 9
	lw	s4,24(sp)
	.cfi_restore 20
	.loc 1 3874 3
	mv	a3,a0
	lui	a5,%hi(.LANCHOR14)
	lui	a0,%hi(.LC8)
	.loc 1 3906 1
	.loc 1 3874 3
	addi	a5,a5,%lo(.LANCHOR14)
	addi	a0,a0,%lo(.LC8)
	.loc 1 3906 1
	addi	sp,sp,48
	.cfi_def_cfa_offset 0
	.loc 1 3874 3
	tail	printf
.LVL191:
.L111:
	.cfi_restore_state
.LBB230:
.LBB231:
	.loc 1 3880 2 is_stmt 1
	.loc 1 3880 17 is_stmt 0
	mv	a0,s2
	call	net_buf_id
.LVL192:
	.loc 1 3880 34
	li	s5,12
	mul	a0,a0,s5
	lui	s1,%hi(.LANCHOR15)
	addi	a5,s1,%lo(.LANCHOR15)
	addi	s1,s1,%lo(.LANCHOR15)
	add	a5,a5,a0
	.loc 1 3880 5
	lhu	a5,2(a5)
	beq	a5,s4,.L112
	.loc 1 3881 3 is_stmt 1
	.loc 1 3881 93 is_stmt 0
	mv	a0,s2
	call	net_buf_id
.LVL193:
	.loc 1 3881 110
	mul	a0,a0,s5
	.loc 1 3881 3
	lui	a3,%hi(.LANCHOR14)
	addi	a3,a3,%lo(.LANCHOR14)
	mv	a1,s4
	.loc 1 3881 110
	add	a0,s1,a0
	.loc 1 3881 3
	lhu	a2,2(a0)
	lui	a0,%hi(.LC9)
	addi	a0,a0,%lo(.LC9)
	call	printf
.LVL194:
.L112:
	.loc 1 3885 2 is_stmt 1
	.loc 1 3885 17 is_stmt 0
	mv	a0,s2
	call	net_buf_id
.LVL195:
	.loc 1 3885 34
	li	s4,12
.LVL196:
	mul	a0,a0,s4
	add	a0,s1,a0
	.loc 1 3885 5
	lw	a5,4(a0)
	beq	a5,zero,.L113
	.loc 1 3885 42
	bne	s3,zero,.L113
.LBB232:
	.loc 1 3886 3 is_stmt 1
	.loc 1 3886 45 is_stmt 0
	mv	a0,s2
	call	net_buf_id
.LVL197:
	.loc 1 3886 25
	mul	a0,a0,s4
	add	a0,s1,a0
	lw	a5,4(a0)
.LVL198:
	.loc 1 3888 3 is_stmt 1
	lbu	a2,8(a5)
	lw	a1,4(a5)
	lw	a0,0(a5)
	call	atomic_set_bit_to
.LVL199:
.L113:
.LBE232:
	.loc 1 3901 5
	.loc 1 3901 20 is_stmt 0
	mv	a0,s2
	call	net_buf_id
.LVL200:
	.loc 1 3901 37
	li	s4,12
	mul	a0,a0,s4
	add	a0,s1,a0
	.loc 1 3901 8
	lw	a5,8(a0)
	beq	a5,zero,.L110
	.loc 1 3902 3 is_stmt 1
	.loc 1 3902 14 is_stmt 0
	mv	a0,s2
	call	net_buf_id
.LVL201:
	.loc 1 3902 40
	mul	a0,a0,s4
	add	a0,s1,a0
	sb	s3,0(a0)
	.loc 1 3903 3 is_stmt 1
	.loc 1 3903 25 is_stmt 0
	mv	a0,s2
	call	net_buf_id
.LVL202:
	.loc 1 3903 3
	mul	a0,a0,s4
.LBE231:
.LBE230:
	.loc 1 3906 1
	lw	s0,40(sp)
	.cfi_remember_state
	.cfi_restore 8
	.cfi_def_cfa 2, 48
	lw	ra,44(sp)
	.cfi_restore 1
	lw	s2,32(sp)
	.cfi_restore 18
.LVL203:
	lw	s3,28(sp)
	.cfi_restore 19
.LVL204:
	lw	s4,24(sp)
	.cfi_restore 20
	lw	s5,20(sp)
	.cfi_restore 21
.LBB235:
.LBB233:
	.loc 1 3903 3
	add	s1,s1,a0
	lw	a0,8(s1)
.LBE233:
.LBE235:
	.loc 1 3906 1
	lw	s1,36(sp)
	.cfi_restore 9
	addi	sp,sp,48
	.cfi_def_cfa_offset 0
.LBB236:
.LBB234:
	.loc 1 3903 3
	tail	k_sem_give
.LVL205:
.L110:
	.cfi_restore_state
.LBE234:
.LBE236:
	.loc 1 3906 1
	lw	ra,44(sp)
	.cfi_restore 1
	lw	s0,40(sp)
	.cfi_restore 8
	.cfi_def_cfa 2, 48
	lw	s1,36(sp)
	.cfi_restore 9
	lw	s2,32(sp)
	.cfi_restore 18
.LVL206:
	lw	s3,28(sp)
	.cfi_restore 19
.LVL207:
	lw	s4,24(sp)
	.cfi_restore 20
	lw	s5,20(sp)
	.cfi_restore 21
	addi	sp,sp,48
	.cfi_def_cfa_offset 0
	jr	ra
	.cfi_endproc
.LFE156:
	.size	hci_cmd_done, .-hci_cmd_done
	.section	.text.hci_cmd_status,"ax",@progbits
	.align	1
	.type	hci_cmd_status, @function
hci_cmd_status:
.LFB158:
	.loc 1 3934 1 is_stmt 1
	.cfi_startproc
.LVL208:
	.loc 1 3935 2
	.loc 1 3936 2
	.loc 1 3937 2
	.loc 1 3939 2
	.loc 1 3934 1 is_stmt 0
	addi	sp,sp,-32
	.cfi_def_cfa_offset 32
	sw	s0,24(sp)
	sw	s1,20(sp)
	.cfi_offset 8, -8
	.cfi_offset 9, -12
	addi	s0,sp,32
	.cfi_def_cfa 8, 0
	sw	ra,28(sp)
	mv	a2,a0
	.cfi_offset 1, -4
	.loc 1 3939 8
	li	a1,4
	addi	a0,a0,8
.LVL209:
	sw	a2,-20(s0)
	call	net_buf_simple_pull_mem
.LVL210:
	mv	a5,a0
.LVL211:
	.loc 1 3940 2 is_stmt 1
	.loc 1 3941 2
	.loc 1 3940 9 is_stmt 0
	lbu	a4,3(a5)
	.loc 1 3941 7
	lbu	s1,1(a0)
.LVL212:
	.loc 1 3943 2 is_stmt 1
	.loc 1 3945 2
	.loc 1 3940 9 is_stmt 0
	lbu	a0,2(a0)
.LVL213:
	.loc 1 3945 2
	lw	a2,-20(s0)
	lbu	a1,0(a5)
	.loc 1 3940 9
	slli	a4,a4,8
	.loc 1 3945 2
	or	a0,a4,a0
	call	hci_cmd_done
.LVL214:
	.loc 1 3948 2 is_stmt 1
	.loc 1 3948 5 is_stmt 0
	beq	s1,zero,.L119
	.loc 1 3949 3 is_stmt 1
	.loc 1 3951 1 is_stmt 0
	lw	s0,24(sp)
	.cfi_remember_state
	.cfi_restore 8
	.cfi_def_cfa 2, 32
.LVL215:
	lw	ra,28(sp)
	.cfi_restore 1
	lw	s1,20(sp)
	.cfi_restore 9
.LVL216:
	.loc 1 3949 3
	lui	a0,%hi(.LANCHOR2+152)
	.loc 1 3951 1
	.loc 1 3949 3
	addi	a0,a0,%lo(.LANCHOR2+152)
	.loc 1 3951 1
	addi	sp,sp,32
	.cfi_def_cfa_offset 0
	.loc 1 3949 3
	tail	k_sem_give
.LVL217:
.L119:
	.cfi_restore_state
	.loc 1 3951 1
	lw	ra,28(sp)
	.cfi_restore 1
	lw	s0,24(sp)
	.cfi_restore 8
	.cfi_def_cfa 2, 32
	lw	s1,20(sp)
	.cfi_restore 9
.LVL218:
	addi	sp,sp,32
	.cfi_def_cfa_offset 0
	jr	ra
	.cfi_endproc
.LFE158:
	.size	hci_cmd_status, .-hci_cmd_status
	.section	.text.hci_cmd_complete,"ax",@progbits
	.align	1
	.type	hci_cmd_complete, @function
hci_cmd_complete:
.LFB157:
	.loc 1 3909 1 is_stmt 1
	.cfi_startproc
.LVL219:
	.loc 1 3910 2
	.loc 1 3911 2
	.loc 1 3912 2
	.loc 1 3914 2
	.loc 1 3909 1 is_stmt 0
	addi	sp,sp,-32
	.cfi_def_cfa_offset 32
	sw	s0,24(sp)
	sw	s1,20(sp)
	.cfi_offset 8, -8
	.cfi_offset 9, -12
	addi	s0,sp,32
	.cfi_def_cfa 8, 0
	sw	ra,28(sp)
	mv	a2,a0
	.cfi_offset 1, -4
	.loc 1 3914 8
	li	a1,3
	addi	a0,a0,8
.LVL220:
	sw	a2,-20(s0)
	call	net_buf_simple_pull_mem
.LVL221:
	.loc 1 3915 2 is_stmt 1
	.loc 1 3923 9 is_stmt 0
	lw	a2,-20(s0)
	.loc 1 3916 9
	lbu	a5,2(a0)
	lbu	a4,1(a0)
	.loc 1 3923 9
	lw	a3,8(a2)
	.loc 1 3915 7
	lbu	s1,0(a0)
.LVL222:
	.loc 1 3916 2 is_stmt 1
	.loc 1 3918 2
	.loc 1 3923 2
	.loc 1 3925 2
	.loc 1 3916 9 is_stmt 0
	slli	a5,a5,8
	.loc 1 3925 2
	lbu	a1,0(a3)
	or	a0,a5,a4
.LVL223:
	call	hci_cmd_done
.LVL224:
	.loc 1 3928 2 is_stmt 1
	.loc 1 3928 5 is_stmt 0
	beq	s1,zero,.L122
	.loc 1 3929 3 is_stmt 1
	.loc 1 3931 1 is_stmt 0
	lw	s0,24(sp)
	.cfi_remember_state
	.cfi_restore 8
	.cfi_def_cfa 2, 32
.LVL225:
	lw	ra,28(sp)
	.cfi_restore 1
	lw	s1,20(sp)
	.cfi_restore 9
.LVL226:
	.loc 1 3929 3
	lui	a0,%hi(.LANCHOR2+152)
	.loc 1 3931 1
	.loc 1 3929 3
	addi	a0,a0,%lo(.LANCHOR2+152)
	.loc 1 3931 1
	addi	sp,sp,32
	.cfi_def_cfa_offset 0
	.loc 1 3929 3
	tail	k_sem_give
.LVL227:
.L122:
	.cfi_restore_state
	.loc 1 3931 1
	lw	ra,28(sp)
	.cfi_restore 1
	lw	s0,24(sp)
	.cfi_restore 8
	.cfi_def_cfa 2, 32
	lw	s1,20(sp)
	.cfi_restore 9
.LVL228:
	addi	sp,sp,32
	.cfi_def_cfa_offset 0
	jr	ra
	.cfi_endproc
.LFE157:
	.size	hci_cmd_complete, .-hci_cmd_complete
	.section	.text.sys_put_le64,"ax",@progbits
	.align	1
	.type	sys_put_le64, @function
sys_put_le64:
.LFB52:
	.file 7 "/home/quanghaictu/intern/Ai-Thinker-WB2/components/network/ble/blestack/src/common/include/misc/byteorder.h"
	.loc 7 248 1 is_stmt 1
	.cfi_startproc
.LVL229:
	.loc 7 249 2
.LBB249:
.LBB250:
	.loc 7 234 2
.LBB251:
.LBB252:
	.loc 7 204 2
.LBE252:
.LBE251:
.LBE250:
.LBE249:
	.loc 7 248 1 is_stmt 0
	addi	sp,sp,-16
	.cfi_def_cfa_offset 16
.LBB273:
.LBB267:
.LBB257:
.LBB253:
	.loc 7 205 9
	slli	a5,a0,16
.LBE253:
.LBE257:
.LBE267:
.LBE273:
	.loc 7 248 1
	sw	s0,12(sp)
.LBB274:
.LBB268:
.LBB258:
.LBB254:
	.loc 7 205 9
	srli	a5,a5,16
	.cfi_offset 8, -4
.LBE254:
.LBE258:
.LBE268:
.LBE274:
	.loc 7 248 1
	addi	s0,sp,16
	.cfi_def_cfa 8, 0
.LBB275:
.LBB269:
.LBB259:
.LBB255:
	.loc 7 205 9
	srli	a5,a5,8
	sb	a5,1(a2)
.LBE255:
.LBE259:
.LBE269:
.LBE275:
.LBB276:
.LBB277:
.LBB278:
.LBB279:
	slli	a5,a1,16
.LBE279:
.LBE278:
.LBE277:
.LBE276:
	.loc 7 251 1
	lw	s0,12(sp)
	.cfi_restore 8
	.cfi_def_cfa 2, 16
.LBB294:
.LBB290:
.LBB283:
.LBB280:
	.loc 7 205 9
	srli	a5,a5,16
.LBE280:
.LBE283:
.LBE290:
.LBE294:
.LBB295:
.LBB270:
.LBB260:
.LBB256:
	.loc 7 204 9
	sb	a0,0(a2)
	.loc 7 205 2 is_stmt 1
.LVL230:
.LBE256:
.LBE260:
	.loc 7 235 2
.LBB261:
.LBB262:
	.loc 7 204 2
.LBE262:
.LBE261:
.LBE270:
.LBE295:
.LBB296:
.LBB291:
.LBB284:
.LBB281:
	.loc 7 205 9 is_stmt 0
	srli	a5,a5,8
.LBE281:
.LBE284:
.LBE291:
.LBE296:
.LBB297:
.LBB271:
.LBB265:
.LBB263:
	srli	a0,a0,24
.LVL231:
.LBE263:
.LBE265:
.LBE271:
.LBE297:
.LBB298:
.LBB292:
.LBB285:
.LBB286:
	srli	a1,a1,24
.LBE286:
.LBE285:
.LBE292:
.LBE298:
.LBB299:
.LBB272:
.LBB266:
.LBB264:
	.loc 7 204 9
	sb	zero,2(a2)
	.loc 7 205 2 is_stmt 1
	.loc 7 205 9 is_stmt 0
	sb	a0,3(a2)
.LVL232:
.LBE264:
.LBE266:
.LBE272:
.LBE299:
	.loc 7 250 2 is_stmt 1
.LBB300:
.LBB293:
	.loc 7 234 2
.LBB288:
.LBB282:
	.loc 7 204 2
	.loc 7 204 9 is_stmt 0
	sb	zero,4(a2)
	.loc 7 205 2 is_stmt 1
	.loc 7 205 9 is_stmt 0
	sb	a5,5(a2)
.LVL233:
.LBE282:
.LBE288:
	.loc 7 235 2 is_stmt 1
.LBB289:
.LBB287:
	.loc 7 204 2
	.loc 7 204 9 is_stmt 0
	sb	zero,6(a2)
	.loc 7 205 2 is_stmt 1
	.loc 7 205 9 is_stmt 0
	sb	a1,7(a2)
.LVL234:
.LBE287:
.LBE289:
.LBE293:
.LBE300:
	.loc 7 251 1
	addi	sp,sp,16
	.cfi_def_cfa_offset 0
	jr	ra
	.cfi_endproc
.LFE52:
	.size	sys_put_le64, .-sys_put_le64
	.section	.rodata.hci_encrypt_key_refresh_complete.str1.4,"aMS",@progbits,1
	.align	2
.LC10:
	.string	"Unable to look up conn with handle %u, %s\r\n"
	.section	.text.hci_encrypt_key_refresh_complete,"ax",@progbits
	.align	1
	.type	hci_encrypt_key_refresh_complete, @function
hci_encrypt_key_refresh_complete:
.LFB149:
	.loc 1 3695 1 is_stmt 1
	.cfi_startproc
.LVL235:
	.loc 1 3696 2
	.loc 1 3695 1 is_stmt 0
	addi	sp,sp,-48
	.cfi_def_cfa_offset 48
	sw	s0,40(sp)
	sw	ra,44(sp)
	sw	s1,36(sp)
	sw	s2,32(sp)
	sw	s3,28(sp)
	.cfi_offset 8, -8
	.cfi_offset 1, -4
	.cfi_offset 9, -12
	.cfi_offset 18, -16
	.cfi_offset 19, -20
	addi	s0,sp,48
	.cfi_def_cfa 8, 0
	.loc 1 3696 50
	lw	s2,8(a0)
.LVL236:
	.loc 1 3697 2 is_stmt 1
	.loc 1 3698 2
	.loc 1 3700 2
	.loc 1 3700 9 is_stmt 0
	lbu	a1,2(s2)
	lbu	a5,1(s2)
	slli	a1,a1,8
	or	a1,a1,a5
.LVL237:
	.loc 1 3702 2 is_stmt 1
	.loc 1 3704 2
	.loc 1 3704 9 is_stmt 0
	mv	a0,a1
.LVL238:
	sw	a1,-36(s0)
	call	bt_conn_lookup_handle
.LVL239:
	.loc 1 3705 2 is_stmt 1
	.loc 1 3705 5 is_stmt 0
	lw	a1,-36(s0)
	bne	a0,zero,.L128
	.loc 1 3706 3 is_stmt 1
	.loc 1 3743 1 is_stmt 0
	lw	s0,40(sp)
	.cfi_remember_state
	.cfi_restore 8
	.cfi_def_cfa 2, 48
.LVL240:
	lw	ra,44(sp)
	.cfi_restore 1
	lw	s1,36(sp)
	.cfi_restore 9
	lw	s2,32(sp)
	.cfi_restore 18
.LVL241:
	lw	s3,28(sp)
	.cfi_restore 19
	.loc 1 3706 3
	lui	a2,%hi(.LANCHOR16)
	lui	a0,%hi(.LC10)
.LVL242:
	.loc 1 3743 1
	.loc 1 3706 3
	addi	a2,a2,%lo(.LANCHOR16)
	addi	a0,a0,%lo(.LC10)
	.loc 1 3743 1
	addi	sp,sp,48
	.cfi_def_cfa_offset 0
	.loc 1 3706 3
	tail	printf
.LVL243:
.L128:
	.cfi_restore_state
	.loc 1 3710 5
	lbu	a5,0(s2)
	mv	s1,a0
	.loc 1 3710 2 is_stmt 1
	.loc 1 3710 5 is_stmt 0
	beq	a5,zero,.L129
.LVL244:
	.loc 1 3711 3 is_stmt 1
.LBB309:
.LBB310:
	.loc 1 2205 2
	.loc 1 2205 27 is_stmt 0
	lbu	a5,9(a0)
	sb	a5,10(a0)
.LVL245:
.LBE310:
.LBE309:
	.loc 1 3712 3 is_stmt 1
	lbu	a1,0(s2)
	call	bt_l2cap_encrypt_change
.LVL246:
	.loc 1 3713 3
	lbu	a4,0(s2)
.LVL247:
	.loc 1 2176 2
	li	a5,41
	.loc 1 3713 3 is_stmt 0
	li	a1,8
	bgtu	a4,a5,.L135
	lui	a5,%hi(.LANCHOR17)
	addi	a5,a5,%lo(.LANCHOR17)
	add	a5,a5,a4
	lbu	a1,0(a5)
.LVL248:
.L135:
	.loc 1 3741 2
	mv	a0,s1
	call	bt_conn_security_changed
.LVL249:
	.loc 1 3742 2 is_stmt 1
	.loc 1 3743 1 is_stmt 0
	lw	s0,40(sp)
	.cfi_remember_state
	.cfi_restore 8
	.cfi_def_cfa 2, 48
	lw	ra,44(sp)
	.cfi_restore 1
	lw	s2,32(sp)
	.cfi_restore 18
.LVL250:
	lw	s3,28(sp)
	.cfi_restore 19
	.loc 1 3742 2
	mv	a0,s1
	.loc 1 3743 1
	lw	s1,36(sp)
	.cfi_restore 9
.LVL251:
	addi	sp,sp,48
	.cfi_def_cfa_offset 0
	.loc 1 3742 2
	tail	bt_conn_unref
.LVL252:
.L129:
	.cfi_restore_state
	.loc 1 3725 2 is_stmt 1
	.loc 1 3725 5 is_stmt 0
	lbu	s3,2(a0)
	li	a5,1
	bne	s3,a5,.L131
	.loc 1 3726 3 is_stmt 1
	call	bt_smp_update_keys
.LVL253:
	.loc 1 3727 3
.LBB311:
.LBB312:
	.loc 1 3602 2
	.loc 1 3602 5 is_stmt 0
	lbu	a5,11(s1)
	bne	a5,zero,.L132
	.loc 1 3603 3 is_stmt 1
	.loc 1 3603 19 is_stmt 0
	sb	s3,9(s1)
	.loc 1 3604 3 is_stmt 1
.LVL254:
.L131:
.LBE312:
.LBE311:
	.loc 1 3739 2
.LBB314:
.LBB315:
	.loc 1 2205 2
	.loc 1 2205 27 is_stmt 0
	lbu	a5,9(s1)
.LBE315:
.LBE314:
	.loc 1 3740 2
	mv	a0,s1
.LBB317:
.LBB316:
	.loc 1 2205 27
	sb	a5,10(s1)
.LVL255:
.LBE316:
.LBE317:
	.loc 1 3740 2 is_stmt 1
	lbu	a1,0(s2)
	call	bt_l2cap_encrypt_change
.LVL256:
	.loc 1 3741 2
	li	a1,0
	j	.L135
.LVL257:
.L132:
.LBB318:
.LBB313:
	mv	a0,s1
	call	update_sec_level.part.0
.LVL258:
	j	.L131
.LBE313:
.LBE318:
	.cfi_endproc
.LFE149:
	.size	hci_encrypt_key_refresh_complete, .-hci_encrypt_key_refresh_complete
	.section	.text.hci_encrypt_change,"ax",@progbits
	.align	1
	.type	hci_encrypt_change, @function
hci_encrypt_change:
.LFB148:
	.loc 1 3627 1
	.cfi_startproc
.LVL259:
	.loc 1 3628 2
	.loc 1 3627 1 is_stmt 0
	addi	sp,sp,-32
	.cfi_def_cfa_offset 32
	sw	s0,24(sp)
	sw	ra,28(sp)
	sw	s1,20(sp)
	sw	s2,16(sp)
	.cfi_offset 8, -8
	.cfi_offset 1, -4
	.cfi_offset 9, -12
	.cfi_offset 18, -16
	addi	s0,sp,32
	.cfi_def_cfa 8, 0
	.loc 1 3628 36
	lw	s2,8(a0)
.LVL260:
	.loc 1 3629 2 is_stmt 1
	.loc 1 3629 8 is_stmt 0
	lbu	a1,2(s2)
	lbu	a5,1(s2)
	slli	a1,a1,8
	or	a1,a1,a5
.LVL261:
	.loc 1 3630 2 is_stmt 1
	.loc 1 3633 22
	.loc 1 3635 2
	.loc 1 3635 9 is_stmt 0
	mv	a0,a1
.LVL262:
	sw	a1,-20(s0)
	call	bt_conn_lookup_handle
.LVL263:
	.loc 1 3636 2 is_stmt 1
	.loc 1 3636 5 is_stmt 0
	lw	a1,-20(s0)
	bne	a0,zero,.L137
	.loc 1 3637 3 is_stmt 1
	.loc 1 3692 1 is_stmt 0
	lw	s0,24(sp)
	.cfi_remember_state
	.cfi_restore 8
	.cfi_def_cfa 2, 32
.LVL264:
	lw	ra,28(sp)
	.cfi_restore 1
	lw	s1,20(sp)
	.cfi_restore 9
	lw	s2,16(sp)
	.cfi_restore 18
.LVL265:
	.loc 1 3637 3
	lui	a2,%hi(.LANCHOR18)
	lui	a0,%hi(.LC10)
.LVL266:
	.loc 1 3692 1
	.loc 1 3637 3
	addi	a2,a2,%lo(.LANCHOR18)
	addi	a0,a0,%lo(.LC10)
	.loc 1 3692 1
	addi	sp,sp,32
	.cfi_def_cfa_offset 0
	.loc 1 3637 3
	tail	printf
.LVL267:
.L137:
	.cfi_restore_state
	.loc 1 3641 5
	lbu	a5,0(s2)
	mv	s1,a0
	.loc 1 3641 2 is_stmt 1
	.loc 1 3641 5 is_stmt 0
	beq	a5,zero,.L138
.LVL268:
	.loc 1 3642 3 is_stmt 1
.LBB327:
.LBB328:
	.loc 1 2205 2
	.loc 1 2205 27 is_stmt 0
	lbu	a5,9(a0)
	sb	a5,10(a0)
.LVL269:
.LBE328:
.LBE327:
	.loc 1 3643 3 is_stmt 1
	lbu	a1,0(s2)
	call	bt_l2cap_encrypt_change
.LVL270:
	.loc 1 3644 3
	lbu	a4,0(s2)
.LVL271:
	.loc 1 2176 2
	li	a5,41
	.loc 1 3644 3 is_stmt 0
	li	a1,8
	bgtu	a4,a5,.L148
	lui	a5,%hi(.LANCHOR17)
	addi	a5,a5,%lo(.LANCHOR17)
	add	a5,a5,a4
	lbu	a1,0(a5)
.LVL272:
.L148:
	.loc 1 3689 2
	mv	a0,s1
	call	bt_conn_security_changed
.LVL273:
	.loc 1 3691 2 is_stmt 1
	.loc 1 3692 1 is_stmt 0
	lw	s0,24(sp)
	.cfi_remember_state
	.cfi_restore 8
	.cfi_def_cfa 2, 32
	lw	ra,28(sp)
	.cfi_restore 1
	lw	s2,16(sp)
	.cfi_restore 18
.LVL274:
	.loc 1 3691 2
	mv	a0,s1
	.loc 1 3692 1
	lw	s1,20(sp)
	.cfi_restore 9
.LVL275:
	addi	sp,sp,32
	.cfi_def_cfa_offset 0
	.loc 1 3691 2
	tail	bt_conn_unref
.LVL276:
.L138:
	.cfi_restore_state
	.loc 1 3649 2 is_stmt 1
	.loc 1 3649 21 is_stmt 0
	lbu	a5,3(s2)
	.loc 1 3652 5
	lbu	a3,2(a0)
	li	a4,1
	.loc 1 3649 16
	sb	a5,11(a0)
	.loc 1 3652 2 is_stmt 1
	.loc 1 3652 5 is_stmt 0
	bne	a3,a4,.L140
	.loc 1 3661 3 is_stmt 1
	.loc 1 3661 6 is_stmt 0
	bne	a5,zero,.L141
.L142:
.LVL277:
.LBB329:
.LBB330:
	.loc 1 3603 3 is_stmt 1
	.loc 1 3603 19 is_stmt 0
	li	a5,1
	sb	a5,9(s1)
	.loc 1 3604 3 is_stmt 1
.LVL278:
.L140:
.LBE330:
.LBE329:
	.loc 1 3686 2
.LBB332:
.LBB333:
	.loc 1 2205 2
	.loc 1 2205 27 is_stmt 0
	lbu	a5,9(s1)
.LBE333:
.LBE332:
	.loc 1 3688 2
	mv	a0,s1
.LBB335:
.LBB334:
	.loc 1 2205 27
	sb	a5,10(s1)
.LVL279:
.LBE334:
.LBE335:
	.loc 1 3688 2 is_stmt 1
	lbu	a1,0(s2)
	call	bt_l2cap_encrypt_change
.LVL280:
	.loc 1 3689 2
	li	a1,0
	j	.L148
.L141:
	.loc 1 3662 4
	call	bt_smp_update_keys
.LVL281:
	.loc 1 3664 3
.LBB336:
.LBB331:
	.loc 1 3602 2
	.loc 1 3602 5 is_stmt 0
	lbu	a5,11(s1)
	beq	a5,zero,.L142
	mv	a0,s1
	call	update_sec_level.part.0
.LVL282:
	j	.L140
.LBE331:
.LBE336:
	.cfi_endproc
.LFE148:
	.size	hci_encrypt_change, .-hci_encrypt_change
	.section	.text.cmd_state_set_init,"ax",@progbits
	.align	1
	.globl	cmd_state_set_init
	.type	cmd_state_set_init, @function
cmd_state_set_init:
.LFB98:
	.loc 1 183 1 is_stmt 1
	.cfi_startproc
.LVL283:
	.loc 1 184 2
	.loc 1 183 1 is_stmt 0
	addi	sp,sp,-16
	.cfi_def_cfa_offset 16
	sw	s0,12(sp)
	.cfi_offset 8, -4
	addi	s0,sp,16
	.cfi_def_cfa 8, 0
	.loc 1 187 1
	lw	s0,12(sp)
	.cfi_restore 8
	.cfi_def_cfa 2, 16
	.loc 1 184 16
	sw	a1,0(a0)
	.loc 1 185 2 is_stmt 1
	.loc 1 185 13 is_stmt 0
	sw	a2,4(a0)
	.loc 1 186 2 is_stmt 1
	.loc 1 186 13 is_stmt 0
	sb	a3,8(a0)
	.loc 1 187 1
	addi	sp,sp,16
	.cfi_def_cfa_offset 0
	jr	ra
	.cfi_endproc
.LFE98:
	.size	cmd_state_set_init, .-cmd_state_set_init
	.section	.text.bt_hci_cmd_create,"ax",@progbits
	.align	1
	.globl	bt_hci_cmd_create
	.type	bt_hci_cmd_create, @function
bt_hci_cmd_create:
.LFB101:
	.loc 1 372 1 is_stmt 1
	.cfi_startproc
.LVL284:
	.loc 1 373 2
	.loc 1 374 2
	.loc 1 376 2
	.loc 1 378 2
	.loc 1 372 1 is_stmt 0
	addi	sp,sp,-32
	.cfi_def_cfa_offset 32
	sw	ra,28(sp)
	sw	s0,24(sp)
	sw	s1,20(sp)
	.cfi_offset 1, -4
	.cfi_offset 8, -8
	.cfi_offset 9, -12
	addi	s0,sp,32
	.cfi_def_cfa 8, 0
	sw	s2,16(sp)
	sw	s3,12(sp)
	sw	s4,8(sp)
	sw	s5,4(sp)
	sw	s6,0(sp)
	.cfi_offset 18, -16
	.cfi_offset 19, -20
	.cfi_offset 20, -24
	.cfi_offset 21, -28
	.cfi_offset 22, -32
	mv	s2,a0
	.loc 1 378 8
	lui	a0,%hi(hci_cmd_pool)
.LVL285:
	.loc 1 372 1
	.loc 1 372 1
	mv	s4,a1
	.loc 1 378 8
	addi	a0,a0,%lo(hci_cmd_pool)
	li	a1,-1
.LVL286:
	call	net_buf_alloc_fixed
.LVL287:
	.loc 1 383 2
	addi	s6,a0,8
	.loc 1 378 8
	mv	s1,a0
.LVL288:
	.loc 1 379 2 is_stmt 1
	.loc 1 379 7
	.loc 1 379 15
	.loc 1 381 2
	.loc 1 383 2
	li	a1,1
	mv	a0,s6
	call	net_buf_simple_reserve
.LVL289:
	.loc 1 385 2
.LBB337:
.LBB338:
	.file 8 "/home/quanghaictu/intern/Ai-Thinker-WB2/components/network/ble/blestack/src/include/bluetooth/buf.h"
	.loc 8 99 2
.LBE338:
.LBE337:
	.loc 5 1107 2
	.loc 1 387 13 is_stmt 0
	mv	a0,s1
.LBB340:
.LBB339:
	.loc 8 99 34
	sb	zero,20(s1)
.LVL290:
.LBE339:
.LBE340:
	.loc 1 387 2 is_stmt 1
	.loc 1 387 13 is_stmt 0
	call	net_buf_id
.LVL291:
	.loc 1 387 39
	li	s5,12
	mul	a0,a0,s5
	lui	s3,%hi(.LANCHOR15)
	addi	s3,s3,%lo(.LANCHOR15)
	add	a0,s3,a0
	sh	s2,2(a0)
	.loc 1 388 2 is_stmt 1
	.loc 1 388 13 is_stmt 0
	mv	a0,s1
	call	net_buf_id
.LVL292:
	.loc 1 388 37
	mul	a0,a0,s5
	add	a0,s3,a0
	sw	zero,8(a0)
	.loc 1 389 2 is_stmt 1
	.loc 1 389 13 is_stmt 0
	mv	a0,s1
	call	net_buf_id
.LVL293:
	.loc 1 389 38
	mul	a0,a0,s5
	.loc 1 391 8
	li	a1,3
	.loc 1 389 38
	add	s3,s3,a0
	sw	zero,4(s3)
	.loc 1 391 2 is_stmt 1
	.loc 1 391 8 is_stmt 0
	mv	a0,s6
	call	net_buf_simple_add
.LVL294:
	.loc 1 392 2 is_stmt 1
	.loc 1 392 14 is_stmt 0
	sb	s2,0(a0)
	srli	s2,s2,8
	sb	s2,1(a0)
	.loc 1 393 2 is_stmt 1
	.loc 1 393 17 is_stmt 0
	sb	s4,2(a0)
	.loc 1 395 2 is_stmt 1
	.loc 1 396 1 is_stmt 0
	lw	ra,28(sp)
	.cfi_restore 1
	lw	s0,24(sp)
	.cfi_restore 8
	.cfi_def_cfa 2, 32
	lw	s2,16(sp)
	.cfi_restore 18
	lw	s3,12(sp)
	.cfi_restore 19
	lw	s4,8(sp)
	.cfi_restore 20
	lw	s5,4(sp)
	.cfi_restore 21
	lw	s6,0(sp)
	.cfi_restore 22
	mv	a0,s1
.LVL295:
	lw	s1,20(sp)
	.cfi_restore 9
.LVL296:
	addi	sp,sp,32
	.cfi_def_cfa_offset 0
	jr	ra
	.cfi_endproc
.LFE101:
	.size	bt_hci_cmd_create, .-bt_hci_cmd_create
	.section	.rodata.bt_hci_cmd_send_sync.str1.4,"aMS",@progbits,1
	.align	2
.LC11:
	.string	"k_sem_take timeout with opcode 0x%04x, %s\r\n"
	.align	2
.LC12:
	.string	"Restart and restore bt, %s\r\n"
	.section	.text.bt_hci_cmd_send_sync,"ax",@progbits
	.align	1
	.globl	bt_hci_cmd_send_sync
	.type	bt_hci_cmd_send_sync, @function
bt_hci_cmd_send_sync:
.LFB103:
	.loc 1 492 1 is_stmt 1
	.cfi_startproc
.LVL297:
	.loc 1 493 2
	.loc 1 494 2
	.loc 1 499 2
	.loc 1 492 1 is_stmt 0
	addi	sp,sp,-48
	.cfi_def_cfa_offset 48
	sw	s0,40(sp)
	sw	s1,36(sp)
	sw	s5,20(sp)
	sw	s6,16(sp)
	sw	ra,44(sp)
	sw	s2,32(sp)
	sw	s3,28(sp)
	sw	s4,24(sp)
	.cfi_offset 8, -8
	.cfi_offset 9, -12
	.cfi_offset 21, -28
	.cfi_offset 22, -32
	.cfi_offset 1, -4
	.cfi_offset 18, -16
	.cfi_offset 19, -20
	.cfi_offset 20, -24
	addi	s0,sp,48
	.cfi_def_cfa 8, 0
	.loc 1 492 1
	mv	s5,a0
	mv	s6,a2
	mv	s1,a1
	.loc 1 499 5
	bne	a1,zero,.L154
	.loc 1 500 3 is_stmt 1
	.loc 1 500 9 is_stmt 0
	call	bt_hci_cmd_create
.LVL298:
	mv	s1,a0
.LVL299:
	.loc 1 501 3 is_stmt 1
	.loc 1 502 11 is_stmt 0
	li	s3,-105
	.loc 1 501 6
	beq	a0,zero,.L153
.L154:
	.loc 1 506 2 is_stmt 1
	.loc 1 519 2
	addi	s3,s0,-44
	li	a2,1
	li	a1,0
	mv	a0,s3
	call	k_sem_init
.LVL300:
	.loc 1 520 2
	.loc 1 520 13 is_stmt 0
	mv	a0,s1
	call	net_buf_id
.LVL301:
	.loc 1 520 37
	li	s4,12
	mul	a0,a0,s4
	lui	s2,%hi(.LANCHOR15)
	addi	s2,s2,%lo(.LANCHOR15)
	add	a0,s2,a0
	sw	s3,8(a0)
	.loc 1 525 5 is_stmt 1
	.loc 1 525 16 is_stmt 0
	mv	a0,s1
	call	net_buf_id
.LVL302:
	.loc 1 525 42
	mul	a0,a0,s4
	li	a5,-1
	add	a0,s2,a0
	sb	a5,0(a0)
	.loc 1 529 2 is_stmt 1
	mv	a0,s1
	call	net_buf_ref
.LVL303:
	.loc 1 546 5
	lui	a0,%hi(.LANCHOR2+168)
	mv	a1,s1
	addi	a0,a0,%lo(.LANCHOR2+168)
	call	net_buf_put
.LVL304:
	.loc 1 548 5
	lui	a0,%hi(g_poll_sem)
	addi	a0,a0,%lo(g_poll_sem)
	call	k_sem_give
.LVL305:
	.loc 1 550 2
	.loc 1 550 8 is_stmt 0
	li	a1,8192
	addi	a1,a1,1808
	mv	a0,s3
	call	k_sem_take
.LVL306:
	.loc 1 552 5 is_stmt 1
	mv	a0,s3
	call	k_sem_delete
.LVL307:
	.loc 1 554 2
	.loc 1 554 7
	.loc 1 554 15
	.loc 1 557 2
	.loc 1 559 2
	.loc 1 559 17 is_stmt 0
	mv	a0,s1
	call	net_buf_id
.LVL308:
	.loc 1 559 34
	mul	a5,a0,s4
	add	a5,s2,a5
	.loc 1 559 5
	lbu	a5,0(a5)
	beq	a5,zero,.L156
	.loc 1 560 6 is_stmt 1
	.loc 1 560 25 is_stmt 0
	mv	a0,s1
	call	net_buf_id
.LVL309:
	.loc 1 560 42
	mul	a5,a0,s4
	.loc 1 560 6
	li	a4,9
	.loc 1 562 8
	li	s3,-111
	.loc 1 560 42
	add	a5,s2,a5
	lbu	a5,0(a5)
	.loc 1 560 6
	beq	a5,a4,.L157
	li	a4,255
	li	s3,-5
	bne	a5,a4,.L157
	.loc 1 566 7 is_stmt 1
.LVL310:
	.loc 1 567 13
	lui	s3,%hi(.LANCHOR19)
	lui	a0,%hi(.LC11)
	addi	a2,s3,%lo(.LANCHOR19)
	mv	a1,s5
	addi	a0,a0,%lo(.LC11)
	call	printf
.LVL311:
	.loc 1 569 4
	lui	a0,%hi(.LC12)
	addi	a1,s3,%lo(.LANCHOR19)
	addi	a0,a0,%lo(.LC12)
	call	printf
.LVL312:
	.loc 1 570 4
	.loc 1 570 18 is_stmt 0
	lui	a5,%hi(.LANCHOR20)
	addi	a5,a5,%lo(.LANCHOR20)
	lhu	a4,0(a5)
	.loc 1 571 19
	mv	a0,s1
	.loc 1 570 18
	addi	a4,a4,1
	sh	a4,0(a5)
	.loc 1 571 4 is_stmt 1
	.loc 1 571 19 is_stmt 0
	call	net_buf_id
.LVL313:
	.loc 1 571 36
	mul	a0,a0,s4
	add	a0,s2,a0
	.loc 1 571 7
	lw	a5,4(a0)
	beq	a5,zero,.L158
.LBB341:
	.loc 1 572 10 is_stmt 1
	.loc 1 572 52 is_stmt 0
	mv	a0,s1
	call	net_buf_id
.LVL314:
	.loc 1 572 32
	mul	s4,a0,s4
	add	s2,s2,s4
	lw	a5,4(s2)
.LVL315:
	.loc 1 573 10 is_stmt 1
	lbu	a2,8(a5)
	lw	a1,4(a5)
	lw	a0,0(a5)
	call	atomic_set_bit_to
.LVL316:
.L158:
.LBE341:
	.loc 1 575 7
	call	blhast_bt_reset
.LVL317:
	.loc 1 579 4
	.loc 1 566 11 is_stmt 0
	li	s3,-62
.LVL318:
.L157:
	.loc 1 586 3 is_stmt 1
	mv	a0,s1
	call	net_buf_unref
.LVL319:
.L153:
	.loc 1 597 1 is_stmt 0
	lw	ra,44(sp)
	.cfi_remember_state
	.cfi_restore 1
	lw	s0,40(sp)
	.cfi_restore 8
	.cfi_def_cfa 2, 48
	lw	s1,36(sp)
	.cfi_restore 9
.LVL320:
	lw	s2,32(sp)
	.cfi_restore 18
	lw	s4,24(sp)
	.cfi_restore 20
	lw	s5,20(sp)
	.cfi_restore 21
	lw	s6,16(sp)
	.cfi_restore 22
.LVL321:
	mv	a0,s3
	lw	s3,28(sp)
	.cfi_restore 19
	addi	sp,sp,48
	.cfi_def_cfa_offset 0
	jr	ra
.LVL322:
.L156:
	.cfi_restore_state
	.loc 1 588 3 is_stmt 1
	.loc 1 589 3
	.loc 1 589 6 is_stmt 0
	beq	s6,zero,.L159
	.loc 1 590 4 is_stmt 1
	.loc 1 590 9 is_stmt 0
	sw	s1,0(s6)
.L168:
	.loc 1 588 7
	li	s3,0
	j	.L153
.L159:
	.loc 1 592 4 is_stmt 1
	mv	a0,s1
	call	net_buf_unref
.LVL323:
	j	.L168
	.cfi_endproc
.LFE103:
	.size	bt_hci_cmd_send_sync, .-bt_hci_cmd_send_sync
	.section	.text.le_set_event_mask,"ax",@progbits
	.align	1
	.type	le_set_event_mask, @function
le_set_event_mask:
.LFB182:
	.loc 1 4856 1
	.cfi_startproc
	.loc 1 4857 2
	.loc 1 4858 2
	.loc 1 4859 2
.LVL324:
	.loc 1 4862 2
	.loc 1 4856 1 is_stmt 0
	addi	sp,sp,-16
	.cfi_def_cfa_offset 16
	sw	s0,8(sp)
	sw	ra,12(sp)
	sw	s1,4(sp)
	.cfi_offset 8, -8
	.cfi_offset 1, -4
	.cfi_offset 9, -12
	addi	s0,sp,16
	.cfi_def_cfa 8, 0
	.loc 1 4862 8
	li	a0,8192
	.loc 1 4856 1
	.loc 1 4862 8
	li	a1,8
	addi	a0,a0,1
	call	bt_hci_cmd_create
.LVL325:
	.loc 1 4863 2 is_stmt 1
	.loc 1 4863 5 is_stmt 0
	beq	a0,zero,.L170
	.loc 1 4867 12
	li	a1,8
	mv	s1,a0
	.loc 1 4867 2 is_stmt 1
	.loc 1 4867 12 is_stmt 0
	addi	a0,a0,8
.LVL326:
	call	net_buf_simple_add
.LVL327:
	.loc 1 4873 26
	lui	a5,%hi(.LANCHOR2)
	addi	a4,a5,%lo(.LANCHOR2)
	lbu	a4,112(a4)
	.loc 1 4867 12
	mv	a2,a0
.LVL328:
	.loc 1 4869 2 is_stmt 1
	.loc 1 4871 2
	.loc 1 4872 3
	addi	a5,a5,%lo(.LANCHOR2)
	.loc 1 4872 6 is_stmt 0
	andi	a1,a4,64
	.loc 1 4874 9
	li	a3,514
	.loc 1 4872 6
	bne	a1,zero,.L171
	.loc 1 4876 9
	li	a3,3
.L171:
.LVL329:
	.loc 1 4879 3 is_stmt 1
	.loc 1 4880 3
	.loc 1 4882 3
	.loc 1 4882 6 is_stmt 0
	andi	a1,a4,2
	.loc 1 4883 9
	ori	a0,a3,44
.LVL330:
	.loc 1 4882 6
	bne	a1,zero,.L173
	.loc 1 4880 8
	ori	a0,a3,12
.L173:
	.loc 1 4886 3 is_stmt 1
	.loc 1 4891 3
	.loc 1 4891 6 is_stmt 0
	lbu	a3,113(a5)
	andi	a3,a3,9
	beq	a3,zero,.L174
	.loc 1 4894 4 is_stmt 1
	.loc 1 4894 9 is_stmt 0
	li	a3,4096
	addi	a3,a3,-2048
	or	a0,a0,a3
.L174:
	.loc 1 4898 2 is_stmt 1
	.loc 1 4898 5 is_stmt 0
	andi	a4,a4,1
	beq	a4,zero,.L175
	.loc 1 4900 3 is_stmt 1
	.loc 1 4900 8 is_stmt 0
	ori	a0,a0,16
.L175:
	.loc 1 4907 2 is_stmt 1
	.loc 1 4907 5 is_stmt 0
	lbu	a5,66(a5)
	li	a4,6
	andi	a5,a5,6
	bne	a5,a4,.L176
	.loc 1 4910 3 is_stmt 1
	.loc 1 4911 3
	.loc 1 4911 8 is_stmt 0
	ori	a0,a0,384
.L176:
	.loc 1 4914 2 is_stmt 1
	li	a1,0
	call	sys_put_le64
.LVL331:
	.loc 1 4915 2
	.loc 1 4916 1 is_stmt 0
	lw	s0,8(sp)
	.cfi_remember_state
	.cfi_restore 8
	.cfi_def_cfa 2, 16
	lw	ra,12(sp)
	.cfi_restore 1
	.loc 1 4915 9
	mv	a1,s1
	.loc 1 4916 1
	lw	s1,4(sp)
	.cfi_restore 9
.LVL332:
	.loc 1 4915 9
	li	a0,8192
	.loc 1 4916 1
	.loc 1 4915 9
	li	a2,0
	addi	a0,a0,1
	.loc 1 4916 1
	addi	sp,sp,16
	.cfi_def_cfa_offset 0
	.loc 1 4915 9
	tail	bt_hci_cmd_send_sync
.LVL333:
.L170:
	.cfi_restore_state
	.loc 1 4916 1
	lw	ra,12(sp)
	.cfi_restore 1
	lw	s0,8(sp)
	.cfi_restore 8
	.cfi_def_cfa 2, 16
	lw	s1,4(sp)
	.cfi_restore 9
	li	a0,-105
.LVL334:
	addi	sp,sp,16
	.cfi_def_cfa_offset 0
	jr	ra
	.cfi_endproc
.LFE182:
	.size	le_set_event_mask, .-le_set_event_mask
	.section	.text.set_event_mask,"ax",@progbits
	.align	1
	.type	set_event_mask, @function
set_event_mask:
.LFB185:
	.loc 1 5327 1 is_stmt 1
	.cfi_startproc
	.loc 1 5328 2
	.loc 1 5329 2
	.loc 1 5330 2
.LVL335:
	.loc 1 5332 2
	.loc 1 5327 1 is_stmt 0
	addi	sp,sp,-16
	.cfi_def_cfa_offset 16
	sw	s0,8(sp)
	sw	ra,12(sp)
	sw	s1,4(sp)
	.cfi_offset 8, -8
	.cfi_offset 1, -4
	.cfi_offset 9, -12
	addi	s0,sp,16
	.cfi_def_cfa 8, 0
	.loc 1 5332 8
	li	a0,4096
	.loc 1 5327 1
	.loc 1 5332 8
	li	a1,8
	addi	a0,a0,-1023
	call	bt_hci_cmd_create
.LVL336:
	.loc 1 5333 2 is_stmt 1
	.loc 1 5333 5 is_stmt 0
	beq	a0,zero,.L186
	mv	s1,a0
	.loc 1 5337 2 is_stmt 1
	.loc 1 5337 7 is_stmt 0
	li	a1,8
	addi	a0,a0,8
.LVL337:
	call	net_buf_simple_add
.LVL338:
	.loc 1 5375 25
	lui	a5,%hi(.LANCHOR2+112)
	.loc 1 5374 5
	lbu	a5,%lo(.LANCHOR2+112)(a5)
	.loc 1 5337 7
	mv	a2,a0
.LVL339:
	.loc 1 5339 2 is_stmt 1
	.loc 1 5365 2
	.loc 1 5366 2
	.loc 1 5367 2
	.loc 1 5369 2
	.loc 1 5370 3
	.loc 1 5371 3
	.loc 1 5374 2
	.loc 1 5374 5 is_stmt 0
	andi	a5,a5,1
	beq	a5,zero,.L188
	.loc 1 5377 8
	lui	a5,%hi(.LC14)
	lw	a0,%lo(.LC14)(a5)
.LVL340:
	lw	a1,%lo(.LC14+4)(a5)
.L187:
.LVL341:
	.loc 1 5380 2 is_stmt 1
	call	sys_put_le64
.LVL342:
	.loc 1 5381 2
	.loc 1 5382 1 is_stmt 0
	lw	s0,8(sp)
	.cfi_remember_state
	.cfi_restore 8
	.cfi_def_cfa 2, 16
	lw	ra,12(sp)
	.cfi_restore 1
	.loc 1 5381 9
	mv	a1,s1
	.loc 1 5382 1
	lw	s1,4(sp)
	.cfi_restore 9
.LVL343:
	.loc 1 5381 9
	li	a0,4096
	.loc 1 5382 1
	.loc 1 5381 9
	li	a2,0
	addi	a0,a0,-1023
	.loc 1 5382 1
	addi	sp,sp,16
	.cfi_def_cfa_offset 0
	.loc 1 5381 9
	tail	bt_hci_cmd_send_sync
.LVL344:
.L188:
	.cfi_restore_state
	.loc 1 5371 8
	lui	a5,%hi(.LC13)
	lw	a0,%lo(.LC13)(a5)
.LVL345:
	lw	a1,%lo(.LC13+4)(a5)
	j	.L187
.LVL346:
.L186:
	.loc 1 5382 1
	lw	ra,12(sp)
	.cfi_restore 1
	lw	s0,8(sp)
	.cfi_restore 8
	.cfi_def_cfa 2, 16
	lw	s1,4(sp)
	.cfi_restore 9
	li	a0,-105
.LVL347:
	addi	sp,sp,16
	.cfi_def_cfa_offset 0
	jr	ra
	.cfi_endproc
.LFE185:
	.size	set_event_mask, .-set_event_mask
	.section	.text.set_le_scan_enable,"ax",@progbits
	.align	1
	.type	set_le_scan_enable, @function
set_le_scan_enable:
.LFB110:
	.loc 1 851 1 is_stmt 1
	.cfi_startproc
.LVL348:
	.loc 1 852 2
	.loc 1 853 2
	.loc 1 854 2
	.loc 1 855 2
	.loc 1 857 2
	.loc 1 851 1 is_stmt 0
	addi	sp,sp,-48
	.cfi_def_cfa_offset 48
	sw	s0,40(sp)
	sw	s1,36(sp)
	sw	ra,44(sp)
	sw	s2,32(sp)
	sw	s3,28(sp)
	sw	s4,24(sp)
	.cfi_offset 8, -8
	.cfi_offset 9, -12
	.cfi_offset 1, -4
	.cfi_offset 18, -16
	.cfi_offset 19, -20
	.cfi_offset 20, -24
	addi	s0,sp,48
	.cfi_def_cfa 8, 0
	mv	s1,a0
	.loc 1 857 8
	li	a0,8192
.LVL349:
	.loc 1 851 1
	.loc 1 857 8
	li	a1,2
	addi	a0,a0,12
	call	bt_hci_cmd_create
.LVL350:
	.loc 1 858 2 is_stmt 1
	.loc 1 858 5 is_stmt 0
	beq	a0,zero,.L194
	mv	s2,a0
	.loc 1 862 2 is_stmt 1
	.loc 1 862 7 is_stmt 0
	li	a1,2
	addi	a0,a0,8
.LVL351:
	call	net_buf_simple_add
.LVL352:
	mv	s3,a0
.LVL353:
	.loc 1 864 2 is_stmt 1
	.loc 1 864 5 is_stmt 0
	li	a5,1
	lui	a0,%hi(.LANCHOR2+108)
.LVL354:
	addi	s4,a0,%lo(.LANCHOR2+108)
	bne	s1,a5,.L192
	.loc 1 865 3 is_stmt 1
	.loc 1 865 20 is_stmt 0
	li	a1,13
	addi	a0,a0,%lo(.LANCHOR2+108)
	call	atomic_test_bit
.LVL355:
	.loc 1 865 18
	sb	a0,1(s3)
.L193:
	.loc 1 871 2 is_stmt 1
	.loc 1 871 13 is_stmt 0
	sb	s1,0(s3)
	.loc 1 873 2 is_stmt 1
.LVL356:
.LBB342:
.LBB343:
	.loc 1 184 2
	.loc 1 185 13 is_stmt 0
	li	a5,10
.LBE343:
.LBE342:
	.loc 1 873 2
	andi	s1,s1,1
.LVL357:
	.loc 1 875 13
	mv	a0,s2
.LBB345:
.LBB344:
	.loc 1 185 13
	sw	a5,-40(s0)
.LVL358:
	.loc 1 184 16
	sw	s4,-44(s0)
	.loc 1 185 2 is_stmt 1
	.loc 1 186 2
.LBE344:
.LBE345:
	.loc 1 873 2 is_stmt 0
	sb	s1,-36(s0)
.LVL359:
	.loc 1 875 2 is_stmt 1
	.loc 1 875 13 is_stmt 0
	call	net_buf_id
.LVL360:
	.loc 1 875 38
	li	a5,12
	mul	a5,a0,a5
	lui	a0,%hi(.LANCHOR15)
	addi	a0,a0,%lo(.LANCHOR15)
	.loc 1 877 8
	li	a2,0
	mv	a1,s2
	.loc 1 875 38
	add	a0,a0,a5
	addi	a5,s0,-44
	sw	a5,4(a0)
	.loc 1 877 2 is_stmt 1
	.loc 1 877 8 is_stmt 0
	li	a0,8192
	addi	a0,a0,12
	call	bt_hci_cmd_send_sync
.LVL361:
	.loc 1 878 2 is_stmt 1
.L190:
	.loc 1 883 1 is_stmt 0
	lw	ra,44(sp)
	.cfi_remember_state
	.cfi_restore 1
	lw	s0,40(sp)
	.cfi_restore 8
	.cfi_def_cfa 2, 48
	lw	s1,36(sp)
	.cfi_restore 9
	lw	s2,32(sp)
	.cfi_restore 18
	lw	s3,28(sp)
	.cfi_restore 19
	lw	s4,24(sp)
	.cfi_restore 20
	addi	sp,sp,48
	.cfi_def_cfa_offset 0
	jr	ra
.LVL362:
.L192:
	.cfi_restore_state
	.loc 1 868 3 is_stmt 1
	.loc 1 868 18 is_stmt 0
	sb	zero,1(s3)
	j	.L193
.LVL363:
.L194:
	.loc 1 859 10
	li	a0,-105
.LVL364:
	j	.L190
	.cfi_endproc
.LFE110:
	.size	set_le_scan_enable, .-set_le_scan_enable
	.section	.text.set_random_address,"ax",@progbits
	.align	1
	.type	set_random_address, @function
set_random_address:
.LFB106:
	.loc 1 647 1 is_stmt 1
	.cfi_startproc
.LVL365:
	.loc 1 648 2
	.loc 1 649 2
	.loc 1 654 2
	.loc 1 658 2
	.loc 1 647 1 is_stmt 0
	addi	sp,sp,-32
	.cfi_def_cfa_offset 32
	sw	s3,12(sp)
	.cfi_offset 19, -20
.LBB352:
.LBB353:
	.loc 3 44 9
	lui	s3,%hi(.LANCHOR2)
	addi	s3,s3,%lo(.LANCHOR2)
.LBE353:
.LBE352:
	.loc 1 647 1
	sw	s0,24(sp)
	sw	s1,20(sp)
	sw	s4,8(sp)
	sw	s5,4(sp)
	sw	ra,28(sp)
	sw	s2,16(sp)
	sw	s6,0(sp)
	.cfi_offset 8, -8
	.cfi_offset 9, -12
	.cfi_offset 20, -24
	.cfi_offset 21, -28
	.cfi_offset 1, -4
	.cfi_offset 18, -16
	.cfi_offset 22, -32
	addi	s0,sp,32
	.cfi_def_cfa 8, 0
.LBB357:
.LBB354:
	.loc 3 44 9
	addi	s5,s3,10
.LBE354:
.LBE357:
	.loc 1 647 1
.LBB358:
.LBB355:
	.loc 3 44 9
	li	a2,6
	mv	a1,s5
.LBE355:
.LBE358:
	.loc 1 647 1
	mv	s4,a0
.LVL366:
.LBB359:
.LBB356:
	.loc 3 44 2 is_stmt 1
	.loc 3 44 9 is_stmt 0
	call	memcmp
.LVL367:
	mv	s1,a0
.LVL368:
.LBE356:
.LBE359:
	.loc 1 658 5
	beq	a0,zero,.L196
.LVL369:
.LBB360:
.LBB361:
	.loc 1 662 2 is_stmt 1
	.loc 1 662 8 is_stmt 0
	li	s6,8192
	li	a1,6
	addi	a0,s6,5
	call	bt_hci_cmd_create
.LVL370:
	mv	s2,a0
.LVL371:
	.loc 1 663 2 is_stmt 1
	.loc 1 664 10 is_stmt 0
	li	s1,-105
	.loc 1 663 5
	beq	a0,zero,.L196
	.loc 1 667 2 is_stmt 1
	li	a2,6
	mv	a1,s4
	addi	a0,a0,8
.LVL372:
	call	net_buf_simple_add_mem
.LVL373:
	.loc 1 669 2
	.loc 1 669 8 is_stmt 0
	li	a2,0
	mv	a1,s2
	addi	a0,s6,5
	call	bt_hci_cmd_send_sync
.LVL374:
	mv	s1,a0
.LVL375:
	.loc 1 670 2 is_stmt 1
	.loc 1 670 5 is_stmt 0
	bne	a0,zero,.L196
	.loc 1 674 2 is_stmt 1
.LVL376:
.LBB362:
.LBB363:
	.loc 3 54 2
	li	a2,6
	mv	a1,s4
	mv	a0,s5
	call	memcpy
.LVL377:
.LBE363:
.LBE362:
	.loc 1 675 2
	.loc 1 675 26 is_stmt 0
	li	a5,1
	sb	a5,9(s3)
	.loc 1 677 2 is_stmt 1
.LVL378:
.L196:
.LBE361:
.LBE360:
	.loc 1 678 1 is_stmt 0
	lw	ra,28(sp)
	.cfi_restore 1
	lw	s0,24(sp)
	.cfi_restore 8
	.cfi_def_cfa 2, 32
	lw	s2,16(sp)
	.cfi_restore 18
	lw	s3,12(sp)
	.cfi_restore 19
	lw	s4,8(sp)
	.cfi_restore 20
.LVL379:
	lw	s5,4(sp)
	.cfi_restore 21
	lw	s6,0(sp)
	.cfi_restore 22
	mv	a0,s1
	lw	s1,20(sp)
	.cfi_restore 9
	addi	sp,sp,32
	.cfi_def_cfa_offset 0
	jr	ra
	.cfi_endproc
.LFE106:
	.size	set_random_address, .-set_random_address
	.section	.text.le_set_private_addr.constprop.0,"ax",@progbits
	.align	1
	.type	le_set_private_addr.constprop.0, @function
le_set_private_addr.constprop.0:
.LFB283:
	.loc 1 833 12 is_stmt 1
	.cfi_startproc
.LVL380:
	.loc 1 835 2
	.loc 1 836 2
	.loc 1 838 2
	.loc 1 833 12 is_stmt 0
	addi	sp,sp,-32
	.cfi_def_cfa_offset 32
	sw	s0,24(sp)
	sw	ra,28(sp)
	.cfi_offset 8, -8
	.cfi_offset 1, -4
	addi	s0,sp,32
	.cfi_def_cfa 8, 0
	.loc 1 838 8
	li	a1,6
	addi	a0,s0,-24
	call	bt_rand
.LVL381:
	.loc 1 839 2 is_stmt 1
	.loc 1 839 5 is_stmt 0
	bne	a0,zero,.L203
	.loc 1 843 2 is_stmt 1
	.loc 1 843 14 is_stmt 0
	lbu	a5,-19(s0)
	.loc 1 845 9
	addi	a0,s0,-24
.LVL382:
	.loc 1 843 14
	andi	a5,a5,63
	sb	a5,-19(s0)
	.loc 1 845 2 is_stmt 1
	.loc 1 845 9 is_stmt 0
	call	set_random_address
.LVL383:
.L203:
	.loc 1 846 1
	lw	ra,28(sp)
	.cfi_restore 1
	lw	s0,24(sp)
	.cfi_restore 8
	.cfi_def_cfa 2, 32
	addi	sp,sp,32
	.cfi_def_cfa_offset 0
	jr	ra
	.cfi_endproc
.LFE283:
	.size	le_set_private_addr.constprop.0, .-le_set_private_addr.constprop.0
	.section	.text.hci_id_add,"ax",@progbits
	.align	1
	.type	hci_id_add, @function
hci_id_add:
.LFB143:
	.loc 1 3385 1 is_stmt 1
	.cfi_startproc
.LVL384:
	.loc 1 3386 2
	.loc 1 3387 2
	.loc 1 3389 2
	.loc 1 3391 2
	.loc 1 3385 1 is_stmt 0
	addi	sp,sp,-32
	.cfi_def_cfa_offset 32
	sw	s0,24(sp)
	sw	s3,12(sp)
	sw	s4,8(sp)
	sw	s5,4(sp)
	sw	ra,28(sp)
	sw	s1,20(sp)
	sw	s2,16(sp)
	.cfi_offset 8, -8
	.cfi_offset 19, -20
	.cfi_offset 20, -24
	.cfi_offset 21, -28
	.cfi_offset 1, -4
	.cfi_offset 9, -12
	.cfi_offset 18, -16
	addi	s0,sp,32
	.cfi_def_cfa 8, 0
	.loc 1 3391 8
	li	s5,8192
	.loc 1 3385 1
	mv	s4,a0
	mv	s3,a1
	.loc 1 3391 8
	li	a1,39
.LVL385:
	addi	a0,s5,39
.LVL386:
	call	bt_hci_cmd_create
.LVL387:
	.loc 1 3392 2 is_stmt 1
	.loc 1 3392 5 is_stmt 0
	beq	a0,zero,.L207
	mv	s1,a0
	.loc 1 3396 2 is_stmt 1
	.loc 1 3396 7 is_stmt 0
	li	a1,39
	addi	a0,a0,8
.LVL388:
	call	net_buf_simple_add
.LVL389:
	.loc 1 3397 2
	mv	a1,s4
	.loc 1 3396 7
	mv	s2,a0
.LVL390:
	.loc 1 3397 2 is_stmt 1
	call	bt_addr_le_copy
.LVL391:
	.loc 1 3398 2
	mv	a1,s3
	li	a2,16
	addi	a0,s2,7
	call	memcpy
.LVL392:
	.loc 1 3403 2
	.loc 1 3403 8 is_stmt 0
	li	a2,16
	li	a1,0
	addi	a0,s2,23
	call	memset
.LVL393:
	.loc 1 3406 2 is_stmt 1
	.loc 1 3407 1 is_stmt 0
	lw	s0,24(sp)
	.cfi_remember_state
	.cfi_restore 8
	.cfi_def_cfa 2, 32
	lw	ra,28(sp)
	.cfi_restore 1
	lw	s2,16(sp)
	.cfi_restore 18
.LVL394:
	lw	s3,12(sp)
	.cfi_restore 19
.LVL395:
	lw	s4,8(sp)
	.cfi_restore 20
.LVL396:
	.loc 1 3406 9
	mv	a1,s1
	addi	a0,s5,39
	.loc 1 3407 1
	lw	s1,20(sp)
	.cfi_restore 9
.LVL397:
	lw	s5,4(sp)
	.cfi_restore 21
	.loc 1 3406 9
	li	a2,0
	.loc 1 3407 1
	addi	sp,sp,32
	.cfi_def_cfa_offset 0
	.loc 1 3406 9
	tail	bt_hci_cmd_send_sync
.LVL398:
.L207:
	.cfi_restore_state
	.loc 1 3407 1
	lw	ra,28(sp)
	.cfi_restore 1
	lw	s0,24(sp)
	.cfi_restore 8
	.cfi_def_cfa 2, 32
	lw	s1,20(sp)
	.cfi_restore 9
	lw	s2,16(sp)
	.cfi_restore 18
	lw	s3,12(sp)
	.cfi_restore 19
.LVL399:
	lw	s4,8(sp)
	.cfi_restore 20
.LVL400:
	lw	s5,4(sp)
	.cfi_restore 21
	li	a0,-105
.LVL401:
	addi	sp,sp,32
	.cfi_def_cfa_offset 0
	jr	ra
	.cfi_endproc
.LFE143:
	.size	hci_id_add, .-hci_id_add
	.section	.text.keys_add_id,"ax",@progbits
	.align	1
	.type	keys_add_id, @function
keys_add_id:
.LFB145:
	.loc 1 3510 1 is_stmt 1
	.cfi_startproc
.LVL402:
	.loc 1 3511 2
	.loc 1 3510 1 is_stmt 0
	addi	sp,sp,-16
	.cfi_def_cfa_offset 16
	sw	s0,12(sp)
	.cfi_offset 8, -4
	addi	s0,sp,16
	.cfi_def_cfa 8, 0
	.loc 1 3512 1
	lw	s0,12(sp)
	.cfi_restore 8
	.cfi_def_cfa 2, 16
	.loc 1 3511 2
	addi	a1,a0,38
.LVL403:
	addi	a0,a0,1
.LVL404:
	.loc 1 3512 1
	addi	sp,sp,16
	.cfi_def_cfa_offset 0
	.loc 1 3511 2
	tail	hci_id_add
.LVL405:
	.cfi_endproc
.LFE145:
	.size	keys_add_id, .-keys_add_id
	.section	.text.addr_res_enable,"ax",@progbits
	.align	1
	.type	addr_res_enable, @function
addr_res_enable:
.LFB142:
	.loc 1 3363 1 is_stmt 1
	.cfi_startproc
.LVL406:
	.loc 1 3364 2
	.loc 1 3366 2
	.loc 1 3368 2
	.loc 1 3363 1 is_stmt 0
	addi	sp,sp,-32
	.cfi_def_cfa_offset 32
	sw	s0,24(sp)
	sw	s2,16(sp)
	sw	s3,12(sp)
	sw	ra,28(sp)
	sw	s1,20(sp)
	.cfi_offset 8, -8
	.cfi_offset 18, -16
	.cfi_offset 19, -20
	.cfi_offset 1, -4
	.cfi_offset 9, -12
	addi	s0,sp,32
	.cfi_def_cfa 8, 0
	.loc 1 3368 8
	li	s3,8192
	.loc 1 3363 1
	mv	s2,a0
	.loc 1 3368 8
	li	a1,1
	addi	a0,s3,45
.LVL407:
	call	bt_hci_cmd_create
.LVL408:
	.loc 1 3369 2 is_stmt 1
	.loc 1 3369 5 is_stmt 0
	beq	a0,zero,.L212
	mv	s1,a0
	.loc 1 3373 2 is_stmt 1
	mv	a1,s2
	addi	a0,a0,8
.LVL409:
	call	net_buf_simple_add_u8
.LVL410:
	.loc 1 3375 2
	.loc 1 3377 1 is_stmt 0
	lw	s0,24(sp)
	.cfi_remember_state
	.cfi_restore 8
	.cfi_def_cfa 2, 32
	lw	ra,28(sp)
	.cfi_restore 1
	lw	s2,16(sp)
	.cfi_restore 18
	.loc 1 3375 9
	mv	a1,s1
	addi	a0,s3,45
	.loc 1 3377 1
	lw	s1,20(sp)
	.cfi_restore 9
.LVL411:
	lw	s3,12(sp)
	.cfi_restore 19
	.loc 1 3375 9
	li	a2,0
	.loc 1 3377 1
	addi	sp,sp,32
	.cfi_def_cfa_offset 0
	.loc 1 3375 9
	tail	bt_hci_cmd_send_sync
.LVL412:
.L212:
	.cfi_restore_state
	.loc 1 3377 1
	lw	ra,28(sp)
	.cfi_restore 1
	lw	s0,24(sp)
	.cfi_restore 8
	.cfi_def_cfa 2, 32
	lw	s1,20(sp)
	.cfi_restore 9
	lw	s2,16(sp)
	.cfi_restore 18
	lw	s3,12(sp)
	.cfi_restore 19
	li	a0,-105
.LVL413:
	addi	sp,sp,32
	.cfi_def_cfa_offset 0
	jr	ra
	.cfi_endproc
.LFE142:
	.size	addr_res_enable, .-addr_res_enable
	.section	.text.set_advertise_enable,"ax",@progbits
	.align	1
	.type	set_advertise_enable, @function
set_advertise_enable:
.LFB105:
	.loc 1 619 1 is_stmt 1
	.cfi_startproc
.LVL414:
	.loc 1 620 2
	.loc 1 621 2
	.loc 1 622 2
	.loc 1 624 2
	.loc 1 619 1 is_stmt 0
	addi	sp,sp,-32
	.cfi_def_cfa_offset 32
	sw	s0,24(sp)
	sw	s2,16(sp)
	sw	ra,28(sp)
	sw	s1,20(sp)
	.cfi_offset 8, -8
	.cfi_offset 18, -16
	.cfi_offset 1, -4
	.cfi_offset 9, -12
	addi	s0,sp,32
	.cfi_def_cfa 8, 0
	mv	s2,a0
	.loc 1 624 8
	li	a0,8192
.LVL415:
	.loc 1 619 1
	.loc 1 624 8
	li	a1,1
	addi	a0,a0,10
	call	bt_hci_cmd_create
.LVL416:
	.loc 1 625 2 is_stmt 1
	.loc 1 625 5 is_stmt 0
	beq	a0,zero,.L218
	mv	s1,a0
	.loc 1 629 2 is_stmt 1
	.loc 1 630 3 is_stmt 0
	li	a1,1
	addi	a0,a0,8
.LVL417:
	.loc 1 629 5
	bne	s2,zero,.L220
	.loc 1 632 3 is_stmt 1
	li	a1,0
.L220:
	call	net_buf_simple_add_u8
.LVL418:
	.loc 1 635 2
.LBB364:
.LBB365:
	.loc 1 184 2
	.loc 1 184 16 is_stmt 0
	lui	a5,%hi(.LANCHOR2+108)
	addi	a5,a5,%lo(.LANCHOR2+108)
	sw	a5,-28(s0)
	.loc 1 185 2 is_stmt 1
.LBE365:
.LBE364:
	.loc 1 636 13 is_stmt 0
	mv	a0,s1
.LBB367:
.LBB366:
	.loc 1 185 13
	li	a5,6
	sw	a5,-24(s0)
	.loc 1 186 2 is_stmt 1
	.loc 1 186 13 is_stmt 0
	sb	s2,-20(s0)
.LVL419:
.LBE366:
.LBE367:
	.loc 1 636 2 is_stmt 1
	.loc 1 636 13 is_stmt 0
	call	net_buf_id
.LVL420:
	.loc 1 636 38
	li	a5,12
	mul	a5,a0,a5
	lui	a0,%hi(.LANCHOR15)
	addi	a0,a0,%lo(.LANCHOR15)
	.loc 1 638 8
	li	a2,0
	mv	a1,s1
	.loc 1 636 38
	add	a0,a0,a5
	addi	a5,s0,-28
	sw	a5,4(a0)
	.loc 1 638 2 is_stmt 1
	.loc 1 638 8 is_stmt 0
	li	a0,8192
	addi	a0,a0,10
	call	bt_hci_cmd_send_sync
.LVL421:
	.loc 1 639 2 is_stmt 1
.L214:
	.loc 1 644 1 is_stmt 0
	lw	ra,28(sp)
	.cfi_remember_state
	.cfi_restore 1
	lw	s0,24(sp)
	.cfi_restore 8
	.cfi_def_cfa 2, 32
	lw	s1,20(sp)
	.cfi_restore 9
	lw	s2,16(sp)
	.cfi_restore 18
	addi	sp,sp,32
	.cfi_def_cfa_offset 0
	jr	ra
.LVL422:
.L218:
	.cfi_restore_state
	.loc 1 626 10
	li	a0,-105
.LVL423:
	j	.L214
	.cfi_endproc
.LFE105:
	.size	set_advertise_enable, .-set_advertise_enable
	.section	.text.start_le_scan,"ax",@progbits
	.align	1
	.type	start_le_scan, @function
start_le_scan:
.LFB159:
	.loc 1 3955 1 is_stmt 1
	.cfi_startproc
.LVL424:
	.loc 1 3956 2
	.loc 1 3957 2
	.loc 1 3958 2
	.loc 1 3960 2
	.loc 1 3955 1 is_stmt 0
	addi	sp,sp,-48
	.cfi_def_cfa_offset 48
	sw	ra,44(sp)
	sw	s0,40(sp)
	sw	s1,36(sp)
	.cfi_offset 1, -4
	.cfi_offset 8, -8
	.cfi_offset 9, -12
	addi	s0,sp,48
	.cfi_def_cfa 8, 0
	sw	s2,32(sp)
	sw	s3,28(sp)
	sw	s5,20(sp)
	sw	s4,24(sp)
	.cfi_offset 18, -16
	.cfi_offset 19, -20
	.cfi_offset 21, -28
	.cfi_offset 20, -24
	mv	s3,a1
	mv	s1,a2
	mv	s2,a0
	.loc 1 3960 8
	li	a2,7
.LVL425:
	li	a1,0
.LVL426:
	.loc 1 3955 1
	.loc 1 3960 8
	addi	a0,s0,-40
.LVL427:
	call	memset
.LVL428:
	.loc 1 3962 2 is_stmt 1
	.loc 1 3968 19 is_stmt 0
	sb	s1,-37(s0)
	srli	s1,s1,8
	sb	s1,-36(s0)
	.loc 1 3971 6
	lui	s1,%hi(.LANCHOR2)
	addi	s1,s1,%lo(.LANCHOR2)
	.loc 1 3967 21
	sb	s3,-39(s0)
	.loc 1 3971 6
	li	a1,14
	.loc 1 3967 21
	srli	s3,s3,8
	.loc 1 3971 6
	addi	a0,s1,108
	.loc 1 3962 22
	sb	s2,-40(s0)
	.loc 1 3967 2 is_stmt 1
	.loc 1 3967 21 is_stmt 0
	sb	s3,-38(s0)
	.loc 1 3968 2 is_stmt 1
	.loc 1 3970 2
	.loc 1 3971 6 is_stmt 0
	call	atomic_test_bit
.LVL429:
	.loc 1 3989 42
	lbu	a5,0(s1)
	.loc 1 3970 5
	snez	a0,a0
	sb	a0,-34(s0)
	.loc 1 3977 2 is_stmt 1
	.loc 1 3989 3
	.loc 1 3989 23 is_stmt 0
	sb	a5,-35(s0)
	.loc 1 3994 3 is_stmt 1
	.loc 1 4003 10
	.loc 1 4003 13 is_stmt 0
	li	a4,1
	lui	s5,%hi(.LANCHOR2+108)
	beq	a5,a4,.L222
.L225:
	.loc 1 4012 2 is_stmt 1
	.loc 1 4012 8 is_stmt 0
	li	s4,8192
	li	a1,7
	addi	a0,s4,11
	call	bt_hci_cmd_create
.LVL430:
	mv	s3,a0
.LVL431:
	.loc 1 4013 2 is_stmt 1
	.loc 1 4014 10 is_stmt 0
	li	s1,-105
	.loc 1 4013 5
	bne	a0,zero,.L227
.LVL432:
.L221:
	.loc 1 4030 1
	lw	ra,44(sp)
	.cfi_remember_state
	.cfi_restore 1
	lw	s0,40(sp)
	.cfi_restore 8
	.cfi_def_cfa 2, 48
	lw	s2,32(sp)
	.cfi_restore 18
	lw	s3,28(sp)
	.cfi_restore 19
	lw	s4,24(sp)
	.cfi_restore 20
	lw	s5,20(sp)
	.cfi_restore 21
	mv	a0,s1
	lw	s1,36(sp)
	.cfi_restore 9
	addi	sp,sp,48
	.cfi_def_cfa_offset 0
	jr	ra
.L222:
	.cfi_restore_state
	.loc 1 4004 4 is_stmt 1
	.loc 1 4004 10 is_stmt 0
	addi	a0,s1,1
	call	set_random_address
.LVL433:
	mv	s1,a0
.LVL434:
	.loc 1 4005 4 is_stmt 1
	.loc 1 4005 7 is_stmt 0
	beq	a0,zero,.L225
	j	.L221
.LVL435:
.L227:
	.loc 1 4017 2 is_stmt 1
	li	a2,7
	addi	a1,s0,-40
	addi	a0,a0,8
.LVL436:
	call	net_buf_simple_add_mem
.LVL437:
	.loc 1 4019 2
	li	a2,0
	mv	a1,s3
	addi	a0,s4,11
	call	bt_hci_cmd_send_sync
.LVL438:
	.loc 1 4021 2
	.loc 1 4021 8 is_stmt 0
	li	a0,1
	call	set_le_scan_enable
.LVL439:
	mv	s1,a0
.LVL440:
	.loc 1 4022 2 is_stmt 1
	.loc 1 4022 5 is_stmt 0
	bne	a0,zero,.L221
	.loc 1 4026 2 is_stmt 1
	addi	a2,s2,-1
	seqz	a2,a2
	li	a1,12
	addi	a0,s5,%lo(.LANCHOR2+108)
	call	atomic_set_bit_to
.LVL441:
	.loc 1 4029 2
	.loc 1 4029 9 is_stmt 0
	j	.L221
	.cfi_endproc
.LFE159:
	.size	start_le_scan, .-start_le_scan
	.section	.rodata.set_ad.str1.4,"aMS",@progbits,1
	.align	2
.LC15:
	.string	"Too big advertising data, %s\r\n"
	.section	.text.set_ad,"ax",@progbits
	.align	1
	.type	set_ad, @function
set_ad:
.LFB204:
	.loc 1 6197 1 is_stmt 1
	.cfi_startproc
.LVL442:
	.loc 1 6198 2
	.loc 1 6199 2
	.loc 1 6200 2
	.loc 1 6202 2
	.loc 1 6197 1 is_stmt 0
	addi	sp,sp,-48
	.cfi_def_cfa_offset 48
	sw	s0,40(sp)
	sw	s1,36(sp)
	sw	s2,32(sp)
	sw	s3,28(sp)
	sw	ra,44(sp)
	sw	s4,24(sp)
	sw	s5,20(sp)
	sw	s6,16(sp)
	sw	s7,12(sp)
	sw	s8,8(sp)
	sw	s9,4(sp)
	sw	s10,0(sp)
	.cfi_offset 8, -8
	.cfi_offset 9, -12
	.cfi_offset 18, -16
	.cfi_offset 19, -20
	.cfi_offset 1, -4
	.cfi_offset 20, -24
	.cfi_offset 21, -28
	.cfi_offset 22, -32
	.cfi_offset 23, -36
	.cfi_offset 24, -40
	.cfi_offset 25, -44
	.cfi_offset 26, -48
	addi	s0,sp,48
	.cfi_def_cfa 8, 0
	mv	s1,a1
	.loc 1 6202 8
	li	a1,32
.LVL443:
	.loc 1 6197 1
	mv	s3,a0
	mv	s2,a2
	.loc 1 6202 8
	call	bt_hci_cmd_create
.LVL444:
	.loc 1 6203 2 is_stmt 1
	.loc 1 6203 5 is_stmt 0
	beq	a0,zero,.L237
	.loc 1 6207 13
	li	a1,32
	mv	s8,a0
	.loc 1 6207 2 is_stmt 1
	.loc 1 6207 13 is_stmt 0
	addi	a0,a0,8
.LVL445:
	call	net_buf_simple_add
.LVL446:
	.loc 1 6209 8
	li	a2,32
	li	a1,0
	slli	s2,s2,3
.LVL447:
	.loc 1 6207 13
	mv	s7,a0
.LVL448:
	.loc 1 6209 2 is_stmt 1
	add	s2,s1,s2
	.loc 1 6209 8 is_stmt 0
	call	memset
.LVL449:
	.loc 1 6211 2 is_stmt 1
.LBB368:
.LBB369:
	.loc 1 6219 7 is_stmt 0
	li	s9,29
	.loc 1 6221 8
	li	s10,9
.LVL450:
.L231:
.LBE369:
.LBE368:
	.loc 1 6211 14 is_stmt 1 discriminator 1
	.loc 1 6211 2 is_stmt 0 discriminator 1
	bne	s1,s2,.L236
	.loc 1 6238 2 is_stmt 1
	.loc 1 6239 1 is_stmt 0
	lw	s0,40(sp)
	.cfi_remember_state
	.cfi_restore 8
	.cfi_def_cfa 2, 48
	lw	ra,44(sp)
	.cfi_restore 1
	lw	s1,36(sp)
	.cfi_restore 9
	lw	s2,32(sp)
	.cfi_restore 18
	lw	s4,24(sp)
	.cfi_restore 20
	lw	s5,20(sp)
	.cfi_restore 21
	lw	s6,16(sp)
	.cfi_restore 22
	lw	s7,12(sp)
	.cfi_restore 23
.LVL451:
	lw	s9,4(sp)
	.cfi_restore 25
	lw	s10,0(sp)
	.cfi_restore 26
	.loc 1 6238 9
	mv	a1,s8
	mv	a0,s3
	.loc 1 6239 1
	lw	s8,8(sp)
	.cfi_restore 24
.LVL452:
	lw	s3,28(sp)
	.cfi_restore 19
	.loc 1 6238 9
	li	a2,0
	.loc 1 6239 1
	addi	sp,sp,48
	.cfi_def_cfa_offset 0
	.loc 1 6238 9
	tail	bt_hci_cmd_send_sync
.LVL453:
.L236:
	.cfi_restore_state
.LBB373:
	.loc 1 6212 3 is_stmt 1
	.loc 1 6214 3
	lw	s4,0(s1)
	.loc 1 6214 10 is_stmt 0
	li	s6,0
.LVL454:
.L232:
	.loc 1 6214 15 is_stmt 1 discriminator 1
	.loc 1 6214 3 is_stmt 0 discriminator 1
	lw	a5,4(s1)
	bgtu	a5,s6,.L235
.LBE373:
	.loc 1 6211 26 is_stmt 1 discriminator 2
	addi	s1,s1,8
	j	.L231
.L235:
.LBB374:
.LBB370:
	.loc 1 6215 4
	.loc 1 6215 8 is_stmt 0
	lbu	a2,1(s4)
.LVL455:
	.loc 1 6216 4 is_stmt 1
	.loc 1 6219 16 is_stmt 0
	lbu	a5,0(s7)
	.loc 1 6216 9
	lbu	a3,0(s4)
.LVL456:
	.loc 1 6219 4 is_stmt 1
	.loc 1 6219 22 is_stmt 0
	add	a4,a5,a2
	.loc 1 6219 7
	ble	a4,s9,.L233
	.loc 1 6220 5 is_stmt 1
	.loc 1 6220 9 is_stmt 0
	sub	a2,s9,a5
.LVL457:
	.loc 1 6221 5 is_stmt 1
	.loc 1 6221 8 is_stmt 0
	bne	a3,s10,.L234
	.loc 1 6221 22 discriminator 1
	bne	a2,zero,.L238
.L234:
	.loc 1 6222 6 is_stmt 1
	mv	a0,s8
	call	net_buf_unref
.LVL458:
	.loc 1 6223 6
	lui	a1,%hi(.LANCHOR21)
	lui	a0,%hi(.LC15)
	addi	a1,a1,%lo(.LANCHOR21)
	addi	a0,a0,%lo(.LC15)
	call	printf
.LVL459:
	.loc 1 6224 6
	.loc 1 6224 13 is_stmt 0
	li	a0,-22
.LVL460:
.L229:
.LBE370:
.LBE374:
	.loc 1 6239 1
	lw	ra,44(sp)
	.cfi_remember_state
	.cfi_restore 1
	lw	s0,40(sp)
	.cfi_restore 8
	.cfi_def_cfa 2, 48
	lw	s1,36(sp)
	.cfi_restore 9
	lw	s2,32(sp)
	.cfi_restore 18
	lw	s3,28(sp)
	.cfi_restore 19
	lw	s4,24(sp)
	.cfi_restore 20
	lw	s5,20(sp)
	.cfi_restore 21
	lw	s6,16(sp)
	.cfi_restore 22
	lw	s7,12(sp)
	.cfi_restore 23
	lw	s8,8(sp)
	.cfi_restore 24
	lw	s9,4(sp)
	.cfi_restore 25
	lw	s10,0(sp)
	.cfi_restore 26
	addi	sp,sp,48
	.cfi_def_cfa_offset 0
	jr	ra
.LVL461:
.L238:
	.cfi_restore_state
.LBB375:
.LBB371:
	.loc 1 6226 10
	li	a3,8
.LVL462:
.L233:
	.loc 1 6229 4 is_stmt 1 discriminator 2
	.loc 1 6229 42 is_stmt 0 discriminator 2
	andi	s5,a2,0xff
	.loc 1 6229 36 discriminator 2
	add	a4,s7,a5
	.loc 1 6229 42 discriminator 2
	addi	a1,s5,1
	.loc 1 6229 36 discriminator 2
	sb	a1,1(a4)
	.loc 1 6230 4 is_stmt 1 discriminator 2
	.loc 1 6230 32 is_stmt 0 discriminator 2
	addi	a4,a5,2
	.loc 1 6229 32 discriminator 2
	addi	a5,a5,1
	.loc 1 6230 32 discriminator 2
	andi	a4,a4,0xff
	andi	a5,a5,0xff
	sb	a4,0(s7)
	.loc 1 6230 36 discriminator 2
	add	a5,s7,a5
	sb	a3,1(a5)
	.loc 1 6232 4 is_stmt 1 discriminator 2
	lw	a1,4(s4)
	.loc 1 6232 11 is_stmt 0 discriminator 2
	addi	a4,a4,1
	.loc 1 6232 4 discriminator 2
	add	a0,s7,a4
	call	memcpy
.LVL463:
	.loc 1 6234 4 is_stmt 1 discriminator 2
	.loc 1 6234 18 is_stmt 0 discriminator 2
	lbu	a5,0(s7)
.LBE371:
	.loc 1 6214 31 discriminator 2
	addi	s6,s6,1
.LVL464:
	addi	s4,s4,8
.LBB372:
	.loc 1 6234 18 discriminator 2
	add	s5,s5,a5
	sb	s5,0(s7)
.LBE372:
	.loc 1 6214 30 is_stmt 1 discriminator 2
.LVL465:
	j	.L232
.LVL466:
.L237:
.LBE375:
	.loc 1 6204 10 is_stmt 0
	li	a0,-105
.LVL467:
	j	.L229
	.cfi_endproc
.LFE204:
	.size	set_ad, .-set_ad
	.section	.text.le_adv_update,"ax",@progbits
	.align	1
	.type	le_adv_update, @function
le_adv_update:
.LFB218:
	.loc 1 6629 1 is_stmt 1
	.cfi_startproc
.LVL468:
	.loc 1 6630 2
	.loc 1 6629 1 is_stmt 0
	addi	sp,sp,-64
	.cfi_def_cfa_offset 64
	sw	s0,56(sp)
	sw	s1,52(sp)
	.cfi_offset 8, -8
	.cfi_offset 9, -12
	addi	s0,sp,64
	.cfi_def_cfa 8, 0
	sw	s2,48(sp)
	sw	s3,44(sp)
	sw	s4,40(sp)
	sw	s5,36(sp)
	sw	ra,60(sp)
	.cfi_offset 18, -16
	.cfi_offset 19, -20
	.cfi_offset 20, -24
	.cfi_offset 21, -28
	.cfi_offset 1, -4
	.loc 1 6634 12
	sw	a0,-48(s0)
	.loc 1 6637 8
	li	a0,8192
.LVL469:
	.loc 1 6635 11
	sw	a1,-44(s0)
	.loc 1 6629 1
	mv	s2,a2
	.loc 1 6637 8
	addi	a1,s0,-48
.LVL470:
	li	a2,1
.LVL471:
	addi	a0,a0,8
	.loc 1 6629 1
	mv	s3,a3
	mv	s4,a4
	mv	s5,a5
	.loc 1 6630 15
	sw	zero,-40(s0)
	sw	zero,-36(s0)
	.loc 1 6631 2 is_stmt 1
	.loc 1 6632 2
	.loc 1 6634 2
	.loc 1 6635 2
	.loc 1 6637 2
	.loc 1 6637 8 is_stmt 0
	call	set_ad
.LVL472:
	mv	s1,a0
.LVL473:
	.loc 1 6638 2 is_stmt 1
	.loc 1 6638 5 is_stmt 0
	bne	a0,zero,.L240
	.loc 1 6642 2 is_stmt 1
	.loc 1 6642 12 is_stmt 0
	sw	s2,-48(s0)
	.loc 1 6643 2 is_stmt 1
	.loc 1 6643 11 is_stmt 0
	sw	s3,-44(s0)
	.loc 1 6645 2 is_stmt 1
	.loc 1 6645 5 is_stmt 0
	beq	s5,zero,.L242
.LBB380:
	.loc 1 6646 3 is_stmt 1
	.loc 1 6648 3
	.loc 1 6648 6 is_stmt 0
	beq	s2,zero,.L243
.LBB381:
.LBB382:
	.loc 1 6616 9
	li	a3,0
	.loc 1 6617 6
	li	a4,1
.L244:
.LVL474:
	.loc 1 6616 14 is_stmt 1
	.loc 1 6616 2 is_stmt 0
	bne	a3,s3,.L245
.LVL475:
.L243:
.LBE382:
.LBE381:
	.loc 1 6655 3 is_stmt 1
.LBE380:
	.loc 1 6298 2
.LBB385:
	.loc 1 6656 3
	.loc 1 6656 57 is_stmt 0
	lui	s2,%hi(.LANCHOR2+184)
.LVL476:
	addi	s2,s2,%lo(.LANCHOR2+184)
	mv	a0,s2
	call	strlen
.LVL477:
	.loc 1 6656 8
	li	a5,9
	sb	a5,-56(s0)
	.loc 1 6660 13
	addi	a5,s0,-56
	sw	a5,-40(s0)
	.loc 1 6661 12
	li	a5,1
	.loc 1 6656 8
	sb	a0,-55(s0)
	sw	s2,-52(s0)
	.loc 1 6660 3 is_stmt 1
	.loc 1 6661 3
	.loc 1 6661 12 is_stmt 0
	sw	a5,-36(s0)
.LVL478:
.L242:
.LBE385:
	.loc 1 6675 2 is_stmt 1
	.loc 1 6675 5 is_stmt 0
	lw	a5,-48(s0)
	bne	a5,zero,.L246
	.loc 1 6675 16 discriminator 1
	lw	a5,-40(s0)
	bne	a5,zero,.L246
	.loc 1 6675 29 discriminator 2
	beq	s4,zero,.L240
.L246:
	.loc 1 6676 3 is_stmt 1
	.loc 1 6676 9 is_stmt 0
	li	a0,8192
	li	a2,2
	addi	a1,s0,-48
	addi	a0,a0,9
	call	set_ad
.LVL479:
	mv	s1,a0
.LVL480:
	.loc 1 6677 3 is_stmt 1
.L240:
	.loc 1 6683 1 is_stmt 0
	lw	ra,60(sp)
	.cfi_remember_state
	.cfi_restore 1
	lw	s0,56(sp)
	.cfi_restore 8
	.cfi_def_cfa 2, 64
	lw	s2,48(sp)
	.cfi_restore 18
	lw	s3,44(sp)
	.cfi_restore 19
.LVL481:
	lw	s4,40(sp)
	.cfi_restore 20
	lw	s5,36(sp)
	.cfi_restore 21
	mv	a0,s1
	lw	s1,52(sp)
	.cfi_restore 9
	addi	sp,sp,64
	.cfi_def_cfa_offset 0
	jr	ra
.LVL482:
.L245:
	.cfi_restore_state
.LBB386:
.LBB384:
.LBB383:
	.loc 1 6617 3 is_stmt 1
	.loc 1 6617 12 is_stmt 0
	slli	a5,a3,3
	add	a5,s2,a5
	.loc 1 6617 26
	lbu	a5,0(a5)
	addi	a5,a5,-8
	.loc 1 6617 6
	andi	a5,a5,0xff
	bleu	a5,a4,.L247
	.loc 1 6616 26 is_stmt 1
	.loc 1 6616 27 is_stmt 0
	addi	a3,a3,1
.LVL483:
	j	.L244
.L247:
.LBE383:
.LBE384:
	.loc 1 6651 12
	li	s1,-22
.LVL484:
	j	.L240
.LBE386:
	.cfi_endproc
.LFE218:
	.size	le_adv_update, .-le_adv_update
	.section	.text.bt_lookup_id_addr,"ax",@progbits
	.align	1
	.globl	bt_lookup_id_addr
	.type	bt_lookup_id_addr, @function
bt_lookup_id_addr:
.LFB104:
	.loc 1 601 1 is_stmt 1
	.cfi_startproc
.LVL485:
	.loc 1 602 2
.LBB387:
	.loc 1 603 3
	.loc 1 605 3
.LBE387:
	.loc 1 601 1 is_stmt 0
	addi	sp,sp,-16
	.cfi_def_cfa_offset 16
	sw	s0,8(sp)
	sw	s1,4(sp)
	sw	ra,12(sp)
	.cfi_offset 8, -8
	.cfi_offset 9, -12
	.cfi_offset 1, -4
	addi	s0,sp,16
	.cfi_def_cfa 8, 0
	.loc 1 601 1
	mv	s1,a1
.LBB388:
	.loc 1 605 10
	call	bt_keys_find_irk
.LVL486:
	.loc 1 606 3 is_stmt 1
	.loc 1 606 6 is_stmt 0
	beq	a0,zero,.L259
	.loc 1 609 32 is_stmt 1
	.loc 1 610 4
	.loc 1 610 11 is_stmt 0
	addi	s1,a0,1
.LVL487:
.L259:
.LBE388:
	.loc 1 615 1
	lw	ra,12(sp)
	.cfi_restore 1
	lw	s0,8(sp)
	.cfi_restore 8
	.cfi_def_cfa 2, 16
	mv	a0,s1
.LVL488:
	lw	s1,4(sp)
	.cfi_restore 9
	addi	sp,sp,16
	.cfi_def_cfa_offset 0
	jr	ra
	.cfi_endproc
.LFE104:
	.size	bt_lookup_id_addr, .-bt_lookup_id_addr
	.section	.text.bt_addr_from_str,"ax",@progbits
	.align	1
	.globl	bt_addr_from_str
	.type	bt_addr_from_str, @function
bt_addr_from_str:
.LFB107:
	.loc 1 681 1 is_stmt 1
	.cfi_startproc
.LVL489:
	.loc 1 682 2
	.loc 1 683 2
	.loc 1 685 2
	.loc 1 681 1 is_stmt 0
	addi	sp,sp,-64
	.cfi_def_cfa_offset 64
	sw	s0,56(sp)
	sw	s1,52(sp)
	sw	s5,36(sp)
	sw	ra,60(sp)
	sw	s2,48(sp)
	sw	s3,44(sp)
	sw	s4,40(sp)
	sw	s6,32(sp)
	sw	s7,28(sp)
	.cfi_offset 8, -8
	.cfi_offset 9, -12
	.cfi_offset 21, -28
	.cfi_offset 1, -4
	.cfi_offset 18, -16
	.cfi_offset 19, -20
	.cfi_offset 20, -24
	.cfi_offset 22, -32
	.cfi_offset 23, -36
	addi	s0,sp,64
	.cfi_def_cfa 8, 0
	.loc 1 681 1
	mv	s1,a0
	mv	s5,a1
	.loc 1 685 6
	call	strlen
.LVL490:
	.loc 1 685 5
	li	a5,17
	bne	a0,a5,.L274
	li	s3,1
.LBB391:
.LBB392:
	.loc 1 689 9
	li	s4,5
	sub	s3,s3,s1
.LBE392:
.LBE391:
	li	s7,3
.LBB397:
.LBB393:
	.loc 1 692 13
	li	s6,58
.LVL491:
.L266:
	.loc 1 689 21
	lbu	a5,0(s1)
	add	a4,s1,s3
.LVL492:
	.loc 1 689 21 is_stmt 1
	.loc 1 689 2 is_stmt 0
	bne	a5,zero,.L273
	.loc 1 706 9
	li	a0,0
.LVL493:
.L264:
.LBE393:
.LBE397:
	.loc 1 707 1
	lw	ra,60(sp)
	.cfi_remember_state
	.cfi_restore 1
	lw	s0,56(sp)
	.cfi_restore 8
	.cfi_def_cfa 2, 64
	lw	s1,52(sp)
	.cfi_restore 9
	lw	s2,48(sp)
	.cfi_restore 18
	lw	s3,44(sp)
	.cfi_restore 19
	lw	s4,40(sp)
	.cfi_restore 20
	lw	s5,36(sp)
	.cfi_restore 21
.LVL494:
	lw	s6,32(sp)
	.cfi_restore 22
	lw	s7,28(sp)
	.cfi_restore 23
	addi	sp,sp,64
	.cfi_def_cfa_offset 0
	jr	ra
.LVL495:
.L273:
	.cfi_restore_state
.LBB398:
.LBB394:
	.loc 1 690 3 is_stmt 1
.LBE394:
.LBE398:
	rem	a4,a4,s7
.LVL496:
.LBB399:
.LBB395:
	.loc 1 690 6 is_stmt 0
	bne	a4,zero,.L267
	.loc 1 690 16
	beq	a5,s6,.L268
.LVL497:
.L274:
.LBE395:
.LBE399:
	.loc 1 686 10
	li	a0,-22
	j	.L264
.LVL498:
.L267:
.LBB400:
.LBB396:
	.loc 1 692 10 is_stmt 1
	.loc 1 692 13 is_stmt 0
	bne	a5,s6,.L270
.L268:
	.loc 1 693 4 is_stmt 1
	.loc 1 693 5 is_stmt 0
	addi	s4,s4,-1
.LVL499:
	.loc 1 694 4 is_stmt 1
.L271:
	.loc 1 689 35
	.loc 1 689 38 is_stmt 0
	addi	s1,s1,1
.LVL500:
	j	.L266
.LVL501:
.L270:
	.loc 1 697 3 is_stmt 1
	.loc 1 697 16 is_stmt 0
	add	s2,s5,s4
	.loc 1 697 31
	lbu	a5,0(s2)
	.loc 1 699 7
	addi	a1,s0,-49
	.loc 1 697 31
	slli	a5,a5,4
	.loc 1 697 16
	sb	a5,0(s2)
	.loc 1 699 3 is_stmt 1
	.loc 1 699 7 is_stmt 0
	lbu	a0,0(s1)
	call	char2hex
.LVL502:
	.loc 1 699 6
	blt	a0,zero,.L274
	.loc 1 703 3 is_stmt 1
	.loc 1 703 16 is_stmt 0
	lbu	a5,0(s2)
	lbu	a4,-49(s0)
	or	a5,a5,a4
	sb	a5,0(s2)
	j	.L271
.LBE396:
.LBE400:
	.cfi_endproc
.LFE107:
	.size	bt_addr_from_str, .-bt_addr_from_str
	.section	.rodata.bt_addr_le_from_str.str1.4,"aMS",@progbits,1
	.align	2
.LC16:
	.string	"public"
	.align	2
.LC17:
	.string	"(public)"
	.align	2
.LC18:
	.string	"random"
	.align	2
.LC19:
	.string	"(random)"
	.align	2
.LC20:
	.string	"public-id"
	.align	2
.LC21:
	.string	"(public-id)"
	.align	2
.LC22:
	.string	"random-id"
	.align	2
.LC23:
	.string	"(random-id)"
	.section	.text.bt_addr_le_from_str,"ax",@progbits
	.align	1
	.globl	bt_addr_le_from_str
	.type	bt_addr_le_from_str, @function
bt_addr_le_from_str:
.LFB108:
	.loc 1 710 1 is_stmt 1
	.cfi_startproc
.LVL503:
	.loc 1 711 2
	.loc 1 713 2
	.loc 1 710 1 is_stmt 0
	addi	sp,sp,-16
	.cfi_def_cfa_offset 16
	sw	s0,8(sp)
	sw	s1,4(sp)
	sw	s2,0(sp)
	sw	ra,12(sp)
	.cfi_offset 8, -8
	.cfi_offset 9, -12
	.cfi_offset 18, -16
	.cfi_offset 1, -4
	addi	s0,sp,16
	.cfi_def_cfa 8, 0
	mv	s1,a1
	.loc 1 713 8
	addi	a1,a2,1
.LVL504:
	.loc 1 710 1
	mv	s2,a2
	.loc 1 713 8
	call	bt_addr_from_str
.LVL505:
	.loc 1 714 2 is_stmt 1
	.loc 1 714 5 is_stmt 0
	blt	a0,zero,.L276
	.loc 1 718 2 is_stmt 1
	.loc 1 718 7 is_stmt 0
	lui	a1,%hi(.LC16)
	addi	a1,a1,%lo(.LC16)
	mv	a0,s1
.LVL506:
	call	strcmp
.LVL507:
	.loc 1 718 5
	bne	a0,zero,.L278
.L279:
	.loc 1 719 3 is_stmt 1
	.loc 1 719 14 is_stmt 0
	sb	zero,0(s2)
.L300:
	.loc 1 730 9
	li	a0,0
.L276:
	.loc 1 731 1
	lw	ra,12(sp)
	.cfi_remember_state
	.cfi_restore 1
	lw	s0,8(sp)
	.cfi_restore 8
	.cfi_def_cfa 2, 16
	lw	s1,4(sp)
	.cfi_restore 9
.LVL508:
	lw	s2,0(sp)
	.cfi_restore 18
.LVL509:
	addi	sp,sp,16
	.cfi_def_cfa_offset 0
	jr	ra
.LVL510:
.L278:
	.cfi_restore_state
	.loc 1 718 34 discriminator 1
	lui	a1,%hi(.LC17)
	addi	a1,a1,%lo(.LC17)
	mv	a0,s1
	call	strcmp
.LVL511:
	.loc 1 718 30 discriminator 1
	beq	a0,zero,.L279
	.loc 1 720 9 is_stmt 1
	.loc 1 720 14 is_stmt 0
	lui	a1,%hi(.LC18)
	addi	a1,a1,%lo(.LC18)
	mv	a0,s1
	call	strcmp
.LVL512:
	.loc 1 720 12
	bne	a0,zero,.L280
.L281:
	.loc 1 721 3 is_stmt 1
	.loc 1 721 14 is_stmt 0
	li	a5,1
.L299:
	.loc 1 725 14
	sb	a5,0(s2)
	j	.L300
.L280:
	.loc 1 720 41 discriminator 1
	lui	a1,%hi(.LC19)
	addi	a1,a1,%lo(.LC19)
	mv	a0,s1
	call	strcmp
.LVL513:
	.loc 1 720 37 discriminator 1
	beq	a0,zero,.L281
	.loc 1 722 9 is_stmt 1
	.loc 1 722 14 is_stmt 0
	lui	a1,%hi(.LC20)
	addi	a1,a1,%lo(.LC20)
	mv	a0,s1
	call	strcmp
.LVL514:
	.loc 1 722 12
	bne	a0,zero,.L282
.L283:
	.loc 1 723 3 is_stmt 1
	.loc 1 723 14 is_stmt 0
	li	a5,2
	j	.L299
.L282:
	.loc 1 722 44 discriminator 1
	lui	a1,%hi(.LC21)
	addi	a1,a1,%lo(.LC21)
	mv	a0,s1
	call	strcmp
.LVL515:
	.loc 1 722 40 discriminator 1
	beq	a0,zero,.L283
	.loc 1 724 9 is_stmt 1
	.loc 1 724 14 is_stmt 0
	lui	a1,%hi(.LC22)
	addi	a1,a1,%lo(.LC22)
	mv	a0,s1
	call	strcmp
.LVL516:
	.loc 1 724 12
	bne	a0,zero,.L284
.L285:
	.loc 1 725 3 is_stmt 1
	.loc 1 725 14 is_stmt 0
	li	a5,3
	j	.L299
.L284:
	.loc 1 724 44 discriminator 1
	lui	a1,%hi(.LC23)
	addi	a1,a1,%lo(.LC23)
	mv	a0,s1
	call	strcmp
.LVL517:
	.loc 1 724 40 discriminator 1
	beq	a0,zero,.L285
	.loc 1 727 10
	li	a0,-22
	j	.L276
	.cfi_endproc
.LFE108:
	.size	bt_addr_le_from_str, .-bt_addr_le_from_str
	.section	.text.bt_le_auto_conn,"ax",@progbits
	.align	1
	.globl	bt_le_auto_conn
	.type	bt_le_auto_conn, @function
bt_le_auto_conn:
.LFB114:
	.loc 1 1007 1 is_stmt 1
	.cfi_startproc
.LVL518:
	.loc 1 1008 2
	.loc 1 1009 2
	.loc 1 1010 2
	.loc 1 1011 2
	.loc 1 1012 2
	.loc 1 1014 2
	.loc 1 1007 1 is_stmt 0
	addi	sp,sp,-48
	.cfi_def_cfa_offset 48
	sw	s1,36(sp)
	.cfi_offset 9, -12
	.loc 1 1014 6
	lui	s1,%hi(.LANCHOR2)
	.loc 1 1007 1
	sw	s0,40(sp)
	sw	s3,28(sp)
	sw	ra,44(sp)
	sw	s2,32(sp)
	sw	s4,24(sp)
	sw	s5,20(sp)
	.cfi_offset 8, -8
	.cfi_offset 19, -20
	.cfi_offset 1, -4
	.cfi_offset 18, -16
	.cfi_offset 20, -24
	.cfi_offset 21, -28
	addi	s0,sp,48
	.cfi_def_cfa 8, 0
	mv	s3,a0
	.loc 1 1014 6
	addi	a0,s1,%lo(.LANCHOR2)
.LVL519:
	.loc 1 1007 1
	.loc 1 1014 6
	li	a1,10
	addi	a0,a0,108
	call	atomic_test_bit
.LVL520:
	addi	s1,s1,%lo(.LANCHOR2)
	.loc 1 1014 5
	bne	a0,zero,.L302
.L306:
	.loc 1 1025 3 is_stmt 1
.LBB401:
	.loc 1 1036 4
.LVL521:
	.loc 1 1042 4
	.loc 1 1042 7 is_stmt 0
	lbu	a4,0(s1)
	li	a5,1
	bne	a4,a5,.L304
	.loc 1 1043 5 is_stmt 1
	.loc 1 1043 11 is_stmt 0
	addi	a0,s1,1
	call	set_random_address
.LVL522:
	.loc 1 1044 5 is_stmt 1
	.loc 1 1044 8 is_stmt 0
	bne	a0,zero,.L301
.LVL523:
.L304:
	.loc 1 1049 4 is_stmt 1
.LBE401:
	.loc 1 1058 8 is_stmt 0
	li	s4,8192
	li	a1,25
	addi	a0,s4,13
.LBB402:
	.loc 1 1049 18
	lbu	s5,0(s1)
.LVL524:
.LBE402:
	.loc 1 1058 2 is_stmt 1
	.loc 1 1058 8 is_stmt 0
	call	bt_hci_cmd_create
.LVL525:
	mv	s2,a0
.LVL526:
	.loc 1 1059 2 is_stmt 1
	.loc 1 1060 10 is_stmt 0
	li	a0,-105
.LVL527:
	.loc 1 1059 5
	beq	s2,zero,.L301
	.loc 1 1063 2 is_stmt 1
	.loc 1 1063 7 is_stmt 0
	li	a1,25
	addi	a0,s2,8
	call	net_buf_simple_add
.LVL528:
	.loc 1 1064 8
	li	a2,25
	li	a1,0
	.loc 1 1063 7
	mv	s1,a0
.LVL529:
	.loc 1 1064 2 is_stmt 1
	.loc 1 1064 8 is_stmt 0
	call	memset
.LVL530:
	.loc 1 1066 2 is_stmt 1
	.loc 1 1070 20 is_stmt 0
	li	a5,96
	sb	a5,0(s1)
	.loc 1 1066 20
	li	a4,1
	.loc 1 1071 18
	li	a5,48
	.loc 1 1070 20
	sb	zero,1(s1)
	.loc 1 1071 18
	sb	a5,2(s1)
	sb	zero,3(s1)
	.loc 1 1066 20
	sb	a4,4(s1)
	.loc 1 1067 2 is_stmt 1
	.loc 1 1067 20 is_stmt 0
	sb	s5,12(s1)
	.loc 1 1070 2 is_stmt 1
	.loc 1 1071 2
	.loc 1 1073 2
	.loc 1 1073 37 is_stmt 0
	lhu	a5,0(s3)
	.loc 1 1079 13
	mv	a0,s2
.LBB403:
.LBB404:
	.loc 1 186 13
	sb	a4,-36(s0)
.LBE404:
.LBE403:
	.loc 1 1073 24
	sb	a5,13(s1)
	srli	a5,a5,8
	sb	a5,14(s1)
	.loc 1 1074 2 is_stmt 1
	.loc 1 1074 37 is_stmt 0
	lhu	a5,2(s3)
	.loc 1 1074 24
	sb	a5,15(s1)
	srli	a5,a5,8
	sb	a5,16(s1)
	.loc 1 1075 2 is_stmt 1
	.loc 1 1075 32 is_stmt 0
	lhu	a5,4(s3)
	.loc 1 1075 19
	sb	a5,17(s1)
	srli	a5,a5,8
	sb	a5,18(s1)
	.loc 1 1076 2 is_stmt 1
	.loc 1 1076 39 is_stmt 0
	lhu	a5,6(s3)
	.loc 1 1076 26
	sb	a5,19(s1)
	srli	a5,a5,8
	sb	a5,20(s1)
	.loc 1 1078 2 is_stmt 1
.LVL531:
.LBB406:
.LBB405:
	.loc 1 184 2
	.loc 1 184 16 is_stmt 0
	lui	a5,%hi(.LANCHOR2+108)
	addi	a5,a5,%lo(.LANCHOR2+108)
	sw	a5,-44(s0)
	.loc 1 185 2 is_stmt 1
	.loc 1 185 13 is_stmt 0
	li	a5,15
	sw	a5,-40(s0)
	.loc 1 186 2 is_stmt 1
.LVL532:
.LBE405:
.LBE406:
	.loc 1 1079 2
	.loc 1 1079 13 is_stmt 0
	call	net_buf_id
.LVL533:
	.loc 1 1079 38
	li	a5,12
	mul	a5,a0,a5
	lui	a0,%hi(.LANCHOR15)
	addi	a0,a0,%lo(.LANCHOR15)
	.loc 1 1081 9
	li	a2,0
	mv	a1,s2
	.loc 1 1079 38
	add	a0,a0,a5
	addi	a5,s0,-44
	sw	a5,4(a0)
	.loc 1 1081 2 is_stmt 1
	.loc 1 1081 9 is_stmt 0
	addi	a0,s4,13
	call	bt_hci_cmd_send_sync
.LVL534:
	j	.L301
.LVL535:
.L302:
	.loc 1 1015 3 is_stmt 1
	.loc 1 1015 9 is_stmt 0
	li	a0,0
	call	set_le_scan_enable
.LVL536:
	.loc 1 1016 3 is_stmt 1
	.loc 1 1016 6 is_stmt 0
	beq	a0,zero,.L306
.LVL537:
.L301:
	.loc 1 1082 1
	lw	ra,44(sp)
	.cfi_restore 1
	lw	s0,40(sp)
	.cfi_restore 8
	.cfi_def_cfa 2, 48
	lw	s1,36(sp)
	.cfi_restore 9
	lw	s2,32(sp)
	.cfi_restore 18
	lw	s3,28(sp)
	.cfi_restore 19
.LVL538:
	lw	s4,24(sp)
	.cfi_restore 20
	lw	s5,20(sp)
	.cfi_restore 21
	addi	sp,sp,48
	.cfi_def_cfa_offset 0
	jr	ra
	.cfi_endproc
.LFE114:
	.size	bt_le_auto_conn, .-bt_le_auto_conn
	.section	.text.bt_le_auto_conn_cancel,"ax",@progbits
	.align	1
	.globl	bt_le_auto_conn_cancel
	.type	bt_le_auto_conn_cancel, @function
bt_le_auto_conn_cancel:
.LFB115:
	.loc 1 1085 1 is_stmt 1
	.cfi_startproc
	.loc 1 1086 2
	.loc 1 1087 2
	.loc 1 1089 2
	.loc 1 1085 1 is_stmt 0
	addi	sp,sp,-48
	.cfi_def_cfa_offset 48
	sw	ra,44(sp)
	sw	s0,40(sp)
	sw	s1,36(sp)
	.cfi_offset 1, -4
	.cfi_offset 8, -8
	.cfi_offset 9, -12
	addi	s0,sp,48
	.cfi_def_cfa 8, 0
	.loc 1 1089 8
	li	s1,8192
	.loc 1 1085 1
	.loc 1 1089 8
	li	a1,0
	addi	a0,s1,14
	call	bt_hci_cmd_create
.LVL539:
.LBB407:
.LBB408:
	.loc 1 184 16
	lui	a5,%hi(.LANCHOR2+108)
	addi	a5,a5,%lo(.LANCHOR2+108)
	sw	a5,-28(s0)
	.loc 1 185 13
	li	a5,15
	sw	a5,-24(s0)
.LBE408:
.LBE407:
	.loc 1 1089 8
	sw	a0,-36(s0)
.LVL540:
	.loc 1 1091 2 is_stmt 1
.LBB410:
.LBB409:
	.loc 1 184 2
	.loc 1 185 2
	.loc 1 186 2
	.loc 1 186 13 is_stmt 0
	sb	zero,-20(s0)
.LVL541:
.LBE409:
.LBE410:
	.loc 1 1092 2 is_stmt 1
	.loc 1 1092 13 is_stmt 0
	call	net_buf_id
.LVL542:
	.loc 1 1092 38
	li	a5,12
	mul	a0,a0,a5
	lui	a5,%hi(.LANCHOR15)
	.loc 1 1094 9
	lw	a1,-36(s0)
	.loc 1 1092 38
	addi	a5,a5,%lo(.LANCHOR15)
	addi	a4,s0,-28
	.loc 1 1094 9
	li	a2,0
	.loc 1 1092 38
	add	a5,a5,a0
	sw	a4,4(a5)
	.loc 1 1094 2 is_stmt 1
	.loc 1 1094 9 is_stmt 0
	addi	a0,s1,14
	call	bt_hci_cmd_send_sync
.LVL543:
	.loc 1 1095 1
	lw	ra,44(sp)
	.cfi_restore 1
	lw	s0,40(sp)
	.cfi_restore 8
	.cfi_def_cfa 2, 48
.LVL544:
	lw	s1,36(sp)
	.cfi_restore 9
	addi	sp,sp,48
	.cfi_def_cfa_offset 0
	jr	ra
	.cfi_endproc
.LFE115:
	.size	bt_le_auto_conn_cancel, .-bt_le_auto_conn_cancel
	.section	.text.bt_le_conn_params_valid,"ax",@progbits
	.align	1
	.globl	bt_le_conn_params_valid
	.type	bt_le_conn_params_valid, @function
bt_le_conn_params_valid:
.LFB131:
	.loc 1 1890 1 is_stmt 1
	.cfi_startproc
.LVL545:
	.loc 1 1893 2
	.loc 1 1890 1 is_stmt 0
	addi	sp,sp,-16
	.cfi_def_cfa_offset 16
	sw	s0,12(sp)
	.cfi_offset 8, -4
	addi	s0,sp,16
	.cfi_def_cfa 8, 0
	.loc 1 1893 11
	lhu	a5,0(a0)
	.loc 1 1893 33
	lhu	a2,2(a0)
	.loc 1 1893 5
	bgtu	a5,a2,.L315
	.loc 1 1893 48 discriminator 1
	li	a3,5
	mv	a4,a0
	.loc 1 1905 9 discriminator 1
	li	a0,0
.LVL546:
	.loc 1 1893 48 discriminator 1
	bleu	a5,a3,.L314
	.loc 1 1894 30
	li	a3,4096
	addi	a5,a3,-896
	bgtu	a2,a5,.L314
	.loc 1 1898 2 is_stmt 1
	.loc 1 1898 11 is_stmt 0
	lhu	a5,4(a4)
	.loc 1 1898 5
	li	a1,499
	bgtu	a5,a1,.L314
	.loc 1 1902 2 is_stmt 1
	.loc 1 1902 11 is_stmt 0
	lhu	a4,6(a4)
.LVL547:
	.loc 1 1902 5
	addi	a3,a3,-906
	.loc 1 1902 26
	addi	a1,a4,-10
	.loc 1 1902 5
	slli	a1,a1,16
	srli	a1,a1,16
	bgtu	a1,a3,.L314
	.loc 1 1904 11 discriminator 1
	addi	a0,a5,1
	slli	a0,a0,16
	srli	a0,a0,16
	.loc 1 1904 29 discriminator 1
	mul	a0,a0,a2
	.loc 1 1903 23 discriminator 1
	slli	a4,a4,2
	.loc 1 1902 51 discriminator 1
	sgtu	a0,a4,a0
.L314:
	.loc 1 1909 1
	lw	s0,12(sp)
	.cfi_remember_state
	.cfi_restore 8
	.cfi_def_cfa 2, 16
	addi	sp,sp,16
	.cfi_def_cfa_offset 0
	jr	ra
.LVL548:
.L315:
	.cfi_restore_state
	.loc 1 1905 9
	li	a0,0
.LVL549:
	j	.L314
	.cfi_endproc
.LFE131:
	.size	bt_le_conn_params_valid, .-bt_le_conn_params_valid
	.section	.text.bt_unpair,"ax",@progbits
	.align	1
	.globl	bt_unpair
	.type	bt_unpair, @function
bt_unpair:
.LFB138:
	.loc 1 2120 1 is_stmt 1
	.cfi_startproc
.LVL550:
	.loc 1 2121 2
	.loc 1 2122 2
	.loc 1 2124 2
	.loc 1 2124 5 is_stmt 0
	bne	a0,zero,.L329
	.loc 1 2120 1
	addi	sp,sp,-48
	.cfi_def_cfa_offset 48
	sw	s0,40(sp)
	sw	s3,28(sp)
	sw	ra,44(sp)
	sw	s1,36(sp)
	sw	s2,32(sp)
	.cfi_offset 8, -8
	.cfi_offset 19, -20
	.cfi_offset 1, -4
	.cfi_offset 9, -12
	.cfi_offset 18, -16
	addi	s0,sp,48
	.cfi_def_cfa 8, 0
	mv	s3,a1
	.loc 1 2128 2 is_stmt 1
.LBB419:
	.loc 1 2128 5 is_stmt 0
	bne	a1,zero,.L323
.LVL551:
.L324:
	.loc 1 2129 3 is_stmt 1
.LBB420:
.LBB421:
	.loc 1 2106 2
	li	a0,0
	call	bt_conn_disconnect_all
.LVL552:
	.loc 1 2108 2
	.loc 1 2109 3
	li	a0,0
	call	bt_keys_clear_all
.LVL553:
	.loc 1 2112 2
	.loc 1 2116 2
.L341:
.LBE421:
.LBE420:
.LBE419:
	.loc 1 2169 1 is_stmt 0
	lw	ra,44(sp)
	.cfi_remember_state
	.cfi_restore 1
	lw	s0,40(sp)
	.cfi_restore 8
	.cfi_def_cfa 2, 48
	lw	s1,36(sp)
	.cfi_restore 9
	lw	s2,32(sp)
	.cfi_restore 18
	lw	s3,28(sp)
	.cfi_restore 19
.LVL554:
.LBB426:
.LBB427:
	.loc 1 2160 4
	li	a0,0
.LBE427:
.LBE426:
	.loc 1 2169 1
	addi	sp,sp,48
	.cfi_def_cfa_offset 0
	jr	ra
.LVL555:
.L323:
	.cfi_restore_state
.LBB429:
.LBB422:
.LBB423:
	.loc 3 49 9 discriminator 1
	li	a2,7
	addi	a1,s0,-40
.LVL556:
	mv	a0,s3
.LVL557:
.LBE423:
.LBE422:
	.loc 1 2128 54 discriminator 1
	sw	zero,-40(s0)
	sh	zero,-36(s0)
	sb	zero,-34(s0)
.LVL558:
.LBB425:
.LBB424:
	.loc 3 49 2 is_stmt 1 discriminator 1
	.loc 3 49 9 is_stmt 0 discriminator 1
	call	memcmp
.LVL559:
.LBE424:
.LBE425:
	.loc 1 2128 12 discriminator 1
	beq	a0,zero,.L324
.LVL560:
.LBE429:
.LBB430:
.LBB428:
	.loc 1 2132 2 is_stmt 1
	.loc 1 2132 9 is_stmt 0
	mv	a1,s3
	li	a0,0
	call	bt_conn_lookup_addr_le
.LVL561:
	mv	s1,a0
.LVL562:
	.loc 1 2133 2 is_stmt 1
	.loc 1 2133 5 is_stmt 0
	bne	a0,zero,.L325
.L328:
	.loc 1 2156 4 is_stmt 1
	.loc 1 2156 11 is_stmt 0
	mv	a1,s3
	li	a0,0
	call	bt_keys_find_addr
.LVL563:
	mv	s2,a0
.LVL564:
	.loc 1 2159 3 is_stmt 1
	.loc 1 2159 6 is_stmt 0
	beq	a0,zero,.L341
.LVL565:
.L326:
	.loc 1 2160 4 is_stmt 1
	mv	a0,s2
	call	bt_keys_clear
.LVL566:
	j	.L341
.LVL567:
.L325:
	.loc 1 2138 3
	.loc 1 2138 6 is_stmt 0
	lbu	a4,2(a0)
	li	a5,1
	.loc 1 2121 18
	li	s2,0
	.loc 1 2138 6
	bne	a4,a5,.L327
	.loc 1 2139 4 is_stmt 1
	.loc 1 2139 9 is_stmt 0
	lw	s2,156(a0)
.LVL568:
	.loc 1 2140 4 is_stmt 1
	.loc 1 2140 18 is_stmt 0
	sw	zero,156(a0)
.LVL569:
.L327:
	.loc 1 2143 3 is_stmt 1
	li	a1,19
	mv	a0,s1
	call	bt_conn_disconnect
.LVL570:
	.loc 1 2144 3
	mv	a0,s1
	call	bt_conn_unref
.LVL571:
	.loc 1 2147 2
	.loc 1 2154 2
	.loc 1 2155 3
	.loc 1 2155 6 is_stmt 0
	bne	s2,zero,.L326
	j	.L328
.LVL572:
.L329:
	.cfi_def_cfa_register 2
	.cfi_restore 1
	.cfi_restore 8
	.cfi_restore 9
	.cfi_restore 18
	.cfi_restore 19
.LBE428:
.LBE430:
	.loc 1 2125 10
	li	a0,-22
.LVL573:
	.loc 1 2169 1
	ret
	.cfi_endproc
.LFE138:
	.size	bt_unpair, .-bt_unpair
	.section	.rodata.bt_id_add.str1.4,"aMS",@progbits,1
	.align	2
.LC24:
	.string	"Failed to disable address resolution, %s\r\n"
	.align	2
.LC25:
	.string	"Resolving list size exceeded. Switching to host., %s\r\n"
	.align	2
.LC26:
	.string	"Failed to clear resolution list, %s\r\n"
	.align	2
.LC27:
	.string	"Failed to add IRK to controller, %s\r\n"
	.align	2
.LC28:
	.string	"Set privacy mode command is not supported, %s\r\n"
	.align	2
.LC29:
	.string	"Failed to set privacy mode, %s\r\n"
	.section	.text.bt_id_add,"ax",@progbits
	.align	1
	.globl	bt_id_add
	.type	bt_id_add, @function
bt_id_add:
.LFB144:
	.loc 1 3410 1 is_stmt 1
	.cfi_startproc
.LVL574:
	.loc 1 3411 1
	.loc 1 3413 1
	.loc 1 3415 2
	.loc 1 3416 2
	.loc 1 3418 2
	.loc 1 3421 2
	.loc 1 3410 1 is_stmt 0
	addi	sp,sp,-48
	.cfi_def_cfa_offset 48
	sw	s0,40(sp)
	sw	s1,36(sp)
	sw	ra,44(sp)
	sw	s2,32(sp)
	sw	s3,28(sp)
	sw	s4,24(sp)
	sw	s5,20(sp)
	.cfi_offset 8, -8
	.cfi_offset 9, -12
	.cfi_offset 1, -4
	.cfi_offset 18, -16
	.cfi_offset 19, -20
	.cfi_offset 20, -24
	.cfi_offset 21, -28
	.loc 1 3421 16
	lui	s1,%hi(.LANCHOR2)
	.loc 1 3410 1
	addi	s0,sp,48
	.cfi_def_cfa 8, 0
	.loc 1 3421 16
	addi	a5,s1,%lo(.LANCHOR2)
	.loc 1 3410 1
	.loc 1 3421 16
	lbu	a4,144(a5)
	addi	s1,s1,%lo(.LANCHOR2)
	.loc 1 3421 37
	lbu	a5,145(a5)
	.loc 1 3421 5
	beq	a4,zero,.L343
	.loc 1 3421 25 discriminator 1
	bgeu	a4,a5,.L344
.L343:
	.loc 1 3422 3 is_stmt 1
	.loc 1 3422 23 is_stmt 0
	addi	a5,a5,1
	sb	a5,145(s1)
	.loc 1 3423 3 is_stmt 1
.LVL575:
.L342:
	.loc 1 3507 1 is_stmt 0
	lw	ra,44(sp)
	.cfi_remember_state
	.cfi_restore 1
	lw	s0,40(sp)
	.cfi_restore 8
	.cfi_def_cfa 2, 48
	lw	s1,36(sp)
	.cfi_restore 9
	lw	s2,32(sp)
	.cfi_restore 18
	lw	s3,28(sp)
	.cfi_restore 19
	lw	s4,24(sp)
	.cfi_restore 20
	lw	s5,20(sp)
	.cfi_restore 21
	addi	sp,sp,48
	.cfi_def_cfa_offset 0
	jr	ra
.LVL576:
.L344:
	.cfi_restore_state
	mv	s2,a0
.LVL577:
.LBB437:
.LBB438:
	.loc 1 3426 2 is_stmt 1
	.loc 1 3426 9 is_stmt 0
	li	a1,3
	li	a0,0
.LVL578:
	call	bt_conn_lookup_state_le
.LVL579:
	mv	s3,a0
.LVL580:
	.loc 1 3427 2 is_stmt 1
	lui	a0,%hi(.LANCHOR2+108)
.LVL581:
	addi	s4,a0,%lo(.LANCHOR2+108)
	.loc 1 3427 5 is_stmt 0
	beq	s3,zero,.L346
	.loc 1 3428 3 is_stmt 1
.LVL582:
.LBB439:
.LBB440:
	.loc 2 409 2
	.loc 2 411 2
	li	a1,131072
	addi	a0,a0,%lo(.LANCHOR2+108)
	call	atomic_or
.LVL583:
.LBE440:
.LBE439:
	.loc 1 3429 3
	.loc 1 3429 15 is_stmt 0
	lbu	a5,9(s2)
	.loc 1 3430 3
	mv	a0,s3
	.loc 1 3429 15
	ori	a5,a5,4
	sb	a5,9(s2)
	.loc 1 3430 3 is_stmt 1
.LBE438:
.LBE437:
	.loc 1 3507 1 is_stmt 0
	lw	s0,40(sp)
	.cfi_remember_state
	.cfi_restore 8
	.cfi_def_cfa 2, 48
	lw	ra,44(sp)
	.cfi_restore 1
	lw	s1,36(sp)
	.cfi_restore 9
	lw	s2,32(sp)
	.cfi_restore 18
.LVL584:
	lw	s3,28(sp)
	.cfi_restore 19
.LVL585:
	lw	s4,24(sp)
	.cfi_restore 20
	lw	s5,20(sp)
	.cfi_restore 21
	addi	sp,sp,48
	.cfi_def_cfa_offset 0
.LBB450:
.LBB447:
	.loc 1 3430 3
	tail	bt_conn_unref
.LVL586:
.L346:
	.cfi_restore_state
	.loc 1 3434 2 is_stmt 1
	.loc 1 3434 16 is_stmt 0
	li	a1,6
	addi	a0,a0,%lo(.LANCHOR2+108)
	call	atomic_test_bit
.LVL587:
	mv	s3,a0
.LVL588:
	.loc 1 3435 2 is_stmt 1
	.loc 1 3435 5 is_stmt 0
	beq	a0,zero,.L347
	.loc 1 3436 3 is_stmt 1
	li	a0,0
.LVL589:
	call	set_advertise_enable
.LVL590:
.L347:
	.loc 1 3440 2
	.loc 1 3440 17 is_stmt 0
	mv	a0,s4
	li	a1,10
	call	atomic_test_bit
.LVL591:
	mv	s4,a0
.LVL592:
	.loc 1 3441 2 is_stmt 1
	.loc 1 3441 5 is_stmt 0
	beq	a0,zero,.L348
	.loc 1 3442 3 is_stmt 1
	li	a0,0
.LVL593:
	call	set_le_scan_enable
.LVL594:
.L348:
	.loc 1 3447 2
	.loc 1 3447 5 is_stmt 0
	lbu	a5,145(s1)
	beq	a5,zero,.L349
	.loc 1 3448 3 is_stmt 1
	.loc 1 3448 9 is_stmt 0
	li	a0,0
	call	addr_res_enable
.LVL595:
	.loc 1 3449 3 is_stmt 1
	.loc 1 3449 6 is_stmt 0
	beq	a0,zero,.L349
	.loc 1 3450 4 is_stmt 1
	lui	a1,%hi(.LANCHOR22)
	lui	a0,%hi(.LC24)
.LVL596:
	addi	a1,a1,%lo(.LANCHOR22)
	addi	a0,a0,%lo(.LC24)
.LVL597:
.L380:
.LBB441:
.LBB442:
	.loc 1 3335 3 is_stmt 0
	call	printf
.LVL598:
	.loc 1 3336 3 is_stmt 1
.LBE442:
.LBE441:
	.loc 1 3490 2
	j	.L350
.LVL599:
.L349:
	.loc 1 3455 2
	.loc 1 3455 5 is_stmt 0
	lbu	a4,145(s1)
	lbu	a5,144(s1)
	bne	a4,a5,.L351
	.loc 1 3456 3 is_stmt 1
	lui	s2,%hi(.LANCHOR22)
.LVL600:
	lui	a0,%hi(.LC25)
	addi	a1,s2,%lo(.LANCHOR22)
	addi	a0,a0,%lo(.LC25)
	call	printf
.LVL601:
	.loc 1 3458 3
	.loc 1 3458 9 is_stmt 0
	li	a0,8192
	li	a2,0
	li	a1,0
	addi	a0,a0,41
	call	bt_hci_cmd_send_sync
.LVL602:
	.loc 1 3459 3 is_stmt 1
	.loc 1 3459 6 is_stmt 0
	beq	a0,zero,.L352
	.loc 1 3460 4 is_stmt 1
	lui	a0,%hi(.LC26)
.LVL603:
	addi	a1,s2,%lo(.LANCHOR22)
	addi	a0,a0,%lo(.LC26)
	j	.L380
.LVL604:
.L352:
	.loc 1 3464 3
	.loc 1 3464 23 is_stmt 0
	lbu	a5,145(s1)
	addi	a5,a5,1
	sb	a5,145(s1)
	.loc 1 3466 3 is_stmt 1
.LVL605:
.L350:
	.loc 1 3496 2
	li	a0,1
	call	addr_res_enable
.LVL606:
	.loc 1 3499 2
	.loc 1 3499 5 is_stmt 0
	beq	s4,zero,.L357
	.loc 1 3500 3 is_stmt 1
	li	a0,1
	call	set_le_scan_enable
.LVL607:
.L357:
	.loc 1 3504 2
	.loc 1 3504 5 is_stmt 0
	beq	s3,zero,.L342
	.loc 1 3505 3 is_stmt 1
.LBE447:
.LBE450:
	.loc 1 3507 1 is_stmt 0
	lw	s0,40(sp)
	.cfi_remember_state
	.cfi_restore 8
	.cfi_def_cfa 2, 48
	lw	ra,44(sp)
	.cfi_restore 1
	lw	s1,36(sp)
	.cfi_restore 9
	lw	s2,32(sp)
	.cfi_restore 18
	lw	s3,28(sp)
	.cfi_restore 19
.LVL608:
	lw	s4,24(sp)
	.cfi_restore 20
.LVL609:
	lw	s5,20(sp)
	.cfi_restore 21
.LBB451:
.LBB448:
	.loc 1 3505 3
	li	a0,1
.LBE448:
.LBE451:
	.loc 1 3507 1
	addi	sp,sp,48
	.cfi_def_cfa_offset 0
.LBB452:
.LBB449:
	.loc 1 3505 3
	tail	set_advertise_enable
.LVL610:
.L351:
	.cfi_restore_state
	.loc 1 3469 2 is_stmt 1
	.loc 1 3469 19 is_stmt 0
	addi	s5,s2,1
	.loc 1 3469 8
	addi	a1,s2,38
	mv	a0,s5
	call	hci_id_add
.LVL611:
	.loc 1 3470 2 is_stmt 1
	.loc 1 3470 5 is_stmt 0
	beq	a0,zero,.L353
	.loc 1 3471 3 is_stmt 1
	lui	a1,%hi(.LANCHOR22)
	lui	a0,%hi(.LC27)
.LVL612:
	addi	a1,a1,%lo(.LANCHOR22)
	addi	a0,a0,%lo(.LC27)
	j	.L380
.LVL613:
.L353:
	.loc 1 3475 2
	.loc 1 3475 22 is_stmt 0
	lbu	a5,145(s1)
	addi	a5,a5,1
	sb	a5,145(s1)
	.loc 1 3489 2 is_stmt 1
.LVL614:
.LBB445:
.LBB443:
	.loc 1 3329 2
	.loc 1 3330 2
	.loc 1 3331 2
	.loc 1 3334 2
	.loc 1 3334 5 is_stmt 0
	lbu	a5,71(s1)
	andi	a5,a5,4
	bne	a5,zero,.L354
	.loc 1 3335 3 is_stmt 1
	lui	a1,%hi(.LANCHOR23)
	lui	a0,%hi(.LC28)
.LVL615:
	addi	a1,a1,%lo(.LANCHOR23)
	addi	a0,a0,%lo(.LC28)
	j	.L380
.LVL616:
.L354:
	.loc 1 3339 2
	.loc 1 3341 2
	mv	a1,s5
	addi	a0,s0,-40
.LVL617:
	call	bt_addr_le_copy
.LVL618:
	.loc 1 3342 2
	.loc 1 3344 8 is_stmt 0
	li	s2,8192
.LVL619:
	.loc 1 3342 10
	li	a5,1
	.loc 1 3344 8
	li	a1,8
	addi	a0,s2,78
	.loc 1 3342 10
	sb	a5,-33(s0)
	.loc 1 3344 2 is_stmt 1
	.loc 1 3344 8 is_stmt 0
	call	bt_hci_cmd_create
.LVL620:
	mv	s1,a0
.LVL621:
	.loc 1 3345 2 is_stmt 1
	.loc 1 3345 5 is_stmt 0
	bne	a0,zero,.L355
.L356:
.LVL622:
.LBE443:
.LBE445:
	.loc 1 3490 2 is_stmt 1
	.loc 1 3491 3
	lui	a1,%hi(.LANCHOR22)
	lui	a0,%hi(.LC29)
	addi	a1,a1,%lo(.LANCHOR22)
	addi	a0,a0,%lo(.LC29)
	j	.L380
.LVL623:
.L355:
.LBB446:
.LBB444:
	.loc 1 3349 2
	li	a2,8
	addi	a1,s0,-40
	addi	a0,a0,8
	call	net_buf_simple_add_mem
.LVL624:
	.loc 1 3351 2
	.loc 1 3351 8 is_stmt 0
	li	a2,0
	mv	a1,s1
	addi	a0,s2,78
	call	bt_hci_cmd_send_sync
.LVL625:
	.loc 1 3352 2 is_stmt 1
	.loc 1 3352 5 is_stmt 0
	beq	a0,zero,.L350
	j	.L356
.LBE444:
.LBE446:
.LBE449:
.LBE452:
	.cfi_endproc
.LFE144:
	.size	bt_id_add, .-bt_id_add
	.section	.rodata.bt_id_del.str1.4,"aMS",@progbits,1
	.align	2
.LC30:
	.string	"Disabling address resolution failed (err %d), %s\r\n"
	.align	2
.LC31:
	.string	"Failed to remove IRK from controller, %s\r\n"
	.section	.text.bt_id_del,"ax",@progbits
	.align	1
	.globl	bt_id_del
	.type	bt_id_del, @function
bt_id_del:
.LFB146:
	.loc 1 3515 1 is_stmt 1
	.cfi_startproc
.LVL626:
	.loc 1 3516 2
	.loc 1 3517 1
	.loc 1 3519 1
	.loc 1 3521 2
	.loc 1 3522 2
	.loc 1 3523 2
	.loc 1 3525 2
	.loc 1 3527 2
	.loc 1 3515 1 is_stmt 0
	addi	sp,sp,-32
	.cfi_def_cfa_offset 32
	sw	s0,24(sp)
	sw	s1,20(sp)
	sw	ra,28(sp)
	sw	s2,16(sp)
	sw	s3,12(sp)
	sw	s4,8(sp)
	sw	s5,4(sp)
	sw	s6,0(sp)
	.cfi_offset 8, -8
	.cfi_offset 9, -12
	.cfi_offset 1, -4
	.cfi_offset 18, -16
	.cfi_offset 19, -20
	.cfi_offset 20, -24
	.cfi_offset 21, -28
	.cfi_offset 22, -32
	.loc 1 3527 16
	lui	s1,%hi(.LANCHOR2)
	.loc 1 3515 1
	addi	s0,sp,32
	.cfi_def_cfa 8, 0
	.loc 1 3527 16
	addi	a5,s1,%lo(.LANCHOR2)
	.loc 1 3515 1
	.loc 1 3527 16
	lbu	a4,144(a5)
	addi	s1,s1,%lo(.LANCHOR2)
	.loc 1 3528 15
	lbu	a5,145(a5)
	.loc 1 3527 5
	beq	a4,zero,.L382
	.loc 1 3528 47 discriminator 1
	addi	a4,a4,1
	.loc 1 3527 25 discriminator 1
	ble	a5,a4,.L383
.L382:
	.loc 1 3529 3 is_stmt 1
	.loc 1 3529 23 is_stmt 0
	addi	a5,a5,-1
	sb	a5,145(s1)
	.loc 1 3530 3 is_stmt 1
.LVL627:
.L381:
	.loc 1 3598 1 is_stmt 0
	lw	ra,28(sp)
	.cfi_remember_state
	.cfi_restore 1
	lw	s0,24(sp)
	.cfi_restore 8
	.cfi_def_cfa 2, 32
	lw	s1,20(sp)
	.cfi_restore 9
	lw	s2,16(sp)
	.cfi_restore 18
	lw	s3,12(sp)
	.cfi_restore 19
	lw	s4,8(sp)
	.cfi_restore 20
	lw	s5,4(sp)
	.cfi_restore 21
	lw	s6,0(sp)
	.cfi_restore 22
	addi	sp,sp,32
	.cfi_def_cfa_offset 0
	jr	ra
.LVL628:
.L383:
	.cfi_restore_state
	mv	s2,a0
.LVL629:
.LBB457:
.LBB458:
	.loc 1 3533 2 is_stmt 1
	.loc 1 3533 9 is_stmt 0
	li	a1,3
	li	a0,0
.LVL630:
	call	bt_conn_lookup_state_le
.LVL631:
	mv	s3,a0
.LVL632:
	.loc 1 3534 2 is_stmt 1
	lui	a0,%hi(.LANCHOR2+108)
.LVL633:
	addi	s5,a0,%lo(.LANCHOR2+108)
	.loc 1 3534 5 is_stmt 0
	beq	s3,zero,.L385
	.loc 1 3535 3 is_stmt 1
.LVL634:
.LBB459:
.LBB460:
	.loc 2 409 2
	.loc 2 411 2
	li	a1,131072
	addi	a0,a0,%lo(.LANCHOR2+108)
	call	atomic_or
.LVL635:
.LBE460:
.LBE459:
	.loc 1 3536 3
	.loc 1 3536 15 is_stmt 0
	lbu	a5,9(s2)
	.loc 1 3537 3
	mv	a0,s3
	.loc 1 3536 15
	ori	a5,a5,8
	sb	a5,9(s2)
	.loc 1 3537 3 is_stmt 1
.LBE458:
.LBE457:
	.loc 1 3598 1 is_stmt 0
	lw	s0,24(sp)
	.cfi_remember_state
	.cfi_restore 8
	.cfi_def_cfa 2, 32
	lw	ra,28(sp)
	.cfi_restore 1
	lw	s1,20(sp)
	.cfi_restore 9
	lw	s2,16(sp)
	.cfi_restore 18
.LVL636:
	lw	s3,12(sp)
	.cfi_restore 19
.LVL637:
	lw	s4,8(sp)
	.cfi_restore 20
	lw	s5,4(sp)
	.cfi_restore 21
	lw	s6,0(sp)
	.cfi_restore 22
	addi	sp,sp,32
	.cfi_def_cfa_offset 0
.LBB464:
.LBB461:
	.loc 1 3537 3
	tail	bt_conn_unref
.LVL638:
.L385:
	.cfi_restore_state
	.loc 1 3541 2 is_stmt 1
	.loc 1 3541 16 is_stmt 0
	li	a1,6
	addi	a0,a0,%lo(.LANCHOR2+108)
	call	atomic_test_bit
.LVL639:
	mv	s4,a0
.LVL640:
	.loc 1 3542 2 is_stmt 1
	.loc 1 3542 5 is_stmt 0
	beq	a0,zero,.L386
	.loc 1 3543 3 is_stmt 1
	li	a0,0
.LVL641:
	call	set_advertise_enable
.LVL642:
.L386:
	.loc 1 3547 2
	.loc 1 3547 17 is_stmt 0
	mv	a0,s5
	li	a1,10
	call	atomic_test_bit
.LVL643:
	mv	s5,a0
.LVL644:
	.loc 1 3548 2 is_stmt 1
	.loc 1 3548 5 is_stmt 0
	beq	a0,zero,.L387
	.loc 1 3549 3 is_stmt 1
	li	a0,0
.LVL645:
	call	set_le_scan_enable
.LVL646:
.L387:
	.loc 1 3553 2
	.loc 1 3553 8 is_stmt 0
	li	a0,0
	call	addr_res_enable
.LVL647:
	mv	a1,a0
.LVL648:
	.loc 1 3554 2 is_stmt 1
	.loc 1 3554 5 is_stmt 0
	beq	a0,zero,.L388
	.loc 1 3555 3 is_stmt 1
	lui	a2,%hi(.LANCHOR24)
	lui	a0,%hi(.LC30)
.LVL649:
	addi	a2,a2,%lo(.LANCHOR24)
	addi	a0,a0,%lo(.LC30)
	call	printf
.LVL650:
	.loc 1 3556 3
.L389:
	.loc 1 3585 2
	.loc 1 3585 5 is_stmt 0
	lbu	a5,145(s1)
	beq	a5,zero,.L392
	.loc 1 3586 3 is_stmt 1
	li	a0,1
	call	addr_res_enable
.LVL651:
.L392:
	.loc 1 3590 2
	.loc 1 3590 5 is_stmt 0
	beq	s5,zero,.L393
	.loc 1 3591 3 is_stmt 1
	li	a0,1
	call	set_le_scan_enable
.LVL652:
.L393:
	.loc 1 3595 2
	.loc 1 3595 5 is_stmt 0
	beq	s4,zero,.L381
	.loc 1 3596 3 is_stmt 1
.LBE461:
.LBE464:
	.loc 1 3598 1 is_stmt 0
	lw	s0,24(sp)
	.cfi_remember_state
	.cfi_restore 8
	.cfi_def_cfa 2, 32
	lw	ra,28(sp)
	.cfi_restore 1
	lw	s1,20(sp)
	.cfi_restore 9
	lw	s2,16(sp)
	.cfi_restore 18
.LVL653:
	lw	s3,12(sp)
	.cfi_restore 19
	lw	s4,8(sp)
	.cfi_restore 20
.LVL654:
	lw	s5,4(sp)
	.cfi_restore 21
.LVL655:
	lw	s6,0(sp)
	.cfi_restore 22
.LBB465:
.LBB462:
	.loc 1 3596 3
	li	a0,1
.LBE462:
.LBE465:
	.loc 1 3598 1
	addi	sp,sp,32
	.cfi_def_cfa_offset 0
.LBB466:
.LBB463:
	.loc 1 3596 3
	tail	set_advertise_enable
.LVL656:
.L388:
	.cfi_restore_state
	.loc 1 3560 2 is_stmt 1
	.loc 1 3560 15 is_stmt 0
	lbu	a5,145(s1)
	.loc 1 3560 5
	lbu	a4,144(s1)
	bgeu	a4,a5,.L390
	.loc 1 3561 3 is_stmt 1
	.loc 1 3561 23 is_stmt 0
	addi	a5,a5,-1
	sb	a5,145(s1)
	.loc 1 3562 3 is_stmt 1
	.loc 1 3562 14 is_stmt 0
	lhu	a5,10(s2)
	.loc 1 3563 3
	lui	a1,%hi(keys_add_id)
	li	a2,0
	.loc 1 3562 14
	andi	a5,a5,-3
	sh	a5,10(s2)
	.loc 1 3563 3 is_stmt 1
	addi	a1,a1,%lo(keys_add_id)
	li	a0,2
.LVL657:
	call	bt_keys_foreach
.LVL658:
	.loc 1 3564 3
	j	.L389
.LVL659:
.L390:
	.loc 1 3567 2
	.loc 1 3567 8 is_stmt 0
	li	s6,8192
	li	a1,7
	addi	a0,s6,40
.LVL660:
	call	bt_hci_cmd_create
.LVL661:
	mv	s3,a0
.LVL662:
	.loc 1 3568 2 is_stmt 1
	.loc 1 3568 5 is_stmt 0
	beq	a0,zero,.L389
	.loc 1 3572 2 is_stmt 1
	.loc 1 3572 7 is_stmt 0
	li	a1,7
	addi	a0,a0,8
.LVL663:
	call	net_buf_simple_add
.LVL664:
	.loc 1 3573 2 is_stmt 1
	addi	a1,s2,1
	call	bt_addr_le_copy
.LVL665:
	.loc 1 3575 2
	.loc 1 3575 8 is_stmt 0
	li	a2,0
	mv	a1,s3
	addi	a0,s6,40
	call	bt_hci_cmd_send_sync
.LVL666:
	.loc 1 3576 2 is_stmt 1
	.loc 1 3576 5 is_stmt 0
	beq	a0,zero,.L391
	.loc 1 3577 3 is_stmt 1
	lui	a1,%hi(.LANCHOR24)
	lui	a0,%hi(.LC31)
.LVL667:
	addi	a1,a1,%lo(.LANCHOR24)
	addi	a0,a0,%lo(.LC31)
	call	printf
.LVL668:
	.loc 1 3578 3
	j	.L389
.LVL669:
.L391:
	.loc 1 3581 2
	.loc 1 3581 22 is_stmt 0
	lbu	a5,145(s1)
	addi	a5,a5,-1
	sb	a5,145(s1)
	j	.L389
.LBE463:
.LBE466:
	.cfi_endproc
.LFE146:
	.size	bt_id_del, .-bt_id_del
	.section	.text.update_pending_id,"ax",@progbits
	.align	1
	.type	update_pending_id, @function
update_pending_id:
.LFB124:
	.loc 1 1442 1 is_stmt 1
	.cfi_startproc
.LVL670:
	.loc 1 1443 2
	.loc 1 1442 1 is_stmt 0
	addi	sp,sp,-16
	.cfi_def_cfa_offset 16
	sw	s0,12(sp)
	.cfi_offset 8, -4
	addi	s0,sp,16
	.cfi_def_cfa 8, 0
	.loc 1 1443 10
	lbu	a5,9(a0)
	.loc 1 1443 5
	andi	a3,a5,4
	beq	a3,zero,.L417
	.loc 1 1444 3 is_stmt 1
	.loc 1 1454 1 is_stmt 0
	lw	s0,12(sp)
	.cfi_remember_state
	.cfi_restore 8
	.cfi_def_cfa 2, 16
	.loc 1 1444 15
	andi	a5,a5,-5
	sb	a5,9(a0)
	.loc 1 1445 3 is_stmt 1
	.loc 1 1454 1 is_stmt 0
	addi	sp,sp,16
	.cfi_def_cfa_offset 0
	.loc 1 1445 3
	tail	bt_id_add
.LVL671:
.L417:
	.cfi_restore_state
	.loc 1 1449 2 is_stmt 1
	.loc 1 1449 5 is_stmt 0
	andi	a3,a5,8
	beq	a3,zero,.L416
	.loc 1 1450 3 is_stmt 1
	.loc 1 1454 1 is_stmt 0
	lw	s0,12(sp)
	.cfi_remember_state
	.cfi_restore 8
	.cfi_def_cfa 2, 16
	.loc 1 1450 15
	andi	a5,a5,-9
	sb	a5,9(a0)
	.loc 1 1451 3 is_stmt 1
	.loc 1 1454 1 is_stmt 0
	addi	sp,sp,16
	.cfi_def_cfa_offset 0
	.loc 1 1451 3
	tail	bt_id_del
.LVL672:
.L416:
	.cfi_restore_state
	.loc 1 1454 1
	lw	s0,12(sp)
	.cfi_restore 8
	.cfi_def_cfa 2, 16
	addi	sp,sp,16
	.cfi_def_cfa_offset 0
	jr	ra
	.cfi_endproc
.LFE124:
	.size	update_pending_id, .-update_pending_id
	.section	.text.bt_le_scan_update,"ax",@progbits
	.align	1
	.globl	bt_le_scan_update
	.type	bt_le_scan_update, @function
bt_le_scan_update:
.LFB160:
	.loc 1 4111 1 is_stmt 1
	.cfi_startproc
.LVL673:
	.loc 1 4112 2
	.loc 1 4111 1 is_stmt 0
	addi	sp,sp,-32
	.cfi_def_cfa_offset 32
	sw	s0,24(sp)
	sw	s3,12(sp)
	sw	ra,28(sp)
	sw	s1,20(sp)
	sw	s2,16(sp)
	.cfi_offset 8, -8
	.cfi_offset 19, -20
	.cfi_offset 1, -4
	.cfi_offset 9, -12
	.cfi_offset 18, -16
	addi	s0,sp,32
	.cfi_def_cfa 8, 0
	mv	s3,a0
	.loc 1 4112 6
	lui	a0,%hi(.LANCHOR2+108)
.LVL674:
	.loc 1 4111 1
	.loc 1 4112 6
	li	a1,11
	addi	a0,a0,%lo(.LANCHOR2+108)
	call	atomic_test_bit
.LVL675:
	.loc 1 4112 5
	beq	a0,zero,.L421
.L435:
.LBB474:
.LBB475:
	.loc 1 4133 4 is_stmt 1
	.loc 1 4133 11 is_stmt 0
	li	a0,0
	j	.L420
.L421:
	lui	s2,%hi(.LANCHOR2+108)
	addi	s2,s2,%lo(.LANCHOR2+108)
.LBE475:
.LBE474:
	.loc 1 4116 2 is_stmt 1
	.loc 1 4116 6 is_stmt 0
	li	a1,10
	mv	a0,s2
	call	atomic_test_bit
.LVL676:
	.loc 1 4116 5
	bne	a0,zero,.L423
.L426:
.LVL677:
	.loc 1 4125 2 is_stmt 1
.LBB482:
.LBB478:
	.loc 1 4126 3
	.loc 1 4127 3
	.loc 1 4130 3
	.loc 1 4130 10 is_stmt 0
	li	a1,3
	li	a0,0
	call	bt_conn_lookup_state_le
.LVL678:
	.loc 1 4131 3 is_stmt 1
	.loc 1 4131 6 is_stmt 0
	bne	a0,zero,.L424
	.loc 1 4136 3 is_stmt 1
	.loc 1 4136 10 is_stmt 0
	li	a1,1
	call	bt_conn_lookup_state_le
.LVL679:
	mv	s1,a0
.LVL680:
	.loc 1 4137 3 is_stmt 1
	.loc 1 4137 6 is_stmt 0
	beq	a0,zero,.L435
	.loc 1 4142 3 is_stmt 1
.LVL681:
.LBB476:
.LBB477:
	.loc 2 391 2
	.loc 2 393 2
	li	a1,-8192
	addi	a1,a1,-1
	mv	a0,s2
	call	atomic_and
.LVL682:
.LBE477:
.LBE476:
	.loc 1 4144 3
	mv	a0,s1
	call	bt_conn_unref
.LVL683:
	.loc 1 4146 3
	.loc 1 4146 6 is_stmt 0
	bne	s3,zero,.L429
	.loc 1 4150 13
	li	a1,4096
	.loc 1 4151 11
	li	a2,18
	.loc 1 4150 13
	addi	a1,a1,-2048
.L428:
.LVL684:
	.loc 1 4154 3 is_stmt 1
.LBE478:
.LBE482:
	.loc 1 4158 1 is_stmt 0
	lw	s0,24(sp)
	.cfi_remember_state
	.cfi_restore 8
	.cfi_def_cfa 2, 32
	lw	ra,28(sp)
	.cfi_restore 1
	lw	s1,20(sp)
	.cfi_restore 9
.LVL685:
	lw	s2,16(sp)
	.cfi_restore 18
	lw	s3,12(sp)
	.cfi_restore 19
.LVL686:
.LBB483:
.LBB479:
	.loc 1 4154 10
	li	a0,0
.LBE479:
.LBE483:
	.loc 1 4158 1
	addi	sp,sp,32
	.cfi_def_cfa_offset 0
.LBB484:
.LBB480:
	.loc 1 4154 10
	tail	start_le_scan
.LVL687:
.L423:
	.cfi_restore_state
.LBE480:
.LBE484:
.LBB485:
	.loc 1 4117 3 is_stmt 1
	.loc 1 4119 3
	.loc 1 4119 9 is_stmt 0
	li	a0,0
	call	set_le_scan_enable
.LVL688:
	.loc 1 4120 3 is_stmt 1
	.loc 1 4120 6 is_stmt 0
	beq	a0,zero,.L426
.LVL689:
.L420:
.LBE485:
	.loc 1 4158 1
	lw	ra,28(sp)
	.cfi_remember_state
	.cfi_restore 1
	lw	s0,24(sp)
	.cfi_restore 8
	.cfi_def_cfa 2, 32
	lw	s1,20(sp)
	.cfi_restore 9
	lw	s2,16(sp)
	.cfi_restore 18
	lw	s3,12(sp)
	.cfi_restore 19
	addi	sp,sp,32
	.cfi_def_cfa_offset 0
	jr	ra
.LVL690:
.L424:
	.cfi_restore_state
.LBB486:
.LBB481:
	.loc 1 4132 4 is_stmt 1
	call	bt_conn_unref
.LVL691:
	j	.L435
.LVL692:
.L429:
	.loc 1 4148 11 is_stmt 0
	li	a2,48
	.loc 1 4147 13
	li	a1,96
	j	.L428
.LBE481:
.LBE486:
	.cfi_endproc
.LFE160:
	.size	bt_le_scan_update, .-bt_le_scan_update
	.section	.rodata.le_adv_report.str1.4,"aMS",@progbits,1
	.align	2
.LC32:
	.string	"Unexpected end of buffer, %s\r\n"
	.section	.text.le_adv_report,"ax",@progbits
	.align	1
	.type	le_adv_report, @function
le_adv_report:
.LFB162:
	.loc 1 4192 1 is_stmt 1
	.cfi_startproc
.LVL693:
	.loc 1 4193 2
	.loc 1 4192 1 is_stmt 0
	addi	sp,sp,-96
	.cfi_def_cfa_offset 96
	sw	s0,88(sp)
	sw	s3,76(sp)
	sw	s4,72(sp)
	sw	s5,68(sp)
	sw	s6,64(sp)
	sw	s7,60(sp)
	sw	s10,48(sp)
	sw	ra,92(sp)
	sw	s1,84(sp)
	sw	s2,80(sp)
	sw	s8,56(sp)
	sw	s9,52(sp)
	sw	s11,44(sp)
	.cfi_offset 8, -8
	.cfi_offset 19, -20
	.cfi_offset 20, -24
	.cfi_offset 21, -28
	.cfi_offset 22, -32
	.cfi_offset 23, -36
	.cfi_offset 26, -48
	.cfi_offset 1, -4
	.cfi_offset 9, -12
	.cfi_offset 18, -16
	.cfi_offset 24, -40
	.cfi_offset 25, -44
	.cfi_offset 27, -52
	addi	s0,sp,96
	.cfi_def_cfa 8, 0
	.loc 1 4193 21
	addi	s6,a0,8
	.loc 1 4192 1
	.loc 1 4192 1
	mv	s3,a0
	lui	s4,%hi(.LANCHOR2)
	.loc 1 4193 21
	mv	a0,s6
.LVL694:
	call	net_buf_simple_pull_u8
.LVL695:
	addi	s4,s4,%lo(.LANCHOR2)
.LBB498:
.LBB499:
.LBB500:
.LBB501:
	.loc 5 536 25
	li	s7,65536
.LBE501:
.LBE500:
.LBE499:
.LBE498:
	.loc 1 4193 21
	mv	s5,a0
.LVL696:
	.loc 1 4194 2 is_stmt 1
	.loc 1 4196 2
	.loc 1 4198 2
.LBB526:
.LBB512:
.LBB504:
.LBB502:
	.loc 5 536 25 is_stmt 0
	addi	s7,s7,-1
.LBE502:
.LBE504:
.LBE512:
.LBB513:
.LBB514:
	.loc 1 2028 6
	addi	s10,s4,108
.LVL697:
.L437:
.LBE514:
.LBE513:
.LBE526:
	.loc 1 4198 8 is_stmt 1
	bne	s5,zero,.L452
	.loc 1 4242 1 is_stmt 0
	lw	ra,92(sp)
	.cfi_remember_state
	.cfi_restore 1
	lw	s0,88(sp)
	.cfi_restore 8
	.cfi_def_cfa 2, 96
	lw	s1,84(sp)
	.cfi_restore 9
	lw	s2,80(sp)
	.cfi_restore 18
	lw	s3,76(sp)
	.cfi_restore 19
.LVL698:
	lw	s4,72(sp)
	.cfi_restore 20
	lw	s5,68(sp)
	.cfi_restore 21
.LVL699:
	lw	s6,64(sp)
	.cfi_restore 22
.LVL700:
	lw	s7,60(sp)
	.cfi_restore 23
	lw	s8,56(sp)
	.cfi_restore 24
	lw	s9,52(sp)
	.cfi_restore 25
	lw	s10,48(sp)
	.cfi_restore 26
	lw	s11,44(sp)
	.cfi_restore 27
	addi	sp,sp,96
	.cfi_def_cfa_offset 0
	jr	ra
.LVL701:
.L452:
	.cfi_restore_state
.LBB527:
	.loc 1 4199 3 is_stmt 1
	.loc 1 4200 3
	.loc 1 4202 3
	.loc 1 4202 6 is_stmt 0
	lhu	a5,12(s3)
	li	a4,8
	bgtu	a5,a4,.L438
	.loc 1 4203 4 is_stmt 1
.LBE527:
	.loc 1 4242 1 is_stmt 0
	lw	s0,88(sp)
	.cfi_remember_state
	.cfi_restore 8
	.cfi_def_cfa 2, 96
	lw	ra,92(sp)
	.cfi_restore 1
	lw	s1,84(sp)
	.cfi_restore 9
	lw	s2,80(sp)
	.cfi_restore 18
	lw	s3,76(sp)
	.cfi_restore 19
.LVL702:
	lw	s4,72(sp)
	.cfi_restore 20
	lw	s5,68(sp)
	.cfi_restore 21
.LVL703:
	lw	s6,64(sp)
	.cfi_restore 22
.LVL704:
	lw	s7,60(sp)
	.cfi_restore 23
	lw	s8,56(sp)
	.cfi_restore 24
	lw	s9,52(sp)
	.cfi_restore 25
	lw	s10,48(sp)
	.cfi_restore 26
	lw	s11,44(sp)
	.cfi_restore 27
.LBB528:
	.loc 1 4203 4
	lui	a1,%hi(.LANCHOR25)
	lui	a0,%hi(.LC32)
.LBE528:
	.loc 1 4242 1
.LBB529:
	.loc 1 4203 4
	addi	a1,a1,%lo(.LANCHOR25)
	addi	a0,a0,%lo(.LC32)
.LBE529:
	.loc 1 4242 1
	addi	sp,sp,96
	.cfi_def_cfa_offset 0
.LBB530:
	.loc 1 4203 4
	tail	printf
.LVL705:
.L438:
	.cfi_restore_state
	.loc 1 4207 3 is_stmt 1
	.loc 1 4207 10 is_stmt 0
	li	a1,9
	mv	a0,s6
	call	net_buf_simple_pull_mem
.LVL706:
	.loc 1 4208 25
	lbu	a5,8(a0)
	addi	s9,a0,1
	.loc 1 4214 6
	li	a4,1
	.loc 1 4208 20
	add	a5,a0,a5
	lbu	s1,9(a5)
	.loc 1 4214 31
	lbu	a5,1(a0)
	.loc 1 4207 10
	mv	s2,a0
.LVL707:
	.loc 1 4208 3 is_stmt 1
	.loc 1 4212 45
	.loc 1 4214 3
	.loc 1 4216 4 is_stmt 0
	mv	a1,s9
	.loc 1 4214 31
	addi	a5,a5,-2
	.loc 1 4214 6
	andi	a5,a5,0xff
	bgtu	a5,a4,.L439
	.loc 1 4216 4 is_stmt 1
	addi	a0,s0,-72
.LVL708:
	call	bt_addr_le_copy
.LVL709:
	.loc 1 4217 4
	.loc 1 4217 17 is_stmt 0
	lbu	a5,-72(s0)
	addi	a5,a5,-2
	sb	a5,-72(s0)
.L440:
	.loc 1 4224 3 is_stmt 1
	.loc 1 4224 7 is_stmt 0
	lui	a5,%hi(.LANCHOR9)
	addi	a5,a5,%lo(.LANCHOR9)
	.loc 1 4224 6
	lw	a4,0(a5)
	beq	a4,zero,.L441
.LBB522:
	.loc 1 4225 4 is_stmt 1
	.loc 1 4227 4
.LVL710:
.LBB505:
.LBB506:
	.loc 5 520 2
	.loc 5 520 18 is_stmt 0
	mv	a0,s6
	call	net_buf_simple_headroom
.LVL711:
.LBE506:
.LBE505:
	.loc 1 4229 19
	lbu	a3,8(s2)
	.loc 1 4230 4
	lui	a5,%hi(.LANCHOR9)
.LBB509:
.LBB507:
	.loc 5 521 18
	lhu	s11,12(s3)
.LBE507:
.LBE509:
	.loc 1 4230 4
	addi	a5,a5,%lo(.LANCHOR9)
	.loc 1 4229 19
	sh	a3,12(s3)
	.loc 1 4230 4
	lw	a5,0(a5)
	lbu	a2,0(s2)
	slli	a1,s1,24
.LBB510:
.LBB508:
	.loc 5 520 18
	mv	s8,a0
	.loc 5 521 2 is_stmt 1
.LVL712:
.LBE508:
.LBE510:
	.loc 1 4229 4
	.loc 1 4230 4
	mv	a3,s6
	addi	a0,s0,-72
	srai	a1,a1,24
	jalr	a5
.LVL713:
	.loc 1 4233 4
.LBB511:
.LBB503:
	.loc 5 536 2
	.loc 5 536 25 is_stmt 0
	lw	a0,16(s3)
	and	s8,s8,s7
	.loc 5 537 11
	sh	s11,12(s3)
	.loc 5 536 25
	add	s8,a0,s8
	.loc 5 536 12
	sw	s8,8(s3)
	.loc 5 537 2 is_stmt 1
.LVL714:
.L441:
.LBE503:
.LBE511:
.LBE522:
	.loc 1 4237 3 discriminator 1
.LBB523:
.LBB519:
	.loc 1 2028 6 is_stmt 0 discriminator 1
	li	a1,11
	mv	a0,s10
.LBE519:
.LBE523:
	.loc 1 4237 3 discriminator 1
	lbu	s1,0(s2)
.LVL715:
.LBB524:
.LBB520:
	.loc 1 2025 2 is_stmt 1 discriminator 1
	.loc 1 2028 2 discriminator 1
	.loc 1 2028 6 is_stmt 0 discriminator 1
	call	atomic_test_bit
.LVL716:
	.loc 1 2028 5 discriminator 1
	bne	a0,zero,.L443
	.loc 1 2033 2 is_stmt 1
	.loc 1 2033 5 is_stmt 0
	li	a5,1
	bgtu	s1,a5,.L443
	.loc 1 2037 2 is_stmt 1
	.loc 1 2037 9 is_stmt 0
	li	a1,1
	addi	a0,s0,-72
.LVL717:
	call	bt_conn_lookup_state_le
.LVL718:
	mv	s1,a0
.LVL719:
	.loc 1 2038 2 is_stmt 1
	.loc 1 2038 5 is_stmt 0
	beq	a0,zero,.L443
	.loc 1 2042 2 is_stmt 1
	.loc 1 2042 6 is_stmt 0
	li	a1,10
	mv	a0,s10
	call	atomic_test_bit
.LVL720:
	.loc 1 2042 5
	bne	a0,zero,.L445
.L449:
	.loc 1 2047 2 is_stmt 1
	addi	s8,s1,126
	mv	a1,s9
	mv	a0,s8
	call	bt_addr_le_copy
.LVL721:
	.loc 1 2048 2
.LBB515:
.LBB516:
	.loc 1 1100 2
	.loc 1 1101 2
	.loc 1 1102 2
	.loc 1 1103 2
	.loc 1 1104 2
	.loc 1 1115 2
.LBB517:
	.loc 1 1140 3
	.loc 1 1140 54 is_stmt 0
	lbu	s9,8(s1)
.LVL722:
	.loc 1 1142 3 is_stmt 1
	.loc 1 1142 15 is_stmt 0
	li	a0,7
	mul	a0,s9,a0
	add	a5,s4,a0
	.loc 1 1142 6
	lbu	a4,0(a5)
	li	a5,1
	bne	a4,a5,.L447
	.loc 1 1143 4 is_stmt 1
	.loc 1 1143 10 is_stmt 0
	addi	a0,a0,1
	add	a0,s4,a0
	call	set_random_address
.LVL723:
	.loc 1 1144 4 is_stmt 1
	.loc 1 1144 7 is_stmt 0
	bne	a0,zero,.L448
.LVL724:
.L447:
	.loc 1 1149 3 is_stmt 1
	.loc 1 1149 17 is_stmt 0
	li	a5,7
	mul	s9,s9,a5
.LVL725:
.LBE517:
	.loc 1 1155 8
	li	a0,8192
	li	a1,25
	addi	a0,a0,13
.LBB518:
	.loc 1 1149 17
	add	s9,s4,s9
	lbu	a5,0(s9)
	sw	a5,-84(s0)
.LVL726:
.LBE518:
	.loc 1 1155 2 is_stmt 1
	.loc 1 1155 8 is_stmt 0
	call	bt_hci_cmd_create
.LVL727:
	mv	s9,a0
.LVL728:
	.loc 1 1156 2 is_stmt 1
	.loc 1 1156 5 is_stmt 0
	beq	a0,zero,.L448
	.loc 1 1160 2 is_stmt 1
	.loc 1 1160 7 is_stmt 0
	li	a1,25
	addi	a0,a0,8
.LVL729:
	call	net_buf_simple_add
.LVL730:
	.loc 1 1161 8
	li	a2,25
	li	a1,0
	.loc 1 1160 7
	mv	s11,a0
.LVL731:
	.loc 1 1161 2 is_stmt 1
	.loc 1 1161 8 is_stmt 0
	call	memset
.LVL732:
	.loc 1 1164 2 is_stmt 1
	.loc 1 1164 20 is_stmt 0
	li	a3,96
	sb	a3,0(s11)
	sb	zero,1(s11)
	.loc 1 1165 2 is_stmt 1
	.loc 1 1165 18 is_stmt 0
	sb	a3,2(s11)
	sb	zero,3(s11)
	.loc 1 1167 2 is_stmt 1
.LVL733:
	.loc 1 1170 2
	.loc 1 1170 16 is_stmt 0
	lbu	a3,144(s4)
	.loc 1 1170 5
	beq	a3,zero,.L451
	.loc 1 1170 25
	lbu	a2,145(s4)
	bgtu	a2,a3,.L451
	.loc 1 1167 12
	addi	s8,s1,112
.LVL734:
.L451:
	.loc 1 1176 2 is_stmt 1
	mv	a1,s8
	addi	a0,s11,5
	call	bt_addr_le_copy
.LVL735:
	.loc 1 1177 2
	.loc 1 1177 20 is_stmt 0
	lw	a5,-84(s0)
	.loc 1 1196 9
	li	a0,8192
	li	a2,0
	.loc 1 1177 20
	sb	a5,12(s11)
	.loc 1 1178 2 is_stmt 1
	.loc 1 1178 35 is_stmt 0
	lhu	a3,136(s1)
	.loc 1 1196 9
	mv	a1,s9
	addi	a0,a0,13
	.loc 1 1178 24
	sb	a3,13(s11)
	srli	a3,a3,8
	sb	a3,14(s11)
	.loc 1 1179 2 is_stmt 1
	.loc 1 1179 35 is_stmt 0
	lhu	a3,138(s1)
	.loc 1 1179 24
	sb	a3,15(s11)
	srli	a3,a3,8
	sb	a3,16(s11)
	.loc 1 1180 2 is_stmt 1
	.loc 1 1180 30 is_stmt 0
	lhu	a3,140(s1)
	.loc 1 1180 19
	sb	a3,17(s11)
	srli	a3,a3,8
	sb	a3,18(s11)
	.loc 1 1181 2 is_stmt 1
	.loc 1 1181 37 is_stmt 0
	lhu	a3,142(s1)
	.loc 1 1181 26
	sb	a3,19(s11)
	srli	a3,a3,8
	sb	a3,20(s11)
	.loc 1 1196 2 is_stmt 1
	.loc 1 1196 9 is_stmt 0
	call	bt_hci_cmd_send_sync
.LVL736:
.LBE516:
.LBE515:
	.loc 1 2048 5
	bne	a0,zero,.L448
	.loc 1 2052 2 is_stmt 1
	mv	a0,s1
	li	a1,3
	call	bt_conn_set_state
.LVL737:
	.loc 1 2053 2
	mv	a0,s1
	call	bt_conn_unref
.LVL738:
	.loc 1 2054 2
.L443:
.LBE520:
.LBE524:
	.loc 1 4240 3
	.loc 1 4240 38 is_stmt 0
	lbu	a1,8(s2)
	.loc 1 4240 3
	mv	a0,s6
	addi	s5,s5,-1
.LVL739:
	addi	a1,a1,1
	call	net_buf_simple_pull
.LVL740:
	andi	s5,s5,0xff
	j	.L437
.LVL741:
.L439:
	.loc 1 4219 4 is_stmt 1
	lbu	a0,8(s4)
.LVL742:
	call	bt_lookup_id_addr
.LVL743:
	mv	a1,a0
	addi	a0,s0,-72
	call	bt_addr_le_copy
.LVL744:
	j	.L440
.LVL745:
.L445:
.LBB525:
.LBB521:
	.loc 1 2043 6 is_stmt 0
	li	a0,0
	call	set_le_scan_enable
.LVL746:
	.loc 1 2042 53
	beq	a0,zero,.L449
.L448:
.LDL2:
	.loc 1 2057 2 is_stmt 1
	.loc 1 2057 12 is_stmt 0
	li	a5,31
	sb	a5,12(s1)
	.loc 1 2058 2 is_stmt 1
	li	a1,0
	mv	a0,s1
	call	bt_conn_set_state
.LVL747:
	.loc 1 2059 2
	mv	a0,s1
	call	bt_conn_unref
.LVL748:
	.loc 1 2060 2
	li	a0,0
	call	bt_le_scan_update
.LVL749:
	j	.L443
.LBE521:
.LBE525:
.LBE530:
	.cfi_endproc
.LFE162:
	.size	le_adv_report, .-le_adv_report
	.section	.rodata.bt_data_parse.str1.4,"aMS",@progbits,1
	.align	2
.LC33:
	.string	"Malformed data, %s\r\n"
	.section	.text.bt_data_parse,"ax",@progbits
	.align	1
	.globl	bt_data_parse
	.type	bt_data_parse, @function
bt_data_parse:
.LFB161:
	.loc 1 4163 1
	.cfi_startproc
.LVL750:
	.loc 1 4164 2
	.loc 1 4163 1 is_stmt 0
	addi	sp,sp,-48
	.cfi_def_cfa_offset 48
	sw	s0,40(sp)
	sw	s1,36(sp)
	sw	s3,28(sp)
	sw	s4,24(sp)
	sw	s5,20(sp)
	sw	ra,44(sp)
	sw	s2,32(sp)
	.cfi_offset 8, -8
	.cfi_offset 9, -12
	.cfi_offset 19, -20
	.cfi_offset 20, -24
	.cfi_offset 21, -28
	.cfi_offset 1, -4
	.cfi_offset 18, -16
	addi	s0,sp,48
	.cfi_def_cfa 8, 0
	.loc 1 4163 1
	mv	s1,a0
	mv	s3,a1
	mv	s4,a2
	.loc 1 4164 8
	li	s5,1
.LVL751:
.L468:
	.loc 1 4164 8 is_stmt 1
	lhu	a5,4(s1)
	bgtu	a5,s5,.L472
.L467:
	.loc 1 4189 1 is_stmt 0
	lw	ra,44(sp)
	.cfi_remember_state
	.cfi_restore 1
	lw	s0,40(sp)
	.cfi_restore 8
	.cfi_def_cfa 2, 48
	lw	s1,36(sp)
	.cfi_restore 9
.LVL752:
	lw	s2,32(sp)
	.cfi_restore 18
	lw	s3,28(sp)
	.cfi_restore 19
.LVL753:
	lw	s4,24(sp)
	.cfi_restore 20
.LVL754:
	lw	s5,20(sp)
	.cfi_restore 21
	addi	sp,sp,48
	.cfi_def_cfa_offset 0
	jr	ra
.LVL755:
.L472:
	.cfi_restore_state
.LBB531:
	.loc 1 4165 3 is_stmt 1
	.loc 1 4166 3
	.loc 1 4168 3
	.loc 1 4168 9 is_stmt 0
	mv	a0,s1
	call	net_buf_simple_pull_u8
.LVL756:
	mv	s2,a0
.LVL757:
	.loc 1 4169 3 is_stmt 1
	.loc 1 4169 6 is_stmt 0
	beq	a0,zero,.L467
	.loc 1 4174 3 is_stmt 1
	.loc 1 4174 6 is_stmt 0
	lhu	a4,4(s1)
	slli	a5,a0,16
	srli	a5,a5,16
	bgeu	a4,a5,.L470
	.loc 1 4175 4 is_stmt 1
.LBE531:
	.loc 1 4189 1 is_stmt 0
	lw	s0,40(sp)
	.cfi_remember_state
	.cfi_restore 8
	.cfi_def_cfa 2, 48
	lw	ra,44(sp)
	.cfi_restore 1
	lw	s1,36(sp)
	.cfi_restore 9
.LVL758:
	lw	s2,32(sp)
	.cfi_restore 18
	lw	s3,28(sp)
	.cfi_restore 19
.LVL759:
	lw	s4,24(sp)
	.cfi_restore 20
.LVL760:
	lw	s5,20(sp)
	.cfi_restore 21
.LBB532:
	.loc 1 4175 4
	lui	a1,%hi(.LANCHOR26)
	lui	a0,%hi(.LC33)
.LVL761:
.LBE532:
	.loc 1 4189 1
.LBB533:
	.loc 1 4175 4
	addi	a1,a1,%lo(.LANCHOR26)
	addi	a0,a0,%lo(.LC33)
.LBE533:
	.loc 1 4189 1
	addi	sp,sp,48
	.cfi_def_cfa_offset 0
.LBB534:
	.loc 1 4175 4
	tail	printf
.LVL762:
.L470:
	.cfi_restore_state
	.loc 1 4179 3 is_stmt 1
	.loc 1 4179 15 is_stmt 0
	mv	a0,s1
.LVL763:
	call	net_buf_simple_pull_u8
.LVL764:
	.loc 1 4181 13
	lw	a5,0(s1)
	.loc 1 4179 13
	sb	a0,-40(s0)
	.loc 1 4180 3 is_stmt 1
	.loc 1 4180 23 is_stmt 0
	addi	s2,s2,-1
	.loc 1 4183 8
	mv	a1,s4
	addi	a0,s0,-40
	.loc 1 4180 17
	sb	s2,-39(s0)
	.loc 1 4181 3 is_stmt 1
	.loc 1 4181 13 is_stmt 0
	sw	a5,-36(s0)
	.loc 1 4183 3 is_stmt 1
	.loc 1 4183 8 is_stmt 0
	jalr	s3
.LVL765:
	.loc 1 4183 6
	beq	a0,zero,.L467
	.loc 1 4187 3 is_stmt 1
	mv	a1,s2
	mv	a0,s1
	call	net_buf_simple_pull
.LVL766:
	j	.L468
.LBE534:
	.cfi_endproc
.LFE161:
	.size	bt_data_parse, .-bt_data_parse
	.section	.text.bt_hci_get_conn_handle,"ax",@progbits
	.align	1
	.globl	bt_hci_get_conn_handle
	.type	bt_hci_get_conn_handle, @function
bt_hci_get_conn_handle:
.LFB163:
	.loc 1 4246 1
	.cfi_startproc
.LVL767:
	.loc 1 4247 2
	.loc 1 4246 1 is_stmt 0
	addi	sp,sp,-16
	.cfi_def_cfa_offset 16
	sw	s0,12(sp)
	.cfi_offset 8, -4
	addi	s0,sp,16
	.cfi_def_cfa 8, 0
	.loc 1 4247 5
	lbu	a4,13(a0)
	li	a5,4
	bne	a4,a5,.L482
	.loc 1 4251 2 is_stmt 1
	.loc 1 4251 21 is_stmt 0
	lhu	a5,0(a0)
	.loc 1 4252 9
	li	a0,0
.LVL768:
	.loc 1 4251 15
	sh	a5,0(a1)
	.loc 1 4252 2 is_stmt 1
.L480:
	.loc 1 4253 1 is_stmt 0
	lw	s0,12(sp)
	.cfi_remember_state
	.cfi_restore 8
	.cfi_def_cfa 2, 16
	addi	sp,sp,16
	.cfi_def_cfa_offset 0
	jr	ra
.LVL769:
.L482:
	.cfi_restore_state
	.loc 1 4248 10
	li	a0,-128
.LVL770:
	j	.L480
	.cfi_endproc
.LFE163:
	.size	bt_hci_get_conn_handle, .-bt_hci_get_conn_handle
	.section	.text.bt_hci_register_vnd_evt_cb,"ax",@progbits
	.align	1
	.globl	bt_hci_register_vnd_evt_cb
	.type	bt_hci_register_vnd_evt_cb, @function
bt_hci_register_vnd_evt_cb:
.LFB164:
	.loc 1 4257 1 is_stmt 1
	.cfi_startproc
.LVL771:
	.loc 1 4258 2
	.loc 1 4257 1 is_stmt 0
	addi	sp,sp,-16
	.cfi_def_cfa_offset 16
	sw	s0,12(sp)
	.cfi_offset 8, -4
	addi	s0,sp,16
	.cfi_def_cfa 8, 0
	.loc 1 4260 1
	lw	s0,12(sp)
	.cfi_restore 8
	.cfi_def_cfa 2, 16
	.loc 1 4258 17
	lui	a5,%hi(.LANCHOR11)
	sw	a0,%lo(.LANCHOR11)(a5)
	.loc 1 4259 2 is_stmt 1
	.loc 1 4260 1 is_stmt 0
	li	a0,0
.LVL772:
	addi	sp,sp,16
	.cfi_def_cfa_offset 0
	jr	ra
	.cfi_endproc
.LFE164:
	.size	bt_hci_register_vnd_evt_cb, .-bt_hci_register_vnd_evt_cb
	.section	.text.bt_addr_le_create_nrpa,"ax",@progbits
	.align	1
	.globl	bt_addr_le_create_nrpa
	.type	bt_addr_le_create_nrpa, @function
bt_addr_le_create_nrpa:
.LFB187:
	.loc 1 5392 1 is_stmt 1
	.cfi_startproc
.LVL773:
	.loc 1 5393 2
	.loc 1 5395 2
.LBB537:
.LBB538:
	.loc 1 5386 2
.LBE538:
.LBE537:
	.loc 1 5392 1 is_stmt 0
	addi	sp,sp,-16
	.cfi_def_cfa_offset 16
	sw	s0,8(sp)
	sw	s1,4(sp)
	sw	ra,12(sp)
	.cfi_offset 8, -8
	.cfi_offset 9, -12
	.cfi_offset 1, -4
	addi	s0,sp,16
	.cfi_def_cfa 8, 0
.LBB541:
.LBB539:
	.loc 1 5386 13
	li	a5,1
.LBE539:
.LBE541:
	.loc 1 5392 1
	mv	s1,a0
.LBB542:
.LBB540:
	.loc 1 5386 13
	sb	a5,0(a0)
	.loc 1 5388 2 is_stmt 1
	.loc 1 5388 9 is_stmt 0
	li	a1,6
	addi	a0,a0,1
.LVL774:
	call	bt_rand
.LVL775:
.LBE540:
.LBE542:
	.loc 1 5396 2 is_stmt 1
	.loc 1 5396 5 is_stmt 0
	bne	a0,zero,.L486
	.loc 1 5400 2 is_stmt 1
	.loc 1 5400 22 is_stmt 0
	lbu	a5,6(s1)
	andi	a5,a5,63
	sb	a5,6(s1)
	.loc 1 5402 2 is_stmt 1
.L486:
	.loc 1 5403 1 is_stmt 0
	lw	ra,12(sp)
	.cfi_restore 1
	lw	s0,8(sp)
	.cfi_restore 8
	.cfi_def_cfa 2, 16
	lw	s1,4(sp)
	.cfi_restore 9
.LVL776:
	addi	sp,sp,16
	.cfi_def_cfa_offset 0
	jr	ra
	.cfi_endproc
.LFE187:
	.size	bt_addr_le_create_nrpa, .-bt_addr_le_create_nrpa
	.section	.text.bt_addr_le_create_static,"ax",@progbits
	.align	1
	.globl	bt_addr_le_create_static
	.type	bt_addr_le_create_static, @function
bt_addr_le_create_static:
.LFB188:
	.loc 1 5406 1 is_stmt 1
	.cfi_startproc
.LVL777:
	.loc 1 5407 2
	.loc 1 5409 2
.LBB545:
.LBB546:
	.loc 1 5386 2
.LBE546:
.LBE545:
	.loc 1 5406 1 is_stmt 0
	addi	sp,sp,-16
	.cfi_def_cfa_offset 16
	sw	s0,8(sp)
	sw	s1,4(sp)
	sw	ra,12(sp)
	.cfi_offset 8, -8
	.cfi_offset 9, -12
	.cfi_offset 1, -4
	addi	s0,sp,16
	.cfi_def_cfa 8, 0
.LBB549:
.LBB547:
	.loc 1 5386 13
	li	a5,1
.LBE547:
.LBE549:
	.loc 1 5406 1
	mv	s1,a0
.LBB550:
.LBB548:
	.loc 1 5386 13
	sb	a5,0(a0)
	.loc 1 5388 2 is_stmt 1
	.loc 1 5388 9 is_stmt 0
	li	a1,6
	addi	a0,a0,1
.LVL778:
	call	bt_rand
.LVL779:
.LBE548:
.LBE550:
	.loc 1 5410 2 is_stmt 1
	.loc 1 5410 5 is_stmt 0
	bne	a0,zero,.L489
	.loc 1 5414 2 is_stmt 1
	.loc 1 5414 22 is_stmt 0
	lbu	a5,6(s1)
	ori	a5,a5,-64
	sb	a5,6(s1)
	.loc 1 5416 2 is_stmt 1
.L489:
	.loc 1 5417 1 is_stmt 0
	lw	ra,12(sp)
	.cfi_restore 1
	lw	s0,8(sp)
	.cfi_restore 8
	.cfi_def_cfa 2, 16
	lw	s1,4(sp)
	.cfi_restore 9
.LVL780:
	addi	sp,sp,16
	.cfi_def_cfa_offset 0
	jr	ra
	.cfi_endproc
.LFE188:
	.size	bt_addr_le_create_static, .-bt_addr_le_create_static
	.section	.text.id_create.constprop.0,"ax",@progbits
	.align	1
	.type	id_create.constprop.0, @function
id_create.constprop.0:
.LFB287:
	.loc 1 6339 13 is_stmt 1
	.cfi_startproc
.LVL781:
	.loc 1 6341 2
	.loc 1 6339 13 is_stmt 0
	addi	sp,sp,-32
	.cfi_def_cfa_offset 32
	sw	s2,16(sp)
	.cfi_offset 18, -16
.LBB558:
.LBB559:
.LBB560:
.LBB561:
	.loc 1 6351 3
	li	s2,7
	mul	a0,a0,s2
.LVL782:
.LBE561:
.LBE560:
.LBE559:
.LBE558:
	.loc 1 6339 13
	sw	s0,24(sp)
	sw	s1,20(sp)
	sw	ra,28(sp)
	.cfi_offset 8, -8
	.cfi_offset 9, -12
	.cfi_offset 1, -4
	addi	s0,sp,32
	.cfi_def_cfa 8, 0
.LBB574:
.LBB570:
.LBB566:
.LBB562:
	.loc 1 6351 3
	lui	s2,%hi(.LANCHOR2)
	addi	s2,s2,%lo(.LANCHOR2)
.LBE562:
.LBE566:
.LBE570:
.LBE574:
	.loc 1 6339 13
	.loc 1 6339 13
	mv	s1,a1
.LBB575:
.LBB571:
.LBB567:
.LBB563:
	.loc 1 6351 3
	add	s2,s2,a0
.LBE563:
.LBE567:
.LBE571:
.LBE575:
.LBB576:
	.loc 1 6341 5
	beq	a1,zero,.L494
.LBB577:
.LBB578:
	.loc 3 49 9
	li	a2,7
	addi	a1,s0,-32
.LVL783:
	mv	a0,s1
.LBE578:
.LBE577:
	.loc 1 6341 52
	sw	zero,-32(s0)
	sh	zero,-28(s0)
	sb	zero,-26(s0)
.LVL784:
.LBB580:
.LBB579:
	.loc 3 49 2 is_stmt 1
	.loc 3 49 9 is_stmt 0
	call	memcmp
.LVL785:
.LBE579:
.LBE580:
	.loc 1 6341 11
	beq	a0,zero,.L494
	.loc 1 6342 3 is_stmt 1
	mv	a1,s1
	mv	a0,s2
.L506:
.LBE576:
.LBB581:
.LBB572:
.LBB568:
.LBB564:
	.loc 1 6354 4 is_stmt 0
	call	bt_addr_le_copy
.LVL786:
.LBE564:
.LBE568:
	.loc 1 6376 2 is_stmt 1
.LBE572:
.LBE581:
	.loc 1 6376 2
.L492:
	.loc 1 6380 1 is_stmt 0
	lw	ra,28(sp)
	.cfi_remember_state
	.cfi_restore 1
	lw	s0,24(sp)
	.cfi_restore 8
	.cfi_def_cfa 2, 32
	lw	s1,20(sp)
	.cfi_restore 9
.LVL787:
	lw	s2,16(sp)
	.cfi_restore 18
	addi	sp,sp,32
	.cfi_def_cfa_offset 0
	jr	ra
.LVL788:
.L494:
	.cfi_restore_state
.LBB582:
.LBB573:
.LBB569:
.LBB565:
	.loc 1 6344 3 is_stmt 1
	.loc 1 6346 3
	.loc 1 6347 4
	addi	a0,s0,-24
	call	bt_addr_le_create_static
.LVL789:
	.loc 1 6349 11
	.loc 1 6349 12 is_stmt 0
	addi	a0,s0,-24
	call	id_find
.LVL790:
	.loc 1 6349 3
	bge	a0,zero,.L494
	.loc 1 6351 3 is_stmt 1
	addi	a1,s0,-24
	mv	a0,s2
	call	bt_addr_le_copy
.LVL791:
	.loc 1 6353 3
	.loc 1 6353 6 is_stmt 0
	beq	s1,zero,.L492
	.loc 1 6354 4 is_stmt 1
	mv	a1,s2
	mv	a0,s1
	j	.L506
.LBE565:
.LBE569:
.LBE573:
.LBE582:
	.cfi_endproc
.LFE287:
	.size	id_create.constprop.0, .-id_create.constprop.0
	.section	.text.bt_send,"ax",@progbits
	.align	1
	.globl	bt_send
	.type	bt_send, @function
bt_send:
.LFB191:
	.loc 1 5628 1
	.cfi_startproc
.LVL792:
	.loc 1 5629 2
	.loc 1 5631 2
	.loc 1 5633 2
	.loc 1 5637 2
	.loc 1 5628 1 is_stmt 0
	addi	sp,sp,-16
	.cfi_def_cfa_offset 16
	sw	s0,12(sp)
	.cfi_offset 8, -4
	addi	s0,sp,16
	.cfi_def_cfa 8, 0
	.loc 1 5637 15
	lui	a5,%hi(.LANCHOR2+180)
	.loc 1 5637 19
	lw	a5,%lo(.LANCHOR2+180)(a5)
	.loc 1 5638 1
	lw	s0,12(sp)
	.cfi_restore 8
	.cfi_def_cfa 2, 16
	.loc 1 5637 9
	lw	a5,16(a5)
	.loc 1 5638 1
	addi	sp,sp,16
	.cfi_def_cfa_offset 0
	.loc 1 5637 9
	jr	a5
.LVL793:
	.cfi_endproc
.LFE191:
	.size	bt_send, .-bt_send
	.section	.rodata.bt_hci_cmd_send.str1.4,"aMS",@progbits,1
	.align	2
.LC34:
	.string	"Unable to send to driver (err %d), %s\r\n"
	.section	.text.bt_hci_cmd_send,"ax",@progbits
	.align	1
	.globl	bt_hci_cmd_send
	.type	bt_hci_cmd_send, @function
bt_hci_cmd_send:
.LFB102:
	.loc 1 399 1 is_stmt 1
	.cfi_startproc
.LVL794:
	.loc 1 400 2
	.loc 1 399 1 is_stmt 0
	addi	sp,sp,-32
	.cfi_def_cfa_offset 32
	sw	s0,24(sp)
	sw	s1,20(sp)
	sw	s3,12(sp)
	sw	ra,28(sp)
	sw	s2,16(sp)
	.cfi_offset 8, -8
	.cfi_offset 9, -12
	.cfi_offset 19, -20
	.cfi_offset 1, -4
	.cfi_offset 18, -16
	addi	s0,sp,32
	.cfi_def_cfa 8, 0
	.loc 1 399 1
	mv	s3,a0
	mv	s1,a1
	.loc 1 400 5
	bne	a1,zero,.L510
	.loc 1 401 3 is_stmt 1
	.loc 1 401 9 is_stmt 0
	call	bt_hci_cmd_create
.LVL795:
	mv	s1,a0
.LVL796:
	.loc 1 402 3 is_stmt 1
	.loc 1 403 11 is_stmt 0
	li	s2,-105
	.loc 1 402 6
	beq	a0,zero,.L509
.L510:
	.loc 1 407 2 is_stmt 1
	.loc 1 412 2
	.loc 1 412 5 is_stmt 0
	li	a5,4096
	addi	a5,a5,-971
	bne	s3,a5,.L512
.LBB583:
	.loc 1 413 3 is_stmt 1
	.loc 1 415 3
	.loc 1 415 9 is_stmt 0
	mv	a0,s1
	call	bt_send
.LVL797:
	mv	s2,a0
.LVL798:
	.loc 1 416 3 is_stmt 1
	.loc 1 416 6 is_stmt 0
	beq	a0,zero,.L509
	.loc 1 417 4 is_stmt 1
	mv	a1,a0
	lui	a2,%hi(.LANCHOR27)
	lui	a0,%hi(.LC34)
.LVL799:
	addi	a2,a2,%lo(.LANCHOR27)
	addi	a0,a0,%lo(.LC34)
	call	printf
.LVL800:
	.loc 1 418 4
	mv	a0,s1
	call	net_buf_unref
.LVL801:
.L509:
.LBE583:
	.loc 1 429 1 is_stmt 0
	lw	ra,28(sp)
	.cfi_remember_state
	.cfi_restore 1
	lw	s0,24(sp)
	.cfi_restore 8
	.cfi_def_cfa 2, 32
	lw	s1,20(sp)
	.cfi_restore 9
.LVL802:
	lw	s3,12(sp)
	.cfi_restore 19
	mv	a0,s2
	lw	s2,16(sp)
	.cfi_restore 18
	addi	sp,sp,32
	.cfi_def_cfa_offset 0
	jr	ra
.LVL803:
.L512:
	.cfi_restore_state
	.loc 1 424 2 is_stmt 1
	lui	a0,%hi(.LANCHOR2+168)
	mv	a1,s1
	addi	a0,a0,%lo(.LANCHOR2+168)
	call	net_buf_put
.LVL804:
	.loc 1 426 5
	lui	a0,%hi(g_poll_sem)
	addi	a0,a0,%lo(g_poll_sem)
	call	k_sem_give
.LVL805:
	.loc 1 428 2
	.loc 1 428 9 is_stmt 0
	li	s2,0
	j	.L509
	.cfi_endproc
.LFE102:
	.size	bt_hci_cmd_send, .-bt_hci_cmd_send
	.section	.rodata.bt_le_set_data_len.str1.4,"aMS",@progbits,1
	.align	2
.LC35:
	.string	"bt_le_set_data_len, Failed to create LE Set Data Length Command, %s\r\n"
	.section	.text.bt_le_set_data_len,"ax",@progbits
	.align	1
	.globl	bt_le_set_data_len
	.type	bt_le_set_data_len, @function
bt_le_set_data_len:
.LFB120:
	.loc 1 1361 1 is_stmt 1
	.cfi_startproc
.LVL806:
	.loc 1 1362 2
	.loc 1 1363 2
	.loc 1 1365 2
	.loc 1 1361 1 is_stmt 0
	addi	sp,sp,-32
	.cfi_def_cfa_offset 32
	sw	s0,24(sp)
	sw	s1,20(sp)
	sw	s2,16(sp)
	sw	s4,8(sp)
	sw	s5,4(sp)
	sw	ra,28(sp)
	sw	s3,12(sp)
	.cfi_offset 8, -8
	.cfi_offset 9, -12
	.cfi_offset 18, -16
	.cfi_offset 20, -24
	.cfi_offset 21, -28
	.cfi_offset 1, -4
	.cfi_offset 19, -20
	addi	s0,sp,32
	.cfi_def_cfa 8, 0
	.loc 1 1365 8
	li	s4,8192
	.loc 1 1361 1
	mv	s5,a0
	mv	s2,a1
	.loc 1 1365 8
	li	a1,6
.LVL807:
	addi	a0,s4,34
.LVL808:
	.loc 1 1361 1
	mv	s1,a2
	.loc 1 1365 8
	call	bt_hci_cmd_create
.LVL809:
	.loc 1 1366 2 is_stmt 1
	.loc 1 1366 5 is_stmt 0
	beq	a0,zero,.L523
	mv	s3,a0
	.loc 1 1371 2 is_stmt 1
	.loc 1 1371 7 is_stmt 0
	li	a1,6
	addi	a0,a0,8
.LVL810:
	call	net_buf_simple_add
.LVL811:
	.loc 1 1372 2 is_stmt 1
	.loc 1 1372 20 is_stmt 0
	lhu	a4,0(s5)
	.loc 1 1373 16
	sb	s2,2(a0)
	.loc 1 1374 14
	sb	s1,4(a0)
	.loc 1 1372 13
	sb	a4,0(a0)
	.loc 1 1373 16
	srli	s2,s2,8
	.loc 1 1374 14
	srli	s1,s1,8
	.loc 1 1372 13
	srli	a4,a4,8
	sb	a4,1(a0)
	.loc 1 1373 2 is_stmt 1
	.loc 1 1373 16 is_stmt 0
	sb	s2,3(a0)
	.loc 1 1374 2 is_stmt 1
	.loc 1 1374 14 is_stmt 0
	sb	s1,5(a0)
	.loc 1 1376 2 is_stmt 1
	.loc 1 1377 1 is_stmt 0
	lw	s0,24(sp)
	.cfi_remember_state
	.cfi_restore 8
	.cfi_def_cfa 2, 32
	lw	ra,28(sp)
	.cfi_restore 1
	lw	s1,20(sp)
	.cfi_restore 9
	lw	s2,16(sp)
	.cfi_restore 18
	lw	s5,4(sp)
	.cfi_restore 21
.LVL812:
	.loc 1 1376 9
	mv	a1,s3
	addi	a0,s4,34
.LVL813:
	.loc 1 1377 1
	lw	s3,12(sp)
	.cfi_restore 19
.LVL814:
	lw	s4,8(sp)
	.cfi_restore 20
	addi	sp,sp,32
	.cfi_def_cfa_offset 0
	.loc 1 1376 9
	tail	bt_hci_cmd_send
.LVL815:
.L523:
	.cfi_restore_state
	.loc 1 1367 3 is_stmt 1
	lui	a1,%hi(.LANCHOR28)
	lui	a0,%hi(.LC35)
.LVL816:
	addi	a1,a1,%lo(.LANCHOR28)
	addi	a0,a0,%lo(.LC35)
	call	printf
.LVL817:
	.loc 1 1368 3
	.loc 1 1377 1 is_stmt 0
	lw	ra,28(sp)
	.cfi_restore 1
	lw	s0,24(sp)
	.cfi_restore 8
	.cfi_def_cfa 2, 32
	lw	s1,20(sp)
	.cfi_restore 9
	lw	s2,16(sp)
	.cfi_restore 18
	lw	s3,12(sp)
	.cfi_restore 19
	lw	s4,8(sp)
	.cfi_restore 20
	lw	s5,4(sp)
	.cfi_restore 21
.LVL818:
	li	a0,-105
	addi	sp,sp,32
	.cfi_def_cfa_offset 0
	jr	ra
	.cfi_endproc
.LFE120:
	.size	bt_le_set_data_len, .-bt_le_set_data_len
	.section	.text.hci_le_set_phy,"ax",@progbits
	.align	1
	.globl	hci_le_set_phy
	.type	hci_le_set_phy, @function
hci_le_set_phy:
.LFB121:
	.loc 1 1382 1 is_stmt 1
	.cfi_startproc
.LVL819:
	.loc 1 1383 2
	.loc 1 1384 2
	.loc 1 1386 2
	.loc 1 1382 1 is_stmt 0
	addi	sp,sp,-48
	.cfi_def_cfa_offset 48
	sw	s0,40(sp)
	sw	s2,32(sp)
	sw	s3,28(sp)
	sw	s4,24(sp)
	sw	s5,20(sp)
	sw	s6,16(sp)
	sw	s7,12(sp)
	sw	ra,44(sp)
	sw	s1,36(sp)
	.cfi_offset 8, -8
	.cfi_offset 18, -16
	.cfi_offset 19, -20
	.cfi_offset 20, -24
	.cfi_offset 21, -28
	.cfi_offset 22, -32
	.cfi_offset 23, -36
	.cfi_offset 1, -4
	.cfi_offset 9, -12
	addi	s0,sp,48
	.cfi_def_cfa 8, 0
	.loc 1 1386 8
	li	s6,8192
	.loc 1 1382 1
	mv	s7,a0
	mv	s5,a1
	.loc 1 1386 8
	li	a1,7
.LVL820:
	addi	a0,s6,50
.LVL821:
	.loc 1 1382 1
	mv	s4,a2
	mv	s3,a3
	mv	s2,a4
	.loc 1 1386 8
	call	bt_hci_cmd_create
.LVL822:
	.loc 1 1387 2 is_stmt 1
	.loc 1 1387 5 is_stmt 0
	beq	a0,zero,.L526
	mv	s1,a0
	.loc 1 1391 2 is_stmt 1
	.loc 1 1391 7 is_stmt 0
	li	a1,7
	addi	a0,a0,8
.LVL823:
	call	net_buf_simple_add
.LVL824:
	mv	a5,a0
.LVL825:
	.loc 1 1392 2 is_stmt 1
	.loc 1 1392 20 is_stmt 0
	lhu	a0,0(s7)
.LVL826:
	.loc 1 1393 15
	sb	s5,2(a5)
	.loc 1 1394 14
	sb	s4,3(a5)
	.loc 1 1392 13
	sb	a0,0(a5)
	srli	a0,a0,8
	sb	a0,1(a5)
	.loc 1 1393 2 is_stmt 1
	.loc 1 1394 2
	.loc 1 1395 2
	.loc 1 1395 14 is_stmt 0
	sb	s3,4(a5)
	.loc 1 1396 2 is_stmt 1
	.loc 1 1396 15 is_stmt 0
	sb	s2,5(a5)
	sb	zero,6(a5)
	.loc 1 1398 2 is_stmt 1
	.loc 1 1399 1 is_stmt 0
	lw	s0,40(sp)
	.cfi_remember_state
	.cfi_restore 8
	.cfi_def_cfa 2, 48
	lw	ra,44(sp)
	.cfi_restore 1
	lw	s2,32(sp)
	.cfi_restore 18
	lw	s3,28(sp)
	.cfi_restore 19
	lw	s4,24(sp)
	.cfi_restore 20
	lw	s5,20(sp)
	.cfi_restore 21
	lw	s7,12(sp)
	.cfi_restore 23
.LVL827:
	.loc 1 1398 9
	mv	a1,s1
	addi	a0,s6,50
	.loc 1 1399 1
	lw	s1,36(sp)
	.cfi_restore 9
.LVL828:
	lw	s6,16(sp)
	.cfi_restore 22
	addi	sp,sp,48
	.cfi_def_cfa_offset 0
	.loc 1 1398 9
	tail	bt_hci_cmd_send
.LVL829:
.L526:
	.cfi_restore_state
	.loc 1 1399 1
	lw	ra,44(sp)
	.cfi_restore 1
	lw	s0,40(sp)
	.cfi_restore 8
	.cfi_def_cfa 2, 48
	lw	s1,36(sp)
	.cfi_restore 9
	lw	s2,32(sp)
	.cfi_restore 18
	lw	s3,28(sp)
	.cfi_restore 19
	lw	s4,24(sp)
	.cfi_restore 20
	lw	s5,20(sp)
	.cfi_restore 21
	lw	s6,16(sp)
	.cfi_restore 22
	lw	s7,12(sp)
	.cfi_restore 23
.LVL830:
	li	a0,-105
.LVL831:
	addi	sp,sp,48
	.cfi_def_cfa_offset 0
	jr	ra
	.cfi_endproc
.LFE121:
	.size	hci_le_set_phy, .-hci_le_set_phy
	.section	.text.hci_le_set_default_phy,"ax",@progbits
	.align	1
	.globl	hci_le_set_default_phy
	.type	hci_le_set_default_phy, @function
hci_le_set_default_phy:
.LFB122:
	.loc 1 1402 1 is_stmt 1
	.cfi_startproc
.LVL832:
	.loc 1 1403 2
	.loc 1 1404 2
	.loc 1 1406 2
	.loc 1 1402 1 is_stmt 0
	addi	sp,sp,-32
	.cfi_def_cfa_offset 32
	sw	s0,24(sp)
	sw	s2,16(sp)
	sw	s3,12(sp)
	sw	ra,28(sp)
	sw	s1,20(sp)
	.cfi_offset 8, -8
	.cfi_offset 18, -16
	.cfi_offset 19, -20
	.cfi_offset 1, -4
	.cfi_offset 9, -12
	addi	s0,sp,32
	.cfi_def_cfa 8, 0
	.loc 1 1406 8
	li	s3,8192
	.loc 1 1402 1
	mv	s2,a0
	.loc 1 1406 8
	li	a1,3
	addi	a0,s3,49
.LVL833:
	call	bt_hci_cmd_create
.LVL834:
	.loc 1 1407 2 is_stmt 1
	.loc 1 1407 5 is_stmt 0
	beq	a0,zero,.L530
	mv	s1,a0
	.loc 1 1411 2 is_stmt 1
	.loc 1 1411 7 is_stmt 0
	li	a1,3
	addi	a0,a0,8
.LVL835:
	call	net_buf_simple_add
.LVL836:
	.loc 1 1412 2 is_stmt 1
	.loc 1 1412 15 is_stmt 0
	sb	zero,0(a0)
	.loc 1 1413 2 is_stmt 1
	.loc 1 1413 14 is_stmt 0
	sb	s2,1(a0)
	.loc 1 1414 2 is_stmt 1
	.loc 1 1414 14 is_stmt 0
	sb	s2,2(a0)
	.loc 1 1415 2 is_stmt 1
	mv	a1,s1
	addi	a0,s3,49
.LVL837:
	call	bt_hci_cmd_send
.LVL838:
	.loc 1 1417 2
	.loc 1 1417 9 is_stmt 0
	li	a0,0
.LVL839:
.L528:
	.loc 1 1418 1
	lw	ra,28(sp)
	.cfi_remember_state
	.cfi_restore 1
	lw	s0,24(sp)
	.cfi_restore 8
	.cfi_def_cfa 2, 32
	lw	s1,20(sp)
	.cfi_restore 9
	lw	s2,16(sp)
	.cfi_restore 18
	lw	s3,12(sp)
	.cfi_restore 19
	addi	sp,sp,32
	.cfi_def_cfa_offset 0
	jr	ra
.LVL840:
.L530:
	.cfi_restore_state
	.loc 1 1408 10
	li	a0,-105
.LVL841:
	j	.L528
	.cfi_endproc
.LFE122:
	.size	hci_le_set_default_phy, .-hci_le_set_default_phy
	.section	.rodata.le_ltk_request.str1.4,"aMS",@progbits,1
	.align	2
.LC36:
	.string	"Out of command buffers, %s\r\n"
	.section	.text.le_ltk_request,"ax",@progbits
	.align	1
	.type	le_ltk_request, @function
le_ltk_request:
.LFB152:
	.loc 1 3785 1 is_stmt 1
	.cfi_startproc
.LVL842:
	.loc 1 3786 2
	.loc 1 3785 1 is_stmt 0
	addi	sp,sp,-48
	.cfi_def_cfa_offset 48
	sw	s0,40(sp)
	sw	ra,44(sp)
	sw	s1,36(sp)
	sw	s2,32(sp)
	sw	s3,28(sp)
	sw	s4,24(sp)
	.cfi_offset 8, -8
	.cfi_offset 1, -4
	.cfi_offset 9, -12
	.cfi_offset 18, -16
	.cfi_offset 19, -20
	.cfi_offset 20, -24
	addi	s0,sp,48
	.cfi_def_cfa 8, 0
	.loc 1 3786 36
	lw	s2,8(a0)
.LVL843:
	.loc 1 3787 2 is_stmt 1
	.loc 1 3788 2
	.loc 1 3789 2
	.loc 1 3791 2
	.loc 1 3791 9 is_stmt 0
	lbu	s1,1(s2)
	lbu	a5,0(s2)
	slli	s1,s1,8
	or	s1,s1,a5
.LVL844:
	.loc 1 3793 2 is_stmt 1
	.loc 1 3795 2
	.loc 1 3795 9 is_stmt 0
	mv	a0,s1
.LVL845:
	call	bt_conn_lookup_handle
.LVL846:
	.loc 1 3796 2 is_stmt 1
	.loc 1 3796 5 is_stmt 0
	bne	a0,zero,.L533
	.loc 1 3797 3 is_stmt 1
	.loc 1 3808 1 is_stmt 0
	lw	s0,40(sp)
	.cfi_remember_state
	.cfi_restore 8
	.cfi_def_cfa 2, 48
	lw	ra,44(sp)
	.cfi_restore 1
	lw	s2,32(sp)
	.cfi_restore 18
.LVL847:
	lw	s3,28(sp)
	.cfi_restore 19
	lw	s4,24(sp)
	.cfi_restore 20
	.loc 1 3797 3
	mv	a1,s1
	.loc 1 3808 1
	lw	s1,36(sp)
	.cfi_restore 9
.LVL848:
	.loc 1 3797 3
	lui	a2,%hi(.LANCHOR29)
	lui	a0,%hi(.LC2)
.LVL849:
	.loc 1 3808 1
	.loc 1 3797 3
	addi	a2,a2,%lo(.LANCHOR29)
	addi	a0,a0,%lo(.LC2)
	.loc 1 3808 1
	addi	sp,sp,48
	.cfi_def_cfa_offset 0
	.loc 1 3797 3
	tail	printf
.LVL850:
.L533:
	.cfi_restore_state
	.loc 1 3801 6
	lbu	a1,3(s2)
	lbu	a2,7(s2)
	lbu	a6,2(s2)
	lbu	a5,6(s2)
	slli	a1,a1,8
	slli	a2,a2,8
	or	a1,a1,a6
	or	a2,a2,a5
	lbu	a6,4(s2)
	lbu	a5,8(s2)
	lbu	a3,11(s2)
	slli	a6,a6,16
	slli	a5,a5,16
	or	a6,a6,a1
	or	a5,a5,a2
	lbu	a1,5(s2)
	lbu	a2,9(s2)
	lbu	a7,10(s2)
	slli	a3,a3,8
	slli	a1,a1,24
	slli	a2,a2,24
	addi	a4,s0,-48
	or	a3,a3,a7
	or	a1,a1,a6
	or	a2,a2,a5
	mv	s3,a0
	.loc 1 3801 2 is_stmt 1
	.loc 1 3801 6 is_stmt 0
	call	bt_smp_request_ltk
.LVL851:
	.loc 1 3801 5
	beq	a0,zero,.L534
	.loc 1 3802 3 is_stmt 1
.LVL852:
.LBB588:
.LBB589:
	.loc 1 3767 2
	.loc 1 3768 2
	.loc 1 3770 2
	.loc 1 3770 8 is_stmt 0
	li	s4,8192
	li	a1,18
	addi	a0,s4,26
	call	bt_hci_cmd_create
.LVL853:
	mv	s2,a0
.LVL854:
	.loc 1 3772 2 is_stmt 1
	.loc 1 3772 5 is_stmt 0
	bne	a0,zero,.L535
	.loc 1 3773 3 is_stmt 1
	lui	a1,%hi(.LANCHOR30)
	addi	a1,a1,%lo(.LANCHOR30)
.LVL855:
.L539:
.LBE589:
.LBE588:
.LBB591:
.LBB592:
	.loc 1 3754 3 is_stmt 0
	lui	a0,%hi(.LC36)
	addi	a0,a0,%lo(.LC36)
	call	printf
.LVL856:
	.loc 1 3756 3 is_stmt 1
.L536:
.LBE592:
.LBE591:
	.loc 1 3807 2
	mv	a0,s3
	call	bt_conn_unref
.LVL857:
	.loc 1 3808 1 is_stmt 0
	lw	ra,44(sp)
	.cfi_remember_state
	.cfi_restore 1
	lw	s0,40(sp)
	.cfi_restore 8
	.cfi_def_cfa 2, 48
	lw	s1,36(sp)
	.cfi_restore 9
	lw	s2,32(sp)
	.cfi_restore 18
	lw	s3,28(sp)
	.cfi_restore 19
.LVL858:
	lw	s4,24(sp)
	.cfi_restore 20
	addi	sp,sp,48
	.cfi_def_cfa_offset 0
	jr	ra
.LVL859:
.L535:
	.cfi_restore_state
.LBB595:
.LBB590:
	.loc 1 3777 2 is_stmt 1
	.loc 1 3777 7 is_stmt 0
	li	a1,18
	addi	a0,a0,8
.LVL860:
	call	net_buf_simple_add
.LVL861:
	.loc 1 3778 2 is_stmt 1
	.loc 1 3778 13 is_stmt 0
	sb	s1,0(a0)
	srli	s1,s1,8
.LVL862:
	sb	s1,1(a0)
	.loc 1 3779 2 is_stmt 1
	addi	a1,s0,-48
.LVL863:
	li	a2,16
	addi	a0,a0,2
.LVL864:
	call	memcpy
.LVL865:
	.loc 1 3781 2
	mv	a1,s2
	addi	a0,s4,26
.LVL866:
.L540:
.LBE590:
.LBE595:
.LBB596:
.LBB593:
	.loc 1 3762 2 is_stmt 0
	call	bt_hci_cmd_send
.LVL867:
	j	.L536
.LVL868:
.L534:
.LBE593:
.LBE596:
	.loc 1 3804 3 is_stmt 1
.LBB597:
.LBB594:
	.loc 1 3749 2
	.loc 1 3750 2
	.loc 1 3752 2
	.loc 1 3752 8 is_stmt 0
	li	s4,8192
	li	a1,2
	addi	a0,s4,27
	call	bt_hci_cmd_create
.LVL869:
	mv	s2,a0
.LVL870:
	.loc 1 3753 2 is_stmt 1
	.loc 1 3753 5 is_stmt 0
	bne	a0,zero,.L537
	.loc 1 3754 3 is_stmt 1
	lui	a1,%hi(.LANCHOR31)
	addi	a1,a1,%lo(.LANCHOR31)
	j	.L539
.L537:
	.loc 1 3759 2
	.loc 1 3759 7 is_stmt 0
	li	a1,2
	addi	a0,a0,8
.LVL871:
	call	net_buf_simple_add
.LVL872:
	.loc 1 3760 2 is_stmt 1
	.loc 1 3760 13 is_stmt 0
	sb	s1,0(a0)
	srli	s1,s1,8
.LVL873:
	sb	s1,1(a0)
	.loc 1 3762 2 is_stmt 1
	mv	a1,s2
	addi	a0,s4,27
.LVL874:
	j	.L540
.LBE594:
.LBE597:
	.cfi_endproc
.LFE152:
	.size	le_ltk_request, .-le_ltk_request
	.section	.rodata.le_conn_param_neg_reply.str1.4,"aMS",@progbits,1
	.align	2
.LC37:
	.string	"Unable to allocate buffer, %s\r\n"
	.section	.text.le_conn_param_neg_reply,"ax",@progbits
	.align	1
	.type	le_conn_param_neg_reply, @function
le_conn_param_neg_reply:
.LFB132:
	.loc 1 1912 1
	.cfi_startproc
.LVL875:
	addi	sp,sp,-32
	.cfi_def_cfa_offset 32
	sw	s0,24(sp)
	sw	s1,20(sp)
	sw	s3,12(sp)
	sw	s4,8(sp)
	sw	ra,28(sp)
	sw	s2,16(sp)
	.cfi_offset 8, -8
	.cfi_offset 9, -12
	.cfi_offset 19, -20
	.cfi_offset 20, -24
	.cfi_offset 1, -4
	.cfi_offset 18, -16
	addi	s0,sp,32
	.cfi_def_cfa 8, 0
	.loc 1 1916 8 is_stmt 0
	li	s4,8192
	.loc 1 1912 1
	mv	s1,a0
	.loc 1 1913 2 is_stmt 1
	.loc 1 1914 2
	.loc 1 1916 2
	.loc 1 1912 1 is_stmt 0
	mv	s3,a1
	.loc 1 1916 8
	li	a1,3
.LVL876:
	addi	a0,s4,33
.LVL877:
	call	bt_hci_cmd_create
.LVL878:
	.loc 1 1918 2 is_stmt 1
	.loc 1 1918 5 is_stmt 0
	bne	a0,zero,.L542
.LVL879:
.LBB600:
.LBB601:
	.loc 1 1919 3 is_stmt 1
.LBE601:
.LBE600:
	.loc 1 1928 1 is_stmt 0
	lw	s0,24(sp)
	.cfi_remember_state
	.cfi_restore 8
	.cfi_def_cfa 2, 32
	lw	ra,28(sp)
	.cfi_restore 1
	lw	s1,20(sp)
	.cfi_restore 9
.LVL880:
	lw	s2,16(sp)
	.cfi_restore 18
	lw	s3,12(sp)
	.cfi_restore 19
.LVL881:
	lw	s4,8(sp)
	.cfi_restore 20
.LBB605:
.LBB602:
	.loc 1 1919 3
	lui	a1,%hi(.LANCHOR32)
	lui	a0,%hi(.LC37)
.LVL882:
.LBE602:
.LBE605:
	.loc 1 1928 1
.LBB606:
.LBB603:
	.loc 1 1919 3
	addi	a1,a1,%lo(.LANCHOR32)
	addi	a0,a0,%lo(.LC37)
.LBE603:
.LBE606:
	.loc 1 1928 1
	addi	sp,sp,32
	.cfi_def_cfa_offset 0
.LBB607:
.LBB604:
	.loc 1 1919 3
	tail	printf
.LVL883:
.L542:
	.cfi_restore_state
	mv	s2,a0
.LBE604:
.LBE607:
	.loc 1 1923 2 is_stmt 1
	.loc 1 1923 7 is_stmt 0
	li	a1,3
	addi	a0,a0,8
.LVL884:
	call	net_buf_simple_add
.LVL885:
	.loc 1 1924 2 is_stmt 1
	.loc 1 1924 13 is_stmt 0
	sb	s1,0(a0)
	srli	s1,s1,8
	sb	s1,1(a0)
	.loc 1 1925 2 is_stmt 1
	.loc 1 1925 13 is_stmt 0
	sb	s3,2(a0)
	.loc 1 1927 2 is_stmt 1
	.loc 1 1928 1 is_stmt 0
	lw	s0,24(sp)
	.cfi_restore 8
	.cfi_def_cfa 2, 32
	lw	ra,28(sp)
	.cfi_restore 1
	lw	s1,20(sp)
	.cfi_restore 9
	lw	s3,12(sp)
	.cfi_restore 19
	.loc 1 1927 2
	mv	a1,s2
	addi	a0,s4,33
.LVL886:
	.loc 1 1928 1
	lw	s2,16(sp)
	.cfi_restore 18
.LVL887:
	lw	s4,8(sp)
	.cfi_restore 20
	addi	sp,sp,32
	.cfi_def_cfa_offset 0
	.loc 1 1927 2
	tail	bt_hci_cmd_send
.LVL888:
	.cfi_endproc
.LFE132:
	.size	le_conn_param_neg_reply, .-le_conn_param_neg_reply
	.section	.rodata.enh_conn_complete.str1.4,"aMS",@progbits,1
	.align	2
.LC38:
	.string	"Unexpected status 0x%02x, %s\r\n"
	.align	2
.LC39:
	.string	"Unable to add new conn for handle %u, %s\r\n"
	.section	.text.enh_conn_complete,"ax",@progbits
	.align	1
	.type	enh_conn_complete, @function
enh_conn_complete:
.LFB126:
	.loc 1 1474 1 is_stmt 1
	.cfi_startproc
.LVL889:
	.loc 1 1475 2
	.loc 1 1474 1 is_stmt 0
	addi	sp,sp,-64
	.cfi_def_cfa_offset 64
	sw	s0,56(sp)
	sw	s2,48(sp)
	sw	s3,44(sp)
	sw	s4,40(sp)
	sw	ra,60(sp)
	sw	s1,52(sp)
	sw	s5,36(sp)
	.cfi_offset 8, -8
	.cfi_offset 18, -16
	.cfi_offset 19, -20
	.cfi_offset 20, -24
	.cfi_offset 1, -4
	.cfi_offset 9, -12
	.cfi_offset 21, -28
	addi	s0,sp,64
	.cfi_def_cfa 8, 0
	.loc 1 1475 8
	lbu	s5,2(a0)
	lbu	a5,1(a0)
.LBB620:
.LBB621:
	.loc 2 352 8
	lui	s3,%hi(.LANCHOR2)
.LBE621:
.LBE620:
	.loc 1 1474 1
	mv	s2,a0
.LBB625:
.LBB622:
	.loc 2 352 8
	li	a1,-131072
	addi	a0,s3,%lo(.LANCHOR2)
.LVL890:
.LBE622:
.LBE625:
	.loc 1 1475 8
	slli	s5,s5,8
.LBB626:
.LBB623:
	.loc 2 352 8
	addi	a1,a1,-1
	addi	a0,a0,108
.LBE623:
.LBE626:
	.loc 1 1475 8
	or	s5,s5,a5
.LVL891:
	.loc 1 1476 2 is_stmt 1
	.loc 1 1477 2
	.loc 1 1478 2
	.loc 1 1481 52
	.loc 1 1484 2
.LBB627:
.LBB624:
	.loc 2 349 2
	.loc 2 350 2
	.loc 2 352 2
	.loc 2 352 8 is_stmt 0
	call	atomic_and
.LVL892:
	.loc 2 354 2 is_stmt 1
	.loc 2 354 14 is_stmt 0
	li	a5,131072
	lui	s4,%hi(.LANCHOR2+108)
	and	a0,a0,a5
	addi	s3,s3,%lo(.LANCHOR2)
	addi	s4,s4,%lo(.LANCHOR2+108)
.LBE624:
.LBE627:
	.loc 1 1484 5
	beq	a0,zero,.L545
	.loc 1 1485 3 is_stmt 1
	lui	a1,%hi(update_pending_id)
	li	a2,0
	addi	a1,a1,%lo(update_pending_id)
	li	a0,2
	call	bt_keys_foreach
.LVL893:
.L545:
	.loc 1 1489 2
	.loc 1 1489 5 is_stmt 0
	lbu	a5,0(s2)
	beq	a5,zero,.L546
	.loc 1 1497 3 is_stmt 1
	.loc 1 1497 10 is_stmt 0
	li	a0,0
	call	find_pending_connect
.LVL894:
	mv	s1,a0
.LVL895:
	.loc 1 1498 3 is_stmt 1
	.loc 1 1498 6 is_stmt 0
	beq	a0,zero,.L544
	.loc 1 1502 3 is_stmt 1
	.loc 1 1502 18 is_stmt 0
	lbu	a1,0(s2)
	.loc 1 1509 7
	li	a5,60
	.loc 1 1502 13
	sb	a1,12(a0)
	.loc 1 1504 3 is_stmt 1
	.loc 1 1509 4
	.loc 1 1509 7 is_stmt 0
	bne	a1,a5,.L548
	.loc 1 1510 5 is_stmt 1
.LVL896:
.LBB628:
.LBB629:
	.loc 2 391 2
	.loc 2 393 2
	li	a1,-65
	mv	a0,s4
	call	atomic_and
.LVL897:
.LBE629:
.LBE628:
	.loc 1 1512 5
	li	a1,0
	mv	a0,s1
.L590:
	.loc 1 1527 5 is_stmt 0
	call	bt_conn_set_state
.LVL898:
	.loc 1 1537 5 is_stmt 1
.L549:
	.loc 1 1719 2
	mv	a0,s1
	call	bt_conn_unref
.LVL899:
	.loc 1 1720 2
	.loc 1 1721 3
	li	a0,0
	call	bt_le_scan_update
.LVL900:
	j	.L544
.LVL901:
.L548:
	.loc 1 1518 3
	.loc 1 1522 4
	.loc 1 1522 7 is_stmt 0
	li	a5,2
	bne	a1,a5,.L550
	.loc 1 1527 5 is_stmt 1
	li	a1,0
	j	.L590
.L550:
	.loc 1 1541 3
	lui	a2,%hi(.LANCHOR33)
	lui	a0,%hi(.LC38)
	addi	a2,a2,%lo(.LANCHOR33)
	addi	a0,a0,%lo(.LC38)
	call	printf
.LVL902:
	.loc 1 1543 3
	.loc 1 1723 1 is_stmt 0
	lw	s0,56(sp)
	.cfi_remember_state
	.cfi_restore 8
	.cfi_def_cfa 2, 64
	lw	ra,60(sp)
	.cfi_restore 1
	lw	s2,48(sp)
	.cfi_restore 18
.LVL903:
	lw	s3,44(sp)
	.cfi_restore 19
	lw	s4,40(sp)
	.cfi_restore 20
	lw	s5,36(sp)
	.cfi_restore 21
.LVL904:
	.loc 1 1543 3
	mv	a0,s1
	.loc 1 1723 1
	lw	s1,52(sp)
	.cfi_restore 9
.LVL905:
	addi	sp,sp,64
	.cfi_def_cfa_offset 0
	.loc 1 1543 3
	tail	bt_conn_unref
.LVL906:
.L546:
	.cfi_restore_state
	.loc 1 1548 2 is_stmt 1
	.loc 1 1548 28 is_stmt 0
	addi	a1,s2,4
	.loc 1 1548 2
	addi	a0,s0,-40
	sw	a1,-52(s0)
	call	bt_addr_le_copy
.LVL907:
	.loc 1 1551 2 is_stmt 1
	.loc 1 1551 27 is_stmt 0
	lbu	a5,-40(s0)
	.loc 1 1551 5
	li	s1,1
	lw	a1,-52(s0)
	.loc 1 1551 27
	addi	a5,a5,-2
	andi	a5,a5,0xff
	.loc 1 1551 5
	bgtu	a5,s1,.L551
	.loc 1 1553 3 is_stmt 1
.LBB630:
.LBB631:
	.loc 3 54 2 is_stmt 0
	li	a2,6
	addi	a1,s2,17
	addi	a0,s0,-47
.LBE631:
.LBE630:
	.loc 1 1553 16
	sb	a5,-40(s0)
	.loc 1 1554 3 is_stmt 1
.LVL908:
.LBB633:
.LBB632:
	.loc 3 54 2
	call	memcpy
.LVL909:
.LBE632:
.LBE633:
	.loc 1 1555 3
	.loc 1 1555 18 is_stmt 0
	sb	s1,-48(s0)
.L552:
	.loc 1 1560 2 is_stmt 1
	.loc 1 1560 9 is_stmt 0
	addi	a0,s0,-40
	call	find_pending_connect
.LVL910:
	.loc 1 1562 5
	lbu	a4,3(s2)
	li	a5,1
	.loc 1 1560 9
	mv	s1,a0
.LVL911:
	.loc 1 1562 2 is_stmt 1
	.loc 1 1562 5 is_stmt 0
	bne	a4,a5,.L553
	.loc 1 1568 3 is_stmt 1
.LVL912:
.LBB634:
.LBB635:
	.loc 2 391 2
	.loc 2 393 2
	li	a1,-65
	mv	a0,s4
	call	atomic_and
.LVL913:
.LBE635:
.LBE634:
	.loc 1 1571 3
	.loc 1 1571 6 is_stmt 0
	bne	s1,zero,.L553
	.loc 1 1572 4 is_stmt 1
	.loc 1 1572 11 is_stmt 0
	lbu	a0,8(s3)
	addi	a1,s0,-40
	call	bt_conn_add_le
.LVL914:
	mv	s1,a0
.LVL915:
.L553:
	.loc 1 1576 2 is_stmt 1
	.loc 1 1576 5 is_stmt 0
	lbu	a5,3(s2)
	bne	a5,zero,.L554
	.loc 1 1580 3 is_stmt 1
	.loc 1 1580 6 is_stmt 0
	bne	s1,zero,.L555
	.loc 1 1581 4 is_stmt 1
	.loc 1 1581 11 is_stmt 0
	addi	a1,s0,-40
	li	a0,0
	call	bt_conn_add_le
.LVL916:
	mv	s1,a0
.LVL917:
.L554:
	.loc 1 1585 2 is_stmt 1
	.loc 1 1585 5 is_stmt 0
	bne	s1,zero,.L555
	.loc 1 1586 3 is_stmt 1
	lui	a2,%hi(.LANCHOR33)
	lui	a0,%hi(.LC39)
	addi	a2,a2,%lo(.LANCHOR33)
	mv	a1,s5
	addi	a0,a0,%lo(.LC39)
	call	printf
.LVL918:
	.loc 1 1587 3
.L544:
	.loc 1 1723 1 is_stmt 0
	lw	ra,60(sp)
	.cfi_remember_state
	.cfi_restore 1
	lw	s0,56(sp)
	.cfi_restore 8
	.cfi_def_cfa 2, 64
	lw	s1,52(sp)
	.cfi_restore 9
.LVL919:
	lw	s2,48(sp)
	.cfi_restore 18
	lw	s3,44(sp)
	.cfi_restore 19
	lw	s4,40(sp)
	.cfi_restore 20
	lw	s5,36(sp)
	.cfi_restore 21
.LVL920:
	addi	sp,sp,64
	.cfi_def_cfa_offset 0
	jr	ra
.LVL921:
.L551:
	.cfi_restore_state
	.loc 1 1557 3 is_stmt 1
	addi	a0,s0,-48
	call	bt_addr_le_copy
.LVL922:
	j	.L552
.LVL923:
.L555:
	.loc 1 1590 2
	.loc 1 1590 15 is_stmt 0
	sh	s5,0(s1)
	.loc 1 1591 2 is_stmt 1
	addi	a1,s0,-40
	addi	a0,s1,112
	call	bt_addr_le_copy
.LVL924:
	.loc 1 1592 2
	.loc 1 1592 26 is_stmt 0
	lbu	a5,24(s2)
	lbu	a4,23(s2)
	slli	a5,a5,8
	or	a5,a5,a4
	.loc 1 1592 20
	sh	a5,134(s1)
	.loc 1 1593 2 is_stmt 1
	.loc 1 1593 25 is_stmt 0
	lbu	a5,26(s2)
	lbu	a4,25(s2)
	slli	a5,a5,8
	or	a5,a5,a4
	.loc 1 1593 19
	sh	a5,140(s1)
	.loc 1 1594 2 is_stmt 1
	.loc 1 1594 25 is_stmt 0
	lbu	a5,28(s2)
	lbu	a4,27(s2)
	slli	a5,a5,8
	or	a5,a5,a4
	.loc 1 1594 19
	sh	a5,142(s1)
	.loc 1 1595 2 is_stmt 1
	.loc 1 1595 18 is_stmt 0
	lbu	a5,3(s2)
	.loc 1 1603 5
	li	a4,1
	.loc 1 1596 12
	sb	zero,12(s1)
	.loc 1 1595 13
	sb	a5,3(s1)
	.loc 1 1596 2 is_stmt 1
	.loc 1 1603 2
	.loc 1 1603 5 is_stmt 0
	bne	a5,a4,.L557
	.loc 1 1605 3 is_stmt 1
	addi	a1,s0,-48
	addi	a0,s1,119
	call	bt_addr_le_copy
.LVL925:
	.loc 1 1607 3
	.loc 1 1618 4
	.loc 1 1619 6 is_stmt 0
	lbu	a1,8(s1)
	li	a5,7
	.loc 1 1618 4
	addi	a0,s1,126
	.loc 1 1619 6
	mul	a1,a1,a5
	.loc 1 1618 4
	add	a1,s3,a1
	call	bt_addr_le_copy
.LVL926:
	.loc 1 1634 3 is_stmt 1
	.loc 1 1634 7 is_stmt 0
	li	a1,9
	mv	a0,s4
	call	atomic_test_bit
.LVL927:
	.loc 1 1634 6
	beq	a0,zero,.L557
	.loc 1 1635 25 discriminator 1
	lw	a5,124(s3)
	andi	a5,a5,64
	.loc 1 1634 62 discriminator 1
	beq	a5,zero,.L557
	.loc 1 1636 4 is_stmt 1 discriminator 1
	.loc 1 1640 4 discriminator 1
	li	a0,1
	call	set_advertise_enable
.LVL928:
.L557:
	.loc 1 1644 2
	.loc 1 1644 5 is_stmt 0
	lbu	a5,3(s1)
	bne	a5,zero,.L560
	.loc 1 1647 3 is_stmt 1
	.loc 1 1648 7 is_stmt 0
	li	a1,15
	mv	a0,s4
	call	atomic_test_bit
.LVL929:
	.loc 1 1647 6
	beq	a0,zero,.L561
	.loc 1 1649 4 is_stmt 1
.LBB636:
.LBB637:
	.loc 2 393 2 is_stmt 0
	li	a1,-32768
.LBE637:
.LBE636:
	.loc 1 1649 13
	sb	zero,8(s1)
	.loc 1 1650 4 is_stmt 1
.LVL930:
.LBB639:
.LBB638:
	.loc 2 391 2
	.loc 2 393 2
	addi	a1,a1,-1
	mv	a0,s4
	call	atomic_and
.LVL931:
.L561:
.LBE638:
.LBE639:
	.loc 1 1653 3
	addi	a1,s0,-48
	addi	a0,s1,126
	call	bt_addr_le_copy
.LVL932:
	.loc 1 1655 3
	.loc 1 1666 4
	.loc 1 1667 6 is_stmt 0
	lbu	a1,8(s1)
	li	a5,7
	.loc 1 1666 4
	addi	a0,s1,119
	.loc 1 1667 6
	mul	a1,a1,a5
	.loc 1 1666 4
	add	a1,s3,a1
	call	bt_addr_le_copy
.LVL933:
.L560:
	.loc 1 1678 2 is_stmt 1
	li	a1,4
	mv	a0,s1
	call	bt_conn_set_state
.LVL934:
	.loc 1 1685 2
	.loc 1 1685 5 is_stmt 0
	lbu	a4,13(s1)
	li	a5,4
	bne	a4,a5,.L549
	.loc 1 1689 2 is_stmt 1
	.loc 1 1689 5 is_stmt 0
	lbu	a5,3(s2)
	beq	a5,zero,.L562
	.loc 1 1689 26 discriminator 1
	lbu	a5,112(s3)
	andi	a5,a5,8
	beq	a5,zero,.L563
.L562:
	.loc 1 1691 3 is_stmt 1
.LVL935:
.LBB640:
.LBB641:
	.loc 1 1305 2
	.loc 1 1306 2
	.loc 1 1308 2
	.loc 1 1308 8 is_stmt 0
	li	s3,8192
	li	a1,2
	addi	a0,s3,22
	call	bt_hci_cmd_create
.LVL936:
	mv	s2,a0
.LVL937:
	.loc 1 1310 2 is_stmt 1
	.loc 1 1310 5 is_stmt 0
	beq	a0,zero,.L563
	.loc 1 1314 2 is_stmt 1
	.loc 1 1314 7 is_stmt 0
	li	a1,2
	addi	a0,a0,8
.LVL938:
	call	net_buf_simple_add
.LVL939:
	.loc 1 1315 2 is_stmt 1
	.loc 1 1315 20 is_stmt 0
	lhu	a5,0(s1)
	.loc 1 1316 2
	mv	a1,s2
	.loc 1 1315 13
	sb	a5,0(a0)
	srli	a5,a5,8
	sb	a5,1(a0)
	.loc 1 1316 2 is_stmt 1
	addi	a0,s3,22
.LVL940:
	call	bt_hci_cmd_send
.LVL941:
	.loc 1 1318 2
.LBE641:
.LBE640:
	.loc 1 1692 3
	j	.L549
.LVL942:
.L563:
	.loc 1 1697 2
	.loc 1 1708 2
	.loc 1 1713 2
	.loc 1 1713 5 is_stmt 0
	lbu	a4,3(s1)
	li	a5,1
	bne	a4,a5,.L549
	.loc 1 1715 3 is_stmt 1
	mv	a0,s1
	call	slave_update_conn_param
.LVL943:
	j	.L549
	.cfi_endproc
.LFE126:
	.size	enh_conn_complete, .-enh_conn_complete
	.section	.text.le_enh_conn_complete,"ax",@progbits
	.align	1
	.type	le_enh_conn_complete, @function
le_enh_conn_complete:
.LFB127:
	.loc 1 1726 1
	.cfi_startproc
.LVL944:
	.loc 1 1727 2
	.loc 1 1726 1 is_stmt 0
	addi	sp,sp,-16
	.cfi_def_cfa_offset 16
	sw	s0,12(sp)
	.cfi_offset 8, -4
	addi	s0,sp,16
	.cfi_def_cfa 8, 0
	.loc 1 1728 1
	lw	s0,12(sp)
	.cfi_restore 8
	.cfi_def_cfa 2, 16
	.loc 1 1727 2
	lw	a0,8(a0)
.LVL945:
	.loc 1 1728 1
	addi	sp,sp,16
	.cfi_def_cfa_offset 0
	.loc 1 1727 2
	tail	enh_conn_complete
.LVL946:
	.cfi_endproc
.LFE127:
	.size	le_enh_conn_complete, .-le_enh_conn_complete
	.section	.text.le_legacy_conn_complete,"ax",@progbits
	.align	1
	.type	le_legacy_conn_complete, @function
le_legacy_conn_complete:
.LFB128:
	.loc 1 1731 1 is_stmt 1
	.cfi_startproc
.LVL947:
	.loc 1 1732 2
	.loc 1 1731 1 is_stmt 0
	addi	sp,sp,-64
	.cfi_def_cfa_offset 64
	sw	ra,60(sp)
	sw	s0,56(sp)
	sw	s2,48(sp)
	.cfi_offset 1, -4
	.cfi_offset 8, -8
	.cfi_offset 18, -16
	addi	s0,sp,64
	.cfi_def_cfa 8, 0
	sw	s1,52(sp)
	.cfi_offset 9, -12
	.loc 1 1732 38
	lw	s1,8(a0)
.LVL948:
	.loc 1 1733 2 is_stmt 1
	.loc 1 1734 2
	.loc 1 1737 41
	.loc 1 1739 2
	.loc 1 1747 2 is_stmt 0
	addi	s2,s0,-44
	mv	a0,s2
.LVL949:
	.loc 1 1739 18
	lbu	a5,0(s1)
	.loc 1 1740 18
	lbu	a4,1(s1)
	.loc 1 1747 2
	addi	a1,s1,4
	.loc 1 1739 13
	sb	a5,-48(s0)
	.loc 1 1740 2 is_stmt 1
	.loc 1 1740 18 is_stmt 0
	lbu	a5,2(s1)
	.loc 1 1740 13
	sb	a4,-47(s0)
	sb	a5,-46(s0)
	.loc 1 1741 2 is_stmt 1
	.loc 1 1741 16 is_stmt 0
	lbu	a5,3(s1)
	.loc 1 1741 11
	sb	a5,-45(s0)
	.loc 1 1742 2 is_stmt 1
	.loc 1 1742 20 is_stmt 0
	lbu	a4,11(s1)
	lbu	a5,12(s1)
	.loc 1 1742 15
	sb	a4,-25(s0)
	sb	a5,-24(s0)
	.loc 1 1743 2 is_stmt 1
	.loc 1 1743 19 is_stmt 0
	lbu	a4,13(s1)
	lbu	a5,14(s1)
	.loc 1 1743 14
	sb	a4,-23(s0)
	sb	a5,-22(s0)
	.loc 1 1744 2 is_stmt 1
	.loc 1 1744 24 is_stmt 0
	lbu	a4,15(s1)
	lbu	a5,16(s1)
	.loc 1 1744 19
	sb	a4,-21(s0)
	sb	a5,-20(s0)
	.loc 1 1745 2 is_stmt 1
	.loc 1 1745 26 is_stmt 0
	lbu	a5,17(s1)
	.loc 1 1745 21
	sb	a5,-19(s0)
	.loc 1 1747 2 is_stmt 1
	call	bt_addr_le_copy
.LVL950:
	.loc 1 1749 2
.LBB650:
	.loc 1 1752 3
.LBB651:
.LBB652:
	.loc 3 54 2 is_stmt 0
	addi	a1,s0,-56
	li	a2,6
	addi	a0,s0,-37
.LBE652:
.LBE651:
	.loc 1 1752 46
	sw	zero,-56(s0)
	sh	zero,-52(s0)
.LVL951:
.LBB654:
.LBB653:
	.loc 3 54 2 is_stmt 1
	call	memcpy
.LVL952:
.LBE653:
.LBE654:
.LBE650:
	.loc 1 1755 2
	.loc 1 1755 5 is_stmt 0
	lbu	a4,3(s1)
	li	a5,1
	.loc 1 1756 13
	mv	a1,s2
	.loc 1 1758 13
	li	a0,0
	.loc 1 1755 5
	bne	a4,a5,.L599
	.loc 1 1756 3 is_stmt 1
	.loc 1 1756 13 is_stmt 0
	lui	a5,%hi(.LANCHOR2+8)
	lbu	a0,%lo(.LANCHOR2+8)(a5)
.L599:
	.loc 1 1758 13
	call	bt_lookup_id_addr
.LVL953:
	mv	s1,a0
.LVL954:
	.loc 1 1761 2 is_stmt 1
	.loc 1 1761 5 is_stmt 0
	beq	a0,s2,.L596
	.loc 1 1762 3 is_stmt 1
.LVL955:
.LBB655:
.LBB656:
	.loc 3 54 2
	li	a2,6
	addi	a1,s0,-43
.LVL956:
	addi	a0,s0,-31
.LVL957:
	call	memcpy
.LVL958:
.LBE656:
.LBE655:
	.loc 1 1763 3
	mv	a1,s1
	mv	a0,s2
	call	bt_addr_le_copy
.LVL959:
	.loc 1 1764 3
	.loc 1 1764 22 is_stmt 0
	lbu	a5,-44(s0)
	addi	a5,a5,2
	sb	a5,-44(s0)
.L597:
	.loc 1 1769 2 is_stmt 1
	addi	a0,s0,-48
	call	enh_conn_complete
.LVL960:
	.loc 1 1770 1 is_stmt 0
	lw	ra,60(sp)
	.cfi_remember_state
	.cfi_restore 1
	lw	s0,56(sp)
	.cfi_restore 8
	.cfi_def_cfa 2, 64
	lw	s1,52(sp)
	.cfi_restore 9
.LVL961:
	lw	s2,48(sp)
	.cfi_restore 18
	addi	sp,sp,64
	.cfi_def_cfa_offset 0
	jr	ra
.LVL962:
.L596:
	.cfi_restore_state
.LBB657:
	.loc 1 1766 3 is_stmt 1
.LBB658:
.LBB659:
	.loc 3 54 2 is_stmt 0
	li	a2,6
	addi	a1,s0,-56
	addi	a0,s0,-31
.LBE659:
.LBE658:
	.loc 1 1766 45
	sw	zero,-56(s0)
	sh	zero,-52(s0)
.LVL963:
.LBB661:
.LBB660:
	.loc 3 54 2 is_stmt 1
	call	memcpy
.LVL964:
	j	.L597
.LBE660:
.LBE661:
.LBE657:
	.cfi_endproc
.LFE128:
	.size	le_legacy_conn_complete, .-le_legacy_conn_complete
	.section	.text.le_conn_param_req,"ax",@progbits
	.align	1
	.type	le_conn_param_req, @function
le_conn_param_req:
.LFB134:
	.loc 1 1954 1
	.cfi_startproc
.LVL965:
	.loc 1 1955 2
	.loc 1 1954 1 is_stmt 0
	addi	sp,sp,-48
	.cfi_def_cfa_offset 48
	sw	s0,40(sp)
	sw	ra,44(sp)
	sw	s1,36(sp)
	sw	s2,32(sp)
	sw	s3,28(sp)
	sw	s4,24(sp)
	sw	s5,20(sp)
	.cfi_offset 8, -8
	.cfi_offset 1, -4
	.cfi_offset 9, -12
	.cfi_offset 18, -16
	.cfi_offset 19, -20
	.cfi_offset 20, -24
	.cfi_offset 21, -28
	addi	s0,sp,48
	.cfi_def_cfa 8, 0
	.loc 1 1955 39
	lw	a5,8(a0)
.LVL966:
	.loc 1 1956 2 is_stmt 1
	.loc 1 1957 2
	.loc 1 1958 2
	.loc 1 1960 2
	.loc 1 1960 9 is_stmt 0
	lbu	s2,1(a5)
	lbu	a4,0(a5)
	.loc 1 1961 27
	lbu	a3,2(a5)
	.loc 1 1960 9
	slli	s2,s2,8
	or	s2,s2,a4
.LVL967:
	.loc 1 1961 2 is_stmt 1
	.loc 1 1961 27 is_stmt 0
	lbu	a4,3(a5)
	.loc 1 1966 9
	mv	a0,s2
.LVL968:
	.loc 1 1961 27
	slli	a4,a4,8
	or	a4,a4,a3
	.loc 1 1961 21
	sh	a4,-40(s0)
	.loc 1 1962 2 is_stmt 1
	.loc 1 1962 27 is_stmt 0
	lbu	a4,5(a5)
	lbu	a3,4(a5)
	slli	a4,a4,8
	or	a4,a4,a3
	.loc 1 1962 21
	sh	a4,-38(s0)
	.loc 1 1963 2 is_stmt 1
	.loc 1 1963 22 is_stmt 0
	lbu	a4,7(a5)
	lbu	a3,6(a5)
	slli	a4,a4,8
	or	a4,a4,a3
	.loc 1 1963 16
	sh	a4,-36(s0)
	.loc 1 1964 2 is_stmt 1
	.loc 1 1964 22 is_stmt 0
	lbu	a4,8(a5)
	lbu	a5,9(a5)
.LVL969:
	slli	a5,a5,8
	or	a5,a5,a4
	.loc 1 1964 16
	sh	a5,-34(s0)
	.loc 1 1966 2 is_stmt 1
	.loc 1 1966 9 is_stmt 0
	call	bt_conn_lookup_handle
.LVL970:
	.loc 1 1967 2 is_stmt 1
	.loc 1 1967 5 is_stmt 0
	bne	a0,zero,.L601
	.loc 1 1968 3 is_stmt 1
	lui	a2,%hi(.LANCHOR34)
	lui	a0,%hi(.LC2)
.LVL971:
	mv	a1,s2
	addi	a2,a2,%lo(.LANCHOR34)
	addi	a0,a0,%lo(.LC2)
	call	printf
.LVL972:
	.loc 1 1969 3
	li	a1,2
	mv	a0,s2
	call	le_conn_param_neg_reply
.LVL973:
	.loc 1 1970 3
.L600:
	.loc 1 1980 1 is_stmt 0
	lw	ra,44(sp)
	.cfi_remember_state
	.cfi_restore 1
	lw	s0,40(sp)
	.cfi_restore 8
	.cfi_def_cfa 2, 48
	lw	s1,36(sp)
	.cfi_restore 9
	lw	s2,32(sp)
	.cfi_restore 18
	lw	s3,28(sp)
	.cfi_restore 19
	lw	s4,24(sp)
	.cfi_restore 20
	lw	s5,20(sp)
	.cfi_restore 21
	addi	sp,sp,48
	.cfi_def_cfa_offset 0
	jr	ra
.LVL974:
.L601:
	.cfi_restore_state
	.loc 1 1973 7
	addi	a1,s0,-40
	mv	s4,a0
	.loc 1 1973 2 is_stmt 1
	.loc 1 1973 7 is_stmt 0
	call	le_param_req
.LVL975:
	.loc 1 1973 5
	bne	a0,zero,.L603
	.loc 1 1974 3 is_stmt 1
	li	a1,30
	mv	a0,s2
	call	le_conn_param_neg_reply
.LVL976:
.L604:
	.loc 1 1979 2
	mv	a0,s4
	call	bt_conn_unref
.LVL977:
	j	.L600
.LVL978:
.L603:
	.loc 1 1976 3
.LBB664:
.LBB665:
	.loc 1 1933 2
	.loc 1 1934 2
	.loc 1 1936 2
	.loc 1 1936 8 is_stmt 0
	li	s5,8192
	li	a1,14
	addi	a0,s5,32
	call	bt_hci_cmd_create
.LVL979:
	mv	s3,a0
.LVL980:
	.loc 1 1937 2 is_stmt 1
	.loc 1 1937 5 is_stmt 0
	beq	a0,zero,.L604
	.loc 1 1941 2 is_stmt 1
	.loc 1 1941 7 is_stmt 0
	li	a1,14
	addi	a0,a0,8
.LVL981:
	call	net_buf_simple_add
.LVL982:
	mv	s1,a0
.LVL983:
	.loc 1 1942 2 is_stmt 1
	.loc 1 1942 8 is_stmt 0
	li	a2,14
	li	a1,0
	call	memset
.LVL984:
	.loc 1 1944 2 is_stmt 1
	.loc 1 1944 13 is_stmt 0
	sb	s2,0(s1)
	srli	s2,s2,8
.LVL985:
	sb	s2,1(s1)
	.loc 1 1945 2 is_stmt 1
	.loc 1 1945 19 is_stmt 0
	lbu	a5,-40(s0)
	.loc 1 1950 9
	mv	a1,s3
	addi	a0,s5,32
	.loc 1 1945 19
	sb	a5,2(s1)
	lbu	a5,-39(s0)
	sb	a5,3(s1)
	.loc 1 1946 2 is_stmt 1
	.loc 1 1946 19 is_stmt 0
	lhu	a5,-38(s0)
	sb	a5,4(s1)
	srli	a5,a5,8
	sb	a5,5(s1)
	.loc 1 1947 2 is_stmt 1
	.loc 1 1947 14 is_stmt 0
	lbu	a5,-36(s0)
	sb	a5,6(s1)
	lbu	a5,-35(s0)
	sb	a5,7(s1)
	.loc 1 1948 2 is_stmt 1
	.loc 1 1948 14 is_stmt 0
	lhu	a5,-34(s0)
	sb	a5,8(s1)
	srli	a5,a5,8
	sb	a5,9(s1)
	.loc 1 1950 2 is_stmt 1
	.loc 1 1950 9 is_stmt 0
	call	bt_hci_cmd_send
.LVL986:
	j	.L604
.LBE665:
.LBE664:
	.cfi_endproc
.LFE134:
	.size	le_conn_param_req, .-le_conn_param_req
	.section	.rodata.hci_tx_thread.str1.4,"aMS",@progbits,1
	.align	2
.LC40:
	.string	"Uncleared pending sent_cmd, %s\r\n"
	.align	2
.LC41:
	.string	"Unexpected k_poll event state %u, %s\r\n"
	.section	.text.hci_tx_thread,"ax",@progbits
	.align	1
	.type	hci_tx_thread, @function
hci_tx_thread:
.LFB170:
	.loc 1 4595 1 is_stmt 1
	.cfi_startproc
.LVL987:
	addi	sp,sp,-64
	.cfi_def_cfa_offset 64
	sw	s1,52(sp)
	sw	s2,48(sp)
	.cfi_offset 9, -12
	.cfi_offset 18, -16
.LBB672:
.LBB673:
.LBB674:
.LBB675:
.LBB676:
	.loc 1 4438 8 is_stmt 0
	lui	s1,%hi(.LANCHOR2)
.LBE676:
.LBE675:
.LBE674:
.LBE673:
	.loc 1 4608 19
	lui	s2,%hi(.LANCHOR35)
.LBE672:
	.loc 1 4595 1
	sw	s0,56(sp)
	sw	s5,36(sp)
	sw	s9,20(sp)
	sw	s10,16(sp)
	sw	ra,60(sp)
	sw	s3,44(sp)
	sw	s4,40(sp)
	sw	s6,32(sp)
	sw	s7,28(sp)
	sw	s8,24(sp)
	sw	s11,12(sp)
	.cfi_offset 8, -8
	.cfi_offset 21, -28
	.cfi_offset 25, -44
	.cfi_offset 26, -48
	.cfi_offset 1, -4
	.cfi_offset 19, -20
	.cfi_offset 20, -24
	.cfi_offset 22, -32
	.cfi_offset 23, -36
	.cfi_offset 24, -40
	.cfi_offset 27, -52
	addi	s0,sp,64
	.cfi_def_cfa 8, 0
.LBB698:
	.loc 1 4608 19
	addi	s2,s2,%lo(.LANCHOR35)
	li	s5,-61440
.LBB693:
.LBB688:
.LBB682:
.LBB677:
	.loc 1 4438 8
	addi	s1,s1,%lo(.LANCHOR2)
.LBE677:
.LBE682:
.LBE688:
.LBE693:
.LBE698:
	.loc 1 4595 1
.LBB699:
	.loc 1 4608 19
	addi	s5,s5,-1
	.loc 1 4612 16
	addi	s9,s2,20
.LBB694:
.LBB689:
.LBB683:
.LBB678:
	.loc 1 4438 8
	addi	s10,s1,168
.LVL988:
.L621:
.LBE678:
.LBE683:
.LBE689:
.LBE694:
.LBE699:
	.loc 1 4596 2 is_stmt 1
	.loc 1 4603 2
	.loc 1 4605 2
.LBB700:
	.loc 1 4606 3
	.loc 1 4608 3
	.loc 1 4608 19 is_stmt 0
	lw	a5,12(s2)
	.loc 1 4612 16
	mv	a0,s9
	.loc 1 4608 19
	and	a5,a5,s5
	sw	a5,12(s2)
	.loc 1 4609 3 is_stmt 1
.LVL989:
	.loc 1 4611 3
	.loc 1 4612 4
	.loc 1 4612 16 is_stmt 0
	call	bt_conn_prepare_events
.LVL990:
	.loc 1 4612 13
	addi	s3,a0,1
.LVL991:
	.loc 1 4615 3 is_stmt 1
	.loc 1 4617 3
	.loc 1 4617 9 is_stmt 0
	li	a2,-1
	mv	a1,s3
	mv	a0,s2
	call	k_poll
.LVL992:
	.loc 1 4618 3 is_stmt 1
	.loc 1 4618 5 is_stmt 0
	beq	a0,zero,.L610
	.loc 1 4618 27 is_stmt 1 discriminator 1
	call	user_vAssertCalled
.LVL993:
.L610:
	lui	s6,%hi(.LANCHOR2+152)
.LBB695:
.LBB690:
.LBB684:
.LBB679:
	.loc 1 4462 3 is_stmt 0
	lui	s7,%hi(.LANCHOR15)
.LBE679:
.LBE684:
.LBE690:
.LBE695:
.LBE700:
	.loc 1 4595 1
	mv	s4,s2
	addi	s6,s6,%lo(.LANCHOR2+152)
.LBB701:
.LBB696:
.LBB691:
.LBB685:
.LBB680:
	.loc 1 4460 3
	lui	s8,%hi(.LANCHOR36)
	.loc 1 4462 3
	addi	s7,s7,%lo(.LANCHOR15)
.LVL994:
.L611:
.LBE680:
.LBE685:
	.loc 1 4493 9 is_stmt 1
	.loc 1 4493 2 is_stmt 0
	bne	s3,zero,.L620
.LVL995:
.LBE691:
.LBE696:
	.loc 1 4625 3 is_stmt 1
	call	k_yield
.LVL996:
.LBE701:
	.loc 1 4605 8
	.loc 1 4605 12 is_stmt 0
	j	.L621
.LVL997:
.L620:
.LBB702:
.LBB697:
.LBB692:
	.loc 1 4495 3 is_stmt 1
	.loc 1 4496 3
	.loc 1 4496 13 is_stmt 0
	lw	a1,12(s4)
	.loc 1 4496 3
	li	a5,2
	.loc 1 4496 13
	srli	a1,a1,12
	andi	a1,a1,15
	.loc 1 4496 3
	beq	a1,a5,.L612
	li	a5,4
	beq	a1,a5,.L613
	bne	a1,zero,.L631
.L612:
	.loc 1 4493 16 is_stmt 1
	.loc 1 4493 18 is_stmt 0
	addi	s4,s4,20
.LVL998:
	.loc 1 4493 27
	addi	s3,s3,-1
.LVL999:
	j	.L611
.L613:
	.loc 1 4500 4 is_stmt 1
	.loc 1 4500 10 is_stmt 0
	lbu	a5,12(s4)
	.loc 1 4500 7
	bne	a5,zero,.L615
	.loc 1 4504 5 is_stmt 1
.LBB686:
.LBB681:
	.loc 1 4423 2
	.loc 1 4424 2
	.loc 1 4437 2
	.loc 1 4438 2
	.loc 1 4438 8 is_stmt 0
	li	a1,0
	mv	a0,s10
	call	net_buf_get
.LVL1000:
	mv	s11,a0
.LVL1001:
	.loc 1 4440 2 is_stmt 1
	.loc 1 4440 4 is_stmt 0
	bne	a0,zero,.L616
	.loc 1 4440 21 is_stmt 1
	call	user_vAssertCalled
.LVL1002:
.L616:
	.loc 1 4443 2
	.loc 1 4444 2
	li	a1,-1
	addi	a0,s1,152
	call	k_sem_take
.LVL1003:
	.loc 1 4447 2
	.loc 1 4447 5 is_stmt 0
	lw	a5,164(s1)
	beq	a5,zero,.L617
	.loc 1 4448 3 is_stmt 1
	lui	a0,%hi(.LC40)
	addi	a1,s8,%lo(.LANCHOR36)
	addi	a0,a0,%lo(.LC40)
	call	printf
.LVL1004:
	.loc 1 4449 3
	lw	a0,164(s1)
	call	net_buf_unref
.LVL1005:
	.loc 1 4450 3
	.loc 1 4450 19 is_stmt 0
	sw	zero,164(s1)
.L617:
	.loc 1 4453 2 is_stmt 1
	.loc 1 4453 20 is_stmt 0
	mv	a0,s11
	call	net_buf_ref
.LVL1006:
	.loc 1 4453 18
	sw	a0,164(s1)
	.loc 1 4456 31 is_stmt 1
	.loc 1 4458 2
	.loc 1 4458 8 is_stmt 0
	mv	a0,s11
	call	bt_send
.LVL1007:
	mv	a1,a0
.LVL1008:
	.loc 1 4459 2 is_stmt 1
	.loc 1 4459 5 is_stmt 0
	beq	a0,zero,.L612
	.loc 1 4460 3 is_stmt 1
	lui	a0,%hi(.LC34)
.LVL1009:
	addi	a2,s8,%lo(.LANCHOR36)
	addi	a0,a0,%lo(.LC34)
	call	printf
.LVL1010:
	.loc 1 4461 3
	mv	a0,s6
	call	k_sem_give
.LVL1011:
	.loc 1 4462 3
	.loc 1 4462 27 is_stmt 0
	mv	a0,s11
	call	net_buf_id
.LVL1012:
	.loc 1 4462 3
	li	a5,12
	mul	a0,a0,a5
	mv	a2,s11
	li	a1,31
	add	a0,s7,a0
	lhu	a0,2(a0)
	call	hci_cmd_done
.LVL1013:
	.loc 1 4463 3 is_stmt 1
	lw	a0,164(s1)
	call	net_buf_unref
.LVL1014:
	.loc 1 4464 3
	.loc 1 4465 3 is_stmt 0
	mv	a0,s11
	.loc 1 4464 19
	sw	zero,164(s1)
	.loc 1 4465 3 is_stmt 1
	call	net_buf_unref
.LVL1015:
	j	.L612
.LVL1016:
.L615:
.LBE681:
.LBE686:
	.loc 1 4515 18
.LBB687:
	.loc 1 4516 5
	.loc 1 4518 5
	.loc 1 4518 8 is_stmt 0
	li	a4,1
	bne	a5,a4,.L612
	.loc 1 4519 6 is_stmt 1
.LVL1017:
	.loc 1 4525 6
	.loc 1 4519 11 is_stmt 0
	lw	a0,16(s4)
	.loc 1 4525 6
	addi	a0,a0,-52
.LVL1018:
	call	bt_conn_process_tx
.LVL1019:
	j	.L612
.L631:
.LBE687:
	.loc 1 4533 4 is_stmt 1
	lui	a2,%hi(.LANCHOR37)
	lui	a0,%hi(.LC41)
	addi	a2,a2,%lo(.LANCHOR37)
	addi	a0,a0,%lo(.LC41)
	call	printf
.LVL1020:
	.loc 1 4534 4
	j	.L612
.LBE692:
.LBE697:
.LBE702:
	.cfi_endproc
.LFE170:
	.size	hci_tx_thread, .-hci_tx_thread
	.section	.rodata.bt_recv.str1.4,"aMS",@progbits,1
	.align	2
.LC42:
	.string	"ACL data length mismatch (%u != %u), %s\r\n"
	.align	2
.LC43:
	.string	"Unable to find conn for handle %u, %s\r\n"
	.align	2
.LC44:
	.string	"Invalid buf type %u, %s\r\n"
	.section	.text.bt_recv,"ax",@progbits
	.align	1
	.globl	bt_recv
	.type	bt_recv, @function
bt_recv:
.LFB192:
	.loc 1 5641 1
	.cfi_startproc
.LVL1021:
	.loc 1 5642 2
	.loc 1 5644 2
	.loc 1 5646 2
.LBB711:
.LBB712:
	.loc 8 132 2
.LBE712:
.LBE711:
	.loc 5 1107 2
	.loc 1 5641 1 is_stmt 0
	addi	sp,sp,-32
	.cfi_def_cfa_offset 32
	sw	s0,24(sp)
	sw	s1,20(sp)
	sw	ra,28(sp)
	sw	s2,16(sp)
	sw	s3,12(sp)
	.cfi_offset 8, -8
	.cfi_offset 9, -12
	.cfi_offset 1, -4
	.cfi_offset 18, -16
	.cfi_offset 19, -20
	addi	s0,sp,32
	.cfi_def_cfa 8, 0
.LBB714:
.LBB713:
	.loc 8 132 28
	lbu	a1,20(a0)
.LVL1022:
.LBE713:
.LBE714:
	.loc 1 5646 2
	li	a5,1
	.loc 1 5641 1
	mv	s1,a0
	.loc 1 5646 2
	beq	a1,a5,.L634
	li	a5,3
	bne	a1,a5,.L635
	.loc 1 5650 3 is_stmt 1
.LVL1023:
.LBB715:
.LBB716:
	.loc 1 889 2
	.loc 1 890 2
	.loc 1 891 2
	.loc 1 892 2
	.loc 1 894 2
	.loc 1 896 2
	.loc 1 896 4 is_stmt 0
	lhu	a5,12(a0)
	bgtu	a5,a1,.L636
	.loc 1 896 42 is_stmt 1
	call	user_vAssertCalled
.LVL1024:
.L636:
	.loc 1 898 2
	.loc 1 898 8 is_stmt 0
	li	a1,4
	addi	a0,s1,8
	call	net_buf_simple_pull_mem
.LVL1025:
	.loc 1 899 2 is_stmt 1
	.loc 1 899 6 is_stmt 0
	lbu	a2,3(a0)
	lbu	a5,2(a0)
	.loc 1 900 9
	lbu	s2,1(a0)
	.loc 1 899 6
	slli	a2,a2,8
	or	a2,a2,a5
.LVL1026:
	.loc 1 900 2 is_stmt 1
	.loc 1 900 9 is_stmt 0
	lbu	a5,0(a0)
	slli	s2,s2,8
	.loc 1 908 9
	lhu	a1,12(s1)
	.loc 1 900 9
	or	s2,s2,a5
.LVL1027:
	.loc 1 901 2 is_stmt 1
	.loc 1 903 2
.LBE716:
.LBE715:
	.loc 5 1107 2
.LBB723:
.LBB717:
	.loc 1 903 66 is_stmt 0
	slli	a0,s2,20
.LVL1028:
	srli	a0,a0,20
	.loc 1 904 50
	li	a5,-1
	.loc 1 903 54
	sh	a0,22(s1)
	.loc 1 904 2 is_stmt 1
.LVL1029:
.LBE717:
.LBE723:
	.loc 5 1107 2
.LBB724:
.LBB718:
	.loc 1 904 50 is_stmt 0
	sb	a5,21(s1)
	.loc 1 906 2 is_stmt 1
	.loc 1 908 2
	.loc 1 908 5 is_stmt 0
	beq	a2,a1,.L637
	.loc 1 909 3 is_stmt 1
	lui	a3,%hi(.LANCHOR38)
	lui	a0,%hi(.LC42)
	addi	a3,a3,%lo(.LANCHOR38)
	addi	a0,a0,%lo(.LC42)
	call	printf
.LVL1030:
	.loc 1 910 3
.L647:
.LBE718:
.LBE724:
.LBB725:
.LBB726:
	.loc 1 4414 2
	mv	a0,s1
	call	net_buf_unref
.LVL1031:
	j	.L646
.LVL1032:
.L637:
.LBE726:
.LBE725:
.LBB729:
.LBB719:
	.loc 1 914 2
.LBE719:
.LBE729:
	.loc 5 1107 2
.LBB730:
.LBB720:
	.loc 1 914 9 is_stmt 0
	call	bt_conn_lookup_handle
.LVL1033:
	mv	s3,a0
.LVL1034:
	.loc 1 915 2 is_stmt 1
	.loc 1 915 5 is_stmt 0
	bne	a0,zero,.L639
	.loc 1 916 3 is_stmt 1
.LVL1035:
.LBE720:
.LBE730:
	.loc 5 1107 2
.LBB731:
.LBB721:
	.loc 1 916 3 is_stmt 0
	lhu	a1,22(s1)
	lui	a2,%hi(.LANCHOR38)
	lui	a0,%hi(.LC43)
.LVL1036:
	addi	a2,a2,%lo(.LANCHOR38)
	addi	a0,a0,%lo(.LC43)
	call	printf
.LVL1037:
	.loc 1 917 3 is_stmt 1
	j	.L647
.LVL1038:
.L639:
	.loc 1 921 2
.LBE721:
.LBE731:
	.loc 5 1107 2
.LBB732:
.LBB722:
	.loc 1 921 52 is_stmt 0
	call	bt_conn_index
.LVL1039:
	.loc 1 921 50
	sb	a0,21(s1)
	.loc 1 923 2 is_stmt 1
	srli	a2,s2,12
	mv	a0,s3
	mv	a1,s1
	call	bt_conn_recv
.LVL1040:
	.loc 1 924 2
	mv	a0,s3
	call	bt_conn_unref
.LVL1041:
.L646:
.LBE722:
.LBE732:
	.loc 1 5662 10 is_stmt 0
	li	a0,0
.L633:
	.loc 1 5668 1
	lw	ra,28(sp)
	.cfi_remember_state
	.cfi_restore 1
	lw	s0,24(sp)
	.cfi_restore 8
	.cfi_def_cfa 2, 32
	lw	s1,20(sp)
	.cfi_restore 9
.LVL1042:
	lw	s2,16(sp)
	.cfi_restore 18
	lw	s3,12(sp)
	.cfi_restore 19
	addi	sp,sp,32
	.cfi_def_cfa_offset 0
	jr	ra
.LVL1043:
.L634:
	.cfi_restore_state
	.loc 1 5658 3 is_stmt 1
.LBB733:
.LBB727:
	.loc 1 4404 2
	.loc 1 4406 2
	.loc 1 4406 4 is_stmt 0
	lhu	a5,12(a0)
	bgtu	a5,a1,.L640
	.loc 1 4406 42 is_stmt 1
	call	user_vAssertCalled
.LVL1044:
.L640:
	.loc 1 4408 2
	.loc 1 4408 8 is_stmt 0
	li	a1,2
	addi	a0,s1,8
	call	net_buf_simple_pull_mem
.LVL1045:
	.loc 1 4410 9
	lbu	a4,0(a0)
	li	a5,26
	.loc 1 4408 8
	mv	s2,a0
.LVL1046:
	.loc 1 4409 2 is_stmt 1
	.loc 1 4410 2
.LBE727:
.LBE733:
	.file 9 "/home/quanghaictu/intern/Ai-Thinker-WB2/components/network/ble/blestack/src/include/drivers/bluetooth/hci_driver.h"
	.loc 9 49 2
	bgtu	a4,a5,.L641
	li	a5,1
	sll	a5,a5,a4
	li	a4,67682304
.LVL1047:
	and	a5,a5,a4
	beq	a5,zero,.L641
.LVL1048:
.LBB734:
.LBB728:
	.loc 1 4410 47
	call	user_vAssertCalled
.LVL1049:
.L641:
	.loc 1 4412 2
	lbu	a0,0(s2)
	lui	a2,%hi(.LANCHOR39)
	li	a3,5
	addi	a2,a2,%lo(.LANCHOR39)
	mv	a1,s1
	call	handle_event
.LVL1050:
	j	.L647
.LVL1051:
.L635:
.LBE728:
.LBE734:
	.loc 1 5664 3
	.loc 8 132 2
	.loc 5 1107 2
	.loc 1 5664 3 is_stmt 0
	lui	a2,%hi(.LANCHOR40)
	lui	a0,%hi(.LC44)
	addi	a2,a2,%lo(.LANCHOR40)
	addi	a0,a0,%lo(.LC44)
	call	printf
.LVL1052:
	.loc 1 5665 3 is_stmt 1
	mv	a0,s1
	call	net_buf_unref
.LVL1053:
	.loc 1 5666 3
	.loc 1 5666 10 is_stmt 0
	li	a0,-22
	j	.L633
	.cfi_endproc
.LFE192:
	.size	bt_recv, .-bt_recv
	.section	.text.bt_recv_prio,"ax",@progbits
	.align	1
	.globl	bt_recv_prio
	.type	bt_recv_prio, @function
bt_recv_prio:
.LFB193:
	.loc 1 5686 1 is_stmt 1
	.cfi_startproc
.LVL1054:
	.loc 1 5687 2
	.loc 1 5689 2
	.loc 1 5691 2
.LBB739:
.LBB740:
	.loc 8 132 2
.LBE740:
.LBE739:
	.loc 5 1107 2
	.loc 1 5686 1 is_stmt 0
	addi	sp,sp,-16
	.cfi_def_cfa_offset 16
	sw	s0,8(sp)
	sw	s1,4(sp)
	sw	ra,12(sp)
	sw	s2,0(sp)
	.cfi_offset 8, -8
	.cfi_offset 9, -12
	.cfi_offset 1, -4
	.cfi_offset 18, -16
	addi	s0,sp,16
	.cfi_def_cfa 8, 0
	.loc 1 5691 4
	lbu	a4,20(a0)
	li	a5,1
	.loc 1 5686 1
	mv	s1,a0
	.loc 1 5691 4
	beq	a4,a5,.L649
	.loc 1 5691 52 is_stmt 1 discriminator 1
	call	user_vAssertCalled
.LVL1055:
.L649:
	.loc 1 5692 2
	.loc 1 5692 4 is_stmt 0
	lhu	a4,12(s1)
	li	a5,1
	bgtu	a4,a5,.L650
	.loc 1 5692 42 is_stmt 1 discriminator 1
	call	user_vAssertCalled
.LVL1056:
.L650:
	.loc 1 5694 2
	.loc 1 5694 8 is_stmt 0
	li	a1,2
	addi	a0,s1,8
	call	net_buf_simple_pull_mem
.LVL1057:
	.loc 1 5695 8
	lbu	a4,0(a0)
	li	a5,26
	.loc 1 5694 8
	mv	s2,a0
.LVL1058:
	.loc 1 5695 2 is_stmt 1
	.loc 9 49 2
	bgtu	a4,a5,.L651
	li	a5,1
	sll	a5,a5,a4
	li	a4,67682304
.LVL1059:
	and	a5,a5,a4
	bne	a5,zero,.L652
.L651:
	.loc 9 59 3
.LVL1060:
	.loc 1 5695 46
	call	user_vAssertCalled
.LVL1061:
.L652:
	.loc 1 5697 2
	lbu	a0,0(s2)
	lui	a2,%hi(.LANCHOR41)
	mv	a1,s1
	li	a3,4
	addi	a2,a2,%lo(.LANCHOR41)
	call	handle_event
.LVL1062:
	.loc 1 5699 2
	mv	a0,s1
	call	net_buf_unref
.LVL1063:
	.loc 1 5701 2
	.loc 1 5702 1 is_stmt 0
	lw	ra,12(sp)
	.cfi_restore 1
	lw	s0,8(sp)
	.cfi_restore 8
	.cfi_def_cfa 2, 16
	lw	s1,4(sp)
	.cfi_restore 9
.LVL1064:
	lw	s2,0(sp)
	.cfi_restore 18
.LVL1065:
	li	a0,0
	addi	sp,sp,16
	.cfi_def_cfa_offset 0
	jr	ra
	.cfi_endproc
.LFE193:
	.size	bt_recv_prio, .-bt_recv_prio
	.section	.text.bt_hci_driver_register,"ax",@progbits
	.align	1
	.globl	bt_hci_driver_register
	.type	bt_hci_driver_register, @function
bt_hci_driver_register:
.LFB194:
	.loc 1 5705 1 is_stmt 1
	.cfi_startproc
.LVL1066:
	.loc 1 5706 2
	.loc 1 5705 1 is_stmt 0
	addi	sp,sp,-16
	.cfi_def_cfa_offset 16
	sw	s0,12(sp)
	.loc 1 5706 12
	lui	a4,%hi(.LANCHOR2)
	.cfi_offset 8, -4
	.loc 1 5705 1
	addi	s0,sp,16
	.cfi_def_cfa 8, 0
	.loc 1 5706 12
	addi	a4,a4,%lo(.LANCHOR2)
	.loc 1 5706 5
	lw	a3,180(a4)
	bne	a3,zero,.L656
	.loc 1 5710 5
	lw	a3,12(a0)
	mv	a5,a0
	.loc 1 5710 2 is_stmt 1
	.loc 1 5711 10 is_stmt 0
	li	a0,-22
.LVL1067:
	.loc 1 5710 5
	beq	a3,zero,.L654
	.loc 1 5710 17 discriminator 1
	lw	a3,16(a5)
	beq	a3,zero,.L654
	.loc 1 5714 2 is_stmt 1
	.loc 1 5714 13 is_stmt 0
	sw	a5,180(a4)
	.loc 1 5716 2 is_stmt 1
	.loc 1 5719 52
	.loc 1 5721 2
	.loc 1 5721 9 is_stmt 0
	li	a0,0
.LVL1068:
.L654:
	.loc 1 5722 1
	lw	s0,12(sp)
	.cfi_remember_state
	.cfi_restore 8
	.cfi_def_cfa 2, 16
	addi	sp,sp,16
	.cfi_def_cfa_offset 0
	jr	ra
.LVL1069:
.L656:
	.cfi_restore_state
	.loc 1 5707 10
	li	a0,-120
.LVL1070:
	j	.L654
	.cfi_endproc
.LFE194:
	.size	bt_hci_driver_register, .-bt_hci_driver_register
	.section	.text.bt_finalize_init,"ax",@progbits
	.align	1
	.globl	bt_finalize_init
	.type	bt_finalize_init, @function
bt_finalize_init:
.LFB195:
	.loc 1 5762 1 is_stmt 1
	.cfi_startproc
	.loc 1 5763 2
.LVL1071:
.LBB741:
.LBB742:
	.loc 2 409 2
	.loc 2 411 2
.LBE742:
.LBE741:
	.loc 1 5762 1 is_stmt 0
	addi	sp,sp,-16
	.cfi_def_cfa_offset 16
	sw	s0,8(sp)
	sw	ra,12(sp)
	.cfi_offset 8, -8
	.cfi_offset 1, -4
	addi	s0,sp,16
	.cfi_def_cfa 8, 0
.LBB745:
.LBB743:
	.loc 2 411 2
	lui	a0,%hi(.LANCHOR2+108)
.LBE743:
.LBE745:
	.loc 1 5762 1
.LBB746:
.LBB744:
	.loc 2 411 2
	li	a1,2
	addi	a0,a0,%lo(.LANCHOR2+108)
	call	atomic_or
.LVL1072:
.LBE744:
.LBE746:
	.loc 1 5765 2 is_stmt 1
	.loc 1 5766 3
	.loc 1 5770 1 is_stmt 0
	lw	s0,8(sp)
	.cfi_restore 8
	.cfi_def_cfa 2, 16
	lw	ra,12(sp)
	.cfi_restore 1
	.loc 1 5766 3
	li	a0,0
	.loc 1 5770 1
	addi	sp,sp,16
	.cfi_def_cfa_offset 0
	.loc 1 5766 3
	tail	bt_le_scan_update
.LVL1073:
	.cfi_endproc
.LFE195:
	.size	bt_finalize_init, .-bt_finalize_init
	.section	.text.le_check_valid_scan,"ax",@progbits
	.align	1
	.globl	le_check_valid_scan
	.type	le_check_valid_scan, @function
le_check_valid_scan:
.LFB199:
	.loc 1 6063 1 is_stmt 1
	.cfi_startproc
	.loc 1 6064 5
	.loc 1 6063 1 is_stmt 0
	addi	sp,sp,-16
	.cfi_def_cfa_offset 16
	sw	s0,8(sp)
	sw	ra,12(sp)
	.cfi_offset 8, -8
	.cfi_offset 1, -4
	addi	s0,sp,16
	.cfi_def_cfa 8, 0
	.loc 1 6064 12
	lui	a0,%hi(.LANCHOR2+108)
	.loc 1 6063 1
	.loc 1 6064 12
	li	a1,11
	addi	a0,a0,%lo(.LANCHOR2+108)
	call	atomic_test_bit
.LVL1074:
	.loc 1 6065 1
	lw	ra,12(sp)
	.cfi_restore 1
	lw	s0,8(sp)
	.cfi_restore 8
	.cfi_def_cfa 2, 16
	snez	a0,a0
	addi	sp,sp,16
	.cfi_def_cfa_offset 0
	jr	ra
	.cfi_endproc
.LFE199:
	.size	le_check_valid_scan, .-le_check_valid_scan
	.section	.text.le_check_valid_adv,"ax",@progbits
	.align	1
	.globl	le_check_valid_adv
	.type	le_check_valid_adv, @function
le_check_valid_adv:
.LFB200:
	.loc 1 6068 1 is_stmt 1
	.cfi_startproc
	.loc 1 6069 6
	.loc 1 6068 1 is_stmt 0
	addi	sp,sp,-16
	.cfi_def_cfa_offset 16
	sw	s0,8(sp)
	sw	ra,12(sp)
	.cfi_offset 8, -8
	.cfi_offset 1, -4
	addi	s0,sp,16
	.cfi_def_cfa 8, 0
	.loc 1 6069 13
	lui	a0,%hi(.LANCHOR2+108)
	.loc 1 6068 1
	.loc 1 6069 13
	li	a1,6
	addi	a0,a0,%lo(.LANCHOR2+108)
	call	atomic_test_bit
.LVL1075:
	.loc 1 6070 1
	lw	ra,12(sp)
	.cfi_restore 1
	lw	s0,8(sp)
	.cfi_restore 8
	.cfi_def_cfa 2, 16
	snez	a0,a0
	addi	sp,sp,16
	.cfi_def_cfa_offset 0
	jr	ra
	.cfi_endproc
.LFE200:
	.size	le_check_valid_adv, .-le_check_valid_adv
	.section	.text.bt_delete_queue,"ax",@progbits
	.align	1
	.globl	bt_delete_queue
	.type	bt_delete_queue, @function
bt_delete_queue:
.LFB201:
	.loc 1 6083 1 is_stmt 1
	.cfi_startproc
.LVL1076:
	.loc 1 6084 5
	.loc 1 6085 5
	.loc 1 6083 1 is_stmt 0
	addi	sp,sp,-16
	.cfi_def_cfa_offset 16
	sw	s0,8(sp)
	sw	s1,4(sp)
	sw	ra,12(sp)
	.cfi_offset 8, -8
	.cfi_offset 9, -12
	.cfi_offset 1, -4
	addi	s0,sp,16
	.cfi_def_cfa 8, 0
	.loc 1 6083 1
	mv	s1,a0
	.loc 1 6085 11
	li	a1,0
.LVL1077:
.L670:
	.loc 1 6088 15
	call	net_buf_get
.LVL1078:
	.loc 1 6086 10 is_stmt 1
	bne	a0,zero,.L668
	.loc 1 6091 5
	.loc 1 6092 1 is_stmt 0
	lw	s0,8(sp)
	.cfi_remember_state
	.cfi_restore 8
	.cfi_def_cfa 2, 16
	lw	ra,12(sp)
	.cfi_restore 1
	.loc 1 6091 5
	mv	a0,s1
.LVL1079:
	.loc 1 6092 1
	lw	s1,4(sp)
	.cfi_restore 9
.LVL1080:
	addi	sp,sp,16
	.cfi_def_cfa_offset 0
	.loc 1 6091 5
	tail	k_queue_free
.LVL1081:
.L668:
	.cfi_restore_state
	.loc 1 6087 9 is_stmt 1
	call	net_buf_unref
.LVL1082:
	.loc 1 6088 9
	.loc 1 6088 15 is_stmt 0
	li	a1,0
	mv	a0,s1
	j	.L670
	.cfi_endproc
.LFE201:
	.size	bt_delete_queue, .-bt_delete_queue
	.section	.text.bt_disable_action,"ax",@progbits
	.align	1
	.globl	bt_disable_action
	.type	bt_disable_action, @function
bt_disable_action:
.LFB202:
	.loc 1 6108 1 is_stmt 1
	.cfi_startproc
	.loc 1 6113 5
	.loc 1 6108 1 is_stmt 0
	addi	sp,sp,-16
	.cfi_def_cfa_offset 16
	sw	ra,12(sp)
	sw	s0,8(sp)
	sw	s1,4(sp)
	.cfi_offset 1, -4
	.cfi_offset 8, -8
	.cfi_offset 9, -12
	addi	s0,sp,16
	.cfi_def_cfa 8, 0
	.loc 1 6113 5
	call	bt_gatt_deinit
.LVL1083:
	.loc 1 6116 5 is_stmt 1
	lui	a0,%hi(recv_fifo)
	addi	a0,a0,%lo(recv_fifo)
	call	bt_delete_queue
.LVL1084:
	.loc 1 6117 5
	lui	a0,%hi(g_work_queue_main)
	addi	a0,a0,%lo(g_work_queue_main)
	.loc 1 6118 5 is_stmt 0
	lui	s1,%hi(.LANCHOR2)
	.loc 1 6117 5
	call	bt_delete_queue
.LVL1085:
	.loc 1 6118 5 is_stmt 1
	addi	s1,s1,%lo(.LANCHOR2)
	addi	a0,s1,168
	call	bt_delete_queue
.LVL1086:
	.loc 1 6120 5
	lui	a0,%hi(free_tx)
	addi	a0,a0,%lo(free_tx)
	call	k_queue_free
.LVL1087:
	.loc 1 6123 5
	addi	a0,s1,152
	call	k_sem_delete
.LVL1088:
	.loc 1 6124 5
	lui	a0,%hi(g_poll_sem)
	addi	a0,a0,%lo(g_poll_sem)
	call	k_sem_delete
.LVL1089:
	.loc 1 6126 5
	lui	a0,%hi(sc_local_pkey_ready)
	addi	a0,a0,%lo(sc_local_pkey_ready)
	call	k_sem_delete
.LVL1090:
	.loc 1 6129 5
	addi	a0,s1,132
	call	k_sem_delete
.LVL1091:
	.loc 1 6132 5
.LBB747:
.LBB748:
	.loc 2 391 2
	.loc 2 393 2
	li	a1,-2
	addi	a0,s1,108
	call	atomic_and
.LVL1092:
.LBE748:
.LBE747:
	.loc 1 6135 5
	lui	a0,%hi(hci_cmd_pool)
	addi	a0,a0,%lo(hci_cmd_pool)
	call	net_buf_deinit
.LVL1093:
	.loc 1 6136 5
	lui	a0,%hi(hci_rx_pool)
	addi	a0,a0,%lo(hci_rx_pool)
	call	net_buf_deinit
.LVL1094:
	.loc 1 6138 5
	lui	a0,%hi(acl_tx_pool)
	addi	a0,a0,%lo(acl_tx_pool)
	call	net_buf_deinit
.LVL1095:
	.loc 1 6139 5
	lui	a0,%hi(num_complete_pool)
	addi	a0,a0,%lo(num_complete_pool)
	call	net_buf_deinit
.LVL1096:
	.loc 1 6163 5
	call	bl_onchiphci_interface_deinit
.LVL1097:
	.loc 1 6166 5
	call	ble_controller_deinit
.LVL1098:
	.loc 1 6170 5
	lui	a0,%hi(.LANCHOR42)
	addi	a0,a0,%lo(.LANCHOR42)
	call	k_thread_delete
.LVL1099:
	.loc 1 6171 5
	lui	a0,%hi(work_q_thread)
	addi	a0,a0,%lo(work_q_thread)
	call	k_thread_delete
.LVL1100:
	.loc 1 6172 5
	lui	a0,%hi(recv_thread_data)
	addi	a0,a0,%lo(recv_thread_data)
	call	k_thread_delete
.LVL1101:
	.loc 1 6175 5
	.loc 1 6176 1 is_stmt 0
	lw	ra,12(sp)
	.cfi_restore 1
	lw	s0,8(sp)
	.cfi_restore 8
	.cfi_def_cfa 2, 16
	lw	s1,4(sp)
	.cfi_restore 9
	li	a0,0
	addi	sp,sp,16
	.cfi_def_cfa_offset 0
	jr	ra
	.cfi_endproc
.LFE202:
	.size	bt_disable_action, .-bt_disable_action
	.section	.text.bt_disable,"ax",@progbits
	.align	1
	.globl	bt_disable
	.type	bt_disable, @function
bt_disable:
.LFB203:
	.loc 1 6179 1 is_stmt 1
	.cfi_startproc
	.loc 1 6180 5
	.loc 1 6179 1 is_stmt 0
	addi	sp,sp,-16
	.cfi_def_cfa_offset 16
	sw	s1,4(sp)
	.cfi_offset 9, -12
	.loc 1 6180 10
	lui	s1,%hi(.LANCHOR2+108)
	.loc 1 6179 1
	sw	s0,8(sp)
	sw	ra,12(sp)
	.cfi_offset 8, -8
	.cfi_offset 1, -4
	addi	s0,sp,16
	.cfi_def_cfa 8, 0
	.loc 1 6180 10
	addi	s1,s1,%lo(.LANCHOR2+108)
	.loc 1 6179 1
	.loc 1 6180 10
	li	a1,0
	mv	a0,s1
	call	atomic_test_bit
.LVL1102:
	.loc 1 6180 8
	beq	a0,zero,.L677
	.loc 1 6183 5 is_stmt 1
	.loc 1 6185 9 is_stmt 0
	call	le_check_valid_conn
.LVL1103:
	.loc 1 6183 7
	beq	a0,zero,.L675
.L676:
	.loc 1 6189 16
	li	a0,-1
.L673:
	.loc 1 6193 1
	lw	ra,12(sp)
	.cfi_remember_state
	.cfi_restore 1
	lw	s0,8(sp)
	.cfi_restore 8
	.cfi_def_cfa 2, 16
	lw	s1,4(sp)
	.cfi_restore 9
	addi	sp,sp,16
	.cfi_def_cfa_offset 0
	jr	ra
.L675:
	.cfi_restore_state
	.loc 1 6187 9
	li	a1,11
	mv	a0,s1
	call	atomic_test_bit
.LVL1104:
	.loc 1 6185 31
	bne	a0,zero,.L676
	.loc 1 6188 10
	li	a1,6
	mv	a0,s1
	call	atomic_test_bit
.LVL1105:
	.loc 1 6188 7
	bne	a0,zero,.L676
	.loc 1 6192 9 is_stmt 1
	.loc 1 6193 1 is_stmt 0
	lw	s0,8(sp)
	.cfi_remember_state
	.cfi_restore 8
	.cfi_def_cfa 2, 16
	lw	ra,12(sp)
	.cfi_restore 1
	lw	s1,4(sp)
	.cfi_restore 9
	addi	sp,sp,16
	.cfi_def_cfa_offset 0
	.loc 1 6192 16
	tail	bt_disable_action
.LVL1106:
.L677:
	.cfi_restore_state
	.loc 1 6181 16
	li	a0,-120
	j	.L673
	.cfi_endproc
.LFE203:
	.size	bt_disable, .-bt_disable
	.section	.text.bt_set_name,"ax",@progbits
	.align	1
	.globl	bt_set_name
	.type	bt_set_name, @function
bt_set_name:
.LFB205:
	.loc 1 6242 1 is_stmt 1
	.cfi_startproc
.LVL1107:
	.loc 1 6244 2
	.loc 1 6242 1 is_stmt 0
	addi	sp,sp,-48
	.cfi_def_cfa_offset 48
	sw	s0,40(sp)
	sw	s2,32(sp)
	sw	ra,44(sp)
	sw	s1,36(sp)
	sw	s3,28(sp)
	.cfi_offset 8, -8
	.cfi_offset 18, -16
	.cfi_offset 1, -4
	.cfi_offset 9, -12
	.cfi_offset 19, -20
	addi	s0,sp,48
	.cfi_def_cfa 8, 0
	.loc 1 6242 1
	mv	s2,a0
	.loc 1 6244 15
	call	strlen
.LVL1108:
	.loc 1 6248 2 is_stmt 1
	.loc 1 6248 5 is_stmt 0
	li	a5,29
	bgtu	a0,a5,.L684
	.loc 1 6252 2 is_stmt 1
	.loc 1 6252 7 is_stmt 0
	lui	s1,%hi(.LANCHOR2)
	addi	s1,s1,%lo(.LANCHOR2)
	addi	s3,s1,184
	mv	a1,s2
	mv	a0,s3
.LVL1109:
	call	strcmp
.LVL1110:
	.loc 1 6252 5
	bne	a0,zero,.L681
.L683:
.LBB752:
.LBB753:
.LBB754:
	li	a0,0
.L679:
.LBE754:
.LBE753:
.LBE752:
	.loc 1 6293 1
	lw	ra,44(sp)
	.cfi_remember_state
	.cfi_restore 1
	lw	s0,40(sp)
	.cfi_restore 8
	.cfi_def_cfa 2, 48
	lw	s1,36(sp)
	.cfi_restore 9
	lw	s2,32(sp)
	.cfi_restore 18
.LVL1111:
	lw	s3,28(sp)
	.cfi_restore 19
	addi	sp,sp,48
	.cfi_def_cfa_offset 0
	jr	ra
.LVL1112:
.L681:
	.cfi_restore_state
.LBB757:
.LBB756:
	.loc 1 6256 2 is_stmt 1
	mv	a1,s2
	li	a2,30
	mv	a0,s3
	call	strncpy
.LVL1113:
	.loc 1 6259 2
	.loc 1 6259 6 is_stmt 0
	addi	s1,s1,108
	li	a1,7
	mv	a0,s1
	call	atomic_test_bit
.LVL1114:
	.loc 1 6259 5
	beq	a0,zero,.L683
.LBB755:
	.loc 1 6260 3 is_stmt 1
	.loc 1 6260 18 is_stmt 0
	li	a5,9
	.loc 1 6260 60
	mv	a0,s2
	.loc 1 6260 18
	sb	a5,-48(s0)
	.loc 1 6260 60
	call	strlen
.LVL1115:
	.loc 1 6260 18
	sb	a0,-47(s0)
	.loc 1 6262 16
	addi	a5,s0,-48
	.loc 1 6264 3
	li	a0,8192
	.loc 1 6262 16
	sw	a5,-40(s0)
	.loc 1 6264 3
	addi	a1,s0,-40
	.loc 1 6262 16
	li	a5,1
	.loc 1 6264 3
	li	a2,1
	addi	a0,a0,9
	.loc 1 6260 18
	sw	s2,-44(s0)
	.loc 1 6262 3 is_stmt 1
	.loc 1 6262 16 is_stmt 0
	sw	a5,-36(s0)
	.loc 1 6264 3 is_stmt 1
	call	set_ad
.LVL1116:
	.loc 1 6267 3
	.loc 1 6267 7 is_stmt 0
	li	a1,6
	mv	a0,s1
	call	atomic_test_bit
.LVL1117:
	.loc 1 6267 6
	beq	a0,zero,.L683
	.loc 1 6268 4 is_stmt 1
	li	a0,0
	call	set_advertise_enable
.LVL1118:
	.loc 1 6269 4
	li	a0,1
	call	set_advertise_enable
.LVL1119:
	j	.L683
.LVL1120:
.L684:
.LBE755:
.LBE756:
.LBE757:
	.loc 1 6249 10 is_stmt 0
	li	a0,-12
.LVL1121:
	j	.L679
	.cfi_endproc
.LFE205:
	.size	bt_set_name, .-bt_set_name
	.section	.rodata.bt_enable.str1.4,"aMS",@progbits,1
	.align	2
.LC45:
	.string	"No HCI driver registered, %s\r\n"
	.align	2
.LC46:
	.string	"BL602-BLE-DEV"
	.align	2
.LC47:
	.string	"hci_tx_thread"
	.align	2
.LC48:
	.string	"HCI driver open failed (%d), %s\r\n"
	.section	.text.bt_enable,"ax",@progbits
	.align	1
	.globl	bt_enable
	.type	bt_enable, @function
bt_enable:
.LFB198:
	.loc 1 5904 1 is_stmt 1
	.cfi_startproc
.LVL1122:
	.loc 1 5905 2
	.loc 1 5907 2
	.loc 1 5904 1 is_stmt 0
	addi	sp,sp,-32
	.cfi_def_cfa_offset 32
	sw	s0,24(sp)
	sw	s1,20(sp)
	sw	ra,28(sp)
	sw	s2,16(sp)
	sw	s3,12(sp)
	sw	s4,8(sp)
	.cfi_offset 8, -8
	.cfi_offset 9, -12
	.cfi_offset 1, -4
	.cfi_offset 18, -16
	.cfi_offset 19, -20
	.cfi_offset 20, -24
	addi	s0,sp,32
	.cfi_def_cfa 8, 0
	.loc 1 5907 13
	lui	s1,%hi(.LANCHOR2)
	.loc 1 5904 1
	.loc 1 5907 13
	addi	s1,s1,%lo(.LANCHOR2)
	.loc 1 5907 5
	lw	a5,180(s1)
	bne	a5,zero,.L693
	.loc 1 5908 3 is_stmt 1
	lui	a1,%hi(.LANCHOR43)
	lui	a0,%hi(.LC45)
.LVL1123:
	addi	a1,a1,%lo(.LANCHOR43)
	addi	a0,a0,%lo(.LC45)
	call	printf
.LVL1124:
	.loc 1 5909 3
	.loc 1 5909 10 is_stmt 0
	li	s2,-19
.L692:
	.loc 1 6054 1
	lw	ra,28(sp)
	.cfi_remember_state
	.cfi_restore 1
	lw	s0,24(sp)
	.cfi_restore 8
	.cfi_def_cfa 2, 32
	lw	s1,20(sp)
	.cfi_restore 9
	lw	s3,12(sp)
	.cfi_restore 19
	lw	s4,8(sp)
	.cfi_restore 20
	mv	a0,s2
	lw	s2,16(sp)
	.cfi_restore 18
	addi	sp,sp,32
	.cfi_def_cfa_offset 0
	jr	ra
.LVL1125:
.L693:
	.cfi_restore_state
	mv	s3,a0
	.loc 1 5912 2 is_stmt 1
.LVL1126:
.LBB760:
.LBB761:
	.loc 2 370 2
	.loc 2 371 2
	.loc 2 373 2
	.loc 2 373 8 is_stmt 0
	li	a1,1
	addi	a0,s1,108
.LVL1127:
	call	atomic_or
.LVL1128:
	.loc 2 375 2 is_stmt 1
	.loc 2 375 14 is_stmt 0
	andi	a0,a0,1
.LBE761:
.LBE760:
	.loc 1 5913 10
	li	s2,-120
	.loc 1 5912 5
	bne	a0,zero,.L692
	.loc 1 5922 9 is_stmt 1
	lui	a0,%hi(hci_cmd_pool)
	li	a3,0
	li	a2,256
	li	a1,2
	addi	a0,a0,%lo(hci_cmd_pool)
	call	net_buf_init
.LVL1129:
	.loc 1 5923 9
	lui	a0,%hi(hci_rx_pool)
	li	a3,0
	li	a2,256
	li	a1,5
	addi	a0,a0,%lo(hci_rx_pool)
	call	net_buf_init
.LVL1130:
	.loc 1 5929 9
	lui	a0,%hi(num_complete_pool)
	li	a3,0
	li	a2,256
	li	a1,1
	addi	a0,a0,%lo(num_complete_pool)
	call	net_buf_init
.LVL1131:
	.loc 1 5948 9
	addi	s4,s1,96
	lui	a1,%hi(init_work)
	addi	a1,a1,%lo(init_work)
	mv	a0,s4
	call	k_work_init
.LVL1132:
	.loc 1 5952 9
	call	k_work_q_start
.LVL1133:
	.loc 1 5955 9
	li	a2,1
	li	a1,1
	addi	a0,s1,152
	call	k_sem_init
.LVL1134:
	.loc 1 5959 9
	li	a1,20
	addi	a0,s1,168
	call	k_queue_init
.LVL1135:
	.loc 1 5964 9
	lui	a0,%hi(g_poll_sem)
	li	a2,1
	li	a1,0
	addi	a0,a0,%lo(g_poll_sem)
	call	k_sem_init
.LVL1136:
	.loc 1 5981 5
	.loc 1 5987 3
	lui	a0,%hi(.LC46)
	addi	a0,a0,%lo(.LC46)
	call	bt_set_name
.LVL1137:
	.loc 1 5991 2
	.loc 1 6001 1 is_stmt 0
	lui	a3,%hi(hci_tx_thread)
	lui	a1,%hi(.LC47)
	lui	a0,%hi(.LANCHOR42)
	.loc 1 5991 11
	lui	a5,%hi(.LANCHOR44)
	.loc 1 6001 1
	li	a4,29
	addi	a3,a3,%lo(hci_tx_thread)
	li	a2,1536
	addi	a1,a1,%lo(.LC47)
	addi	a0,a0,%lo(.LANCHOR42)
	.loc 1 5991 11
	sw	s3,%lo(.LANCHOR44)(a5)
	.loc 1 6001 1 is_stmt 1
	call	k_thread_create
.LVL1138:
	.loc 1 6032 2
	.loc 1 6036 2
	.loc 1 6036 18 is_stmt 0
	lw	a5,180(s1)
	.loc 1 6036 8
	lw	a5,12(a5)
	jalr	a5
.LVL1139:
	mv	s2,a0
.LVL1140:
	.loc 1 6037 2 is_stmt 1
	.loc 1 6037 5 is_stmt 0
	beq	a0,zero,.L695
	.loc 1 6038 3 is_stmt 1
	mv	a1,a0
	lui	a2,%hi(.LANCHOR43)
	lui	a0,%hi(.LC48)
.LVL1141:
	addi	a2,a2,%lo(.LANCHOR43)
	addi	a0,a0,%lo(.LC48)
	call	printf
.LVL1142:
	.loc 1 6039 3
	.loc 1 6039 10 is_stmt 0
	j	.L692
.LVL1143:
.L695:
	.loc 1 6052 2 is_stmt 1
	mv	a0,s4
.LVL1144:
	call	k_work_submit
.LVL1145:
	.loc 1 6053 2
	.loc 1 6053 9 is_stmt 0
	j	.L692
	.cfi_endproc
.LFE198:
	.size	bt_enable, .-bt_enable
	.section	.text.bt_get_name,"ax",@progbits
	.align	1
	.globl	bt_get_name
	.type	bt_get_name, @function
bt_get_name:
.LFB206:
	.loc 1 6296 1 is_stmt 1
	.cfi_startproc
	.loc 1 6298 2
	.loc 1 6296 1 is_stmt 0
	addi	sp,sp,-16
	.cfi_def_cfa_offset 16
	sw	s0,12(sp)
	.cfi_offset 8, -4
	addi	s0,sp,16
	.cfi_def_cfa 8, 0
	.loc 1 6302 1
	lw	s0,12(sp)
	.cfi_restore 8
	.cfi_def_cfa 2, 16
	lui	a0,%hi(.LANCHOR2+184)
	addi	a0,a0,%lo(.LANCHOR2+184)
	addi	sp,sp,16
	.cfi_def_cfa_offset 0
	jr	ra
	.cfi_endproc
.LFE206:
	.size	bt_get_name, .-bt_get_name
	.section	.text.bt_id_get,"ax",@progbits
	.align	1
	.globl	bt_id_get
	.type	bt_id_get, @function
bt_id_get:
.LFB208:
	.loc 1 6319 1 is_stmt 1
	.cfi_startproc
.LVL1146:
	.loc 1 6320 2
	.loc 1 6319 1 is_stmt 0
	addi	sp,sp,-16
	.cfi_def_cfa_offset 16
	sw	s0,8(sp)
	sw	s1,4(sp)
	sw	ra,12(sp)
	sw	s2,0(sp)
	.cfi_offset 8, -8
	.cfi_offset 9, -12
	.cfi_offset 1, -4
	.cfi_offset 18, -16
	mv	s1,a1
	addi	s0,sp,16
	.cfi_def_cfa 8, 0
	.loc 1 6320 39
	lui	a1,%hi(.LANCHOR2)
.LVL1147:
	.loc 1 6319 1
	.loc 1 6320 39
	addi	a4,a1,%lo(.LANCHOR2)
	.loc 1 6320 9
	lw	a5,0(s1)
	lbu	s2,7(a4)
	bleu	s2,a5,.L701
	mv	s2,a5
.L701:
.LVL1148:
	.loc 1 6322 2 is_stmt 1
	li	a2,7
	mul	a2,s2,a2
	addi	a1,a1,%lo(.LANCHOR2)
	call	memcpy
.LVL1149:
	.loc 1 6323 2
	.loc 1 6324 1 is_stmt 0
	lw	ra,12(sp)
	.cfi_restore 1
	lw	s0,8(sp)
	.cfi_restore 8
	.cfi_def_cfa 2, 16
	.loc 1 6323 9
	sw	s2,0(s1)
	.loc 1 6324 1
	lw	s1,4(sp)
	.cfi_restore 9
.LVL1150:
	lw	s2,0(sp)
	.cfi_restore 18
.LVL1151:
	addi	sp,sp,16
	.cfi_def_cfa_offset 0
	jr	ra
	.cfi_endproc
.LFE208:
	.size	bt_id_get, .-bt_id_get
	.section	.rodata.bt_id_create.str1.4,"aMS",@progbits,1
	.align	2
.LC49:
	.string	"Only static random identity address supported, %s\r\n"
	.section	.text.bt_id_create,"ax",@progbits
	.align	1
	.globl	bt_id_create
	.type	bt_id_create, @function
bt_id_create:
.LFB211:
	.loc 1 6383 1 is_stmt 1
	.cfi_startproc
.LVL1152:
	.loc 1 6384 2
	.loc 1 6386 2
	.loc 1 6383 1 is_stmt 0
	addi	sp,sp,-48
	.cfi_def_cfa_offset 48
	sw	s0,40(sp)
	sw	s1,36(sp)
	sw	s2,32(sp)
	sw	ra,44(sp)
	sw	s3,28(sp)
	sw	s4,24(sp)
	.cfi_offset 8, -8
	.cfi_offset 9, -12
	.cfi_offset 18, -16
	.cfi_offset 1, -4
	.cfi_offset 19, -20
	.cfi_offset 20, -24
	addi	s0,sp,48
	.cfi_def_cfa 8, 0
	.loc 1 6383 1
	mv	s2,a0
	mv	s1,a1
.LBB767:
	.loc 1 6386 5
	bne	a0,zero,.L704
.LVL1153:
.L707:
.LBE767:
	.loc 1 6398 2 is_stmt 1
	.loc 1 6399 10 is_stmt 0
	li	s3,-22
	.loc 1 6398 5
	beq	s1,zero,.L719
.LVL1154:
.L703:
	.loc 1 6415 1
	lw	ra,44(sp)
	.cfi_remember_state
	.cfi_restore 1
	lw	s0,40(sp)
	.cfi_restore 8
	.cfi_def_cfa 2, 48
	lw	s1,36(sp)
	.cfi_restore 9
	lw	s2,32(sp)
	.cfi_restore 18
.LVL1155:
	lw	s4,24(sp)
	.cfi_restore 20
	mv	a0,s3
	lw	s3,28(sp)
	.cfi_restore 19
	addi	sp,sp,48
	.cfi_def_cfa_offset 0
	jr	ra
.LVL1156:
.L704:
	.cfi_restore_state
.LBB772:
.LBB768:
.LBB769:
	.loc 3 49 9 discriminator 1
	li	a2,7
	addi	a1,s0,-40
.LBE769:
.LBE768:
	.loc 1 6386 52 discriminator 1
	sw	zero,-40(s0)
	sh	zero,-36(s0)
	sb	zero,-34(s0)
.LVL1157:
.LBB771:
.LBB770:
	.loc 3 49 2 is_stmt 1 discriminator 1
	.loc 3 49 9 is_stmt 0 discriminator 1
	call	memcmp
.LVL1158:
.LBE770:
.LBE771:
	.loc 1 6386 11 discriminator 1
	beq	a0,zero,.L707
	.loc 1 6387 3 is_stmt 1
	.loc 1 6387 6 is_stmt 0
	lbu	a4,0(s2)
	li	a5,1
	bne	a4,a5,.L708
	.loc 1 6387 26 discriminator 1
	lbu	a5,6(s2)
	li	a4,192
	andi	a5,a5,192
	beq	a5,a4,.L709
.L708:
	.loc 1 6389 4 is_stmt 1
	lui	a1,%hi(.LANCHOR45)
	lui	a0,%hi(.LC49)
	addi	a1,a1,%lo(.LANCHOR45)
	addi	a0,a0,%lo(.LC49)
	call	printf
.LVL1159:
	.loc 1 6390 4
	.loc 1 6390 11 is_stmt 0
	li	s3,-22
	j	.L703
.L709:
	.loc 1 6393 3 is_stmt 1
	.loc 1 6393 7 is_stmt 0
	mv	a0,s2
	call	id_find
.LVL1160:
	.loc 1 6394 11
	li	s3,-120
	.loc 1 6393 6
	blt	a0,zero,.L707
	j	.L703
.L719:
.LBE772:
	.loc 1 6402 2 is_stmt 1
	.loc 1 6402 12 is_stmt 0
	lui	a5,%hi(.LANCHOR2)
	addi	a5,a5,%lo(.LANCHOR2)
	lbu	s4,7(a5)
	.loc 1 6402 5
	li	a4,1
	.loc 1 6403 10
	li	s3,-12
	.loc 1 6402 5
	beq	s4,a4,.L703
	.loc 1 6406 2 is_stmt 1
	.loc 1 6406 26 is_stmt 0
	addi	a4,s4,1
	sb	a4,7(a5)
	.loc 1 6406 9
	mv	s3,s4
.LVL1161:
	.loc 1 6407 2 is_stmt 1
	.loc 1 6407 5 is_stmt 0
	bne	s4,zero,.L712
	.loc 1 6408 7 discriminator 1
	addi	s1,a5,108
.LVL1162:
	li	a1,1
	mv	a0,s1
	call	atomic_test_bit
.LVL1163:
	.loc 1 6407 18 discriminator 1
	bne	a0,zero,.L712
	.loc 1 6409 3 is_stmt 1
.LVL1164:
.LBB773:
.LBB774:
	.loc 2 409 2
	.loc 2 411 2
	li	a1,8
	mv	a0,s1
	call	atomic_or
.LVL1165:
.L712:
.LBE774:
.LBE773:
	.loc 1 6412 2
	mv	a1,s2
	mv	a0,s4
	call	id_create.constprop.0
.LVL1166:
	.loc 1 6414 2
	.loc 1 6414 9 is_stmt 0
	j	.L703
	.cfi_endproc
.LFE211:
	.size	bt_id_create, .-bt_id_create
	.section	.rodata.bt_set_id_addr.str1.4,"aMS",@progbits,1
	.align	2
.LC50:
	.string	"Setting identity not allowed after bt_enable(), %s\r\n"
	.section	.text.bt_set_id_addr,"ax",@progbits
	.align	1
	.globl	bt_set_id_addr
	.type	bt_set_id_addr, @function
bt_set_id_addr:
.LFB207:
	.loc 1 6305 1 is_stmt 1
	.cfi_startproc
.LVL1167:
	.loc 1 6306 2
	.loc 1 6308 2
	.loc 1 6305 1 is_stmt 0
	addi	sp,sp,-32
	.cfi_def_cfa_offset 32
	sw	s0,24(sp)
	sw	s1,20(sp)
	sw	ra,28(sp)
	.cfi_offset 8, -8
	.cfi_offset 9, -12
	.cfi_offset 1, -4
	addi	s0,sp,32
	.cfi_def_cfa 8, 0
	mv	s1,a0
	.loc 1 6308 6
	lui	a0,%hi(.LANCHOR2+108)
.LVL1168:
	.loc 1 6305 1
	.loc 1 6308 6
	li	a1,1
	addi	a0,a0,%lo(.LANCHOR2+108)
	call	atomic_test_bit
.LVL1169:
	.loc 1 6308 5
	beq	a0,zero,.L722
	.loc 1 6309 3 is_stmt 1
	lui	a1,%hi(.LANCHOR46)
	lui	a0,%hi(.LC50)
	addi	a1,a1,%lo(.LANCHOR46)
	addi	a0,a0,%lo(.LC50)
	call	printf
.LVL1170:
	.loc 1 6310 3
	.loc 1 6310 10 is_stmt 0
	li	a0,-16
.L721:
	.loc 1 6316 1
	lw	ra,28(sp)
	.cfi_remember_state
	.cfi_restore 1
	lw	s0,24(sp)
	.cfi_restore 8
	.cfi_def_cfa 2, 32
	lw	s1,20(sp)
	.cfi_restore 9
.LVL1171:
	addi	sp,sp,32
	.cfi_def_cfa_offset 0
	jr	ra
.LVL1172:
.L722:
	.cfi_restore_state
	.loc 1 6313 2 is_stmt 1
	mv	a1,s1
	addi	a0,s0,-24
	call	bt_addr_le_copy
.LVL1173:
	.loc 1 6315 2
	.loc 1 6315 9 is_stmt 0
	li	a1,0
	addi	a0,s0,-24
	call	bt_id_create
.LVL1174:
	j	.L721
	.cfi_endproc
.LFE207:
	.size	bt_set_id_addr, .-bt_set_id_addr
	.section	.text.bt_id_reset,"ax",@progbits
	.align	1
	.globl	bt_id_reset
	.type	bt_id_reset, @function
bt_id_reset:
.LFB212:
	.loc 1 6418 1 is_stmt 1
	.cfi_startproc
.LVL1175:
	.loc 1 6419 2
	.loc 1 6418 1 is_stmt 0
	addi	sp,sp,-48
	.cfi_def_cfa_offset 48
	sw	s0,40(sp)
	sw	s1,36(sp)
	sw	s2,32(sp)
	sw	s3,28(sp)
	sw	ra,44(sp)
	.cfi_offset 8, -8
	.cfi_offset 9, -12
	.cfi_offset 18, -16
	.cfi_offset 19, -20
	.cfi_offset 1, -4
	addi	s0,sp,48
	.cfi_def_cfa 8, 0
	.loc 1 6418 1
	mv	s1,a0
	mv	s2,a1
	mv	s3,a2
.LBB782:
	.loc 1 6419 5
	bne	a1,zero,.L726
.LVL1176:
.L729:
.LBE782:
	.loc 1 6431 2 is_stmt 1
	.loc 1 6432 10 is_stmt 0
	li	a0,-22
	.loc 1 6431 5
	beq	s3,zero,.L747
.LVL1177:
.L725:
	.loc 1 6457 1
	lw	ra,44(sp)
	.cfi_remember_state
	.cfi_restore 1
	lw	s0,40(sp)
	.cfi_restore 8
	.cfi_def_cfa 2, 48
	lw	s1,36(sp)
	.cfi_restore 9
	lw	s2,32(sp)
	.cfi_restore 18
.LVL1178:
	lw	s3,28(sp)
	.cfi_restore 19
	addi	sp,sp,48
	.cfi_def_cfa_offset 0
	jr	ra
.LVL1179:
.L726:
	.cfi_restore_state
.LBB787:
.LBB783:
.LBB784:
	.loc 3 49 9 discriminator 1
	li	a2,7
.LVL1180:
	addi	a1,s0,-40
.LVL1181:
	mv	a0,s2
.LVL1182:
.LBE784:
.LBE783:
	.loc 1 6419 52 discriminator 1
	sw	zero,-40(s0)
	sh	zero,-36(s0)
	sb	zero,-34(s0)
.LVL1183:
.LBB786:
.LBB785:
	.loc 3 49 2 is_stmt 1 discriminator 1
	.loc 3 49 9 is_stmt 0 discriminator 1
	call	memcmp
.LVL1184:
.LBE785:
.LBE786:
	.loc 1 6419 11 discriminator 1
	beq	a0,zero,.L729
	.loc 1 6420 3 is_stmt 1
	.loc 1 6420 6 is_stmt 0
	lbu	a4,0(s2)
	li	a5,1
	bne	a4,a5,.L730
	.loc 1 6420 26 discriminator 1
	lbu	a5,6(s2)
	li	a4,192
	andi	a5,a5,192
	beq	a5,a4,.L731
.L730:
	.loc 1 6422 4 is_stmt 1
	lui	a1,%hi(.LANCHOR47)
	lui	a0,%hi(.LC49)
	addi	a1,a1,%lo(.LANCHOR47)
	addi	a0,a0,%lo(.LC49)
	call	printf
.LVL1185:
	.loc 1 6423 4
	.loc 1 6423 11 is_stmt 0
	li	a0,-22
	j	.L725
.L731:
	.loc 1 6426 3 is_stmt 1
	.loc 1 6426 7 is_stmt 0
	mv	a0,s2
	call	id_find
.LVL1186:
	.loc 1 6426 6
	blt	a0,zero,.L729
	.loc 1 6427 11
	li	a0,-120
	j	.L725
.L747:
.LBE787:
	.loc 1 6435 2 is_stmt 1
	.loc 1 6432 10 is_stmt 0
	li	a0,-22
	.loc 1 6435 5
	beq	s1,zero,.L725
	.loc 1 6435 29 discriminator 1
	lui	a5,%hi(.LANCHOR2)
	addi	a4,a5,%lo(.LANCHOR2)
	.loc 1 6435 14 discriminator 1
	lbu	a3,7(a4)
	addi	s3,a5,%lo(.LANCHOR2)
.LVL1187:
	bleu	a3,s1,.L725
	.loc 1 6439 2 is_stmt 1
	.loc 1 6439 5 is_stmt 0
	lbu	a5,8(a4)
	beq	a5,s1,.L733
.L736:
	.loc 1 6444 2 is_stmt 1
.LBB788:
	.loc 1 6445 21 is_stmt 0
	li	a0,7
	mul	a0,s1,a0
.LBB789:
.LBB790:
	.loc 3 49 9
	li	a2,7
	addi	a1,s0,-40
.LBE790:
.LBE789:
	.loc 1 6445 59
	sw	zero,-40(s0)
	sh	zero,-36(s0)
	sb	zero,-34(s0)
.LVL1188:
.LBB792:
.LBB791:
	.loc 3 49 2 is_stmt 1
	.loc 3 49 9 is_stmt 0
	add	a0,s3,a0
	call	memcmp
.LVL1189:
.LBE791:
.LBE792:
	.loc 1 6444 5
	bne	a0,zero,.L734
.L735:
.LBE788:
	.loc 1 6454 2 is_stmt 1
	mv	a0,s1
	mv	a1,s2
	call	id_create.constprop.0
.LVL1190:
	.loc 1 6456 2
	.loc 1 6456 9 is_stmt 0
	mv	a0,s1
	j	.L725
.L733:
	.loc 1 6439 29 discriminator 1
	li	a1,6
	addi	a0,a4,108
	call	atomic_test_bit
.LVL1191:
	mv	a5,a0
	.loc 1 6441 10 discriminator 1
	li	a0,-16
	.loc 1 6439 26 discriminator 1
	beq	a5,zero,.L736
	j	.L725
.L734:
.LBB794:
.LBB793:
	.loc 1 6446 3 is_stmt 1
	.loc 1 6448 3
	.loc 1 6448 9 is_stmt 0
	li	a1,0
	mv	a0,s1
	call	bt_unpair
.LVL1192:
	.loc 1 6449 3 is_stmt 1
	.loc 1 6449 6 is_stmt 0
	beq	a0,zero,.L735
	j	.L725
.LBE793:
.LBE794:
	.cfi_endproc
.LFE212:
	.size	bt_id_reset, .-bt_id_reset
	.section	.text.bt_id_delete,"ax",@progbits
	.align	1
	.globl	bt_id_delete
	.type	bt_id_delete, @function
bt_id_delete:
.LFB213:
	.loc 1 6460 1 is_stmt 1
	.cfi_startproc
.LVL1193:
	.loc 1 6461 2
	.loc 1 6460 1 is_stmt 0
	addi	sp,sp,-48
	.cfi_def_cfa_offset 48
	sw	s0,40(sp)
	sw	s2,32(sp)
	sw	ra,44(sp)
	sw	s1,36(sp)
	sw	s3,28(sp)
	sw	s4,24(sp)
	sw	s5,20(sp)
	.cfi_offset 8, -8
	.cfi_offset 18, -16
	.cfi_offset 1, -4
	.cfi_offset 9, -12
	.cfi_offset 19, -20
	.cfi_offset 20, -24
	.cfi_offset 21, -28
	addi	s0,sp,48
	.cfi_def_cfa 8, 0
	.loc 1 6462 10
	li	s2,-22
	.loc 1 6461 5
	beq	a0,zero,.L749
	.loc 1 6461 29 discriminator 1
	lui	s4,%hi(.LANCHOR2)
	addi	s5,s4,%lo(.LANCHOR2)
	.loc 1 6461 14 discriminator 1
	lbu	a5,7(s5)
	mv	s1,a0
	addi	s4,s4,%lo(.LANCHOR2)
	.loc 1 6462 10 discriminator 1
	li	s2,-22
	.loc 1 6461 14 discriminator 1
	bleu	a5,a0,.L749
	.loc 1 6465 2 is_stmt 1
.LBB799:
	.loc 1 6465 22 is_stmt 0
	li	s3,7
	mul	s3,a0,s3
.LBB800:
.LBB801:
	.loc 3 49 9
	li	a2,7
	addi	a1,s0,-40
.LBE801:
.LBE800:
	.loc 1 6465 60
	sw	zero,-40(s0)
	sh	zero,-36(s0)
	sb	zero,-34(s0)
	.loc 1 6466 10
	li	s2,-120
	.loc 1 6465 22
	add	s3,s5,s3
.LVL1194:
.LBB803:
.LBB802:
	.loc 3 49 2 is_stmt 1
	.loc 3 49 9 is_stmt 0
	mv	a0,s3
.LVL1195:
	call	memcmp
.LVL1196:
.LBE802:
.LBE803:
	.loc 1 6465 5
	beq	a0,zero,.L749
.LBE799:
	.loc 1 6469 2 is_stmt 1
	.loc 1 6469 5 is_stmt 0
	lbu	a5,8(s5)
	beq	a5,s1,.L752
.L754:
	.loc 1 6474 2 is_stmt 1
.LBB804:
	.loc 1 6475 3
	.loc 1 6477 3
	.loc 1 6477 9 is_stmt 0
	li	a1,0
	mv	a0,s1
	call	bt_unpair
.LVL1197:
	mv	s2,a0
.LVL1198:
	.loc 1 6478 3 is_stmt 1
	.loc 1 6478 6 is_stmt 0
	bne	a0,zero,.L749
.LBE804:
	.loc 1 6486 2 is_stmt 1
	addi	a1,s0,-40
	mv	a0,s3
.LVL1199:
	.loc 1 6486 56 is_stmt 0
	sw	zero,-40(s0)
	sh	zero,-36(s0)
	sb	zero,-34(s0)
	.loc 1 6486 2
	call	bt_addr_le_copy
.LVL1200:
	.loc 1 6488 2 is_stmt 1
	.loc 1 6488 18 is_stmt 0
	lbu	a5,7(s4)
	.loc 1 6488 28
	addi	a5,a5,-1
	.loc 1 6488 5
	bne	s1,a5,.L749
	.loc 1 6489 3 is_stmt 1
	.loc 1 6489 18 is_stmt 0
	sb	s1,7(s4)
	j	.L749
.LVL1201:
.L752:
	.loc 1 6469 29 discriminator 1
	li	a1,6
	addi	a0,s5,108
	call	atomic_test_bit
.LVL1202:
	.loc 1 6471 10 discriminator 1
	li	s2,-16
	.loc 1 6469 26 discriminator 1
	beq	a0,zero,.L754
.L749:
	.loc 1 6498 1
	lw	ra,44(sp)
	.cfi_restore 1
	lw	s0,40(sp)
	.cfi_restore 8
	.cfi_def_cfa 2, 48
	lw	s1,36(sp)
	.cfi_restore 9
	lw	s3,28(sp)
	.cfi_restore 19
	lw	s4,24(sp)
	.cfi_restore 20
	lw	s5,20(sp)
	.cfi_restore 21
	mv	a0,s2
	lw	s2,32(sp)
	.cfi_restore 18
	addi	sp,sp,48
	.cfi_def_cfa_offset 0
	jr	ra
	.cfi_endproc
.LFE213:
	.size	bt_id_delete, .-bt_id_delete
	.section	.text.bt_setup_id_addr,"ax",@progbits
	.align	1
	.globl	bt_setup_id_addr
	.type	bt_setup_id_addr, @function
bt_setup_id_addr:
.LFB214:
	.loc 1 6535 1 is_stmt 1
	.cfi_startproc
	.loc 1 6555 2
	.loc 1 6535 1 is_stmt 0
	addi	sp,sp,-16
	.cfi_def_cfa_offset 16
	sw	s0,12(sp)
	.cfi_offset 8, -4
	addi	s0,sp,16
	.cfi_def_cfa 8, 0
	.loc 1 6556 1
	lw	s0,12(sp)
	.cfi_restore 8
	.cfi_def_cfa 2, 16
	.loc 1 6555 9
	li	a1,0
	li	a0,0
	.loc 1 6556 1
	addi	sp,sp,16
	.cfi_def_cfa_offset 0
	.loc 1 6555 9
	tail	bt_id_create
.LVL1203:
	.cfi_endproc
.LFE214:
	.size	bt_setup_id_addr, .-bt_setup_id_addr
	.section	.rodata.init_work.str1.4,"aMS",@progbits,1
	.align	2
.LC51:
	.string	"Non-LE capable controller detected!, %s\r\n"
	.align	2
.LC52:
	.string	"Unable to set identity address, %s\r\n"
	.section	.text.init_work,"ax",@progbits
	.align	1
	.type	init_work, @function
init_work:
.LFB197:
	.loc 1 5857 1 is_stmt 1
	.cfi_startproc
.LVL1204:
	.loc 1 5858 2
	.loc 1 5860 2
.LBB858:
.LBB859:
	.loc 1 5777 2
	.loc 1 5791 5
.LBE859:
.LBE858:
	.loc 1 5857 1 is_stmt 0
	addi	sp,sp,-64
	.cfi_def_cfa_offset 64
	sw	s0,56(sp)
	sw	s1,52(sp)
	sw	ra,60(sp)
	sw	s2,48(sp)
	sw	s3,44(sp)
	.cfi_offset 8, -8
	.cfi_offset 9, -12
	.cfi_offset 1, -4
	.cfi_offset 18, -16
	.cfi_offset 19, -20
	addi	s0,sp,64
	.cfi_def_cfa 8, 0
.LBB937:
.LBB933:
	.loc 1 5791 11
	call	bl_onchiphci_interface_init
.LVL1205:
	mv	s1,a0
.LVL1206:
	.loc 1 5792 5 is_stmt 1
	.loc 1 5792 8 is_stmt 0
	bne	a0,zero,.L763
	.loc 1 5796 2 is_stmt 1
	lui	a5,%hi(host_assist_cb)
	lw	a0,%lo(host_assist_cb)(a5)
.LBB860:
.LBB861:
.LBB862:
.LBB863:
	.loc 1 4789 14 is_stmt 0
	lui	s2,%hi(.LANCHOR2)
.LBE863:
.LBE862:
.LBE861:
.LBE860:
	.loc 1 5796 2
	call	blhast_init
.LVL1207:
	.loc 1 5800 2 is_stmt 1
.LBB929:
.LBB925:
	.loc 1 5584 2
	.loc 1 5586 2
.LBB886:
.LBB885:
	.loc 1 4786 2
	.loc 1 4787 2
	.loc 1 4789 2
	.loc 1 4789 14 is_stmt 0
	addi	a5,s2,%lo(.LANCHOR2)
	.loc 1 4789 18
	lw	a5,180(a5)
	addi	s2,s2,%lo(.LANCHOR2)
	.loc 1 4789 27
	lw	a5,8(a5)
	andi	a5,a5,1
	.loc 1 4789 5
	bne	a5,zero,.L764
	.loc 1 4791 3 is_stmt 1
	.loc 1 4791 9 is_stmt 0
	li	a0,4096
	addi	a2,s0,-52
	li	a1,0
	addi	a0,a0,-1021
	call	bt_hci_cmd_send_sync
.LVL1208:
	mv	s1,a0
.LVL1209:
	.loc 1 4792 3 is_stmt 1
	.loc 1 4792 6 is_stmt 0
	bne	a0,zero,.L763
	.loc 1 4795 3 is_stmt 1
.LVL1210:
.LBB864:
.LBB865:
	.loc 1 3848 2
	.loc 1 3849 2
	.loc 1 3851 2
	.loc 1 3853 2
	.loc 1 3848 7 is_stmt 0
	lw	a5,-52(s0)
	lw	a5,8(a5)
	.loc 1 3853 5
	lbu	a5,0(a5)
	bne	a5,zero,.L766
	call	hci_reset_complete.part.0
.LVL1211:
.L766:
.LBE865:
.LBE864:
	.loc 1 4796 3 is_stmt 1
	lw	a0,-52(s0)
	call	net_buf_unref
.LVL1212:
.L764:
	.loc 1 4800 2
	.loc 1 4800 8 is_stmt 0
	li	s3,4096
	addi	a2,s0,-52
	li	a1,0
	addi	a0,s3,3
	call	bt_hci_cmd_send_sync
.LVL1213:
	mv	s1,a0
.LVL1214:
	.loc 1 4801 2 is_stmt 1
	.loc 1 4801 5 is_stmt 0
	bne	a0,zero,.L763
	.loc 1 4804 2 is_stmt 1
.LVL1215:
.LBB866:
.LBB867:
	.loc 1 4745 2
	.loc 1 4747 2
	.loc 1 4749 2
	.loc 1 4749 31 is_stmt 0
	lw	a5,-52(s0)
	.loc 1 4749 2
	li	a2,8
	addi	a0,s2,24
	.loc 1 4749 31
	lw	a1,8(a5)
	.loc 1 4749 2
	addi	a1,a1,1
	call	memcpy
.LVL1216:
.LBE867:
.LBE866:
	.loc 1 4805 2 is_stmt 1
	lw	a0,-52(s0)
	call	net_buf_unref
.LVL1217:
	.loc 1 4808 2
	.loc 1 4808 8 is_stmt 0
	addi	a2,s0,-52
	li	a1,0
	addi	a0,s3,1
	call	bt_hci_cmd_send_sync
.LVL1218:
	mv	s1,a0
.LVL1219:
	.loc 1 4810 2 is_stmt 1
	.loc 1 4810 5 is_stmt 0
	bne	a0,zero,.L763
	.loc 1 4813 2 is_stmt 1
	lw	a0,-52(s0)
	lw	a5,8(a0)
.LVL1220:
.LBB868:
.LBB869:
	.loc 1 4632 2
	.loc 1 4634 2
	.loc 1 4636 2
	.loc 1 4636 25 is_stmt 0
	lbu	a4,1(a5)
	.loc 1 4636 21
	sb	a4,16(s2)
	.loc 1 4637 2 is_stmt 1
	.loc 1 4637 27 is_stmt 0
	lbu	a4,3(a5)
	lbu	a3,2(a5)
	slli	a4,a4,8
	or	a4,a4,a3
	.loc 1 4637 22
	sh	a4,18(s2)
	.loc 1 4638 2 is_stmt 1
	.loc 1 4638 25 is_stmt 0
	lbu	a4,4(a5)
	.loc 1 4638 21
	sb	a4,17(s2)
	.loc 1 4639 2 is_stmt 1
	.loc 1 4639 29 is_stmt 0
	lbu	a4,8(a5)
	lbu	a3,7(a5)
	slli	a4,a4,8
	or	a4,a4,a3
	.loc 1 4639 24
	sh	a4,20(s2)
	.loc 1 4640 2 is_stmt 1
	.loc 1 4640 27 is_stmt 0
	lbu	a4,5(a5)
	lbu	a5,6(a5)
.LVL1221:
	slli	a5,a5,8
	or	a5,a5,a4
	.loc 1 4640 22
	sh	a5,22(s2)
.LVL1222:
.LBE869:
.LBE868:
	.loc 1 4814 2 is_stmt 1
	call	net_buf_unref
.LVL1223:
	.loc 1 4817 2
	.loc 1 4817 7 is_stmt 0
	li	a1,3
	addi	a0,s2,108
	call	atomic_test_bit
.LVL1224:
	.loc 1 4817 5
	bne	a0,zero,.L767
	.loc 1 4818 3 is_stmt 1
	.loc 1 4818 9 is_stmt 0
	addi	a2,s0,-52
	li	a1,0
	addi	a0,s3,9
	call	bt_hci_cmd_send_sync
.LVL1225:
	mv	s1,a0
.LVL1226:
	.loc 1 4819 3 is_stmt 1
	.loc 1 4819 6 is_stmt 0
	bne	a0,zero,.L763
	.loc 1 4822 3 is_stmt 1
.LVL1227:
.LBB870:
.LBB871:
	.loc 1 4645 2
	.loc 1 4647 2
	.loc 1 4649 2
.LBB872:
	.loc 1 4649 19 is_stmt 0
	lw	a5,-52(s0)
.LBB873:
.LBB874:
	.loc 3 44 9
	li	a2,6
	addi	a1,s0,-48
.LBE874:
.LBE873:
	.loc 1 4649 19
	lw	s1,8(a5)
.LVL1228:
	.loc 1 4649 46
	sw	zero,-48(s0)
	sh	zero,-44(s0)
	.loc 1 4649 19
	addi	s1,s1,1
.LVL1229:
.LBB876:
.LBB875:
	.loc 3 44 2 is_stmt 1
	.loc 3 44 9 is_stmt 0
	mv	a0,s1
.LVL1230:
	call	memcmp
.LVL1231:
.LBE875:
.LBE876:
	.loc 1 4649 5
	beq	a0,zero,.L769
	.loc 1 4650 46
	lui	a5,%hi(.LC0)
	addi	a5,a5,%lo(.LC0)
	lw	a4,0(a5)
	lhu	a5,4(a5)
.LBB877:
.LBB878:
	.loc 3 44 9
	li	a2,6
	addi	a1,s0,-40
	mv	a0,s1
.LBE878:
.LBE877:
	.loc 1 4650 46
	sw	a4,-40(s0)
	sh	a5,-36(s0)
.LVL1232:
.LBB880:
.LBB879:
	.loc 3 44 2 is_stmt 1
	.loc 3 44 9 is_stmt 0
	call	memcmp
.LVL1233:
.LBE879:
.LBE880:
	.loc 1 4649 73
	beq	a0,zero,.L769
.LBE872:
	.loc 1 4655 2 is_stmt 1
.LVL1234:
.LBB881:
.LBB882:
	.loc 3 54 2
	li	a2,6
	mv	a1,s1
	addi	a0,s2,1
	call	memcpy
.LVL1235:
.LBE882:
.LBE881:
	.loc 1 4656 2
	.loc 1 4657 18 is_stmt 0
	li	a5,1
	.loc 1 4656 25
	sb	zero,0(s2)
	.loc 1 4657 2 is_stmt 1
	.loc 1 4657 18 is_stmt 0
	sb	a5,7(s2)
.L769:
.LVL1236:
.LBE871:
.LBE870:
	.loc 1 4823 3 is_stmt 1
	lw	a0,-52(s0)
	call	net_buf_unref
.LVL1237:
.L767:
	.loc 1 4827 2
	.loc 1 4827 8 is_stmt 0
	li	a0,4096
	addi	a2,s0,-52
	li	a1,0
	addi	a0,a0,2
	call	bt_hci_cmd_send_sync
.LVL1238:
	mv	s1,a0
.LVL1239:
	.loc 1 4829 2 is_stmt 1
	.loc 1 4829 5 is_stmt 0
	bne	a0,zero,.L763
	.loc 1 4832 2 is_stmt 1
.LVL1240:
.LBB883:
.LBB884:
	.loc 1 4726 2
	.loc 1 4728 2
	.loc 1 4730 2
	.loc 1 4730 38 is_stmt 0
	lw	a5,-52(s0)
	.loc 1 4730 2
	li	a2,64
	addi	a0,s2,32
	.loc 1 4730 38
	lw	a1,8(a5)
	.loc 1 4730 2
	addi	a1,a1,1
	call	memcpy
.LVL1241:
	.loc 1 4737 2 is_stmt 1
.LBE884:
.LBE883:
	.loc 1 4833 2
	lw	a0,-52(s0)
	call	net_buf_unref
.LVL1242:
	.loc 1 4835 2
	.loc 1 4852 2
.LBE885:
.LBE886:
	.loc 1 5587 2
	.loc 1 5591 2
.LBB887:
.LBB888:
	.loc 1 4920 2
	.loc 1 4921 2
	.loc 1 4922 2
	.loc 1 4925 2
	.loc 1 4925 5 is_stmt 0
	lbu	a5,28(s2)
	andi	a5,a5,64
	bne	a5,zero,.L771
	.loc 1 4926 3 is_stmt 1
	lui	a1,%hi(.LANCHOR48)
	lui	a0,%hi(.LC51)
	addi	a1,a1,%lo(.LANCHOR48)
	addi	a0,a0,%lo(.LC51)
	call	printf
.LVL1243:
	.loc 1 4927 3
.LBE888:
.LBE887:
	.loc 1 5592 2
.LBB915:
.LBB909:
	.loc 1 4927 10 is_stmt 0
	li	s1,-19
.LVL1244:
.L763:
.LBE909:
.LBE915:
.LBE925:
.LBE929:
.LBE933:
.LBE937:
	.loc 1 5861 2 is_stmt 1
	.loc 1 5861 6 is_stmt 0
	lui	a5,%hi(.LANCHOR44)
	lw	a5,%lo(.LANCHOR44)(a5)
	.loc 1 5861 5
	beq	a5,zero,.L762
	.loc 1 5862 3 is_stmt 1
	.loc 1 5864 1 is_stmt 0
	lw	s0,56(sp)
	.cfi_remember_state
	.cfi_restore 8
	.cfi_def_cfa 2, 64
	lw	ra,60(sp)
	.cfi_restore 1
	lw	s2,48(sp)
	.cfi_restore 18
	lw	s3,44(sp)
	.cfi_restore 19
	.loc 1 5862 3
	mv	a0,s1
	.loc 1 5864 1
	lw	s1,52(sp)
	.cfi_restore 9
.LVL1245:
	addi	sp,sp,64
	.cfi_def_cfa_offset 0
	.loc 1 5862 3
	jr	a5
.LVL1246:
.L771:
	.cfi_restore_state
.LBB938:
.LBB934:
.LBB930:
.LBB926:
.LBB916:
.LBB910:
	.loc 1 4931 2 is_stmt 1
	.loc 1 4931 8 is_stmt 0
	li	s3,8192
	addi	a2,s0,-40
	li	a1,0
	addi	a0,s3,3
	call	bt_hci_cmd_send_sync
.LVL1247:
	mv	s1,a0
.LVL1248:
	.loc 1 4933 2 is_stmt 1
	.loc 1 4933 5 is_stmt 0
	bne	a0,zero,.L763
	.loc 1 4936 2 is_stmt 1
.LVL1249:
.LBB889:
.LBB890:
	.loc 1 4662 2
	.loc 1 4664 2
	.loc 1 4666 2
	.loc 1 4666 31 is_stmt 0
	lw	a5,-40(s0)
	.loc 1 4666 2
	li	a2,8
	addi	a0,s2,112
	.loc 1 4666 31
	lw	a1,8(a5)
	.loc 1 4666 2
	addi	a1,a1,1
	call	memcpy
.LVL1250:
.LBE890:
.LBE889:
	.loc 1 4937 2 is_stmt 1
	lw	a0,-40(s0)
	call	net_buf_unref
.LVL1251:
	.loc 1 4941 2
	.loc 1 4941 8 is_stmt 0
	addi	a2,s0,-40
	li	a1,0
	addi	a0,s3,2
	call	bt_hci_cmd_send_sync
.LVL1252:
	mv	s1,a0
.LVL1253:
	.loc 1 4943 2 is_stmt 1
	.loc 1 4943 5 is_stmt 0
	bne	a0,zero,.L763
	.loc 1 4946 2 is_stmt 1
	lw	a5,-40(s0)
	lw	a4,8(a5)
.LVL1254:
.LBB891:
.LBB892:
	.loc 1 4709 2
	.loc 1 4711 2
	.loc 1 4713 2
	.loc 1 4713 21 is_stmt 0
	lbu	a5,2(a4)
.LVL1255:
	lbu	a3,1(a4)
	slli	a5,a5,8
	or	a5,a5,a3
	.loc 1 4713 16
	sh	a5,128(s2)
	.loc 1 4714 2 is_stmt 1
	.loc 1 4714 5 is_stmt 0
	beq	a5,zero,.L773
	.loc 1 4718 2 is_stmt 1
	.loc 1 4720 2
	lbu	a2,3(a4)
	addi	a0,s2,132
	mv	a1,a2
	call	k_sem_init
.LVL1256:
.L773:
.LBE892:
.LBE891:
	.loc 1 4947 2
	lw	a0,-40(s0)
	call	net_buf_unref
.LVL1257:
	.loc 1 4950 2
	.loc 1 4950 5 is_stmt 0
	lbu	a5,28(s2)
	andi	a5,a5,32
	beq	a5,zero,.L774
.L778:
	.loc 1 4970 2 is_stmt 1
	.loc 1 4970 5 is_stmt 0
	lbu	a5,60(s2)
	andi	a5,a5,8
	beq	a5,zero,.L776
	.loc 1 4971 3 is_stmt 1
	.loc 1 4971 9 is_stmt 0
	li	a0,8192
	addi	a2,s0,-40
	li	a1,0
	addi	a0,a0,28
	call	bt_hci_cmd_send_sync
.LVL1258:
	mv	s1,a0
.LVL1259:
	.loc 1 4973 3 is_stmt 1
	.loc 1 4973 6 is_stmt 0
	bne	a0,zero,.L763
	.loc 1 4976 3 is_stmt 1
	lw	a0,-40(s0)
.LVL1260:
.LBB893:
.LBB894:
	.loc 1 4754 2
	.loc 1 4756 2
	.loc 1 4758 2
.LBB895:
.LBB896:
	.loc 7 355 2
.LBE896:
.LBE895:
.LBE894:
.LBE893:
.LBE910:
.LBE916:
.LBE926:
.LBE930:
.LBE934:
.LBE938:
	.loc 7 340 2
	.loc 7 310 2
.LBB939:
.LBB935:
.LBB931:
.LBB927:
.LBB917:
.LBB911:
.LBB903:
.LBB901:
.LBB899:
.LBB897:
	.loc 7 355 46 is_stmt 0
	lw	a5,8(a0)
	lbu	a3,2(a5)
	lbu	a4,1(a5)
	lbu	a2,5(a5)
	slli	a3,a3,8
	or	a3,a3,a4
	lbu	a4,3(a5)
	slli	a4,a4,16
	or	a3,a4,a3
	lbu	a4,4(a5)
	slli	a4,a4,24
	or	a4,a4,a3
	lbu	a3,6(a5)
	slli	a3,a3,8
	or	a2,a3,a2
	lbu	a3,7(a5)
	lbu	a5,8(a5)
.LBE897:
.LBE899:
	.loc 1 4758 19
	sw	a4,120(s2)
.LVL1261:
.LBB900:
.LBB898:
	.loc 7 355 46
	slli	a3,a3,16
	or	a3,a3,a2
	slli	a5,a5,24
	or	a5,a5,a3
.LVL1262:
.LBE898:
.LBE900:
.LBE901:
.LBE903:
.LBE911:
.LBE917:
.LBE927:
.LBE931:
.LBE935:
.LBE939:
	.loc 7 310 2 is_stmt 1
	.loc 7 340 2
	.loc 7 310 2
	.loc 7 310 2
.LBB940:
.LBB936:
.LBB932:
.LBB928:
.LBB918:
.LBB912:
.LBB904:
.LBB902:
	.loc 1 4758 19 is_stmt 0
	sw	a5,124(s2)
.LVL1263:
.LBE902:
.LBE904:
	.loc 1 4977 3 is_stmt 1
	call	net_buf_unref
.LVL1264:
.L776:
	.loc 1 4980 2
	.loc 1 5016 2
	.loc 1 5016 5 is_stmt 0
	lbu	a5,112(s2)
	andi	a5,a5,64
	beq	a5,zero,.L779
	.loc 1 5035 3 is_stmt 1
	.loc 1 5035 9 is_stmt 0
	li	a0,8192
	addi	a2,s0,-40
	li	a1,0
	addi	a0,a0,42
	call	bt_hci_cmd_send_sync
.LVL1265:
	mv	s1,a0
.LVL1266:
	.loc 1 5037 3 is_stmt 1
	.loc 1 5037 6 is_stmt 0
	bne	a0,zero,.L763
	.loc 1 5040 3 is_stmt 1
	lw	a0,-40(s0)
.LVL1267:
.LBB905:
.LBB906:
	.loc 1 4764 2
	.loc 1 4766 2
	.loc 1 4768 2
	.loc 1 4768 24 is_stmt 0
	lw	a5,8(a0)
	lbu	a5,1(a5)
	.loc 1 4768 20
	sb	a5,144(s2)
.LVL1268:
.LBE906:
.LBE905:
	.loc 1 5041 3 is_stmt 1
	call	net_buf_unref
.LVL1269:
.L779:
	.loc 1 5046 2
	.loc 1 5046 8 is_stmt 0
	li	a0,8192
	addi	a2,s0,-40
	li	a1,0
	addi	a0,a0,15
	call	bt_hci_cmd_send_sync
.LVL1270:
	mv	s1,a0
.LVL1271:
	.loc 1 5048 2 is_stmt 1
	.loc 1 5048 5 is_stmt 0
	bne	a0,zero,.L763
	.loc 1 5052 2 is_stmt 1
	lw	a0,-40(s0)
.LVL1272:
.LBB907:
.LBB908:
	.loc 1 4775 2
	.loc 1 4778 2
	.loc 1 4780 2
	.loc 1 4780 24 is_stmt 0
	lw	a5,8(a0)
	lbu	a5,1(a5)
	.loc 1 4780 20
	sb	a5,146(s2)
.LVL1273:
.LBE908:
.LBE907:
	.loc 1 5053 2 is_stmt 1
	call	net_buf_unref
.LVL1274:
	.loc 1 5056 2
	.loc 1 5056 9 is_stmt 0
	call	le_set_event_mask
.LVL1275:
	mv	s1,a0
.LVL1276:
.LBE912:
.LBE918:
	.loc 1 5592 2 is_stmt 1
	.loc 1 5592 5 is_stmt 0
	bne	a0,zero,.L763
	.loc 1 5596 2 is_stmt 1
	.loc 1 5596 5 is_stmt 0
	lbu	a5,28(s2)
	andi	a5,a5,32
	bne	a5,zero,.L780
	.loc 1 5597 3 is_stmt 1
.LBB919:
.LBB920:
	.loc 1 5305 2
	.loc 1 5306 2
	.loc 1 5308 2
	.loc 1 5308 5 is_stmt 0
	lhu	a5,128(s2)
	bne	a5,zero,.L780
	.loc 1 5313 2 is_stmt 1
	.loc 1 5313 8 is_stmt 0
	li	a0,4096
	addi	a2,s0,-40
	li	a1,0
	addi	a0,a0,5
	call	bt_hci_cmd_send_sync
.LVL1277:
	mv	s1,a0
.LVL1278:
	.loc 1 5314 2 is_stmt 1
	.loc 1 5314 5 is_stmt 0
	bne	a0,zero,.L763
	.loc 1 5318 2 is_stmt 1
.LVL1279:
.LBB921:
.LBB922:
	.loc 1 4687 2
	.loc 1 4688 2
	.loc 1 4690 2
	.loc 1 4693 2
	.loc 1 4693 5 is_stmt 0
	lhu	a5,128(s2)
	bne	a5,zero,.L783
	lw	a5,-40(s0)
	.loc 1 4702 2
	addi	a0,s2,132
	lw	a4,8(a5)
	.loc 1 4697 2 is_stmt 1
	.loc 1 4697 21 is_stmt 0
	lbu	a5,2(a4)
	lbu	a3,1(a4)
	slli	a5,a5,8
	or	a5,a5,a3
	.loc 1 4697 16
	sh	a5,128(s2)
.LVL1280:
	.loc 1 4698 2 is_stmt 1
	.loc 1 4700 2
	.loc 1 4702 2
	.loc 1 4698 7 is_stmt 0
	lbu	a2,5(a4)
	lbu	a5,4(a4)
	slli	a2,a2,8
	.loc 1 4702 2
	or	a2,a2,a5
	mv	a1,a2
	call	k_sem_init
.LVL1281:
.L783:
.LBE922:
.LBE921:
	.loc 1 5319 2 is_stmt 1
	lw	a0,-40(s0)
	call	net_buf_unref
.LVL1282:
	.loc 1 5322 2
.LBE920:
.LBE919:
	.loc 1 5598 3
.L780:
	.loc 1 5606 2
	.loc 1 5606 8 is_stmt 0
	call	set_event_mask
.LVL1283:
	mv	s1,a0
.LVL1284:
	.loc 1 5607 2 is_stmt 1
	.loc 1 5607 5 is_stmt 0
	bne	a0,zero,.L763
	.loc 1 5615 2 is_stmt 1
	.loc 1 5615 5 is_stmt 0
	lbu	a5,7(s2)
	bne	a5,zero,.L784
	.loc 1 5616 3 is_stmt 1
	.loc 1 5617 3
	.loc 1 5617 9 is_stmt 0
	call	bt_setup_id_addr
.LVL1285:
	mv	s1,a0
.LVL1286:
	.loc 1 5618 3 is_stmt 1
	.loc 1 5618 6 is_stmt 0
	beq	a0,zero,.L784
	.loc 1 5619 4 is_stmt 1
	lui	a1,%hi(.LANCHOR49)
	lui	a0,%hi(.LC52)
	addi	a1,a1,%lo(.LANCHOR49)
	addi	a0,a0,%lo(.LC52)
	call	printf
.LVL1287:
	.loc 1 5620 4
	.loc 1 5620 11 is_stmt 0
	j	.L763
.LVL1288:
.L774:
.LBB923:
.LBB913:
	.loc 1 4951 3 is_stmt 1
	.loc 1 4951 9 is_stmt 0
	li	s3,4096
	li	a1,2
	addi	a0,s3,-915
	call	bt_hci_cmd_create
.LVL1289:
	mv	s1,a0
.LVL1290:
	.loc 1 4953 3 is_stmt 1
	.loc 1 4953 6 is_stmt 0
	bne	a0,zero,.L777
.LVL1291:
.LBE913:
.LBE923:
	.loc 1 5592 2 is_stmt 1
.LBB924:
.LBB914:
	.loc 1 4954 11 is_stmt 0
	li	s1,-105
	j	.L763
.LVL1292:
.L777:
	.loc 1 4957 3 is_stmt 1
	.loc 1 4957 11 is_stmt 0
	li	a1,2
	addi	a0,a0,8
	call	net_buf_simple_add
.LVL1293:
	.loc 1 4960 3 is_stmt 1
	.loc 1 4960 13 is_stmt 0
	li	a5,1
	sb	a5,0(a0)
	.loc 1 4961 3 is_stmt 1
	.loc 1 4961 16 is_stmt 0
	sb	zero,1(a0)
	.loc 1 4962 3 is_stmt 1
	.loc 1 4962 9 is_stmt 0
	mv	a1,s1
	li	a2,0
	addi	a0,s3,-915
.LVL1294:
	call	bt_hci_cmd_send_sync
.LVL1295:
	mv	s1,a0
.LVL1296:
	.loc 1 4964 3 is_stmt 1
	.loc 1 4964 6 is_stmt 0
	beq	a0,zero,.L778
	j	.L763
.LVL1297:
.L784:
.LBE914:
.LBE924:
.LBE928:
.LBE932:
	.loc 1 5804 2 is_stmt 1
	.loc 1 5805 3
	.loc 1 5805 9 is_stmt 0
	call	bt_conn_init
.LVL1298:
	mv	s1,a0
.LVL1299:
	.loc 1 5806 3 is_stmt 1
	.loc 1 5806 6 is_stmt 0
	bne	a0,zero,.L763
	.loc 1 5837 5 is_stmt 1
	.loc 1 5846 2
	call	bt_finalize_init
.LVL1300:
	.loc 1 5853 2
	.loc 1 5853 9 is_stmt 0
	j	.L763
.LVL1301:
.L762:
.LBE936:
.LBE940:
	.loc 1 5864 1
	lw	ra,60(sp)
	.cfi_restore 1
	lw	s0,56(sp)
	.cfi_restore 8
	.cfi_def_cfa 2, 64
	lw	s1,52(sp)
	.cfi_restore 9
.LVL1302:
	lw	s2,48(sp)
	.cfi_restore 18
	lw	s3,44(sp)
	.cfi_restore 19
	addi	sp,sp,64
	.cfi_def_cfa_offset 0
	jr	ra
	.cfi_endproc
.LFE197:
	.size	init_work, .-init_work
	.section	.text.bt_addr_le_is_bonded,"ax",@progbits
	.align	1
	.globl	bt_addr_le_is_bonded
	.type	bt_addr_le_is_bonded, @function
bt_addr_le_is_bonded:
.LFB215:
	.loc 1 6559 1 is_stmt 1
	.cfi_startproc
.LVL1303:
	.loc 1 6560 2
.LBB941:
	.loc 1 6561 3
.LBE941:
	.loc 1 6559 1 is_stmt 0
	addi	sp,sp,-16
	.cfi_def_cfa_offset 16
	sw	s0,8(sp)
	sw	ra,12(sp)
	.cfi_offset 8, -8
	.cfi_offset 1, -4
	addi	s0,sp,16
	.cfi_def_cfa 8, 0
.LBB942:
	.loc 1 6561 26
	call	bt_keys_find_addr
.LVL1304:
	.loc 1 6564 3 is_stmt 1
	.loc 1 6564 15 is_stmt 0
	beq	a0,zero,.L801
	.loc 1 6564 15 discriminator 1
	lhu	a0,10(a0)
.LVL1305:
	snez	a0,a0
.L800:
.LBE942:
	.loc 1 6568 1 discriminator 6
	lw	ra,12(sp)
	.cfi_remember_state
	.cfi_restore 1
	lw	s0,8(sp)
	.cfi_restore 8
	.cfi_def_cfa 2, 16
	addi	sp,sp,16
	.cfi_def_cfa_offset 0
	jr	ra
.LVL1306:
.L801:
	.cfi_restore_state
.LBB943:
	.loc 1 6564 15
	li	a0,0
.LVL1307:
	j	.L800
.LBE943:
	.cfi_endproc
.LFE215:
	.size	bt_addr_le_is_bonded, .-bt_addr_le_is_bonded
	.section	.text.bt_le_adv_update_data,"ax",@progbits
	.align	1
	.globl	bt_le_adv_update_data
	.type	bt_le_adv_update_data, @function
bt_le_adv_update_data:
.LFB219:
	.loc 1 6687 1 is_stmt 1
	.cfi_startproc
.LVL1308:
	.loc 1 6688 1
	.loc 1 6690 2
	.loc 1 6687 1 is_stmt 0
	addi	sp,sp,-32
	.cfi_def_cfa_offset 32
	sw	s1,20(sp)
	.cfi_offset 9, -12
	.loc 1 6690 7
	lui	s1,%hi(.LANCHOR2+108)
	.loc 1 6687 1
	sw	s0,24(sp)
	sw	s2,16(sp)
	sw	s3,12(sp)
	sw	s4,8(sp)
	sw	s5,4(sp)
	sw	ra,28(sp)
	sw	s6,0(sp)
	.cfi_offset 8, -8
	.cfi_offset 18, -16
	.cfi_offset 19, -20
	.cfi_offset 20, -24
	.cfi_offset 21, -28
	.cfi_offset 1, -4
	.cfi_offset 22, -32
	addi	s0,sp,32
	.cfi_def_cfa 8, 0
	.loc 1 6690 7
	addi	s1,s1,%lo(.LANCHOR2+108)
	.loc 1 6687 1
	mv	s2,a0
	mv	s3,a1
	.loc 1 6690 7
	li	a1,6
.LVL1309:
	mv	a0,s1
.LVL1310:
	.loc 1 6687 1
	mv	s4,a2
	mv	s5,a3
	.loc 1 6690 7
	call	atomic_test_bit
.LVL1311:
	.loc 1 6690 5
	beq	a0,zero,.L804
	.loc 1 6694 2 is_stmt 1
	.loc 1 6694 16 is_stmt 0
	li	a1,8
	mv	a0,s1
	call	atomic_test_bit
.LVL1312:
	mv	s6,a0
.LVL1313:
	.loc 1 6696 2 is_stmt 1
	.loc 1 6696 13 is_stmt 0
	li	a1,7
	mv	a0,s1
.LVL1314:
	call	atomic_test_bit
.LVL1315:
	.loc 1 6698 2 is_stmt 1
	.loc 1 6699 1 is_stmt 0
	lw	s0,24(sp)
	.cfi_remember_state
	.cfi_restore 8
	.cfi_def_cfa 2, 32
	lw	ra,28(sp)
	.cfi_restore 1
	lw	s1,20(sp)
	.cfi_restore 9
	.loc 1 6698 9
	snez	a5,a0
	snez	a4,s6
	mv	a3,s5
	.loc 1 6699 1
	lw	s6,0(sp)
	.cfi_restore 22
.LVL1316:
	lw	s5,4(sp)
	.cfi_restore 21
.LVL1317:
	.loc 1 6698 9
	mv	a2,s4
	mv	a1,s3
	.loc 1 6699 1
	lw	s4,8(sp)
	.cfi_restore 20
.LVL1318:
	lw	s3,12(sp)
	.cfi_restore 19
.LVL1319:
	.loc 1 6698 9
	mv	a0,s2
.LVL1320:
	.loc 1 6699 1
	lw	s2,16(sp)
	.cfi_restore 18
.LVL1321:
	addi	sp,sp,32
	.cfi_def_cfa_offset 0
	.loc 1 6698 9
	tail	le_adv_update
.LVL1322:
.L804:
	.cfi_restore_state
	.loc 1 6699 1
	lw	ra,28(sp)
	.cfi_restore 1
	lw	s0,24(sp)
	.cfi_restore 8
	.cfi_def_cfa 2, 32
	lw	s1,20(sp)
	.cfi_restore 9
	lw	s2,16(sp)
	.cfi_restore 18
.LVL1323:
	lw	s3,12(sp)
	.cfi_restore 19
.LVL1324:
	lw	s4,8(sp)
	.cfi_restore 20
.LVL1325:
	lw	s5,4(sp)
	.cfi_restore 21
.LVL1326:
	lw	s6,0(sp)
	.cfi_restore 22
	li	a0,-11
	addi	sp,sp,32
	.cfi_def_cfa_offset 0
	jr	ra
	.cfi_endproc
.LFE219:
	.size	bt_le_adv_update_data, .-bt_le_adv_update_data
	.section	.text.bt_le_adv_start_internal,"ax",@progbits
	.align	1
	.globl	bt_le_adv_start_internal
	.type	bt_le_adv_start_internal, @function
bt_le_adv_start_internal:
.LFB220:
	.loc 1 6705 1 is_stmt 1
	.cfi_startproc
.LVL1327:
	.loc 1 6706 2
	.loc 1 6707 2
	.loc 1 6708 2
	.loc 1 6709 1
	.loc 1 6705 1 is_stmt 0
	addi	sp,sp,-80
	.cfi_def_cfa_offset 80
	sw	s3,60(sp)
	.cfi_offset 19, -20
	.loc 1 6712 7
	lui	s3,%hi(.LANCHOR2)
	.loc 1 6705 1
	sw	s0,72(sp)
	sw	s1,68(sp)
	sw	s2,64(sp)
	sw	s5,52(sp)
	sw	s7,44(sp)
	sw	s8,40(sp)
	sw	s9,36(sp)
	sw	s10,32(sp)
	sw	ra,76(sp)
	sw	s4,56(sp)
	sw	s6,48(sp)
	sw	s11,28(sp)
	.cfi_offset 8, -8
	.cfi_offset 9, -12
	.cfi_offset 18, -16
	.cfi_offset 21, -28
	.cfi_offset 23, -36
	.cfi_offset 24, -40
	.cfi_offset 25, -44
	.cfi_offset 26, -48
	.cfi_offset 1, -4
	.cfi_offset 20, -24
	.cfi_offset 22, -32
	.cfi_offset 27, -52
	addi	s0,sp,80
	.cfi_def_cfa 8, 0
	.loc 1 6712 7
	addi	s1,s3,%lo(.LANCHOR2)
	.loc 1 6705 1
	mv	s2,a0
	mv	s8,a1
	.loc 1 6712 7
	li	a1,1
.LVL1328:
	addi	a0,s1,108
.LVL1329:
	.loc 1 6705 1
	mv	s9,a2
	mv	s7,a3
	mv	s10,a4
	mv	s5,a5
.LVL1330:
	.loc 1 6710 2 is_stmt 1
	.loc 1 6712 2
	.loc 1 6712 7 is_stmt 0
	call	atomic_test_bit
.LVL1331:
	.loc 1 6712 5
	beq	a0,zero,.L832
	.loc 1 6716 2 is_stmt 1
.LVL1332:
.LBB953:
.LBB954:
	.loc 1 6572 2
.LBB955:
	.loc 1 6572 11 is_stmt 0
	lbu	a0,0(s2)
	.loc 1 6572 5
	lbu	a5,7(s1)
	bgtu	a5,a0,.L808
.L809:
	.loc 1 6574 3 is_stmt 1
.LVL1333:
.LBE955:
.LBE954:
.LBE953:
	.loc 1 6717 10 is_stmt 0
	li	s1,-22
.LVL1334:
.L806:
	.loc 1 6908 1
	lw	ra,76(sp)
	.cfi_remember_state
	.cfi_restore 1
	lw	s0,72(sp)
	.cfi_restore 8
	.cfi_def_cfa 2, 80
	lw	s2,64(sp)
	.cfi_restore 18
.LVL1335:
	lw	s3,60(sp)
	.cfi_restore 19
	lw	s4,56(sp)
	.cfi_restore 20
	lw	s5,52(sp)
	.cfi_restore 21
.LVL1336:
	lw	s6,48(sp)
	.cfi_restore 22
	lw	s7,44(sp)
	.cfi_restore 23
.LVL1337:
	lw	s8,40(sp)
	.cfi_restore 24
.LVL1338:
	lw	s9,36(sp)
	.cfi_restore 25
.LVL1339:
	lw	s10,32(sp)
	.cfi_restore 26
.LVL1340:
	lw	s11,28(sp)
	.cfi_restore 27
	mv	a0,s1
	lw	s1,68(sp)
	.cfi_restore 9
	addi	sp,sp,80
	.cfi_def_cfa_offset 0
	jr	ra
.LVL1341:
.L808:
	.cfi_restore_state
.LBB966:
.LBB963:
.LBB960:
	.loc 1 6573 22
	li	a5,7
	mul	a0,a0,a5
.LBB956:
.LBB957:
	.loc 3 49 9
	li	a2,7
	addi	a1,s0,-80
.LBE957:
.LBE956:
	.loc 1 6573 67
	sw	zero,-80(s0)
	sh	zero,-76(s0)
	sb	zero,-74(s0)
.LVL1342:
.LBB959:
.LBB958:
	.loc 3 49 2 is_stmt 1
	.loc 3 49 9 is_stmt 0
	add	a0,s1,a0
	call	memcmp
.LVL1343:
.LBE958:
.LBE959:
	.loc 1 6572 35
	beq	a0,zero,.L809
.LBE960:
	.loc 1 6592 5
	lbu	a4,147(s1)
	lui	s4,%hi(.LANCHOR2+108)
	.loc 1 6593 13
	lbu	a5,1(s2)
	addi	s3,s3,%lo(.LANCHOR2)
	addi	s4,s4,%lo(.LANCHOR2+108)
	.loc 1 6592 2 is_stmt 1
.LBB961:
.LBB962:
	.loc 1 306 2
.LBE962:
.LBE961:
	.loc 1 6592 5 is_stmt 0
	bne	a4,zero,.L810
	.loc 1 6592 20
	andi	a4,a5,64
.LBE963:
.LBE966:
	.loc 1 6717 10
	li	s1,-22
.LBB967:
.LBB964:
	.loc 1 6592 20
	bne	a4,zero,.L806
	.loc 1 6593 56
	slli	a4,a5,24
	srai	a4,a4,24
	blt	a4,zero,.L806
.L810:
	.loc 1 6599 2 is_stmt 1
	.loc 1 6599 5 is_stmt 0
	andi	a5,a5,16
	bne	a5,zero,.L811
	.loc 1 6599 57
	bne	s5,zero,.L812
.L811:
	.loc 1 6600 3 is_stmt 1
	.loc 1 6600 34 is_stmt 0
	lhu	a5,4(s2)
	.loc 1 6600 6
	lhu	a4,2(s2)
.LBE964:
.LBE967:
	.loc 1 6717 10
	li	s1,-22
.LBB968:
.LBB965:
	.loc 1 6600 6
	bgtu	a4,a5,.L806
	.loc 1 6600 49
	li	a4,16384
	bgtu	a5,a4,.L806
.L812:
.LVL1344:
.LBE965:
.LBE968:
	.loc 1 6720 2 is_stmt 1
	.loc 1 6720 6 is_stmt 0
	li	a1,6
	mv	a0,s4
	call	atomic_test_bit
.LVL1345:
	mv	s1,a0
	.loc 1 6720 5
	bne	a0,zero,.L837
	.loc 1 6724 2 is_stmt 1
	.loc 1 6724 8 is_stmt 0
	li	a2,15
	li	a1,0
	addi	a0,s0,-80
	call	memset
.LVL1346:
	.loc 1 6726 2 is_stmt 1
	.loc 1 6726 25 is_stmt 0
	lhu	a5,2(s2)
	.loc 1 6730 5
	lbu	a4,8(s3)
	.loc 1 6726 25
	sh	a5,-80(s0)
	.loc 1 6727 2 is_stmt 1
	.loc 1 6727 25 is_stmt 0
	lhu	a5,4(s2)
	sh	a5,-78(s0)
	.loc 1 6728 2 is_stmt 1
	.loc 1 6728 24 is_stmt 0
	lui	a5,%hi(.LANCHOR50)
	lbu	a5,%lo(.LANCHOR50)(a5)
	sb	a5,-67(s0)
	.loc 1 6730 2 is_stmt 1
	.loc 1 6730 5 is_stmt 0
	lbu	a5,0(s2)
	beq	a4,a5,.L813
	.loc 1 6731 3 is_stmt 1
.LVL1347:
.LBB969:
.LBB970:
	.loc 2 391 2
	.loc 2 393 2
	li	a1,-65536
	addi	a1,a1,-1
	mv	a0,s4
	call	atomic_and
.LVL1348:
.L813:
.LBE970:
.LBE969:
	.loc 1 6735 2
	.loc 1 6735 12 is_stmt 0
	lbu	a5,1(s2)
	.loc 1 6735 55
	slli	a4,a5,24
	.loc 1 6735 5
	andi	a5,a5,64
	.loc 1 6735 55
	srai	a4,a4,24
	.loc 1 6735 5
	beq	a5,zero,.L814
	.loc 1 6737 27 discriminator 1
	li	a5,3
	.loc 1 6735 55 discriminator 1
	blt	a4,zero,.L860
	.loc 1 6738 9 is_stmt 1
	.loc 1 6739 3
	.loc 1 6739 27 is_stmt 0
	li	a5,1
.L860:
	sb	a5,-66(s0)
.L816:
	.loc 1 6750 2 is_stmt 1
	.loc 1 6750 23 is_stmt 0
	lbu	a5,0(s2)
	.loc 1 6750 16
	sb	a5,8(s3)
	.loc 1 6751 2 is_stmt 1
	.loc 1 6753 11 is_stmt 0
	lbu	a5,1(s2)
	.loc 1 6751 33
	lbu	s6,0(s2)
.LVL1349:
	.loc 1 6753 2 is_stmt 1
	andi	s11,a5,1
	.loc 1 6753 5 is_stmt 0
	beq	s11,zero,.L818
	.loc 1 6754 3 is_stmt 1
	.loc 1 6785 4
	.loc 1 6785 15 is_stmt 0
	li	a0,7
	mul	a0,s6,a0
	add	a5,s3,a0
	.loc 1 6785 7
	lbu	a4,0(a5)
	li	a5,1
	beq	a4,a5,.L819
.LVL1350:
.L822:
	.loc 1 6792 4 is_stmt 1
	.loc 1 6792 37 is_stmt 0
	li	a5,7
	mul	s6,s6,a5
.LVL1351:
	add	s6,s3,s6
	.loc 1 6792 28
	lbu	a5,0(s6)
	sb	a5,-75(s0)
	.loc 1 6795 3 is_stmt 1
	.loc 1 6795 6 is_stmt 0
	bne	s5,zero,.L820
	.loc 1 6815 4 is_stmt 1
	.loc 1 6815 19 is_stmt 0
	sb	zero,-76(s0)
	j	.L824
.LVL1352:
.L814:
	.loc 1 6738 9 is_stmt 1
	.loc 1 6740 9
	.loc 1 6741 27 is_stmt 0
	li	a5,2
	.loc 1 6740 12
	blt	a4,zero,.L860
	.loc 1 6746 3 is_stmt 1
	.loc 1 6746 27 is_stmt 0
	sb	zero,-66(s0)
	j	.L816
.LVL1353:
.L819:
	.loc 1 6786 5 is_stmt 1
	.loc 1 6786 11 is_stmt 0
	addi	a0,a0,1
	add	a0,s3,a0
	call	set_random_address
.LVL1354:
	mv	s1,a0
.LVL1355:
	.loc 1 6787 5 is_stmt 1
	.loc 1 6787 8 is_stmt 0
	beq	a0,zero,.L822
	j	.L806
.LVL1356:
.L820:
	.loc 1 6796 4 is_stmt 1
	.loc 1 6796 7 is_stmt 0
	lbu	a5,1(s2)
	andi	a5,a5,16
	beq	a5,zero,.L823
	.loc 1 6797 20
	li	s11,4
.L823:
	.loc 1 6802 4
	mv	a1,s5
	addi	a0,s0,-74
	sb	s11,-76(s0)
	.loc 1 6802 4 is_stmt 1
	call	bt_addr_le_copy
.LVL1357:
	.loc 1 6804 4
	.loc 1 6804 7 is_stmt 0
	lbu	a5,112(s3)
	andi	a5,a5,64
	beq	a5,zero,.L824
	.loc 1 6806 60
	lbu	a5,1(s2)
	andi	a5,a5,32
	beq	a5,zero,.L824
	.loc 1 6811 5 is_stmt 1
	.loc 1 6811 29 is_stmt 0
	lbu	a5,-75(s0)
	ori	a5,a5,2
	sb	a5,-75(s0)
.L824:
	.loc 1 6865 2 is_stmt 1
	.loc 1 6865 8 is_stmt 0
	li	s6,8192
	li	a1,15
	addi	a0,s6,6
	call	bt_hci_cmd_create
.LVL1358:
	mv	s3,a0
.LVL1359:
	.loc 1 6866 2 is_stmt 1
	.loc 1 6867 10 is_stmt 0
	li	s1,-105
	.loc 1 6866 5
	beq	a0,zero,.L806
	.loc 1 6870 2 is_stmt 1
	li	a2,15
	addi	a1,s0,-80
	addi	a0,a0,8
.LVL1360:
	call	net_buf_simple_add_mem
.LVL1361:
	.loc 1 6872 2
	.loc 1 6872 8 is_stmt 0
	li	a2,0
	mv	a1,s3
	addi	a0,s6,6
	call	bt_hci_cmd_send_sync
.LVL1362:
	mv	s1,a0
.LVL1363:
	.loc 1 6873 2 is_stmt 1
	.loc 1 6873 5 is_stmt 0
	bne	a0,zero,.L806
	.loc 1 6877 2 is_stmt 1
	.loc 1 6877 5 is_stmt 0
	beq	s5,zero,.L829
.L831:
	.loc 1 6886 2 is_stmt 1
	.loc 1 6886 8 is_stmt 0
	li	a0,1
	call	set_advertise_enable
.LVL1364:
	mv	s1,a0
.LVL1365:
	.loc 1 6887 2 is_stmt 1
	.loc 1 6887 5 is_stmt 0
	bne	a0,zero,.L806
	.loc 1 6891 2 is_stmt 1
	lbu	a2,1(s2)
	li	a1,9
	mv	a0,s4
	srli	a2,a2,1
	xori	a2,a2,1
	andi	a2,a2,1
	call	atomic_set_bit_to
.LVL1366:
	.loc 1 6894 2
	lbu	a2,1(s2)
	li	a1,7
	mv	a0,s4
	srli	a2,a2,3
	andi	a2,a2,1
	call	atomic_set_bit_to
.LVL1367:
	.loc 1 6897 2
	lbu	a2,1(s2)
	li	a1,8
	mv	a0,s4
	andi	a2,a2,1
	call	atomic_set_bit_to
.LVL1368:
	.loc 1 6902 5
	.loc 1 6902 9 is_stmt 0
	li	a1,18
	mv	a0,s4
	call	atomic_test_bit
.LVL1369:
	mv	s1,a0
.LVL1370:
	.loc 1 6902 7
	bne	a0,zero,.L841
	.loc 1 6903 3
	lui	a5,%hi(host_assist_cb)
	lw	a5,%lo(host_assist_cb)(a5)
	beq	a5,zero,.L806
	.loc 1 6903 38 discriminator 1
	lw	a5,4(a5)
	.loc 1 6903 21 discriminator 1
	beq	a5,zero,.L806
	.loc 1 6904 3 is_stmt 1
	mv	a4,s10
	mv	a3,s7
	mv	a2,s9
	mv	a1,s8
	mv	a0,s2
	jalr	a5
.LVL1371:
	j	.L806
.LVL1372:
.L818:
	.loc 1 6818 3
	.loc 1 6818 6 is_stmt 0
	andi	a5,a5,4
	beq	a5,zero,.L825
	.loc 1 6819 4 is_stmt 1
	.loc 1 6819 15 is_stmt 0
	li	a0,7
	mul	a0,s6,a0
	add	a5,s3,a0
	.loc 1 6819 7
	lbu	a4,0(a5)
	li	a5,1
	bne	a4,a5,.L826
	.loc 1 6820 5 is_stmt 1
	.loc 1 6820 11 is_stmt 0
	addi	a0,a0,1
	add	a0,s3,a0
	call	set_random_address
.LVL1373:
	mv	s1,a0
.LVL1374:
.L826:
	.loc 1 6823 4 is_stmt 1
	.loc 1 6823 37 is_stmt 0
	li	a5,7
	mul	s6,s6,a5
.LVL1375:
	add	s3,s3,s6
	.loc 1 6823 28
	lbu	a5,0(s3)
	sb	a5,-75(s0)
	.loc 1 6847 3 is_stmt 1
	.loc 1 6847 6 is_stmt 0
	bne	s1,zero,.L806
.LVL1376:
.L827:
	.loc 1 6851 3 is_stmt 1
	.loc 1 6852 19 is_stmt 0
	li	a5,2
	.loc 1 6851 6
	bne	s7,zero,.L861
	.loc 1 6854 4 is_stmt 1
	.loc 1 6854 19 is_stmt 0
	li	a5,3
.L861:
	sb	a5,-76(s0)
	j	.L824
.LVL1377:
.L825:
	.loc 1 6841 4 is_stmt 1
	.loc 1 6841 28 is_stmt 0
	sb	zero,-75(s0)
	.loc 1 6847 3 is_stmt 1
	j	.L827
.LVL1378:
.L829:
	.loc 1 6878 3
	.loc 1 6879 14 is_stmt 0
	lbu	a4,1(s2)
	.loc 1 6878 9
	mv	a3,s10
	mv	a2,s7
	srli	a5,a4,3
	andi	a5,a5,1
	andi	a4,a4,1
	mv	a1,s9
	mv	a0,s8
	call	le_adv_update
.LVL1379:
	mv	s1,a0
.LVL1380:
	.loc 1 6881 3 is_stmt 1
	.loc 1 6881 6 is_stmt 0
	beq	a0,zero,.L831
	j	.L806
.LVL1381:
.L832:
	.loc 1 6713 10
	li	s1,-11
	j	.L806
.L837:
	.loc 1 6721 10
	li	s1,-120
	j	.L806
.LVL1382:
.L841:
	.loc 1 6907 9
	li	s1,0
	j	.L806
	.cfi_endproc
.LFE220:
	.size	bt_le_adv_start_internal, .-bt_le_adv_start_internal
	.section	.text.bt_le_read_rssi,"ax",@progbits
	.align	1
	.globl	bt_le_read_rssi
	.type	bt_le_read_rssi, @function
bt_le_read_rssi:
.LFB221:
	.loc 1 6911 1 is_stmt 1
	.cfi_startproc
.LVL1383:
	.loc 1 6912 2
	.loc 1 6913 2
	.loc 1 6914 2
	.loc 1 6915 2
	.loc 1 6916 2
	.loc 1 6918 2
	.loc 1 6911 1 is_stmt 0
	addi	sp,sp,-48
	.cfi_def_cfa_offset 48
	sw	s0,40(sp)
	sw	s1,36(sp)
	sw	s4,24(sp)
	sw	s5,20(sp)
	sw	ra,44(sp)
	sw	s2,32(sp)
	sw	s3,28(sp)
	.cfi_offset 8, -8
	.cfi_offset 9, -12
	.cfi_offset 20, -24
	.cfi_offset 21, -28
	.cfi_offset 1, -4
	.cfi_offset 18, -16
	.cfi_offset 19, -20
	addi	s0,sp,48
	.cfi_def_cfa 8, 0
	.loc 1 6918 8
	li	s5,4096
	.loc 1 6911 1
	mv	s1,a0
	mv	s4,a1
	.loc 1 6918 8
	li	a1,2
.LVL1384:
	addi	a0,s5,1029
.LVL1385:
	call	bt_hci_cmd_create
.LVL1386:
	.loc 1 6919 2 is_stmt 1
	.loc 1 6919 5 is_stmt 0
	beq	a0,zero,.L864
	mv	s2,a0
	.loc 1 6923 2 is_stmt 1
	.loc 1 6923 12 is_stmt 0
	li	a1,2
	addi	a0,a0,8
.LVL1387:
	call	net_buf_simple_add
.LVL1388:
	mv	s3,a0
.LVL1389:
	.loc 1 6924 2 is_stmt 1
	li	a2,2
	li	a1,0
	call	memset
.LVL1390:
	.loc 1 6926 2
	.loc 1 6926 18 is_stmt 0
	sb	s1,0(s3)
	srli	s1,s1,8
	sb	s1,1(s3)
	.loc 1 6928 2 is_stmt 1
	.loc 1 6928 8 is_stmt 0
	addi	a2,s0,-36
	mv	a1,s2
	addi	a0,s5,1029
	call	bt_hci_cmd_send_sync
.LVL1391:
	mv	s1,a0
.LVL1392:
	.loc 1 6930 2 is_stmt 1
	.loc 1 6930 5 is_stmt 0
	bne	a0,zero,.L862
	.loc 1 6934 2 is_stmt 1
	.loc 1 6934 47 is_stmt 0
	lw	a0,-36(s0)
.LVL1393:
	.loc 1 6935 2 is_stmt 1
	.loc 1 6935 18 is_stmt 0
	lw	a5,8(a0)
	lb	a5,3(a5)
	.loc 1 6935 8
	sb	a5,0(s4)
.LVL1394:
	.loc 1 6937 2 is_stmt 1
	call	net_buf_unref
.LVL1395:
	.loc 1 6939 2
.L862:
	.loc 1 6940 1 is_stmt 0
	lw	ra,44(sp)
	.cfi_remember_state
	.cfi_restore 1
	lw	s0,40(sp)
	.cfi_restore 8
	.cfi_def_cfa 2, 48
	lw	s2,32(sp)
	.cfi_restore 18
	lw	s3,28(sp)
	.cfi_restore 19
	lw	s4,24(sp)
	.cfi_restore 20
.LVL1396:
	lw	s5,20(sp)
	.cfi_restore 21
	mv	a0,s1
	lw	s1,36(sp)
	.cfi_restore 9
	addi	sp,sp,48
	.cfi_def_cfa_offset 0
	jr	ra
.LVL1397:
.L864:
	.cfi_restore_state
	.loc 1 6920 10
	li	s1,-105
	j	.L862
	.cfi_endproc
.LFE221:
	.size	bt_le_read_rssi, .-bt_le_read_rssi
	.section	.text.set_adv_enable,"ax",@progbits
	.align	1
	.globl	set_adv_enable
	.type	set_adv_enable, @function
set_adv_enable:
.LFB222:
	.loc 1 6943 1 is_stmt 1
	.cfi_startproc
.LVL1398:
	.loc 1 6944 2
	.loc 1 6945 5
	.loc 1 6943 1 is_stmt 0
	addi	sp,sp,-16
	.cfi_def_cfa_offset 16
	sw	s1,4(sp)
	.cfi_offset 9, -12
	.loc 1 6945 10
	lui	s1,%hi(.LANCHOR2+108)
	.loc 1 6943 1
	sw	s0,8(sp)
	sw	s2,0(sp)
	sw	ra,12(sp)
	.cfi_offset 8, -8
	.cfi_offset 18, -16
	.cfi_offset 1, -4
	addi	s0,sp,16
	.cfi_def_cfa 8, 0
	.loc 1 6945 10
	addi	s1,s1,%lo(.LANCHOR2+108)
	.loc 1 6943 1
	mv	s2,a0
	.loc 1 6945 10
	li	a1,1
	mv	a0,s1
.LVL1399:
	call	atomic_test_bit
.LVL1400:
	.loc 1 6945 8
	beq	a0,zero,.L868
	.loc 1 6949 5 is_stmt 1
	.loc 1 6949 9 is_stmt 0
	li	a1,6
	mv	a0,s1
	call	atomic_test_bit
.LVL1401:
	.loc 1 6949 8
	bne	a0,zero,.L869
	.loc 1 6953 2 is_stmt 1
	.loc 1 6959 1 is_stmt 0
	lw	s0,8(sp)
	.cfi_remember_state
	.cfi_restore 8
	.cfi_def_cfa 2, 16
	lw	ra,12(sp)
	.cfi_restore 1
	lw	s1,4(sp)
	.cfi_restore 9
	.loc 1 6953 8
	mv	a0,s2
	.loc 1 6959 1
	lw	s2,0(sp)
	.cfi_restore 18
	addi	sp,sp,16
	.cfi_def_cfa_offset 0
	.loc 1 6953 8
	tail	set_advertise_enable
.LVL1402:
.L868:
	.cfi_restore_state
	.loc 1 6946 10
	li	a0,-11
.L866:
	.loc 1 6959 1
	lw	ra,12(sp)
	.cfi_remember_state
	.cfi_restore 1
	lw	s0,8(sp)
	.cfi_restore 8
	.cfi_def_cfa 2, 16
	lw	s1,4(sp)
	.cfi_restore 9
	lw	s2,0(sp)
	.cfi_restore 18
	addi	sp,sp,16
	.cfi_def_cfa_offset 0
	jr	ra
.L869:
	.cfi_restore_state
	.loc 1 6950 10
	li	a0,-120
	j	.L866
	.cfi_endproc
.LFE222:
	.size	set_adv_enable, .-set_adv_enable
	.section	.text.set_adv_param,"ax",@progbits
	.align	1
	.globl	set_adv_param
	.type	set_adv_param, @function
set_adv_param:
.LFB223:
	.loc 1 6962 1 is_stmt 1
	.cfi_startproc
.LVL1403:
	.loc 1 6963 2
	.loc 1 6964 2
	.loc 1 6965 2
	.loc 1 6966 2
	.loc 1 6968 2
	.loc 1 6962 1 is_stmt 0
	addi	sp,sp,-48
	.cfi_def_cfa_offset 48
	sw	s2,32(sp)
	.cfi_offset 18, -16
	.loc 1 6968 7
	lui	s2,%hi(.LANCHOR2)
	.loc 1 6962 1
	sw	s0,40(sp)
	sw	s1,36(sp)
	sw	s3,28(sp)
	sw	ra,44(sp)
	sw	s4,24(sp)
	sw	s5,20(sp)
	.cfi_offset 8, -8
	.cfi_offset 9, -12
	.cfi_offset 19, -20
	.cfi_offset 1, -4
	.cfi_offset 20, -24
	.cfi_offset 21, -28
	addi	s0,sp,48
	.cfi_def_cfa 8, 0
	mv	s3,a0
	.loc 1 6968 7
	addi	a0,s2,%lo(.LANCHOR2)
.LVL1404:
	.loc 1 6962 1
	.loc 1 6968 7
	li	a1,1
	addi	a0,a0,108
	call	atomic_test_bit
.LVL1405:
	.loc 1 6969 10
	li	s1,-11
	.loc 1 6968 5
	beq	a0,zero,.L871
	lui	s5,%hi(.LANCHOR2+108)
	addi	s5,s5,%lo(.LANCHOR2+108)
	.loc 1 6972 2 is_stmt 1
	.loc 1 6972 6 is_stmt 0
	li	a1,6
	mv	a0,s5
	call	atomic_test_bit
.LVL1406:
	mv	s1,a0
	.loc 1 6972 5
	bne	a0,zero,.L886
	.loc 1 6976 8
	li	a2,15
	li	a1,0
	addi	a0,s0,-48
	call	memset
.LVL1407:
	.loc 1 6978 25
	lhu	a5,2(s3)
	addi	s2,s2,%lo(.LANCHOR2)
	.loc 1 6976 2 is_stmt 1
	.loc 1 6978 2
	.loc 1 6982 5 is_stmt 0
	lbu	a4,8(s2)
	.loc 1 6978 25
	sh	a5,-48(s0)
	.loc 1 6979 2 is_stmt 1
	.loc 1 6979 25 is_stmt 0
	lhu	a5,4(s3)
	sh	a5,-46(s0)
	.loc 1 6980 2 is_stmt 1
	.loc 1 6980 24 is_stmt 0
	li	a5,7
	sb	a5,-35(s0)
	.loc 1 6982 2 is_stmt 1
	.loc 1 6982 5 is_stmt 0
	lbu	a5,0(s3)
	beq	a4,a5,.L873
	.loc 1 6983 3 is_stmt 1
.LVL1408:
.LBB971:
.LBB972:
	.loc 2 391 2
	.loc 2 393 2
	li	a1,-65536
	addi	a1,a1,-1
	mv	a0,s5
	call	atomic_and
.LVL1409:
.L873:
.LBE972:
.LBE971:
	.loc 1 6987 2
	.loc 1 6987 12 is_stmt 0
	lbu	a5,1(s3)
	.loc 1 6987 55
	slli	a4,a5,24
	.loc 1 6987 5
	andi	a5,a5,64
	.loc 1 6987 55
	srai	a4,a4,24
	.loc 1 6987 5
	beq	a5,zero,.L874
	.loc 1 6989 27 discriminator 1
	li	a5,3
	.loc 1 6987 55 discriminator 1
	blt	a4,zero,.L889
	.loc 1 6990 9 is_stmt 1
	.loc 1 6991 3
	.loc 1 6991 27 is_stmt 0
	li	a5,1
.L889:
	sb	a5,-34(s0)
.L876:
	.loc 1 7002 2 is_stmt 1
	.loc 1 7002 23 is_stmt 0
	lbu	a5,0(s3)
	.loc 1 7002 16
	sb	a5,8(s2)
	.loc 1 7003 2 is_stmt 1
	.loc 1 7005 11 is_stmt 0
	lbu	a5,1(s3)
	.loc 1 7003 33
	lbu	s4,0(s3)
.LVL1410:
	.loc 1 7005 2 is_stmt 1
	.loc 1 7005 5 is_stmt 0
	andi	a4,a5,1
	beq	a4,zero,.L878
	.loc 1 7006 3 is_stmt 1
	.loc 1 7042 4
	.loc 1 7042 15 is_stmt 0
	li	a0,7
	mul	a0,s4,a0
	add	a5,s2,a0
	.loc 1 7042 7
	lbu	a4,0(a5)
	li	a5,1
	beq	a4,a5,.L879
.LVL1411:
.L881:
	.loc 1 7049 4 is_stmt 1
	.loc 1 7049 37 is_stmt 0
	li	a5,7
	mul	s4,s4,a5
.LVL1412:
	.loc 1 7052 18
	sb	zero,-44(s0)
	.loc 1 7049 37
	add	s2,s2,s4
	.loc 1 7049 28
	lbu	a5,0(s2)
	sb	a5,-43(s0)
	.loc 1 7052 3 is_stmt 1
.L880:
	.loc 1 7088 2
	.loc 1 7088 8 is_stmt 0
	li	s4,8192
	li	a1,15
	addi	a0,s4,6
	call	bt_hci_cmd_create
.LVL1413:
	mv	s2,a0
.LVL1414:
	.loc 1 7089 2 is_stmt 1
	.loc 1 7090 10 is_stmt 0
	li	s1,-105
	.loc 1 7089 5
	beq	a0,zero,.L871
	.loc 1 7093 2 is_stmt 1
	li	a2,15
	addi	a1,s0,-48
	addi	a0,a0,8
.LVL1415:
	call	net_buf_simple_add_mem
.LVL1416:
	.loc 1 7095 2
	.loc 1 7095 8 is_stmt 0
	li	a2,0
	mv	a1,s2
	addi	a0,s4,6
	call	bt_hci_cmd_send_sync
.LVL1417:
	mv	s1,a0
.LVL1418:
	.loc 1 7096 2 is_stmt 1
	.loc 1 7096 5 is_stmt 0
	bne	a0,zero,.L871
	.loc 1 7100 2 is_stmt 1
	lbu	a2,1(s3)
	mv	a0,s5
	li	a1,9
	srli	a2,a2,1
	xori	a2,a2,1
	andi	a2,a2,1
	call	atomic_set_bit_to
.LVL1419:
	.loc 1 7103 2
	lbu	a2,1(s3)
	mv	a0,s5
	li	a1,7
	srli	a2,a2,3
	andi	a2,a2,1
	call	atomic_set_bit_to
.LVL1420:
	.loc 1 7106 2
	lbu	a2,1(s3)
	li	a1,8
	mv	a0,s5
	andi	a2,a2,1
	call	atomic_set_bit_to
.LVL1421:
	.loc 1 7109 2
	.loc 1 7109 9 is_stmt 0
	j	.L871
.LVL1422:
.L874:
	.loc 1 6990 9 is_stmt 1
	.loc 1 6992 9
	.loc 1 6993 27 is_stmt 0
	li	a5,2
	.loc 1 6992 12
	blt	a4,zero,.L889
	.loc 1 6998 3 is_stmt 1
	.loc 1 6998 27 is_stmt 0
	sb	zero,-34(s0)
	j	.L876
.LVL1423:
.L879:
	.loc 1 7043 5 is_stmt 1
	.loc 1 7043 11 is_stmt 0
	addi	a0,a0,1
	add	a0,s2,a0
	call	set_random_address
.LVL1424:
	mv	s1,a0
.LVL1425:
	.loc 1 7044 5 is_stmt 1
	.loc 1 7044 8 is_stmt 0
	beq	a0,zero,.L881
.LVL1426:
.L871:
	.loc 1 7110 1
	lw	ra,44(sp)
	.cfi_remember_state
	.cfi_restore 1
	lw	s0,40(sp)
	.cfi_restore 8
	.cfi_def_cfa 2, 48
	lw	s2,32(sp)
	.cfi_restore 18
	lw	s3,28(sp)
	.cfi_restore 19
.LVL1427:
	lw	s4,24(sp)
	.cfi_restore 20
	lw	s5,20(sp)
	.cfi_restore 21
	mv	a0,s1
	lw	s1,36(sp)
	.cfi_restore 9
	addi	sp,sp,48
	.cfi_def_cfa_offset 0
	jr	ra
.LVL1428:
.L878:
	.cfi_restore_state
	.loc 1 7055 3 is_stmt 1
	.loc 1 7055 6 is_stmt 0
	andi	a5,a5,4
	beq	a5,zero,.L882
	.loc 1 7056 4 is_stmt 1
	.loc 1 7056 15 is_stmt 0
	li	a0,7
	mul	a0,s4,a0
	add	a5,s2,a0
	.loc 1 7056 7
	lbu	a4,0(a5)
	li	a5,1
	bne	a4,a5,.L883
	.loc 1 7057 5 is_stmt 1
	.loc 1 7057 11 is_stmt 0
	addi	a0,a0,1
	add	a0,s2,a0
	call	set_random_address
.LVL1429:
	mv	s1,a0
.LVL1430:
.L883:
	.loc 1 7060 4 is_stmt 1
	.loc 1 7060 37 is_stmt 0
	li	a5,7
	mul	s4,s4,a5
.LVL1431:
	add	s2,s2,s4
	.loc 1 7060 28
	lbu	a5,0(s2)
.L890:
	.loc 1 7076 32
	sb	a5,-43(s0)
	.loc 1 7080 3 is_stmt 1
	.loc 1 7080 6 is_stmt 0
	bne	s1,zero,.L871
	.loc 1 7084 3 is_stmt 1
	.loc 1 7084 18 is_stmt 0
	li	a5,3
	sb	a5,-44(s0)
	j	.L880
.LVL1432:
.L882:
	.loc 1 7069 4 is_stmt 1
	.loc 1 7069 10 is_stmt 0
	call	le_set_private_addr.constprop.0
.LVL1433:
	mv	s1,a0
.LVL1434:
	.loc 1 7076 8 is_stmt 1
	.loc 1 7076 32 is_stmt 0
	li	a5,1
	j	.L890
.LVL1435:
.L886:
	.loc 1 6973 10
	li	s1,-120
	j	.L871
	.cfi_endproc
.LFE223:
	.size	set_adv_param, .-set_adv_param
	.section	.text.set_ad_and_rsp_d,"ax",@progbits
	.align	1
	.globl	set_ad_and_rsp_d
	.type	set_ad_and_rsp_d, @function
set_ad_and_rsp_d:
.LFB224:
	.loc 1 7114 1 is_stmt 1
	.cfi_startproc
.LVL1436:
	.loc 1 7115 2
	.loc 1 7116 2
	.loc 1 7117 2
	.loc 1 7119 2
	.loc 1 7119 4 is_stmt 0
	li	a5,-8192
	addi	a5,a5,-8
	add	a5,a0,a5
	slli	a5,a5,16
	srli	a5,a5,16
	li	a4,1
	bgtu	a5,a4,.L895
	.loc 1 7114 1
	addi	sp,sp,-32
	.cfi_def_cfa_offset 32
	sw	s0,24(sp)
	sw	s1,20(sp)
	sw	s2,16(sp)
	sw	s3,12(sp)
	sw	s5,4(sp)
	sw	ra,28(sp)
	sw	s4,8(sp)
	sw	s6,0(sp)
	.cfi_offset 8, -8
	.cfi_offset 9, -12
	.cfi_offset 18, -16
	.cfi_offset 19, -20
	.cfi_offset 21, -28
	.cfi_offset 1, -4
	.cfi_offset 20, -24
	.cfi_offset 22, -32
	addi	s0,sp,32
	.cfi_def_cfa 8, 0
	mv	s5,a1
	.loc 1 7130 11
	li	a1,32
.LVL1437:
	mv	s1,a0
	mv	s3,a2
.LVL1438:
	.loc 1 7130 5 is_stmt 1
	.loc 1 7130 11 is_stmt 0
	call	bt_hci_cmd_create
.LVL1439:
	mv	s2,a0
.LVL1440:
	.loc 1 7131 2 is_stmt 1
	.loc 1 7131 5 is_stmt 0
	beq	a0,zero,.L896
	.loc 1 7135 2 is_stmt 1
.LBB973:
	.loc 1 7137 48 is_stmt 0
	li	a1,32
.LBE973:
	.loc 1 7151 8 is_stmt 1
.LBB974:
	.loc 1 7153 3
	addi	a0,a0,8
.LVL1441:
	.loc 1 7153 53 is_stmt 0
	call	net_buf_simple_add
.LVL1442:
	.loc 1 7154 3
	li	a2,32
	li	a1,0
	.loc 1 7153 53
	mv	s4,a0
.LVL1443:
	.loc 1 7154 3 is_stmt 1
	andi	s6,s3,255
	call	memset
.LVL1444:
	.loc 1 7156 3
	.loc 1 7166 3 is_stmt 0
	mv	a2,s6
	.loc 1 7156 17
	sb	s3,0(s4)
	.loc 1 7158 3 is_stmt 1
	.loc 1 7166 3
	mv	a1,s5
	addi	a0,s4,1
	call	memcpy
.LVL1445:
.LBE974:
	.loc 1 7171 5
	.loc 1 7172 1 is_stmt 0
	lw	s0,24(sp)
	.cfi_restore 8
	.cfi_def_cfa 2, 32
	lw	ra,28(sp)
	.cfi_restore 1
	lw	s3,12(sp)
	.cfi_restore 19
.LVL1446:
	lw	s4,8(sp)
	.cfi_restore 20
.LVL1447:
	lw	s5,4(sp)
	.cfi_restore 21
.LVL1448:
	lw	s6,0(sp)
	.cfi_restore 22
	.loc 1 7171 12
	mv	a1,s2
	mv	a0,s1
	.loc 1 7172 1
	lw	s2,16(sp)
	.cfi_restore 18
.LVL1449:
	lw	s1,20(sp)
	.cfi_restore 9
	.loc 1 7171 12
	li	a2,0
	.loc 1 7172 1
	addi	sp,sp,32
	.cfi_def_cfa_offset 0
	.loc 1 7171 12
	tail	bt_hci_cmd_send_sync
.LVL1450:
.L895:
	.loc 1 7128 10
	li	a0,-134
.LVL1451:
	.loc 1 7172 1
	ret
.LVL1452:
.L896:
	.cfi_def_cfa_register 8
	.cfi_offset 1, -4
	.cfi_offset 8, -8
	.cfi_offset 9, -12
	.cfi_offset 18, -16
	.cfi_offset 19, -20
	.cfi_offset 20, -24
	.cfi_offset 21, -28
	.cfi_offset 22, -32
	lw	ra,28(sp)
	.cfi_restore 1
	lw	s0,24(sp)
	.cfi_restore 8
	.cfi_def_cfa 2, 32
	lw	s1,20(sp)
	.cfi_restore 9
	lw	s2,16(sp)
	.cfi_restore 18
	lw	s3,12(sp)
	.cfi_restore 19
.LVL1453:
	lw	s4,8(sp)
	.cfi_restore 20
	lw	s5,4(sp)
	.cfi_restore 21
.LVL1454:
	lw	s6,0(sp)
	.cfi_restore 22
	.loc 1 7132 10
	li	a0,-105
.LVL1455:
	.loc 1 7172 1
	addi	sp,sp,32
	.cfi_def_cfa_offset 0
	jr	ra
	.cfi_endproc
.LFE224:
	.size	set_ad_and_rsp_d, .-set_ad_and_rsp_d
	.section	.text.set_adv_channel_map,"ax",@progbits
	.align	1
	.globl	set_adv_channel_map
	.type	set_adv_channel_map, @function
set_adv_channel_map:
.LFB225:
	.loc 1 7175 1 is_stmt 1
	.cfi_startproc
.LVL1456:
	.loc 1 7176 5
	.loc 1 7178 5
	.loc 1 7175 1 is_stmt 0
	addi	sp,sp,-16
	.cfi_def_cfa_offset 16
	sw	s0,12(sp)
	.loc 1 7178 21
	addi	a5,a0,-1
	.cfi_offset 8, -4
	.loc 1 7175 1
	addi	s0,sp,16
	.cfi_def_cfa 8, 0
	.loc 1 7178 7
	andi	a5,a5,0xff
	li	a4,6
	bgtu	a5,a4,.L903
	.loc 1 7180 9 is_stmt 1
	.loc 1 7180 20 is_stmt 0
	lui	a5,%hi(.LANCHOR50)
	sb	a0,%lo(.LANCHOR50)(a5)
	.loc 1 7176 9
	li	a0,0
.LVL1457:
.L901:
	.loc 1 7188 1
	lw	s0,12(sp)
	.cfi_remember_state
	.cfi_restore 8
	.cfi_def_cfa 2, 16
	addi	sp,sp,16
	.cfi_def_cfa_offset 0
	jr	ra
.LVL1458:
.L903:
	.cfi_restore_state
	.loc 1 7184 13
	li	a0,-1
.LVL1459:
	.loc 1 7187 5 is_stmt 1
	.loc 1 7187 12 is_stmt 0
	j	.L901
	.cfi_endproc
.LFE225:
	.size	set_adv_channel_map, .-set_adv_channel_map
	.section	.text.bt_get_local_public_address,"ax",@progbits
	.align	1
	.globl	bt_get_local_public_address
	.type	bt_get_local_public_address, @function
bt_get_local_public_address:
.LFB226:
	.loc 1 7191 1 is_stmt 1
	.cfi_startproc
.LVL1460:
