	.file	"keys.c"
	.option nopic
	.attribute arch, "rv32i2p0_m2p0_f2p0_c2p0"
	.attribute unaligned_access, 0
	.attribute stack_align, 16
	.text
.Ltext0:
	.cfi_sections	.debug_frame
	.section	.text.bt_keys_get_addr,"ax",@progbits
	.align	1
	.globl	bt_keys_get_addr
	.type	bt_keys_get_addr, @function
bt_keys_get_addr:
.LFB73:
	.file 1 "/home/dinhquangha/intern/Ai-Thinker-WB2/components/network/ble/blestack/src/host/keys.c"
	.loc 1 44 1
	.cfi_startproc
.LVL0:
	.loc 1 45 2
	.loc 1 46 2
	.loc 1 47 2
	.loc 1 49 2
	.loc 1 51 2
	.loc 1 51 14
	.loc 1 66 2
.LBB16:
	.loc 1 67 3
	.loc 1 69 3
	.loc 1 69 15
	.loc 1 77 3
.LBE16:
	.loc 1 44 1 is_stmt 0
	addi	sp,sp,-32
	.cfi_def_cfa_offset 32
	sw	ra,28(sp)
	sw	s0,24(sp)
	sw	s1,20(sp)
	.cfi_offset 1, -4
	.cfi_offset 8, -8
	.cfi_offset 9, -12
	addi	s0,sp,32
	.cfi_def_cfa 8, 0
.LBB22:
	.loc 1 77 3
	lui	a5,%hi(.LANCHOR0)
.LBE22:
	.loc 1 44 1
.LBB23:
	.loc 1 77 3
	addi	a5,a5,%lo(.LANCHOR0)
	lbu	a0,0(a5)
.LVL1:
	addi	s1,a5,1
	mv	a1,s1
.LVL2:
	call	bt_unpair
.LVL3:
	.loc 1 78 3 is_stmt 1
.LBB17:
.LBB18:
.LBB19:
	.file 2 "/home/dinhquangha/intern/Ai-Thinker-WB2/components/network/ble/blestack/src/include/bluetooth/addr.h"
	.loc 2 49 9 is_stmt 0
	addi	a1,s0,-24
	mv	a0,s1
	li	a2,7
.LBE19:
.LBE18:
	.loc 1 78 55
	sw	zero,-24(s0)
	sh	zero,-20(s0)
	sb	zero,-18(s0)
.LVL4:
.LBB21:
.LBB20:
	.loc 2 49 2 is_stmt 1
	.loc 2 49 9 is_stmt 0
	call	memcmp
.LVL5:
.LBE20:
.LBE21:
.LBE17:
.LBE23:
	.loc 1 84 2 is_stmt 1
	.loc 1 96 2
	.loc 1 98 2
	.loc 1 99 1 is_stmt 0
	lw	ra,28(sp)
	.cfi_restore 1
	lw	s0,24(sp)
	.cfi_restore 8
	.cfi_def_cfa 2, 32
	lw	s1,20(sp)
	.cfi_restore 9
	li	a0,0
	addi	sp,sp,32
	.cfi_def_cfa_offset 0
	jr	ra
	.cfi_endproc
.LFE73:
	.size	bt_keys_get_addr, .-bt_keys_get_addr
	.section	.text.bt_foreach_bond,"ax",@progbits
	.align	1
	.globl	bt_foreach_bond
	.type	bt_foreach_bond, @function
bt_foreach_bond:
.LFB74:
	.loc 1 104 1 is_stmt 1
	.cfi_startproc
.LVL6:
	.loc 1 105 2
	.loc 1 107 2
	.loc 1 107 14
	.loc 1 104 1 is_stmt 0
	addi	sp,sp,-16
	.cfi_def_cfa_offset 16
	sw	s0,12(sp)
	.cfi_offset 8, -4
	addi	s0,sp,16
	.cfi_def_cfa 8, 0
	.loc 1 117 1
	lw	s0,12(sp)
	.cfi_restore 8
	.cfi_def_cfa 2, 16
	addi	sp,sp,16
	.cfi_def_cfa_offset 0
	jr	ra
	.cfi_endproc
.LFE74:
	.size	bt_foreach_bond, .-bt_foreach_bond
	.section	.text.bt_keys_foreach,"ax",@progbits
	.align	1
	.globl	bt_keys_foreach
	.type	bt_keys_foreach, @function
bt_keys_foreach:
.LFB75:
	.loc 1 121 1 is_stmt 1
	.cfi_startproc
.LVL7:
	.loc 1 122 2
	.loc 1 124 2
	.loc 1 124 14
	.loc 1 121 1 is_stmt 0
	addi	sp,sp,-16
	.cfi_def_cfa_offset 16
	sw	s0,12(sp)
	.cfi_offset 8, -4
	addi	s0,sp,16
	.cfi_def_cfa 8, 0
	.loc 1 129 1
	lw	s0,12(sp)
	.cfi_restore 8
	.cfi_def_cfa 2, 16
	addi	sp,sp,16
	.cfi_def_cfa_offset 0
	jr	ra
	.cfi_endproc
.LFE75:
	.size	bt_keys_foreach, .-bt_keys_foreach
	.section	.text.bt_keys_find,"ax",@progbits
	.align	1
	.globl	bt_keys_find
	.type	bt_keys_find, @function
bt_keys_find:
.LFB76:
	.loc 1 132 1 is_stmt 1
	.cfi_startproc
.LVL8:
	.loc 1 133 2
	.loc 1 135 2
	.loc 1 137 2
	.loc 1 137 14
	.loc 1 144 2
	.loc 1 132 1 is_stmt 0
	addi	sp,sp,-16
	.cfi_def_cfa_offset 16
	sw	s0,12(sp)
	.cfi_offset 8, -4
	addi	s0,sp,16
	.cfi_def_cfa 8, 0
	.loc 1 145 1
	lw	s0,12(sp)
	.cfi_restore 8
	.cfi_def_cfa 2, 16
	li	a0,0
.LVL9:
	addi	sp,sp,16
	.cfi_def_cfa_offset 0
	jr	ra
	.cfi_endproc
.LFE76:
	.size	bt_keys_find, .-bt_keys_find
	.section	.text.bt_keys_get_type,"ax",@progbits
	.align	1
	.globl	bt_keys_get_type
	.type	bt_keys_get_type, @function
bt_keys_get_type:
.LFB77:
	.loc 1 148 1 is_stmt 1
	.cfi_startproc
.LVL10:
	.loc 1 149 2
	.loc 1 151 2
	.loc 1 153 2
	.loc 1 148 1 is_stmt 0
	addi	sp,sp,-16
	.cfi_def_cfa_offset 16
	sw	s0,8(sp)
	sw	s1,4(sp)
	sw	ra,12(sp)
	.cfi_offset 8, -8
	.cfi_offset 9, -12
	.cfi_offset 1, -4
	addi	s0,sp,16
	.cfi_def_cfa 8, 0
	mv	s1,a0
.LVL11:
	.loc 1 148 1
	mv	a0,a1
.LVL12:
	.loc 1 133 2 is_stmt 1
	.loc 1 135 2
	.loc 1 137 2
	.loc 1 137 14
	.loc 1 144 2
	.loc 1 154 2
	.loc 1 158 2
	.loc 1 158 9 is_stmt 0
	mv	a1,a2
.LVL13:
	call	bt_keys_get_addr
.LVL14:
	.loc 1 159 2 is_stmt 1
	.loc 1 159 5 is_stmt 0
	beq	a0,zero,.L9
	.loc 1 163 2 is_stmt 1
.LVL15:
.LBB24:
.LBB25:
	.loc 1 251 2
	.loc 1 251 13 is_stmt 0
	lhu	a5,10(a0)
	or	s1,s1,a5
.LVL16:
	sh	s1,10(a0)
.LVL17:
.LBE25:
.LBE24:
	.loc 1 165 2 is_stmt 1
.L9:
	.loc 1 166 1 is_stmt 0
	lw	ra,12(sp)
	.cfi_restore 1
	lw	s0,8(sp)
	.cfi_restore 8
	.cfi_def_cfa 2, 16
	lw	s1,4(sp)
	.cfi_restore 9
	addi	sp,sp,16
	.cfi_def_cfa_offset 0
	jr	ra
	.cfi_endproc
.LFE77:
	.size	bt_keys_get_type, .-bt_keys_get_type
	.section	.text.bt_keys_find_irk,"ax",@progbits
	.align	1
	.globl	bt_keys_find_irk
	.type	bt_keys_find_irk, @function
bt_keys_find_irk:
.LFB78:
	.loc 1 169 1 is_stmt 1
	.cfi_startproc
.LVL18:
	.loc 1 170 2
	.loc 1 172 2
	.loc 1 174 2
	.loc 1 169 1 is_stmt 0
	addi	sp,sp,-16
	.cfi_def_cfa_offset 16
	sw	s0,12(sp)
	.cfi_offset 8, -4
	addi	s0,sp,16
	.cfi_def_cfa 8, 0
	.loc 1 215 1
	lw	s0,12(sp)
	.cfi_restore 8
	.cfi_def_cfa 2, 16
	li	a0,0
.LVL19:
	addi	sp,sp,16
	.cfi_def_cfa_offset 0
	jr	ra
	.cfi_endproc
.LFE78:
	.size	bt_keys_find_irk, .-bt_keys_find_irk
	.section	.text.bt_keys_find_addr,"ax",@progbits
	.align	1
	.globl	bt_keys_find_addr
	.type	bt_keys_find_addr, @function
bt_keys_find_addr:
.LFB86:
	.cfi_startproc
	addi	sp,sp,-16
	.cfi_def_cfa_offset 16
	sw	s0,12(sp)
	.cfi_offset 8, -4
	addi	s0,sp,16
	.cfi_def_cfa 8, 0
	lw	s0,12(sp)
	.cfi_restore 8
	.cfi_def_cfa 2, 16
	li	a0,0
	addi	sp,sp,16
	.cfi_def_cfa_offset 0
	jr	ra
	.cfi_endproc
.LFE86:
	.size	bt_keys_find_addr, .-bt_keys_find_addr
	.section	.text.bt_keys_add_type,"ax",@progbits
	.align	1
	.globl	bt_keys_add_type
	.type	bt_keys_add_type, @function
bt_keys_add_type:
.LFB80:
	.loc 1 250 1 is_stmt 1
	.cfi_startproc
.LVL20:
	.loc 1 251 2
	.loc 1 250 1 is_stmt 0
	addi	sp,sp,-16
	.cfi_def_cfa_offset 16
	sw	s0,12(sp)
	.cfi_offset 8, -4
	addi	s0,sp,16
	.cfi_def_cfa 8, 0
	.loc 1 251 13
	lhu	a5,10(a0)
	.loc 1 252 1
	lw	s0,12(sp)
	.cfi_restore 8
	.cfi_def_cfa 2, 16
	.loc 1 251 13
	or	a1,a1,a5
.LVL21:
	sh	a1,10(a0)
	.loc 1 252 1
	addi	sp,sp,16
	.cfi_def_cfa_offset 0
	jr	ra
	.cfi_endproc
.LFE80:
	.size	bt_keys_add_type, .-bt_keys_add_type
	.section	.text.bt_keys_clear,"ax",@progbits
	.align	1
	.globl	bt_keys_clear
	.type	bt_keys_clear, @function
bt_keys_clear:
.LFB81:
	.loc 1 255 1 is_stmt 1
	.cfi_startproc
.LVL22:
	.loc 1 257 5
	.loc 1 255 1 is_stmt 0
	addi	sp,sp,-16
	.cfi_def_cfa_offset 16
	sw	s0,8(sp)
	sw	s1,4(sp)
	sw	ra,12(sp)
	.cfi_offset 8, -8
	.cfi_offset 9, -12
	.cfi_offset 1, -4
	addi	s0,sp,16
	.cfi_def_cfa 8, 0
	.loc 1 257 8
	lhu	a5,10(a0)
	.loc 1 255 1
	mv	s1,a0
	.loc 1 257 8
	andi	a5,a5,2
	beq	a5,zero,.L22
	.loc 1 258 3 is_stmt 1
	call	bt_id_del
.LVL23:
.L22:
	.loc 1 261 5
	.loc 1 294 1 is_stmt 0
	lw	s0,8(sp)
	.cfi_restore 8
	.cfi_def_cfa 2, 16
	lw	ra,12(sp)
	.cfi_restore 1
	.loc 1 261 5
	mv	a0,s1
	.loc 1 294 1
	lw	s1,4(sp)
	.cfi_restore 9
.LVL24:
	.loc 1 261 5
	li	a2,132
	.loc 1 294 1
	.loc 1 261 5
	li	a1,0
	.loc 1 294 1
	addi	sp,sp,16
	.cfi_def_cfa_offset 0
	.loc 1 261 5
	tail	memset
.LVL25:
	.cfi_endproc
.LFE81:
	.size	bt_keys_clear, .-bt_keys_clear
	.section	.text.bt_keys_clear_all,"ax",@progbits
	.align	1
	.globl	bt_keys_clear_all
	.type	bt_keys_clear_all, @function
bt_keys_clear_all:
.LFB83:
	.loc 1 310 1 is_stmt 1
	.cfi_startproc
.LVL26:
	.loc 1 311 2
	.loc 1 122 2
	.loc 1 124 2
	.loc 1 124 14
	.loc 1 310 1 is_stmt 0
	addi	sp,sp,-16
	.cfi_def_cfa_offset 16
	sw	s0,12(sp)
	.cfi_offset 8, -4
	addi	s0,sp,16
	.cfi_def_cfa 8, 0
	.loc 1 312 1
	lw	s0,12(sp)
	.cfi_restore 8
	.cfi_def_cfa 2, 16
	addi	sp,sp,16
	.cfi_def_cfa_offset 0
	jr	ra
	.cfi_endproc
.LFE83:
	.size	bt_keys_clear_all, .-bt_keys_clear_all
	.section	.text.bt_keys_update_usage,"ax",@progbits
	.align	1
	.globl	bt_keys_update_usage
	.type	bt_keys_update_usage, @function
bt_keys_update_usage:
.LFB84:
	.loc 1 485 1 is_stmt 1
	.cfi_startproc
.LVL27:
	.loc 1 486 2
	.loc 1 219 2
	.loc 1 221 2
	.loc 1 223 2
	.loc 1 223 14
	.loc 1 230 2
	.loc 1 488 2
	.loc 1 489 3
	.loc 1 485 1 is_stmt 0
	addi	sp,sp,-16
	.cfi_def_cfa_offset 16
	sw	s0,12(sp)
	.cfi_offset 8, -4
	addi	s0,sp,16
	.cfi_def_cfa 8, 0
	.loc 1 505 1
	lw	s0,12(sp)
	.cfi_restore 8
	.cfi_def_cfa 2, 16
	addi	sp,sp,16
	.cfi_def_cfa_offset 0
	jr	ra
	.cfi_endproc
.LFE84:
	.size	bt_keys_update_usage, .-bt_keys_update_usage
	.section	.bss.key_pool,"aw",@nobits
	.align	2
	.set	.LANCHOR0,. + 0
	.type	key_pool, @object
	.size	key_pool, 0
key_pool:
	.text
.Letext0:
	.file 3 "/home/dinhquangha/intern/Ai-Thinker-WB2/toolchain/riscv/Linux/lib/gcc/riscv64-unknown-elf/10.2.0/include/stdint-gcc.h"
	.file 4 "/home/dinhquangha/intern/Ai-Thinker-WB2/toolchain/riscv/Linux/lib/gcc/riscv64-unknown-elf/10.2.0/include/stddef.h"
	.file 5 "/home/dinhquangha/intern/Ai-Thinker-WB2/components/network/ble/blestack/src/common/include/zephyr/types.h"
	.file 6 "/home/dinhquangha/intern/Ai-Thinker-WB2/components/network/ble/blestack/src/port/include/zephyr.h"
	.file 7 "/home/dinhquangha/intern/Ai-Thinker-WB2/components/network/ble/blestack/src/include/bluetooth/bluetooth.h"
	.file 8 "/home/dinhquangha/intern/Ai-Thinker-WB2/components/network/ble/blestack/src/include/bluetooth/gatt.h"
	.file 9 "/home/dinhquangha/intern/Ai-Thinker-WB2/components/network/ble/blestack/src/host/hci_core.h"
	.file 10 "/home/dinhquangha/intern/Ai-Thinker-WB2/components/network/ble/blestack/src/host/keys.h"
	.file 11 "/home/dinhquangha/intern/Ai-Thinker-WB2/toolchain/riscv/Linux/riscv64-unknown-elf/include/string.h"