	.file	"settings.c"
	.option nopic
	.attribute arch, "rv32i2p0_m2p0_f2p0_c2p0"
	.attribute unaligned_access, 0
	.attribute stack_align, 16
	.text
.Ltext0:
	.cfi_sections	.debug_frame
	.section	.rodata.bt_settings_encode_key.str1.4,"aMS",@progbits,1
	.align	2
.LC0:
	.string	"bt/%s/%02x%02x%02x%02x%02x%02x%u/%s"
	.align	2
.LC1:
	.string	"bt/%s/%02x%02x%02x%02x%02x%02x%u"
	.section	.text.bt_settings_encode_key,"ax",@progbits
	.align	1
	.globl	bt_settings_encode_key
	.type	bt_settings_encode_key, @function
bt_settings_encode_key:
.LFB73:
	.file 1 "/home/quanghaictu/intern/Ai-Thinker-WB2/components/network/ble/blestack/src/host/settings.c"
	.loc 1 32 1
	.cfi_startproc
.LVL0:
	.loc 1 33 2
	.loc 1 32 1 is_stmt 0
	addi	sp,sp,-32
	.cfi_def_cfa_offset 32
	sw	s0,24(sp)
	sw	ra,28(sp)
	.cfi_offset 8, -8
	.cfi_offset 1, -4
	addi	s0,sp,32
	.cfi_def_cfa 8, 0
	.loc 1 32 1
	mv	t1,a4
	.loc 1 34 3
	lbu	a5,5(a3)
	lbu	a4,6(a3)
.LVL1:
	lbu	a6,4(a3)
	lbu	a7,3(a3)
	lbu	t3,2(a3)
	lbu	t4,1(a3)
	lbu	a3,0(a3)
.LVL2:
	.loc 1 33 5
	beq	t1,zero,.L2
	.loc 1 34 3 is_stmt 1
	sw	a3,8(sp)
	mv	a3,a2
	lui	a2,%hi(.LC0)
.LVL3:
	sw	t1,12(sp)
	sw	t4,4(sp)
	sw	t3,0(sp)
	addi	a2,a2,%lo(.LC0)
	call	snprintf
.LVL4:
.L1:
	.loc 1 48 1 is_stmt 0
	lw	ra,28(sp)
	.cfi_remember_state
	.cfi_restore 1
	lw	s0,24(sp)
	.cfi_restore 8
	.cfi_def_cfa 2, 32
	addi	sp,sp,32
	.cfi_def_cfa_offset 0
	jr	ra
.LVL5:
.L2:
	.cfi_restore_state
	.loc 1 40 3 is_stmt 1
	sw	a3,8(sp)
	mv	a3,a2
	lui	a2,%hi(.LC1)
.LVL6:
	sw	t4,4(sp)
	sw	t3,0(sp)
	addi	a2,a2,%lo(.LC1)
	call	snprintf
.LVL7:
	.loc 1 47 2
	.loc 1 48 1 is_stmt 0
	j	.L1
	.cfi_endproc
.LFE73:
	.size	bt_settings_encode_key, .-bt_settings_encode_key
	.section	.text.bt_settings_save_id,"ax",@progbits
	.align	1
	.globl	bt_settings_save_id
	.type	bt_settings_save_id, @function
bt_settings_save_id:
.LFB74:
	.loc 1 294 1 is_stmt 1
	.cfi_startproc
	.loc 1 307 1
	.loc 1 294 1 is_stmt 0
	addi	sp,sp,-16
	.cfi_def_cfa_offset 16
	sw	s0,12(sp)
	.cfi_offset 8, -4
	addi	s0,sp,16
	.cfi_def_cfa 8, 0
	.loc 1 307 1
	lw	s0,12(sp)
	.cfi_restore 8
	.cfi_def_cfa 2, 16
	addi	sp,sp,16
	.cfi_def_cfa_offset 0
	jr	ra
	.cfi_endproc
.LFE74:
	.size	bt_settings_save_id, .-bt_settings_save_id
	.section	.text.bt_settings_init,"ax",@progbits
	.align	1
	.globl	bt_settings_init
	.type	bt_settings_init, @function
bt_settings_init:
.LFB75:
	.loc 1 369 1 is_stmt 1
	.cfi_startproc
	.loc 1 371 5
	.loc 1 369 1 is_stmt 0
	addi	sp,sp,-16
	.cfi_def_cfa_offset 16
	sw	s0,12(sp)
	.cfi_offset 8, -4
	addi	s0,sp,16
	.cfi_def_cfa 8, 0
	.loc 1 385 1
	lw	s0,12(sp)
	.cfi_restore 8
	.cfi_def_cfa 2, 16
	li	a0,0
	addi	sp,sp,16
	.cfi_def_cfa_offset 0
	jr	ra
	.cfi_endproc
.LFE75:
	.size	bt_settings_init, .-bt_settings_init
	.text
.Letext0:
	.file 2 "/home/quanghaictu/intern/Ai-Thinker-WB2/toolchain/riscv/Linux/lib/gcc/riscv64-unknown-elf/10.2.0/include/stddef.h"
	.file 3 "/home/quanghaictu/intern/Ai-Thinker-WB2/components/network/ble/blestack/src/common/include/zephyr/types.h"
	.file 4 "/home/quanghaictu/intern/Ai-Thinker-WB2/components/network/ble/blestack/src/include/bluetooth/addr.h"
	.file 5 "/home/quanghaictu/intern/Ai-Thinker-WB2/toolchain/riscv/Linux/riscv64-unknown-elf/include/stdio.h"