	.file	"uuid.c"
	.option nopic
	.attribute arch, "rv32i2p0_m2p0_f2p0_c2p0"
	.attribute unaligned_access, 0
	.attribute stack_align, 16
	.text
.Ltext0:
	.cfi_sections	.debug_frame
	.section	.text.uuid_to_uuid128,"ax",@progbits
	.align	1
	.type	uuid_to_uuid128, @function
uuid_to_uuid128:
.LFB62:
	.file 1 "/home/dinhquangha/intern/Ai-Thinker-WB2/components/network/ble/blestack/src/host/uuid.c"
	.loc 1 32 1
	.cfi_startproc
.LVL0:
	.loc 1 33 2
	.loc 1 32 1 is_stmt 0
	addi	sp,sp,-16
	.cfi_def_cfa_offset 16
	sw	s0,8(sp)
	sw	s1,4(sp)
	sw	ra,12(sp)
	.cfi_offset 8, -8
	.cfi_offset 9, -12
	.cfi_offset 1, -4
	addi	s0,sp,16
	.cfi_def_cfa 8, 0
	.loc 1 33 13
	lbu	a4,0(a0)
	.loc 1 33 2
	li	a3,1
	.loc 1 32 1
	mv	s1,a0
	mv	a5,a1
	.loc 1 33 2
	beq	a4,a3,.L2
	li	a3,2
	beq	a4,a3,.L3
	bne	a4,zero,.L1
	.loc 1 35 3 is_stmt 1
	.loc 1 35 8 is_stmt 0
	lui	a1,%hi(.LANCHOR0)
.LVL1:
	li	a2,17
	addi	a1,a1,%lo(.LANCHOR0)
	mv	a0,a5
.LVL2:
	call	memcpy
.LVL3:
	.loc 1 36 3 is_stmt 1
	lhu	a4,2(s1)
.LVL4:
.LBB22:
.LBB23:
	.file 2 "/home/dinhquangha/intern/Ai-Thinker-WB2/components/network/ble/blestack/src/common/include/misc/byteorder.h"
	.loc 2 204 2
	.loc 2 204 9 is_stmt 0
	sb	a4,13(a0)
	.loc 2 205 2 is_stmt 1
	.loc 2 205 9 is_stmt 0
	srli	a4,a4,8
.LVL5:
	sb	a4,14(a0)
.LVL6:
.L1:
.LBE23:
.LBE22:
	.loc 1 48 1
	lw	ra,12(sp)
	.cfi_remember_state
	.cfi_restore 1
	lw	s0,8(sp)
	.cfi_restore 8
	.cfi_def_cfa 2, 16
	lw	s1,4(sp)
	.cfi_restore 9
.LVL7:
	addi	sp,sp,16
	.cfi_def_cfa_offset 0
	jr	ra
.LVL8:
.L2:
	.cfi_restore_state
	.loc 1 40 3 is_stmt 1
	.loc 1 40 8 is_stmt 0
	lui	a1,%hi(.LANCHOR0)
.LVL9:
	li	a2,17
	addi	a1,a1,%lo(.LANCHOR0)
	mv	a0,a5
	call	memcpy
.LVL10:
	.loc 1 41 3 is_stmt 1
	lw	a4,4(s1)
.LVL11:
.LBB24:
.LBB25:
	.loc 2 234 2
.LBB26:
.LBB27:
	.loc 2 204 2
	.loc 2 205 9 is_stmt 0
	slli	a3,a4,16
	.loc 2 204 9
	sb	a4,13(a0)
	.loc 2 205 2 is_stmt 1
	.loc 2 205 9 is_stmt 0
	srli	a3,a3,16
.LBE27:
.LBE26:
	.loc 2 235 19
	srli	a4,a4,16
.LVL12:
.LBB30:
.LBB28:
	.loc 2 205 9
	srli	a3,a3,8
.LBE28:
.LBE30:
.LBB31:
.LBB32:
	.loc 2 204 9
	sb	a4,15(a0)
	.loc 2 205 9
	srli	a4,a4,8
.LBE32:
.LBE31:
.LBB34:
.LBB29:
	sb	a3,14(a0)
.LVL13:
.LBE29:
.LBE34:
	.loc 2 235 2 is_stmt 1
.LBB35:
.LBB33:
	.loc 2 204 2
	.loc 2 205 2
	.loc 2 205 9 is_stmt 0
	sb	a4,16(a0)
.LVL14:
.LBE33:
.LBE35:
	.loc 2 236 1
	j	.L1
.LVL15:
.L3:
.LBE25:
.LBE24:
	.loc 1 45 3 is_stmt 1
	.loc 1 48 1 is_stmt 0
	lw	s0,8(sp)
	.cfi_restore 8
	.cfi_def_cfa 2, 16
	lw	ra,12(sp)
	.cfi_restore 1
	lw	s1,4(sp)
	.cfi_restore 9
.LVL16:
	.loc 1 45 3
	mv	a1,a0
.LVL17:
	.loc 1 48 1
	.loc 1 45 3
	li	a2,17
	mv	a0,a5
.LVL18:
	.loc 1 48 1
	addi	sp,sp,16
	.cfi_def_cfa_offset 0
	.loc 1 45 3
	tail	memcpy
.LVL19:
	.cfi_endproc
.LFE62:
	.size	uuid_to_uuid128, .-uuid_to_uuid128
	.section	.text.bt_uuid_cmp,"ax",@progbits
	.align	1
	.globl	bt_uuid_cmp
	.type	bt_uuid_cmp, @function
bt_uuid_cmp:
.LFB64:
	.loc 1 61 1 is_stmt 1
	.cfi_startproc
.LVL20:
	.loc 1 63 2
	.loc 1 61 1 is_stmt 0
	addi	sp,sp,-64
	.cfi_def_cfa_offset 64
	sw	s0,56(sp)
	sw	s1,52(sp)
	sw	ra,60(sp)
	.cfi_offset 8, -8
	.cfi_offset 9, -12
	.cfi_offset 1, -4
	addi	s0,sp,64
	.cfi_def_cfa 8, 0
	.loc 1 63 8
	lbu	a3,0(a0)
	.loc 1 63 5
	lbu	a4,0(a1)
	.loc 1 61 1
	mv	s1,a1
	.loc 1 63 5
	beq	a4,a3,.L7
	.loc 1 64 3 is_stmt 1
.LVL21:
.LBB38:
.LBB39:
	.loc 1 52 2
	.loc 1 54 2
	addi	a1,s0,-56
.LVL22:
	call	uuid_to_uuid128
.LVL23:
	.loc 1 55 2
	addi	a1,s0,-36
	mv	a0,s1
	call	uuid_to_uuid128
.LVL24:
	.loc 1 57 2
	.loc 1 57 9 is_stmt 0
	li	a2,16
	addi	a1,s0,-35
	addi	a0,s0,-55
	call	memcmp
.LVL25:
.L6:
.LBE39:
.LBE38:
	.loc 1 77 1
	lw	ra,60(sp)
	.cfi_remember_state
	.cfi_restore 1
	lw	s0,56(sp)
	.cfi_restore 8
	.cfi_def_cfa 2, 64
	lw	s1,52(sp)
	.cfi_restore 9
.LVL26:
	addi	sp,sp,64
	.cfi_def_cfa_offset 0
	jr	ra
.LVL27:
.L7:
	.cfi_restore_state
	.loc 1 67 2
	li	a3,1
	mv	a5,a0
	.loc 1 67 2 is_stmt 1
	beq	a4,a3,.L9
	li	a3,2
	beq	a4,a3,.L10
	li	a0,-22
.LVL28:
	bne	a4,zero,.L6
	.loc 1 69 3
	.loc 1 69 10 is_stmt 0
	lhu	a0,2(a5)
	.loc 1 69 24
	lhu	a5,2(a1)
.LVL29:
.L13:
	.loc 1 71 22
	sub	a0,a0,a5
	j	.L6
.LVL30:
.L9:
	.loc 1 71 3 is_stmt 1
	.loc 1 71 22 is_stmt 0
	lw	a0,4(a0)
.LVL31:
	lw	a5,4(a1)
.LVL32:
	j	.L13
.LVL33:
.L10:
	.loc 1 73 3 is_stmt 1
	.loc 1 77 1 is_stmt 0
	lw	s0,56(sp)
	.cfi_restore 8
	.cfi_def_cfa 2, 64
	lw	ra,60(sp)
	.cfi_restore 1
	lw	s1,52(sp)
	.cfi_restore 9
.LVL34:
	.loc 1 73 10
	li	a2,16
	.loc 1 77 1
	.loc 1 73 10
	addi	a1,a1,1
.LVL35:
	addi	a0,a0,1
.LVL36:
	.loc 1 77 1
	addi	sp,sp,64
	.cfi_def_cfa_offset 0
	.loc 1 73 10
	tail	memcmp
.LVL37:
	.cfi_endproc
.LFE64:
	.size	bt_uuid_cmp, .-bt_uuid_cmp
	.section	.text.bt_uuid_create,"ax",@progbits
	.align	1
	.globl	bt_uuid_create
	.type	bt_uuid_create, @function
bt_uuid_create:
.LFB65:
	.loc 1 80 1 is_stmt 1
	.cfi_startproc
.LVL38:
	mv	a5,a0
	.loc 1 82 2
	li	a0,4
.LVL39:
	beq	a2,a0,.L15
	li	a0,16
	mv	a3,a2
	beq	a2,a0,.L16
	li	a2,2
.LVL40:
	li	a0,0
	bne	a3,a2,.L20
	.loc 1 84 3
	.loc 1 84 14 is_stmt 0
	sb	zero,0(a5)
	.loc 1 85 3 is_stmt 1
.LVL41:
	.loc 2 310 2
	lbu	a4,1(a1)
	lbu	a3,0(a1)
	slli	a4,a4,8
	or	a4,a4,a3
.LVL42:
	.loc 1 85 10 is_stmt 0
	sh	a4,2(a5)
	.loc 1 86 3 is_stmt 1
.L22:
	.loc 1 90 3
	.loc 1 98 8 is_stmt 0
	li	a0,1
	.loc 1 90 3
	ret
.LVL43:
.L15:
	.loc 1 88 3 is_stmt 1
	.loc 1 88 14 is_stmt 0
	li	a3,1
	sb	a3,0(a5)
	.loc 1 89 3 is_stmt 1
.LVL44:
.LBB48:
.LBB49:
	.loc 2 340 2
.LBE49:
.LBE48:
	.loc 2 310 2
.LBB51:
.LBB50:
	.loc 2 340 46 is_stmt 0
	lbu	a3,1(a1)
	lbu	a2,0(a1)
.LVL45:
	lbu	a4,3(a1)
	slli	a3,a3,8
	or	a2,a3,a2
	lbu	a3,2(a1)
	slli	a4,a4,24
	slli	a3,a3,16
	or	a3,a3,a2
	or	a4,a4,a3
.LVL46:
.LBE50:
.LBE51:
	.loc 2 310 2 is_stmt 1
	.loc 1 89 10 is_stmt 0
	sw	a4,4(a5)
	j	.L22
.LVL47:
.L16:
	.loc 1 92 3 is_stmt 1
	.loc 1 80 1 is_stmt 0
	addi	sp,sp,-16
	.cfi_def_cfa_offset 16
	sw	s0,8(sp)
	sw	ra,12(sp)
	.cfi_offset 8, -8
	.cfi_offset 1, -4
	addi	s0,sp,16
	.cfi_def_cfa 8, 0
	.loc 1 92 14
	li	a4,2
	sb	a4,0(a5)
	.loc 1 93 3 is_stmt 1
	addi	a0,a5,1
	call	memcpy
.LVL48:
	.loc 1 94 3
	.loc 1 99 1 is_stmt 0
	lw	ra,12(sp)
	.cfi_restore 1
	lw	s0,8(sp)
	.cfi_restore 8
	.cfi_def_cfa 2, 16
	.loc 1 98 8
	li	a0,1
	.loc 1 99 1
	addi	sp,sp,16
	.cfi_def_cfa_offset 0
	jr	ra
.LVL49:
.L20:
	ret
	.cfi_endproc
.LFE65:
	.size	bt_uuid_create, .-bt_uuid_create
	.section	.rodata.bt_uuid_to_str.str1.4,"aMS",@progbits,1
	.align	2
.LC0:
	.string	"%04x"
	.align	2
.LC1:
	.string	"%08x-%04x-%04x-%04x-%08x%04x"
	.section	.text.bt_uuid_to_str,"ax",@progbits
	.align	1
	.globl	bt_uuid_to_str
	.type	bt_uuid_to_str, @function
bt_uuid_to_str:
.LFB66:
	.loc 1 103 1 is_stmt 1
	.cfi_startproc
.LVL50:
	.loc 1 104 2
	.loc 1 105 2
	.loc 1 107 2
	.loc 1 103 1 is_stmt 0
	addi	sp,sp,-64
	.cfi_def_cfa_offset 64
	sw	s0,56(sp)
	sw	s1,52(sp)
	sw	s2,48(sp)
	sw	s3,44(sp)
	sw	ra,60(sp)
	.cfi_offset 8, -8
	.cfi_offset 9, -12
	.cfi_offset 18, -16
	.cfi_offset 19, -20
	.cfi_offset 1, -4
	addi	s0,sp,64
	.cfi_def_cfa 8, 0
	.loc 1 107 14
	lbu	a5,0(a0)
	.loc 1 107 2
	li	a4,1
	.loc 1 103 1
	mv	s1,a0
	mv	s2,a1
	mv	s3,a2
	.loc 1 107 2
	beq	a5,a4,.L24
	li	a4,2
	beq	a5,a4,.L25
	bne	a5,zero,.L26
	.loc 1 109 3 is_stmt 1
	lhu	a3,2(a0)
.L30:
	.loc 1 129 1 is_stmt 0
	lw	s0,56(sp)
	.cfi_remember_state
	.cfi_restore 8
	.cfi_def_cfa 2, 64
	lw	ra,60(sp)
	.cfi_restore 1
	lw	s1,52(sp)
	.cfi_restore 9
	.loc 1 112 3
	mv	a1,s3
.LVL51:
	mv	a0,s2
.LVL52:
	.loc 1 129 1
	lw	s3,44(sp)
	.cfi_restore 19
	lw	s2,48(sp)
	.cfi_restore 18
.LVL53:
	.loc 1 112 3
	lui	a2,%hi(.LC0)
.LVL54:
	.loc 1 129 1
	.loc 1 112 3
	addi	a2,a2,%lo(.LC0)
	.loc 1 129 1
	addi	sp,sp,64
	.cfi_def_cfa_offset 0
	.loc 1 112 3
	tail	snprintf
.LVL55:
.L24:
	.cfi_restore_state
	.loc 1 112 3 is_stmt 1
	lw	a3,4(a0)
	j	.L30
.L25:
	.loc 1 115 3
	addi	a1,a0,1
.LVL56:
	li	a2,2
.LVL57:
	addi	a0,s0,-48
	call	memcpy
.LVL58:
	.loc 1 116 3
	addi	a1,s1,3
	li	a2,4
	addi	a0,s0,-40
	call	memcpy
.LVL59:
	.loc 1 117 3
	addi	a1,s1,7
	li	a2,2
	addi	a0,s0,-46
	call	memcpy
.LVL60:
	.loc 1 118 3
	addi	a1,s1,9
	li	a2,2
	addi	a0,s0,-44
	call	memcpy
.LVL61:
	.loc 1 119 3
	addi	a1,s1,11
	li	a2,2
	addi	a0,s0,-42
	call	memcpy
.LVL62:
	.loc 1 120 3
	addi	a1,s1,13
	li	a2,4
	addi	a0,s0,-36
	call	memcpy
.LVL63:
	.loc 1 122 3
	lhu	a5,-48(s0)
	lw	a7,-40(s0)
	lhu	a6,-46(s0)
	sw	a5,0(sp)
	lhu	a4,-42(s0)
	lhu	a5,-44(s0)
	lw	a3,-36(s0)
	lui	a2,%hi(.LC1)
	mv	a1,s3
	mv	a0,s2
	addi	a2,a2,%lo(.LC1)
	call	snprintf
.LVL64:
	.loc 1 124 3
	.loc 1 129 1 is_stmt 0
	lw	ra,60(sp)
	.cfi_remember_state
	.cfi_restore 1
	lw	s0,56(sp)
	.cfi_restore 8
	.cfi_def_cfa 2, 64
	lw	s1,52(sp)
	.cfi_restore 9
.LVL65:
	lw	s2,48(sp)
	.cfi_restore 18
.LVL66:
	lw	s3,44(sp)
	.cfi_restore 19
.LVL67:
	addi	sp,sp,64
	.cfi_def_cfa_offset 0
	jr	ra
.LVL68:
.L26:
	.cfi_restore_state
	.loc 1 126 3 is_stmt 1
	.loc 1 129 1 is_stmt 0
	lw	s0,56(sp)
	.cfi_restore 8
	.cfi_def_cfa 2, 64
	lw	ra,60(sp)
	.cfi_restore 1
	lw	s1,52(sp)
	.cfi_restore 9
.LVL69:
	lw	s3,44(sp)
	.cfi_restore 19
	.loc 1 126 9
	mv	a0,s2
.LVL70:
	.loc 1 129 1
	lw	s2,48(sp)
	.cfi_restore 18
	.loc 1 126 9
	li	a1,0
.LVL71:
	.loc 1 129 1
	addi	sp,sp,64
	.cfi_def_cfa_offset 0
	.loc 1 126 9
	tail	memset
.LVL72:
	.cfi_endproc
.LFE66:
	.size	bt_uuid_to_str, .-bt_uuid_to_str
	.section	.text.bt_uuid_str_real,"ax",@progbits
	.align	1
	.globl	bt_uuid_str_real
	.type	bt_uuid_str_real, @function
bt_uuid_str_real:
.LFB67:
	.loc 1 132 1 is_stmt 1
	.cfi_startproc
.LVL73:
	.loc 1 133 2
	.loc 1 135 2
	.loc 1 132 1 is_stmt 0
	addi	sp,sp,-16
	.cfi_def_cfa_offset 16
	sw	s0,8(sp)
	sw	s1,4(sp)
	sw	ra,12(sp)
	.cfi_offset 8, -8
	.cfi_offset 9, -12
	.cfi_offset 1, -4
	addi	s0,sp,16
	.cfi_def_cfa 8, 0
	.loc 1 135 2
	lui	s1,%hi(.LANCHOR1)
	.loc 1 132 1
	.loc 1 135 2
	addi	a1,s1,%lo(.LANCHOR1)
	li	a2,37
	call	bt_uuid_to_str
.LVL74:
	.loc 1 137 2 is_stmt 1
	.loc 1 138 1 is_stmt 0
	lw	ra,12(sp)
	.cfi_restore 1
	lw	s0,8(sp)
	.cfi_restore 8
	.cfi_def_cfa 2, 16
	addi	a0,s1,%lo(.LANCHOR1)
	lw	s1,4(sp)
	.cfi_restore 9
	addi	sp,sp,16
	.cfi_def_cfa_offset 0
	jr	ra
	.cfi_endproc
.LFE67:
	.size	bt_uuid_str_real, .-bt_uuid_str_real
	.section	.bss.str.0,"aw",@nobits
	.align	2
	.set	.LANCHOR1,. + 0
	.type	str.0, @object
	.size	str.0, 37
str.0:
	.zero	37
	.section	.rodata.uuid128_base,"a"
	.align	2
	.set	.LANCHOR0,. + 0
	.type	uuid128_base, @object
	.size	uuid128_base, 17
uuid128_base:
	.byte	2
	.string	"\3734\233_\200"
	.string	""
	.string	"\200"
	.string	"\020"
	.string	""
	.string	""
	.string	""
	.string	""
	.string	""
	.text
.Letext0:
	.file 3 "/home/dinhquangha/intern/Ai-Thinker-WB2/toolchain/riscv/Linux/lib/gcc/riscv64-unknown-elf/10.2.0/include/stddef.h"
	.file 4 "/home/dinhquangha/intern/Ai-Thinker-WB2/toolchain/riscv/Linux/lib/gcc/riscv64-unknown-elf/10.2.0/include/stdint-gcc.h"
	.file 5 "/home/dinhquangha/intern/Ai-Thinker-WB2/components/network/ble/blestack/src/common/include/zephyr/types.h"
	.file 6 "/home/dinhquangha/intern/Ai-Thinker-WB2/components/network/ble/blestack/src/port/include/zephyr.h"
	.file 7 "/home/dinhquangha/intern/Ai-Thinker-WB2/components/network/ble/blestack/src/include/bluetooth/uuid.h"
	.file 8 "/home/dinhquangha/intern/Ai-Thinker-WB2/toolchain/riscv/Linux/riscv64-unknown-elf/include/stdio.h"
	.file 9 "/home/dinhquangha/intern/Ai-Thinker-WB2/toolchain/riscv/Linux/riscv64-unknown-elf/include/string.h"
	.file 10 "<built-in>"