	.file	"loopset_ir.c"
	.option nopic
	.attribute arch, "rv32i2p0_m2p0_f2p0_c2p0"
	.attribute unaligned_access, 0
	.attribute stack_align, 16
	.text
.Ltext0:
	.cfi_sections	.debug_frame
	.section	.text._ir_bloop_msg,"ax",@progbits
	.align	1
	.type	_ir_bloop_msg, @function
_ir_bloop_msg:
.LFB29:
	.file 1 "/home/dinhquangha/intern/Ai-Thinker-WB2/components/sys/bloop/loopset/src/loopset_ir.c"
	.loc 1 38 1
	.cfi_startproc
.LVL0:
	.loc 1 39 5
	.loc 1 41 5
	.loc 1 38 1 is_stmt 0
	addi	sp,sp,-16
	.cfi_def_cfa_offset 16
	sw	s0,12(sp)
	.cfi_offset 8, -4
	addi	s0,sp,16
	.cfi_def_cfa 8, 0
	.loc 1 42 1
	lw	s0,12(sp)
	.cfi_restore 8
	.cfi_def_cfa 2, 16
	li	a0,0
.LVL1:
	addi	sp,sp,16
	.cfi_def_cfa_offset 0
	jr	ra
	.cfi_endproc
.LFE29:
	.size	_ir_bloop_msg, .-_ir_bloop_msg
	.section	.text._ir_bloop_evt,"ax",@progbits
	.align	1
	.type	_ir_bloop_evt, @function
_ir_bloop_evt:
.LFB28:
	.loc 1 23 1 is_stmt 1
	.cfi_startproc
.LVL2:
	.loc 1 24 5
	.loc 1 26 5
	.loc 1 23 1 is_stmt 0
	addi	sp,sp,-16
	.cfi_def_cfa_offset 16
	sw	s0,8(sp)
	sw	ra,12(sp)
	.cfi_offset 8, -8
	.cfi_offset 1, -4
	addi	s0,sp,16
	.cfi_def_cfa 8, 0
	.loc 1 26 12
	call	bl_receivedata
.LVL3:
	mv	a2,a0
.LVL4:
	.loc 1 27 5 is_stmt 1
	.loc 1 28 9 is_stmt 0
	li	a1,2
	.loc 1 27 8
	beq	a0,zero,.L7
	.loc 1 30 9 is_stmt 1
	li	a1,1
.L7:
	li	a0,6
.LVL5:
	call	aos_post_event
.LVL6:
	.loc 1 32 5
	call	bl_enable_rx_int
.LVL7:
	.loc 1 34 5
	.loc 1 35 1 is_stmt 0
	lw	ra,12(sp)
	.cfi_restore 1
	lw	s0,8(sp)
	.cfi_restore 8
	.cfi_def_cfa 2, 16
	li	a0,0
	addi	sp,sp,16
	.cfi_def_cfa_offset 0
	jr	ra
	.cfi_endproc
.LFE28:
	.size	_ir_bloop_evt, .-_ir_bloop_evt
	.section	.text.loopset_ir_hook_on_looprt,"ax",@progbits
	.align	1
	.globl	loopset_ir_hook_on_looprt
	.type	loopset_ir_hook_on_looprt, @function
loopset_ir_hook_on_looprt:
.LFB30:
	.loc 1 45 1 is_stmt 1
	.cfi_startproc
	.loc 1 46 5
	.loc 1 55 5
	.loc 1 45 1 is_stmt 0
	addi	sp,sp,-16
	.cfi_def_cfa_offset 16
	sw	s0,12(sp)
	.cfi_offset 8, -4
	addi	s0,sp,16
	.cfi_def_cfa 8, 0
	.loc 1 56 1
	lw	s0,12(sp)
	.cfi_restore 8
	.cfi_def_cfa 2, 16
	.loc 1 55 12
	lui	a0,%hi(.LANCHOR0)
	li	a1,3
	.loc 1 56 1
	.loc 1 55 12
	addi	a0,a0,%lo(.LANCHOR0)
	.loc 1 56 1
	addi	sp,sp,16
	.cfi_def_cfa_offset 0
	.loc 1 55 12
	tail	looprt_handler_register
.LVL8:
	.cfi_endproc
.LFE30:
	.size	loopset_ir_hook_on_looprt, .-loopset_ir_hook_on_looprt
	.section	.text.ir_async_post,"ax",@progbits
	.align	1
	.globl	ir_async_post
	.type	ir_async_post, @function
ir_async_post:
.LFB31:
	.loc 1 59 1 is_stmt 1
	.cfi_startproc
	.loc 1 60 5
	.loc 1 59 1 is_stmt 0
	addi	sp,sp,-16
	.cfi_def_cfa_offset 16
	sw	s0,12(sp)
	.cfi_offset 8, -4
	addi	s0,sp,16
	.cfi_def_cfa 8, 0
	.loc 1 63 1
	lw	s0,12(sp)
	.cfi_restore 8
	.cfi_def_cfa 2, 16
	.loc 1 60 5
	li	a1,1
	li	a0,3
	.loc 1 63 1
	addi	sp,sp,16
	.cfi_def_cfa_offset 0
	.loc 1 60 5
	tail	looprt_evt_notify_async_fromISR
.LVL9:
	.cfi_endproc
.LFE31:
	.size	ir_async_post, .-ir_async_post
	.section	.rodata.str1.4,"aMS",@progbits,1
	.align	2
.LC0:
	.string	"IR Trigger"
	.section	.rodata._ir_bloop_handler_holder.0,"a"
	.align	2
	.set	.LANCHOR0,. + 0
	.type	_ir_bloop_handler_holder.0, @object
	.size	_ir_bloop_handler_holder.0, 12
_ir_bloop_handler_holder.0:
	.word	.LC0
	.word	_ir_bloop_evt
	.word	_ir_bloop_msg
	.text
.Letext0:
	.file 2 "/home/dinhquangha/intern/Ai-Thinker-WB2/toolchain/riscv/Linux/lib/gcc/riscv64-unknown-elf/10.2.0/include/stdint-gcc.h"
	.file 3 "/home/dinhquangha/intern/Ai-Thinker-WB2/components/platform/soc/bl602/freertos_riscv_ram/config/task.h"
	.file 4 "/home/dinhquangha/intern/Ai-Thinker-WB2/components/utils/include/utils_list.h"
	.file 5 "/home/dinhquangha/intern/Ai-Thinker-WB2/components/sys/bloop/bloop/include/bloop.h"
	.file 6 "/home/dinhquangha/intern/Ai-Thinker-WB2/components/sys/bloop/looprt/include/looprt.h"
	.file 7 "/home/dinhquangha/intern/Ai-Thinker-WB2/components/platform/hosal/bl602_hal/bl_ir.h"
	.file 8 "/home/dinhquangha/intern/Ai-Thinker-WB2/components/stage/yloop/include/aos/yloop.h"