	.file	"loopset_led.c"
	.option nopic
	.attribute arch, "rv32i2p0_m2p0_f2p0_c2p0"
	.attribute unaligned_access, 0
	.attribute stack_align, 16
	.text
.Ltext0:
	.cfi_sections	.debug_frame
	.section	.text._led_bloop_msg,"ax",@progbits
	.align	1
	.type	_led_bloop_msg, @function
_led_bloop_msg:
.LFB28:
	.file 1 "/home/quanghaictu/intern/Ai-Thinker-WB2/components/sys/bloop/loopset/src/loopset_led.c"
	.loc 1 77 1
	.cfi_startproc
.LVL0:
	.loc 1 91 6
	.loc 1 92 5
	.loc 1 77 1 is_stmt 0
	addi	sp,sp,-16
	.cfi_def_cfa_offset 16
	sw	s0,12(sp)
	.cfi_offset 8, -4
	addi	s0,sp,16
	.cfi_def_cfa 8, 0
	.loc 1 93 1
	lw	s0,12(sp)
	.cfi_restore 8
	.cfi_def_cfa 2, 16
	li	a0,0
.LVL1:
	addi	sp,sp,16
	.cfi_def_cfa_offset 0
	jr	ra
	.cfi_endproc
.LFE28:
	.size	_led_bloop_msg, .-_led_bloop_msg
	.section	.text._cb_led_trigger,"ax",@progbits
	.align	1
	.type	_cb_led_trigger, @function
_cb_led_trigger:
.LFB30:
	.loc 1 113 1 is_stmt 1
	.cfi_startproc
.LVL2:
	.loc 1 114 5
	.loc 1 116 5
	.loc 1 113 1 is_stmt 0
	addi	sp,sp,-16
	.cfi_def_cfa_offset 16
	sw	s0,8(sp)
	sw	s1,4(sp)
	sw	ra,12(sp)
	.cfi_offset 8, -8
	.cfi_offset 9, -12
	.cfi_offset 1, -4
	addi	s0,sp,16
	.cfi_def_cfa 8, 0
	.loc 1 116 5
	lw	a1,56(a2)
.LVL3:
	lbu	a0,48(a2)
.LVL4:
	.loc 1 113 1
	mv	s1,a2
	.loc 1 116 5
	snez	a1,a1
	call	bl_gpio_output_set
.LVL5:
	.loc 1 120 6 is_stmt 1
	.loc 1 121 5
	.loc 1 121 28 is_stmt 0
	lw	a5,56(s1)
	.loc 1 122 1
	lw	ra,12(sp)
	.cfi_restore 1
	lw	s0,8(sp)
	.cfi_restore 8
	.cfi_def_cfa 2, 16
	.loc 1 121 28
	seqz	a5,a5
	.loc 1 121 26
	sw	a5,56(s1)
	.loc 1 122 1
	lw	s1,4(sp)
	.cfi_restore 9
.LVL6:
	addi	sp,sp,16
	.cfi_def_cfa_offset 0
	jr	ra
	.cfi_endproc
.LFE30:
	.size	_cb_led_trigger, .-_cb_led_trigger
	.section	.rodata._led_bloop_evt.str1.4,"aMS",@progbits,1
	.align	2
.LC0:
	.string	"loopset_led.c"
	.align	2
.LC1:
	.string	"[ASSERT] [ERR] %s:%d\r\n"
	.section	.text._led_bloop_evt,"ax",@progbits
	.align	1
	.type	_led_bloop_evt, @function
_led_bloop_evt:
.LFB27:
	.loc 1 54 1 is_stmt 1
	.cfi_startproc
.LVL7:
	addi	sp,sp,-48
	.cfi_def_cfa_offset 48
	sw	s0,40(sp)
	sw	s2,32(sp)
	sw	s5,20(sp)
	sw	s6,16(sp)
	sw	ra,44(sp)
	sw	s1,36(sp)
	sw	s3,28(sp)
	sw	s4,24(sp)
	sw	s7,12(sp)
	.cfi_offset 8, -8
	.cfi_offset 18, -16
	.cfi_offset 21, -28
	.cfi_offset 22, -32
	.cfi_offset 1, -4
	.cfi_offset 9, -12
	.cfi_offset 19, -20
	.cfi_offset 20, -24
	.cfi_offset 23, -36
	addi	s0,sp,48
	.cfi_def_cfa 8, 0
	.loc 1 55 14 is_stmt 0
	lw	s2,0(a3)
	.loc 1 54 1
	mv	s6,a1
	.loc 1 55 5 is_stmt 1
.LVL8:
	.loc 1 56 5
	.loc 1 54 1 is_stmt 0
	mv	s5,a3
.LVL9:
.L6:
	.loc 1 59 5 is_stmt 1
	.loc 1 59 13 is_stmt 0
	andi	a5,s2,1
	.loc 1 59 8
	beq	a5,zero,.L7
	.loc 1 60 9 is_stmt 1
	.loc 1 60 13 is_stmt 0
	andi	s2,s2,-2
.LVL10:
.L8:
	.loc 1 65 114 is_stmt 1 discriminator 2
	.loc 1 68 5 discriminator 2
	.loc 1 68 8 is_stmt 0 discriminator 2
	bne	s2,zero,.L6
.L16:
.LVL11:
	.loc 1 72 5 is_stmt 1
	.loc 1 74 1 is_stmt 0
	lw	ra,44(sp)
	.cfi_remember_state
	.cfi_restore 1
	lw	s0,40(sp)
	.cfi_restore 8
	.cfi_def_cfa 2, 48
	.loc 1 72 19
	sw	zero,0(s5)
	.loc 1 73 5 is_stmt 1
	.loc 1 74 1 is_stmt 0
	lw	s1,36(sp)
	.cfi_restore 9
	lw	s2,32(sp)
	.cfi_restore 18
	lw	s3,28(sp)
	.cfi_restore 19
	lw	s4,24(sp)
	.cfi_restore 20
	lw	s5,20(sp)
	.cfi_restore 21
.LVL12:
	lw	s6,16(sp)
	.cfi_restore 22
.LVL13:
	lw	s7,12(sp)
	.cfi_restore 23
	li	a0,0
	addi	sp,sp,48
	.cfi_def_cfa_offset 0
	jr	ra
.LVL14:
.L7:
	.cfi_restore_state
	.loc 1 61 12 is_stmt 1
	.loc 1 61 20 is_stmt 0
	andi	a5,s2,2
	.loc 1 61 15
	beq	a5,zero,.L9
	.loc 1 62 9 is_stmt 1
	lw	s3,12(s6)
.LVL15:
.LBB26:
.LBB27:
	.loc 1 38 5
	.loc 1 39 5
	.loc 1 41 5
	.loc 1 41 217 is_stmt 0
	li	s4,0
	.loc 1 41 15
	lw	s1,12(s3)
.LVL16:
	.loc 1 41 217
	beq	s1,zero,.L10
	lw	s4,4(s1)
.L10:
	.loc 1 41 28
	addi	s7,s3,8
.L11:
.LVL17:
	.loc 1 41 6 is_stmt 1
	.loc 1 41 5 is_stmt 0
	bne	s1,s7,.L13
.LVL18:
.LBE27:
.LBE26:
	.loc 1 63 9 is_stmt 1
	.loc 1 63 13 is_stmt 0
	andi	s2,s2,-3
.LVL19:
	j	.L8
.LVL20:
.L13:
.LBB35:
.LBB34:
	.loc 1 46 10 is_stmt 1
	.loc 1 47 9
	addi	a0,s1,8
	call	looprt_timer_register
.LVL21:
	.loc 1 48 9
.LBB28:
.LBB29:
	.file 2 "/home/quanghaictu/intern/Ai-Thinker-WB2/components/utils/include/utils_list.h"
	.loc 2 296 5
	.loc 2 297 20 is_stmt 0
	lw	a5,4(s1)
	.loc 2 296 20
	lw	a4,0(s1)
.LVL22:
	.loc 2 297 5 is_stmt 1
	.loc 2 299 5
	.loc 2 299 16 is_stmt 0
	sw	a5,4(a4)
	.loc 2 300 5 is_stmt 1
	.loc 2 300 16 is_stmt 0
	sw	a4,0(a5)
.LVL23:
.LBE29:
.LBE28:
	.loc 1 49 9 is_stmt 1
.LBB30:
.LBB31:
	.loc 2 286 5
	.loc 2 286 41 is_stmt 0
	lw	a5,4(s3)
.LVL24:
.LBB32:
.LBB33:
	.loc 2 266 5 is_stmt 1
	.loc 2 267 16 is_stmt 0
	sw	s3,0(s1)
	.loc 2 266 16
	sw	a5,4(s1)
	.loc 2 267 5 is_stmt 1
	.loc 2 269 5
	.loc 2 269 16 is_stmt 0
	sw	s1,4(s3)
	.loc 2 270 5 is_stmt 1
	.loc 2 270 16 is_stmt 0
	sw	s1,0(a5)
.LVL25:
.LBE33:
.LBE32:
.LBE31:
.LBE30:
	.loc 1 41 50 is_stmt 1
	.loc 1 41 185 is_stmt 0
	li	a5,0
	beq	s4,zero,.L12
	lw	a5,4(s4)
.L12:
	mv	s1,s4
	mv	s4,a5
.LVL26:
	j	.L11
.LVL27:
.L9:
.LBE34:
.LBE35:
	.loc 1 65 9 is_stmt 1
	.loc 1 65 14
	.loc 1 65 17 is_stmt 0
	beq	s2,zero,.L16
.LVL28:
.LBB36:
.LBB37:
	.loc 1 65 33 is_stmt 1
	lui	a1,%hi(.LC0)
	lui	a0,%hi(.LC1)
	li	a2,65
	addi	a1,a1,%lo(.LC0)
	addi	a0,a0,%lo(.LC1)
	call	printf
.LVL29:
.L15:
	.loc 1 65 90
	.loc 1 65 102
	.loc 1 65 96
	j	.L15
.LBE37:
.LBE36:
	.cfi_endproc
.LFE27:
	.size	_led_bloop_evt, .-_led_bloop_evt
	.section	.text.loopset_led_hook_on_looprt,"ax",@progbits
	.align	1
	.globl	loopset_led_hook_on_looprt
	.type	loopset_led_hook_on_looprt, @function
loopset_led_hook_on_looprt:
.LFB29:
	.loc 1 96 1
	.cfi_startproc
	.loc 1 97 5
	.loc 1 106 5
.LVL30:
.LBB38:
.LBB39:
	.loc 2 310 5
.LBE39:
.LBE38:
	.loc 1 96 1 is_stmt 0
	addi	sp,sp,-16
	.cfi_def_cfa_offset 16
.LBB43:
.LBB40:
	.loc 2 310 16
	lui	a5,%hi(.LANCHOR0)
.LBE40:
.LBE43:
	.loc 1 96 1
	sw	s0,12(sp)
.LBB44:
.LBB41:
	.loc 2 310 16
	addi	a5,a5,%lo(.LANCHOR0)
	.cfi_offset 8, -4
.LBE41:
.LBE44:
	.loc 1 96 1
	addi	s0,sp,16
	.cfi_def_cfa 8, 0
.LBB45:
.LBB46:
	.loc 2 310 16
	addi	a4,a5,8
.LBE46:
.LBE45:
.LBB48:
.LBB42:
	sw	a5,4(a5)
	.loc 2 311 5 is_stmt 1
	.loc 2 311 16 is_stmt 0
	sw	a5,0(a5)
.LVL31:
.LBE42:
.LBE48:
	.loc 1 107 5 is_stmt 1
.LBB49:
.LBB47:
	.loc 2 310 5
	.loc 2 310 16 is_stmt 0
	sw	a4,12(a5)
	.loc 2 311 5 is_stmt 1
	.loc 2 311 16 is_stmt 0
	sw	a4,8(a5)
.LVL32:
.LBE47:
.LBE49:
	.loc 1 109 5 is_stmt 1
	.loc 1 110 1 is_stmt 0
	lw	s0,12(sp)
	.cfi_restore 8
	.cfi_def_cfa 2, 16
	.loc 1 109 12
	lui	a0,%hi(.LANCHOR1)
	li	a1,1
	.loc 1 110 1
	.loc 1 109 12
	addi	a0,a0,%lo(.LANCHOR1)
	.loc 1 110 1
	addi	sp,sp,16
	.cfi_def_cfa_offset 0
	.loc 1 109 12
	tail	looprt_handler_register
.LVL33:
	.cfi_endproc
.LFE29:
	.size	loopset_led_hook_on_looprt, .-loopset_led_hook_on_looprt
	.section	.rodata.loopset_led_trigger.str1.4,"aMS",@progbits,1
	.align	2
.LC2:
	.string	"ASSERT"
	.align	2
.LC3:
	.string	"[%10u][%s: %s:%4d] ASSERT: %s:%d\r\n"
	.section	.text.loopset_led_trigger,"ax",@progbits
	.align	1
	.globl	loopset_led_trigger
	.type	loopset_led_trigger, @function
loopset_led_trigger:
.LFB31:
	.loc 1 125 1 is_stmt 1
	.cfi_startproc
.LVL34:
	.loc 1 126 5
	.loc 1 128 5
	.loc 1 125 1 is_stmt 0
	addi	sp,sp,-48
	.cfi_def_cfa_offset 48
	sw	s0,40(sp)
	sw	s2,32(sp)
	sw	s3,28(sp)
	sw	ra,44(sp)
	sw	s1,36(sp)
	.cfi_offset 8, -8
	.cfi_offset 18, -16
	.cfi_offset 19, -20
	.cfi_offset 1, -4
	.cfi_offset 9, -12
	addi	s0,sp,48
	.cfi_def_cfa 8, 0
	mv	s2,a0
	.loc 1 128 15
	li	a0,60
.LVL35:
	.loc 1 125 1
	mv	s3,a1
	.loc 1 128 15
	call	pvPortMalloc
.LVL36:
	.loc 1 129 5 is_stmt 1
	.loc 1 129 10
	.loc 1 129 13 is_stmt 0
	bne	a0,zero,.L25
	.loc 1 129 28 is_stmt 1 discriminator 1
	.loc 1 129 33 discriminator 1
	.loc 1 129 35 discriminator 1
	.loc 1 129 89 is_stmt 0 discriminator 1
	call	xPortIsInsideInterrupt
.LVL37:
	.loc 1 129 35 discriminator 1
	beq	a0,zero,.L26
	.loc 1 129 116 discriminator 3
	call	xTaskGetTickCountFromISR
.LVL38:
.L30:
	.loc 1 129 35 discriminator 4
	lui	a3,%hi(.LC0)
	.loc 1 129 145 discriminator 4
	mv	a1,a0
	.loc 1 129 35 discriminator 4
	lui	a2,%hi(.LC2)
	lui	a0,%hi(.LC3)
	addi	a5,a3,%lo(.LC0)
	li	a6,129
	li	a4,129
	addi	a3,a3,%lo(.LC0)
	addi	a2,a2,%lo(.LC2)
	addi	a0,a0,%lo(.LC3)
	call	bl_printk
.LVL39:
.L28:
	.loc 1 129 222 is_stmt 1 discriminator 1
	.loc 1 129 231 discriminator 1
	.loc 1 129 239 discriminator 1
	.loc 1 129 251 discriminator 1
	.loc 1 129 245 discriminator 1
	j	.L28
.L26:
	.loc 1 129 145 is_stmt 0 discriminator 4
	call	xTaskGetTickCount
.LVL40:
	j	.L30
.LVL41:
.L25:
	.loc 1 130 5 discriminator 2
	li	a2,60
	li	a1,0
	mv	s1,a0
	.loc 1 129 263 is_stmt 1 discriminator 2
	.loc 1 130 5 discriminator 2
	call	memset
.LVL42:
	.loc 1 131 5 discriminator 2
	.loc 1 133 5 is_stmt 0 discriminator 2
	addi	a0,s1,8
	.loc 1 131 18 discriminator 2
	sw	s2,48(s1)
	.loc 1 133 5 is_stmt 1 discriminator 2
	li	a1,0
	sw	a0,-36(s0)
	call	bloop_timer_init
.LVL43:
	.loc 1 134 5 discriminator 2
	lw	a0,-36(s0)
	call	bloop_timer_repeat_enable
.LVL44:
	.loc 1 135 5 discriminator 2
	lw	a0,-36(s0)
	lui	a2,%hi(_cb_led_trigger)
	mv	a3,s1
	li	a5,1
	li	a4,1
	mv	a1,s3
	addi	a2,a2,%lo(_cb_led_trigger)
	call	bloop_timer_configure
.LVL45:
	.loc 1 141 5 discriminator 2
	li	a1,0
	li	a2,0
	andi	a0,s2,0xff
	call	bl_gpio_enable_output
.LVL46:
	.loc 1 143 5 discriminator 2
	call	vTaskEnterCritical
.LVL47:
	.loc 1 144 5 discriminator 2
.LBB50:
.LBB51:
	.loc 2 286 5 discriminator 2
	.loc 2 286 41 is_stmt 0 discriminator 2
	lui	a5,%hi(.LANCHOR0)
	addi	a5,a5,%lo(.LANCHOR0)
	lw	a4,12(a5)
.LVL48:
.LBB52:
.LBB53:
	.loc 2 266 5 is_stmt 1 discriminator 2
	.loc 2 267 16 is_stmt 0 discriminator 2
	addi	a3,a5,8
	sw	a3,0(s1)
	.loc 2 266 16 discriminator 2
	sw	a4,4(s1)
	.loc 2 267 5 is_stmt 1 discriminator 2
	.loc 2 269 5 discriminator 2
	.loc 2 269 16 is_stmt 0 discriminator 2
	sw	s1,12(a5)
	.loc 2 270 5 is_stmt 1 discriminator 2
	.loc 2 270 16 is_stmt 0 discriminator 2
	sw	s1,0(a4)
.LVL49:
.LBE53:
.LBE52:
.LBE51:
.LBE50:
	.loc 1 145 5 is_stmt 1 discriminator 2
	call	vTaskExitCritical
.LVL50:
	.loc 1 147 5 discriminator 2
	.loc 1 148 1 is_stmt 0 discriminator 2
	lw	s0,40(sp)
	.cfi_restore 8
	.cfi_def_cfa 2, 48
	lw	ra,44(sp)
	.cfi_restore 1
	lw	s1,36(sp)
	.cfi_restore 9
.LVL51:
	lw	s2,32(sp)
	.cfi_restore 18
.LVL52:
	lw	s3,28(sp)
	.cfi_restore 19
.LVL53:
	.loc 1 147 5 discriminator 2
	li	a1,2
	.loc 1 148 1 discriminator 2
	.loc 1 147 5 discriminator 2
	li	a0,1
	.loc 1 148 1 discriminator 2
	addi	sp,sp,48
	.cfi_def_cfa_offset 0
	.loc 1 147 5 discriminator 2
	tail	looprt_evt_notify_async
.LVL54:
	.cfi_endproc
.LFE31:
	.size	loopset_led_trigger, .-loopset_led_trigger
	.section	.rodata.str1.4,"aMS",@progbits,1
	.align	2
.LC4:
	.string	"Led Trigger"
	.section	.bss.led_ctx,"aw",@nobits
	.align	2
	.set	.LANCHOR0,. + 0
	.type	led_ctx, @object
	.size	led_ctx, 16
led_ctx:
	.zero	16
	.section	.rodata._led_bloop_handler_holder.0,"a"
	.align	2
	.set	.LANCHOR1,. + 0
	.type	_led_bloop_handler_holder.0, @object
	.size	_led_bloop_handler_holder.0, 16
_led_bloop_handler_holder.0:
	.word	.LC4
	.word	_led_bloop_evt
	.word	_led_bloop_msg
	.word	led_ctx
	.text
.Letext0:
	.file 3 "/home/quanghaictu/intern/Ai-Thinker-WB2/toolchain/riscv/Linux/lib/gcc/riscv64-unknown-elf/10.2.0/include/stddef.h"
	.file 4 "/home/quanghaictu/intern/Ai-Thinker-WB2/toolchain/riscv/Linux/lib/gcc/riscv64-unknown-elf/10.2.0/include/stdint-gcc.h"
	.file 5 "/home/quanghaictu/intern/Ai-Thinker-WB2/components/platform/soc/bl602/freertos_riscv_ram/config/task.h"
	.file 6 "/home/quanghaictu/intern/Ai-Thinker-WB2/components/sys/bloop/bloop/include/bloop.h"
	.file 7 "/home/quanghaictu/intern/Ai-Thinker-WB2/components/platform/soc/bl602/freertos_riscv_ram/config/portable.h"
	.file 8 "/home/quanghaictu/intern/Ai-Thinker-WB2/components/platform/soc/bl602/freertos_riscv_ram/portable/GCC/RISC-V/portmacro.h"
	.file 9 "/home/quanghaictu/intern/Ai-Thinker-WB2/components/utils/include/utils_log.h"
	.file 10 "/home/quanghaictu/intern/Ai-Thinker-WB2/toolchain/riscv/Linux/riscv64-unknown-elf/include/string.h"
	.file 11 "/home/quanghaictu/intern/Ai-Thinker-WB2/components/platform/hosal/bl602_hal/bl_gpio.h"
	.file 12 "/home/quanghaictu/intern/Ai-Thinker-WB2/components/sys/bloop/looprt/include/looprt.h"
	.file 13 "/home/quanghaictu/intern/Ai-Thinker-WB2/toolchain/riscv/Linux/riscv64-unknown-elf/include/stdio.h"