	.file	"app_task.c"
	.option nopic
	.attribute arch, "rv32i2p0_m2p0_f2p0_c2p0"
	.attribute unaligned_access, 0
	.attribute stack_align, 16
	.text
.Ltext0:
	.cfi_sections	.debug_frame
	.section	.text.app_task_button,"ax",@progbits
	.align	1
	.globl	app_task_button
	.type	app_task_button, @function
app_task_button:
.LFB6:
	.file 1 "/home/quanghaictu/intern/Ai-Thinker-WB2/datic/components/app/app_task/app_task.c"
	.loc 1 46 1
	.cfi_startproc
.LVL0:
	.loc 1 47 5
	.loc 1 49 5
	.loc 1 46 1 is_stmt 0
	addi	sp,sp,-64
	.cfi_def_cfa_offset 64
	sw	ra,60(sp)
	sw	s0,56(sp)
	.cfi_offset 1, -4
	.cfi_offset 8, -8
	addi	s0,sp,64
	.cfi_def_cfa 8, 0
	.loc 1 52 23
	li	a5,4
	.loc 1 49 25
	sw	zero,-48(s0)
	.loc 1 50 22
	sw	zero,-32(s0)
	.loc 1 52 23
	sw	a5,-52(s0)
	.loc 1 53 30
	li	a5,1
	sw	a5,-44(s0)
	.loc 1 56 30
	sb	a5,-48(s0)
	.loc 1 59 23
	sb	a5,-32(s0)
	.loc 1 60 25
	lui	a5,%hi(app_get_tick_ms)
	.loc 1 58 20
	addi	a4,s0,-52
	.loc 1 60 25
	addi	a5,a5,%lo(app_get_tick_ms)
	.loc 1 64 5
	li	a2,0
	li	a1,0
	li	a0,4
.LVL1:
	.loc 1 58 20
	sw	a4,-36(s0)
	.loc 1 60 25
	sw	a5,-28(s0)
	.loc 1 49 25
	sw	zero,-40(s0)
	.loc 1 50 5 is_stmt 1
	.loc 1 50 22 is_stmt 0
	sw	zero,-24(s0)
	sw	zero,-20(s0)
	.loc 1 52 5 is_stmt 1
	.loc 1 53 5
	.loc 1 54 5
	.loc 1 55 5
	.loc 1 56 5
	.loc 1 58 5
	.loc 1 59 5
	.loc 1 60 5
	.loc 1 61 5
	.loc 1 62 5
	.loc 1 64 5
	call	bl_gpio_enable_input
.LVL2:
	.loc 1 65 5
	.loc 1 65 22 is_stmt 0
	lui	a5,%hi(bl_gpio_input_get_value)
	addi	a5,a5,%lo(bl_gpio_input_get_value)
	.loc 1 67 5
	addi	a0,s0,-36
	.loc 1 65 22
	sw	a5,-20(s0)
	.loc 1 67 5 is_stmt 1
	call	app_btn_initialize
.LVL3:
	.loc 1 68 5
	lui	a1,%hi(app_button_hold_callback)
	li	a2,0
	addi	a1,a1,%lo(app_button_hold_callback)
	li	a0,2
	call	app_btn_register_callback
.LVL4:
	.loc 1 69 5
	lui	a1,%hi(app_button_press_callback)
	li	a2,0
	addi	a1,a1,%lo(app_button_press_callback)
	li	a0,0
	call	app_btn_register_callback
.LVL5:
.L2:
	.loc 1 71 5 discriminator 1
	.loc 1 72 9 discriminator 1
	li	a0,0
	call	app_btn_scan
.LVL6:
	.loc 1 73 9 discriminator 1
	li	a0,20
	call	aos_msleep
.LVL7:
	.loc 1 71 11 discriminator 1
	j	.L2
	.cfi_endproc
.LFE6:
	.size	app_task_button, .-app_task_button
	.section	.text.app_get_tick_ms,"ax",@progbits
	.align	1
	.type	app_get_tick_ms, @function
app_get_tick_ms:
.LFB4:
	.loc 1 33 1
	.cfi_startproc
	.loc 1 34 5
	.loc 1 33 1 is_stmt 0
	addi	sp,sp,-16
	.cfi_def_cfa_offset 16
	sw	s0,8(sp)
	sw	ra,12(sp)
	.cfi_offset 8, -8
	.cfi_offset 1, -4
	addi	s0,sp,16
	.cfi_def_cfa 8, 0
	.loc 1 34 12
	call	aos_now_ms
.LVL8:
	.loc 1 35 1
	lw	ra,12(sp)
	.cfi_restore 1
	lw	s0,8(sp)
	.cfi_restore 8
	.cfi_def_cfa 2, 16
	addi	sp,sp,16
	.cfi_def_cfa_offset 0
	jr	ra
	.cfi_endproc
.LFE4:
	.size	app_get_tick_ms, .-app_get_tick_ms
	.section	.text.app_task_led,"ax",@progbits
	.align	1
	.globl	app_task_led
	.type	app_task_led, @function
app_task_led:
.LFB7:
	.loc 1 78 1 is_stmt 1
	.cfi_startproc
.LVL9:
	.loc 1 79 5
	.loc 1 81 5
	.loc 1 78 1 is_stmt 0
	addi	sp,sp,-16
	.cfi_def_cfa_offset 16
	sw	s0,8(sp)
	sw	ra,12(sp)
	.cfi_offset 8, -8
	.cfi_offset 1, -4
	addi	s0,sp,16
	.cfi_def_cfa 8, 0
	.loc 1 81 5
	call	led_init
.LVL10:
.L7:
	.loc 1 83 5 is_stmt 1
	.loc 1 84 9
	.loc 1 84 13 is_stmt 0
	call	app_wifi_is_connected
.LVL11:
	.loc 1 84 12
	beq	a0,zero,.L8
	.loc 1 85 13 is_stmt 1
	call	led_on
.LVL12:
	.loc 1 86 13
	li	a0,1000
.L11:
	.loc 1 89 13 is_stmt 0
	call	aos_msleep
.LVL13:
	j	.L7
.L8:
	.loc 1 88 13 is_stmt 1
	call	led_toggle
.LVL14:
	.loc 1 89 13
	li	a0,500
	j	.L11
	.cfi_endproc
.LFE7:
	.size	app_task_led, .-app_task_led
	.section	.text.app_task_wifi,"ax",@progbits
	.align	1
	.globl	app_task_wifi
	.type	app_task_wifi, @function
app_task_wifi:
.LFB8:
	.loc 1 95 1
	.cfi_startproc
.LVL15:
	.loc 1 96 5
	.loc 1 98 5
	.loc 1 95 1 is_stmt 0
	addi	sp,sp,-16
	.cfi_def_cfa_offset 16
	sw	s0,12(sp)
	.cfi_offset 8, -4
	addi	s0,sp,16
	.cfi_def_cfa 8, 0
	.loc 1 99 1
	lw	s0,12(sp)
	.cfi_restore 8
	.cfi_def_cfa 2, 16
	addi	sp,sp,16
	.cfi_def_cfa_offset 0
	.loc 1 98 5
	tail	app_wifi_task
.LVL16:
	.cfi_endproc
.LFE8:
	.size	app_task_wifi, .-app_task_wifi
	.section	.rodata.app_task_main.str1.4,"aMS",@progbits,1
	.align	2
.LC0:
	.string	"ON"
	.align	2
.LC1:
	.string	"OFF"
	.align	2
.LC2:
	.string	"[APP] Applying default relay state: %s\r\n"
	.align	2
.LC3:
	.string	"172.20.10.3"
	.align	2
.LC4:
	.string	"[APP] Attempting MQTT connection to %s:1883\r\n"
	.align	2
.LC5:
	.string	"[APP] Make sure MQTT broker is running on laptop!\r\n"
	.align	2
.LC6:
	.string	"[APP] Retrying MQTT connection to %s:1883\r\n"
	.section	.text.app_task_main,"ax",@progbits
	.align	1
	.globl	app_task_main
	.type	app_task_main, @function
app_task_main:
.LFB9:
	.loc 1 102 1 is_stmt 1
	.cfi_startproc
.LVL17:
	.loc 1 103 5
	.loc 1 105 5
	.loc 1 106 5
	.loc 1 102 1 is_stmt 0
	addi	sp,sp,-160
	.cfi_def_cfa_offset 160
	sw	ra,156(sp)
	sw	s0,152(sp)
	sw	s1,148(sp)
	.cfi_offset 1, -4
	.cfi_offset 8, -8
	.cfi_offset 9, -12
	addi	s0,sp,160
	.cfi_def_cfa 8, 0
	sw	s2,144(sp)
	sw	s3,140(sp)
	sw	s4,136(sp)
	sw	s5,132(sp)
	sw	s6,128(sp)
	sw	s7,124(sp)
	sw	s8,120(sp)
	.cfi_offset 18, -16
	.cfi_offset 19, -20
	.cfi_offset 20, -24
	.cfi_offset 21, -28
	.cfi_offset 22, -32
	.cfi_offset 23, -36
	.cfi_offset 24, -40
	.loc 1 106 17
	sw	zero,-156(s0)
	sw	zero,-152(s0)
	.loc 1 108 5 is_stmt 1
	call	app_state_init
.LVL18:
	.loc 1 109 5
	call	app_mqtt_init
.LVL19:
.LBB2:
	.loc 1 113 9
	.loc 1 114 9
	.loc 1 115 9
	.loc 1 117 13 is_stmt 0
	addi	a1,s0,-148
	addi	a0,s0,-157
	.loc 1 115 17
	sb	zero,-157(s0)
	.loc 1 116 8 is_stmt 1
	.loc 1 116 13 is_stmt 0
	sb	zero,-148(s0)
	.loc 1 117 9 is_stmt 1
	.loc 1 117 13 is_stmt 0
	call	app_config_load_relay_settings
.LVL20:
	.loc 1 117 12
	bne	a0,zero,.L15
	.loc 1 118 13 is_stmt 1
	lbu	a5,-157(s0)
	bne	a5,zero,.L46
	lui	a1,%hi(.LC1)
	addi	a1,a1,%lo(.LC1)
.L16:
	.loc 1 118 13 is_stmt 0 discriminator 4
	lui	a0,%hi(.LC2)
	addi	a0,a0,%lo(.LC2)
	call	printf
.LVL21:
	.loc 1 119 13 is_stmt 1 discriminator 4
	.loc 1 119 16 is_stmt 0 discriminator 4
	lbu	a5,-157(s0)
	beq	a5,zero,.L17
	.loc 1 120 17 is_stmt 1
	call	relay_on
.LVL22:
.L18:
	.loc 1 125 13
	lbu	a0,-148(s0)
	call	app_callback_update_lock_button
.LVL23:
.L15:
.LBE2:
	.loc 1 129 5
	.loc 1 130 5 is_stmt 0
	addi	a0,s0,-156
	.loc 1 129 16
	sw	zero,-156(s0)
	.loc 1 130 5 is_stmt 1
	.loc 1 133 11 is_stmt 0
	li	s1,101
	.loc 1 130 5
	call	app_state_process_event
.LVL24:
	.loc 1 132 5 is_stmt 1
	.loc 1 133 5
.L19:
	.loc 1 133 11
	.loc 1 133 13 is_stmt 0
	call	app_wifi_is_mgmr_ready
.LVL25:
	.loc 1 133 11
	bne	a0,zero,.L20
	.loc 1 133 38 discriminator 1
	addi	s1,s1,-1
.LVL26:
	bne	s1,zero,.L21
.LVL27:
.L20:
	.loc 1 138 5 is_stmt 1
	.loc 1 138 9 is_stmt 0
	call	app_wifi_is_mgmr_ready
.LVL28:
	.loc 1 138 8
	beq	a0,zero,.L22
	.loc 1 139 9 is_stmt 1
	.loc 1 139 13 is_stmt 0
	call	app_config_has_wifi
.LVL29:
	.loc 1 139 12
	beq	a0,zero,.L23
	.loc 1 140 13 is_stmt 1
	.loc 1 140 17 is_stmt 0
	addi	a0,s0,-148
	call	app_config_load_wifi
.LVL30:
	.loc 1 140 16
	bne	a0,zero,.L23
	.loc 1 141 17 is_stmt 1
	li	a0,3
	call	app_state_set_next
.LVL31:
	.loc 1 142 17
	.loc 1 143 17 is_stmt 0
	addi	a0,s0,-156
	.loc 1 142 28
	sw	zero,-156(s0)
	.loc 1 143 17 is_stmt 1
	call	app_state_process_event
.LVL32:
	.loc 1 144 17
	addi	a1,s0,-115
	addi	a0,s0,-148
	call	app_wifi_connect
.LVL33:
.L22:
.LBB3:
	.loc 1 163 19 is_stmt 0
	lui	s5,%hi(g_event_queue)
.LBB4:
	.loc 1 196 17
	lui	s2,%hi(.LC0)
	lui	s3,%hi(.LC1)
.LBE4:
	.loc 1 162 32
	lui	s6,%hi(g_event_queue_head)
	lui	s7,%hi(g_event_queue_tail)
	.loc 1 163 19
	addi	s5,s5,%lo(g_event_queue)
.LBB5:
	.loc 1 196 17
	addi	s2,s2,%lo(.LC0)
	addi	s3,s3,%lo(.LC1)
.L45:
.LBE5:
.LBE3:
	.loc 1 156 5 is_stmt 1
.LBB11:
	.loc 1 158 9
	.loc 1 159 9
	.loc 1 160 9
	.loc 1 162 9
	.loc 1 162 32 is_stmt 0
	lw	a5,%lo(g_event_queue_head)(s6)
	.loc 1 162 12
	lw	a4,%lo(g_event_queue_tail)(s7)
	beq	a5,a4,.L24
	.loc 1 163 13 is_stmt 1
	.loc 1 163 19 is_stmt 0
	slli	a4,a5,3
	add	a4,s5,a4
	lw	a3,0(a4)
	lw	a4,4(a4)
	.loc 1 164 54
	addi	a5,a5,1
	.loc 1 163 19
	sw	a3,-156(s0)
	sw	a4,-152(s0)
	.loc 1 164 13 is_stmt 1
	.loc 1 164 59 is_stmt 0
	li	a4,10
	rem	a5,a5,a4
	.loc 1 164 32
	sw	a5,%lo(g_event_queue_head)(s6)
.L25:
	.loc 1 170 9 is_stmt 1
	.loc 1 170 37 is_stmt 0
	call	app_state_get_current
.LVL34:
	.loc 1 173 18
	lw	a5,-156(s0)
	.loc 1 173 12
	li	a4,8
	.loc 1 170 37
	mv	s1,a0
.LVL35:
	.loc 1 173 9 is_stmt 1
	.loc 1 173 12 is_stmt 0
	bne	a5,a4,.L26
	.loc 1 174 13 is_stmt 1
	call	relay_toggle
.LVL36:
	.loc 1 175 13
.L83:
	.loc 1 194 13
	.loc 1 194 17 is_stmt 0
	call	app_mqtt_is_connected
.LVL37:
	.loc 1 194 16
	beq	a0,zero,.L28
.LBB6:
	.loc 1 195 17 is_stmt 1
	.loc 1 195 39 is_stmt 0
	call	relay_get_state
.LVL38:
	.loc 1 196 17 is_stmt 1
	mv	a5,s2
	bne	a0,zero,.L29
.LBE6:
.LBB7:
	.loc 1 177 17 is_stmt 0
	mv	a5,s3
.L29:
	.loc 1 177 17 discriminator 4
	mv	a0,a5
.LVL39:
.L77:
	call	app_mqtt_publish_state
.LVL40:
.L28:
.LBE7:
	.loc 1 179 13 is_stmt 1
	.loc 1 179 24 is_stmt 0
	sw	zero,-156(s0)
.L30:
	.loc 1 201 9 is_stmt 1
	li	a5,4
	beq	s1,a5,.L35
	bgtu	s1,a5,.L36
	li	a5,2
	beq	s1,a5,.L37
	li	a5,3
.L79:
	beq	s1,a5,.L38
.LVL41:
.L39:
	.loc 1 259 9
	li	a0,100
	call	aos_msleep
.LVL42:
.LBE11:
	.loc 1 156 11
	.loc 1 156 15 is_stmt 0
	j	.L45
.L46:
.LBB12:
	.loc 1 118 13
	lui	a1,%hi(.LC0)
	addi	a1,a1,%lo(.LC0)
	j	.L16
.L17:
	.loc 1 122 17 is_stmt 1
	call	relay_off
.LVL43:
	j	.L18
.LVL44:
.L21:
.LBE12:
	.loc 1 134 9
	li	a0,100
	call	aos_msleep
.LVL45:
	.loc 1 135 9
	j	.L19
.LVL46:
.L23:
	.loc 1 146 17
	li	a0,1
	call	app_state_set_next
.LVL47:
	.loc 1 147 17
	.loc 1 148 17 is_stmt 0
	addi	a0,s0,-156
	.loc 1 147 28
	sw	zero,-156(s0)
	.loc 1 148 17 is_stmt 1
	call	app_state_process_event
.LVL48:
	j	.L22
.L24:
.LBB13:
	.loc 1 166 13
	.loc 1 166 24 is_stmt 0
	sw	zero,-156(s0)
	.loc 1 167 13 is_stmt 1
	.loc 1 167 24 is_stmt 0
	sw	zero,-152(s0)
	j	.L25
.LVL49:
.L26:
	.loc 1 180 16 is_stmt 1
	.loc 1 180 19 is_stmt 0
	li	a4,9
	bne	a5,a4,.L31
	.loc 1 181 13 is_stmt 1
	call	relay_on
.LVL50:
	.loc 1 182 13
	.loc 1 182 17 is_stmt 0
	call	app_mqtt_is_connected
.LVL51:
	.loc 1 182 16
	beq	a0,zero,.L28
	.loc 1 183 17 is_stmt 1
	mv	a0,s2
	j	.L77
.L31:
	.loc 1 186 16
	.loc 1 186 19 is_stmt 0
	li	a4,10
	bne	a5,a4,.L33
	.loc 1 187 13 is_stmt 1
	call	relay_off
.LVL52:
	.loc 1 188 13
	.loc 1 188 17 is_stmt 0
	call	app_mqtt_is_connected
.LVL53:
	.loc 1 188 16
	beq	a0,zero,.L28
	.loc 1 189 17 is_stmt 1
	mv	a0,s3
	j	.L77
.L33:
	.loc 1 192 16
	.loc 1 192 19 is_stmt 0
	li	a4,11
	bne	a5,a4,.L30
	j	.L83
.L36:
	.loc 1 201 9
	li	a5,5
	j	.L79
.L37:
.LBB8:
	.loc 1 206 17 is_stmt 1
	.loc 1 206 22 is_stmt 0
	call	app_ble_is_running
.LVL54:
	.loc 1 206 20
	bne	a0,zero,.L39
	.loc 1 207 21 is_stmt 1
	li	a0,200
	call	aos_msleep
.LVL55:
	.loc 1 208 21
	call	app_ble_start
.LVL56:
	j	.L39
.L38:
	.loc 1 213 17
	.loc 1 213 21 is_stmt 0
	call	app_ble_is_running
.LVL57:
	.loc 1 213 20
	beq	a0,zero,.L39
	.loc 1 214 21 is_stmt 1
	call	app_ble_stop
.LVL58:
	j	.L39
.L35:
	.loc 1 219 17
	.loc 1 219 21 is_stmt 0
	call	app_ble_is_running
.LVL59:
	.loc 1 219 20
	beq	a0,zero,.L42
	.loc 1 220 21 is_stmt 1
	call	app_ble_stop
.LVL60:
.L42:
	.loc 1 223 17
	.loc 1 224 17
	.loc 1 225 17
	.loc 1 225 32 is_stmt 0
	call	aos_now_ms
.LVL61:
	mv	s1,a0
.LVL62:
	.loc 1 227 17 is_stmt 1
	.loc 1 227 22 is_stmt 0
	call	app_mqtt_is_connected
.LVL63:
	.loc 1 227 20
	bne	a0,zero,.L43
	.loc 1 227 49 discriminator 1
	lui	s4,%hi(.LANCHOR0)
	addi	s4,s4,%lo(.LANCHOR0)
	.loc 1 227 46 discriminator 1
	lbu	a5,0(s4)
	bne	a5,zero,.L43
.LBB9:
	.loc 1 229 21 is_stmt 1
.LVL64:
	.loc 1 230 21
	lui	s8,%hi(.LC3)
	lui	a0,%hi(.LC4)
	addi	a1,s8,%lo(.LC3)
	addi	a0,a0,%lo(.LC4)
	call	printf
.LVL65:
	.loc 1 231 21
	lui	a0,%hi(.LC5)
	addi	a0,a0,%lo(.LC5)
	call	printf
.LVL66:
	.loc 1 232 21
	li	a2,0
	li	a1,1883
	addi	a0,s8,%lo(.LC3)
	call	app_mqtt_start
.LVL67:
	.loc 1 233 21
	.loc 1 233 44 is_stmt 0
	li	a5,1
	sb	a5,0(s4)
	.loc 1 234 21 is_stmt 1
	.loc 1 234 39 is_stmt 0
	lui	a5,%hi(.LANCHOR1)
	sw	s1,%lo(.LANCHOR1)(a5)
.LBE9:
	.loc 1 227 74
	j	.L39
.LVL68:
.L43:
	.loc 1 235 24 is_stmt 1
	.loc 1 235 29 is_stmt 0
	call	app_mqtt_is_connected
.LVL69:
	.loc 1 235 27
	bne	a0,zero,.L44
	.loc 1 235 53 discriminator 1
	lui	a5,%hi(.LANCHOR0)
	lbu	a5,%lo(.LANCHOR0)(a5)
	beq	a5,zero,.L44
	.loc 1 237 21 is_stmt 1
	.loc 1 237 29 is_stmt 0
	lui	s4,%hi(.LANCHOR1)
	addi	s4,s4,%lo(.LANCHOR1)
	lw	a4,0(s4)
	.loc 1 237 24
	li	a5,8192
	addi	a5,a5,1808
	.loc 1 237 29
	sub	a4,s1,a4
	.loc 1 237 24
	bleu	a4,a5,.L39
.LBB10:
	.loc 1 238 25 is_stmt 1
.LVL70:
	.loc 1 239 25
	lui	s8,%hi(.LC3)
	lui	a0,%hi(.LC6)
	addi	a1,s8,%lo(.LC3)
	addi	a0,a0,%lo(.LC6)
	call	printf
.LVL71:
	.loc 1 240 25
	li	a2,0
	li	a1,1883
	addi	a0,s8,%lo(.LC3)
	call	app_mqtt_start
.LVL72:
	.loc 1 241 25
	.loc 1 241 43 is_stmt 0
	sw	s1,0(s4)
	j	.L39
.LVL73:
.L44:
.LBE10:
	.loc 1 243 24 is_stmt 1
	.loc 1 243 28 is_stmt 0
	call	app_mqtt_is_connected
.LVL74:
	.loc 1 243 27
	beq	a0,zero,.L39
	.loc 1 245 21 is_stmt 1
	.loc 1 245 44 is_stmt 0
	lui	a5,%hi(.LANCHOR0)
	sb	zero,%lo(.LANCHOR0)(a5)
	j	.L39
.LBE8:
.LBE13:
	.cfi_endproc
.LFE9:
	.size	app_task_main, .-app_task_main
	.section	.rodata.app_task_init.str1.4,"aMS",@progbits,1
	.align	2
.LC7:
	.string	"btn_task"
	.align	2
.LC8:
	.string	"led_task"
	.align	2
.LC9:
	.string	"wifi_task"
	.align	2
.LC10:
	.string	"main_task"
	.section	.text.app_task_init,"ax",@progbits
	.align	1
	.globl	app_task_init
	.type	app_task_init, @function
app_task_init:
.LFB5:
	.loc 1 38 1 is_stmt 1
	.cfi_startproc
	.loc 1 39 5
	.loc 1 38 1 is_stmt 0
	addi	sp,sp,-16
	.cfi_def_cfa_offset 16
	sw	ra,12(sp)
	sw	s0,8(sp)
	.loc 1 39 5
	lui	a5,%hi(.LANCHOR2)
	.cfi_offset 1, -4
	.cfi_offset 8, -8
	.loc 1 38 1
	addi	s0,sp,16
	.cfi_def_cfa 8, 0
	.loc 1 39 5
	li	a2,4096
	lui	a1,%hi(.LC7)
	lui	a0,%hi(app_task_button)
	.loc 1 38 1
	.loc 1 39 5
	addi	a5,a5,%lo(.LANCHOR2)
	li	a4,5
	li	a3,0
	addi	a2,a2,-2048
	addi	a1,a1,%lo(.LC7)
	addi	a0,a0,%lo(app_task_button)
	call	xTaskCreate
.LVL75:
	.loc 1 40 5 is_stmt 1
	lui	a5,%hi(.LANCHOR3)
	lui	a1,%hi(.LC8)
	lui	a0,%hi(app_task_led)
	addi	a5,a5,%lo(.LANCHOR3)
	li	a4,4
	li	a3,0
	li	a2,1024
	addi	a1,a1,%lo(.LC8)
	addi	a0,a0,%lo(app_task_led)
	call	xTaskCreate
.LVL76:
	.loc 1 41 5
	lui	a5,%hi(.LANCHOR4)
	lui	a1,%hi(.LC9)
	lui	a0,%hi(app_task_wifi)
	addi	a5,a5,%lo(.LANCHOR4)
	li	a4,3
	li	a3,0
	li	a2,4096
	addi	a1,a1,%lo(.LC9)
	addi	a0,a0,%lo(app_task_wifi)
	call	xTaskCreate
.LVL77:
	.loc 1 42 5
	.loc 1 43 1 is_stmt 0
	lw	s0,8(sp)
	.cfi_restore 8
	.cfi_def_cfa 2, 16
	lw	ra,12(sp)
	.cfi_restore 1
	.loc 1 42 5
	lui	a5,%hi(.LANCHOR5)
	lui	a1,%hi(.LC10)
	lui	a0,%hi(app_task_main)
	.loc 1 43 1
	.loc 1 42 5
	addi	a5,a5,%lo(.LANCHOR5)
	li	a4,2
	li	a3,0
	li	a2,4096
	addi	a1,a1,%lo(.LC10)
	addi	a0,a0,%lo(app_task_main)
	.loc 1 43 1
	addi	sp,sp,16
	.cfi_def_cfa_offset 0
	.loc 1 42 5
	tail	xTaskCreate
.LVL78:
	.cfi_endproc
.LFE5:
	.size	app_task_init, .-app_task_init
	.section	.text.app_set_led_blink,"ax",@progbits
	.align	1
	.globl	app_set_led_blink
	.type	app_set_led_blink, @function
app_set_led_blink:
.LFB10:
	.loc 1 264 1 is_stmt 1
	.cfi_startproc
.LVL79:
	.loc 1 265 5
	.loc 1 264 1 is_stmt 0
	addi	sp,sp,-16
	.cfi_def_cfa_offset 16
	sw	s0,12(sp)
	.cfi_offset 8, -4
	addi	s0,sp,16
	.cfi_def_cfa 8, 0
	.loc 1 266 1
	lw	s0,12(sp)
	.cfi_restore 8
	.cfi_def_cfa 2, 16
	addi	sp,sp,16
	.cfi_def_cfa_offset 0
	jr	ra
	.cfi_endproc
.LFE10:
	.size	app_set_led_blink, .-app_set_led_blink
	.globl	g_btn_filter_cnt
	.section	.sbss.g_task_button_handle,"aw",@nobits
	.align	2
	.set	.LANCHOR2,. + 0
	.type	g_task_button_handle, @object
	.size	g_task_button_handle, 4
g_task_button_handle:
	.zero	4
	.section	.sbss.g_task_led_handle,"aw",@nobits
	.align	2
	.set	.LANCHOR3,. + 0
	.type	g_task_led_handle, @object
	.size	g_task_led_handle, 4
g_task_led_handle:
	.zero	4
	.section	.sbss.g_task_main_handle,"aw",@nobits
	.align	2
	.set	.LANCHOR5,. + 0
	.type	g_task_main_handle, @object
	.size	g_task_main_handle, 4
g_task_main_handle:
	.zero	4
	.section	.sbss.g_task_wifi_handle,"aw",@nobits
	.align	2
	.set	.LANCHOR4,. + 0
	.type	g_task_wifi_handle, @object
	.size	g_task_wifi_handle, 4
g_task_wifi_handle:
	.zero	4
	.section	.sbss.mqtt_connect_attempted.1,"aw",@nobits
	.set	.LANCHOR0,. + 0
	.type	mqtt_connect_attempted.1, @object
	.size	mqtt_connect_attempted.1, 1
mqtt_connect_attempted.1:
	.zero	1
	.section	.sbss.mqtt_last_attempt.0,"aw",@nobits
	.align	2
	.set	.LANCHOR1,. + 0
	.type	mqtt_last_attempt.0, @object
	.size	mqtt_last_attempt.0, 4
mqtt_last_attempt.0:
	.zero	4
	.section	.sdata.g_btn_filter_cnt,"aw"
	.type	g_btn_filter_cnt, @object
	.size	g_btn_filter_cnt, 1
g_btn_filter_cnt:
	.byte	1
	.text
.Letext0:
	.file 2 "/home/quanghaictu/intern/Ai-Thinker-WB2/toolchain/riscv/Linux/lib/gcc/riscv64-unknown-elf/10.2.0/include/stdint-gcc.h"
	.file 3 "/home/quanghaictu/intern/Ai-Thinker-WB2/components/platform/soc/bl602/freertos_riscv_ram/config/task.h"
	.file 4 "/home/quanghaictu/intern/Ai-Thinker-WB2/datic/components/app/app_task/../app_callback/../app_event/app_event.h"
	.file 5 "/home/quanghaictu/intern/Ai-Thinker-WB2/datic/components/app/app_task/../app_wifi/../app_config/app_config.h"
	.file 6 "/home/quanghaictu/intern/Ai-Thinker-WB2/datic/components/app/app_task/../app_state/app_state.h"
	.file 7 "/home/quanghaictu/intern/Ai-Thinker-WB2/datic/components/app/app_task/../../third_party/lib_button/app_btn.h"
	.file 8 "/home/quanghaictu/intern/Ai-Thinker-WB2/toolchain/riscv/Linux/riscv64-unknown-elf/include/stdio.h"
	.file 9 "/home/quanghaictu/intern/Ai-Thinker-WB2/datic/components/app/app_task/../../hardware/relay/relay.h"
	.file 10 "/home/quanghaictu/intern/Ai-Thinker-WB2/datic/components/app/app_task/../app_mqtt/app_mqtt.h"
	.file 11 "/home/quanghaictu/intern/Ai-Thinker-WB2/datic/components/app/app_task/../app_ble/app_ble.h"
	.file 12 "/home/quanghaictu/intern/Ai-Thinker-WB2/components/stage/yloop/include/aos/kernel.h"
	.file 13 "/home/quanghaictu/intern/Ai-Thinker-WB2/datic/components/app/app_task/../app_wifi/app_wifi.h"
	.file 14 "/home/quanghaictu/intern/Ai-Thinker-WB2/datic/components/app/app_task/../../hardware/led/led.h"
	.file 15 "/home/quanghaictu/intern/Ai-Thinker-WB2/components/platform/hosal/bl602_hal/bl_gpio.h"