	.file	"aos_freertos.c"
	.option nopic
	.attribute arch, "rv32i2p0_m2p0_f2p0_c2p0"
	.attribute unaligned_access, 0
	.attribute stack_align, 16
	.text
.Ltext0:
	.cfi_sections	.debug_frame
	.section	.text.dfl_entry,"ax",@progbits
	.align	1
	.type	dfl_entry, @function
dfl_entry:
.LFB7:
	.file 1 "/home/dinhquangha/intern/Ai-Thinker-WB2/components/stage/yloop/src/aos_freertos.c"
	.loc 1 49 1
	.cfi_startproc
.LVL0:
	.loc 1 50 5
	.loc 1 51 5
	.loc 1 49 1 is_stmt 0
	addi	sp,sp,-16
	.cfi_def_cfa_offset 16
	sw	ra,12(sp)
	sw	s0,8(sp)
	sw	s1,4(sp)
	sw	s2,0(sp)
	.cfi_offset 1, -4
	.cfi_offset 8, -8
	.cfi_offset 9, -12
	.cfi_offset 18, -16
	addi	s0,sp,16
	.cfi_def_cfa 8, 0
	.loc 1 52 11
	lw	s2,8(a0)
	.loc 1 51 12
	lw	s1,4(a0)
.LVL1:
	.loc 1 52 5 is_stmt 1
	.loc 1 53 5
	call	vPortFree
.LVL2:
	.loc 1 55 5
	mv	a0,s2
	jalr	s1
.LVL3:
	.loc 1 57 5
	.loc 1 58 1 is_stmt 0
	lw	s0,8(sp)
	.cfi_restore 8
	.cfi_def_cfa 2, 16
	lw	ra,12(sp)
	.cfi_restore 1
	lw	s1,4(sp)
	.cfi_restore 9
.LVL4:
	lw	s2,0(sp)
	.cfi_restore 18
.LVL5:
	.loc 1 57 5
	li	a0,0
	.loc 1 58 1
	addi	sp,sp,16
	.cfi_def_cfa_offset 0
	.loc 1 57 5
	tail	vTaskDelete
.LVL6:
	.cfi_endproc
.LFE7:
	.size	dfl_entry, .-dfl_entry
	.section	.text.worker_entry,"ax",@progbits
	.align	1
	.type	worker_entry, @function
worker_entry:
.LFB43:
	.loc 1 350 1 is_stmt 1
	.cfi_startproc
.LVL7:
	.loc 1 351 5
	.loc 1 352 5
	.loc 1 350 1 is_stmt 0
	addi	sp,sp,-16
	.cfi_def_cfa_offset 16
	sw	s0,8(sp)
	sw	s1,4(sp)
	sw	ra,12(sp)
	.cfi_offset 8, -8
	.cfi_offset 9, -12
	.cfi_offset 1, -4
	addi	s0,sp,16
	.cfi_def_cfa 8, 0
	.loc 1 350 1
	mv	s1,a0
	.loc 1 352 10
	lw	a0,8(a0)
.LVL8:
	.loc 1 352 8
	beq	a0,zero,.L4
	.loc 1 353 9 is_stmt 1
	.loc 1 353 81 is_stmt 0
	li	a5,1000001536
	addi	a5,a5,-1536
	mul	a0,a0,a5
	.loc 1 353 9
	li	a5,1000
	divu	a0,a0,a5
	call	vTaskDelay
.LVL9:
.L4:
	.loc 1 355 5 is_stmt 1
	.loc 1 356 1 is_stmt 0
	lw	s0,8(sp)
	.cfi_restore 8
	.cfi_def_cfa 2, 16
	.loc 1 355 5
	lw	a5,0(s1)
	lw	a0,4(s1)
	.loc 1 356 1
	lw	ra,12(sp)
	.cfi_restore 1
	lw	s1,4(sp)
	.cfi_restore 9
.LVL10:
	addi	sp,sp,16
	.cfi_def_cfa_offset 0
	.loc 1 355 5
	jr	a5
.LVL11:
	.cfi_endproc
.LFE43:
	.size	worker_entry, .-worker_entry
	.section	.text.aos_reboot,"ax",@progbits
	.align	1
	.globl	aos_reboot
	.type	aos_reboot, @function
aos_reboot:
.LFB4:
	.loc 1 19 1 is_stmt 1
	.cfi_startproc
	.loc 1 20 1
	.loc 1 19 1 is_stmt 0
	addi	sp,sp,-16
	.cfi_def_cfa_offset 16
	sw	s0,12(sp)
	.cfi_offset 8, -4
	addi	s0,sp,16
	.cfi_def_cfa 8, 0
	.loc 1 20 1
	lw	s0,12(sp)
	.cfi_restore 8
	.cfi_def_cfa 2, 16
	addi	sp,sp,16
	.cfi_def_cfa_offset 0
	jr	ra
	.cfi_endproc
.LFE4:
	.size	aos_reboot, .-aos_reboot
	.section	.text.aos_get_hz,"ax",@progbits
	.align	1
	.globl	aos_get_hz
	.type	aos_get_hz, @function
aos_get_hz:
.LFB5:
	.loc 1 23 1 is_stmt 1
	.cfi_startproc
	.loc 1 24 5
	.loc 1 23 1 is_stmt 0
	addi	sp,sp,-16
	.cfi_def_cfa_offset 16
	sw	s0,12(sp)
	.cfi_offset 8, -4
	addi	s0,sp,16
	.cfi_def_cfa 8, 0
	.loc 1 25 1
	lw	s0,12(sp)
	.cfi_restore 8
	.cfi_def_cfa 2, 16
	li	a0,100
	addi	sp,sp,16
	.cfi_def_cfa_offset 0
	jr	ra
	.cfi_endproc
.LFE5:
	.size	aos_get_hz, .-aos_get_hz
	.section	.rodata.aos_version_get.str1.4,"aMS",@progbits,1
	.align	2
.LC0:
	.string	"aos-linux-xxx"
	.section	.text.aos_version_get,"ax",@progbits
	.align	1
	.globl	aos_version_get
	.type	aos_version_get, @function
aos_version_get:
.LFB6:
	.loc 1 28 1 is_stmt 1
	.cfi_startproc
	.loc 1 29 5
	.loc 1 28 1 is_stmt 0
	addi	sp,sp,-16
	.cfi_def_cfa_offset 16
	sw	s0,12(sp)
	.cfi_offset 8, -4
	addi	s0,sp,16
	.cfi_def_cfa 8, 0
	.loc 1 30 1
	lw	s0,12(sp)
	.cfi_restore 8
	.cfi_def_cfa 2, 16
	.loc 1 29 12
	lui	a0,%hi(.LC0)
	.loc 1 30 1
	addi	a0,a0,%lo(.LC0)
	addi	sp,sp,16
	.cfi_def_cfa_offset 0
	jr	ra
	.cfi_endproc
.LFE6:
	.size	aos_version_get, .-aos_version_get
	.section	.text.vPortCleanUpTCB,"ax",@progbits
	.align	1
	.globl	vPortCleanUpTCB
	.type	vPortCleanUpTCB, @function
vPortCleanUpTCB:
.LFB8:
	.loc 1 61 1 is_stmt 1
	.cfi_startproc
.LVL12:
	.loc 1 62 5
	.loc 1 64 5
	.loc 1 64 8 is_stmt 0
	lw	a4,160(a0)
	li	a5,538382336
	addi	a5,a5,32
	bne	a4,a5,.L15
	.loc 1 61 1
	addi	sp,sp,-16
	.cfi_def_cfa_offset 16
	sw	s0,8(sp)
	sw	s1,4(sp)
	sw	ra,12(sp)
	.cfi_offset 8, -8
	.cfi_offset 9, -12
	.cfi_offset 1, -4
	addi	s0,sp,16
	.cfi_def_cfa 8, 0
	mv	s1,a0
	.loc 1 67 5 is_stmt 1
	lw	a0,124(a0)
.LVL13:
	call	vPortFree
.LVL14:
	.loc 1 68 5
	.loc 1 69 1 is_stmt 0
	lw	s0,8(sp)
	.cfi_restore 8
	.cfi_def_cfa 2, 16
	lw	ra,12(sp)
	.cfi_restore 1
	.loc 1 68 5
	mv	a0,s1
	.loc 1 69 1
	lw	s1,4(sp)
	.cfi_restore 9
.LVL15:
	addi	sp,sp,16
	.cfi_def_cfa_offset 0
	.loc 1 68 5
	tail	vPortFree
.LVL16:
.L15:
	ret
	.cfi_endproc
.LFE8:
	.size	vPortCleanUpTCB, .-vPortCleanUpTCB
	.section	.text.aos_task_new,"ax",@progbits
	.align	1
	.globl	aos_task_new
	.type	aos_task_new, @function
aos_task_new:
.LFB9:
	.loc 1 73 1 is_stmt 1
	.cfi_startproc
.LVL17:
	.loc 1 74 5
	.loc 1 75 5
	.loc 1 73 1 is_stmt 0
	addi	sp,sp,-48
	.cfi_def_cfa_offset 48
	sw	ra,44(sp)
	sw	s0,40(sp)
	sw	s1,36(sp)
	.cfi_offset 1, -4
	.cfi_offset 8, -8
	.cfi_offset 9, -12
	addi	s0,sp,48
	.cfi_def_cfa 8, 0
	sw	s2,32(sp)
	sw	s3,28(sp)
	sw	s4,24(sp)
	sw	s5,20(sp)
	sw	s6,16(sp)
	sw	s7,12(sp)
	.cfi_offset 18, -16
	.cfi_offset 19, -20
	.cfi_offset 20, -24
	.cfi_offset 21, -28
	.cfi_offset 22, -32
	.cfi_offset 23, -36
	mv	s5,a0
	.loc 1 75 29
	li	a0,164
.LVL18:
	.loc 1 73 1
	mv	s4,a3
	mv	s7,a1
	mv	s6,a2
	.loc 1 75 29
	call	pvPortMalloc
.LVL19:
	mv	s1,a0
.LVL20:
	.loc 1 76 5 is_stmt 1
	.loc 1 76 25 is_stmt 0
	li	a0,12
	call	pvPortMalloc
.LVL21:
	mv	s2,a0
.LVL22:
	.loc 1 77 5 is_stmt 1
	.loc 1 77 19 is_stmt 0
	mv	a0,s4
.LVL23:
	call	pvPortMalloc
.LVL24:
	.loc 1 79 5
	mv	a2,s4
	li	a1,0
	.loc 1 77 19
	mv	s3,a0
.LVL25:
	.loc 1 79 5 is_stmt 1
	call	memset
.LVL26:
	.loc 1 80 5
	li	a2,164
	li	a1,0
	mv	a0,s1
	call	memset
.LVL27:
	.loc 1 81 5
	.loc 1 81 22 is_stmt 0
	li	a5,-16
	sw	a5,104(s1)
	.loc 1 82 5 is_stmt 1
	.loc 1 83 5 is_stmt 0
	li	a2,31
	mv	a1,s5
	.loc 1 82 17
	sw	s3,124(s1)
	.loc 1 83 5 is_stmt 1
	addi	a0,s1,128
	call	strncpy
.LVL28:
	.loc 1 84 5
	.loc 1 84 17 is_stmt 0
	li	a5,538382336
	addi	a5,a5,32
	sw	a5,160(s1)
	.loc 1 86 5 is_stmt 1
	.loc 1 91 15 is_stmt 0
	lui	a0,%hi(dfl_entry)
	.loc 1 86 16
	sw	s1,0(s2)
	.loc 1 87 5 is_stmt 1
	.loc 1 87 14 is_stmt 0
	sw	s7,4(s2)
	.loc 1 88 5 is_stmt 1
	.loc 1 88 15 is_stmt 0
	sw	s6,8(s2)
	.loc 1 90 5 is_stmt 1
.LVL29:
	.loc 1 91 5
	.loc 1 91 15 is_stmt 0
	mv	a6,s1
	mv	a5,s3
	li	a4,10
	mv	a3,s2
	srli	a2,s4,2
.LVL30:
	mv	a1,s5
	addi	a0,a0,%lo(dfl_entry)
	call	xTaskCreateStatic
.LVL31:
	.loc 1 93 5 is_stmt 1
	.loc 1 93 8 is_stmt 0
	bne	a0,zero,.L22
	.loc 1 94 9 is_stmt 1
	mv	a0,s1
.LVL32:
	call	vPortFree
.LVL33:
	.loc 1 95 9
	mv	a0,s3
	call	vPortFree
.LVL34:
	.loc 1 96 9
	mv	a0,s2
	call	vPortFree
.LVL35:
	.loc 1 98 5
	.loc 1 98 24 is_stmt 0
	li	a0,-1
.L20:
	.loc 1 99 1
	lw	ra,44(sp)
	.cfi_remember_state
	.cfi_restore 1
	lw	s0,40(sp)
	.cfi_restore 8
	.cfi_def_cfa 2, 48
	lw	s1,36(sp)
	.cfi_restore 9
.LVL36:
	lw	s2,32(sp)
	.cfi_restore 18
.LVL37:
	lw	s3,28(sp)
	.cfi_restore 19
.LVL38:
	lw	s4,24(sp)
	.cfi_restore 20
.LVL39:
	lw	s5,20(sp)
	.cfi_restore 21
.LVL40:
	lw	s6,16(sp)
	.cfi_restore 22
.LVL41:
	lw	s7,12(sp)
	.cfi_restore 23
.LVL42:
	addi	sp,sp,48
	.cfi_def_cfa_offset 0
	jr	ra
.LVL43:
.L22:
	.cfi_restore_state
	.loc 1 98 24
	li	a0,0
.LVL44:
	j	.L20
	.cfi_endproc
.LFE9:
	.size	aos_task_new, .-aos_task_new
	.section	.text.aos_task_new_ext,"ax",@progbits
	.align	1
	.globl	aos_task_new_ext
	.type	aos_task_new_ext, @function
aos_task_new_ext:
.LFB10:
	.loc 1 103 1 is_stmt 1
	.cfi_startproc
.LVL45:
	.loc 1 104 5
	.loc 1 103 1 is_stmt 0
	addi	sp,sp,-16
	.cfi_def_cfa_offset 16
	sw	s0,12(sp)
	.cfi_offset 8, -4
	addi	s0,sp,16
	.cfi_def_cfa 8, 0
	.loc 1 105 1
	lw	s0,12(sp)
	.cfi_restore 8
	.cfi_def_cfa 2, 16
	.loc 1 103 1
	mv	a0,a1
.LVL46:
	mv	a1,a2
.LVL47:
	.loc 1 105 1
	.loc 1 103 1
	mv	a2,a3
.LVL48:
	.loc 1 105 1
	addi	sp,sp,16
	.cfi_def_cfa_offset 0
	.loc 1 104 12
	mv	a3,a4
.LVL49:
	tail	aos_task_new
.LVL50:
	.cfi_endproc
.LFE10:
	.size	aos_task_new_ext, .-aos_task_new_ext
	.section	.text.aos_task_exit,"ax",@progbits
	.align	1
	.globl	aos_task_exit
	.type	aos_task_exit, @function
aos_task_exit:
.LFB11:
	.loc 1 108 1 is_stmt 1
	.cfi_startproc
.LVL51:
	.loc 1 109 5
	.loc 1 108 1 is_stmt 0
	addi	sp,sp,-16
	.cfi_def_cfa_offset 16
	sw	s0,12(sp)
	.cfi_offset 8, -4
	addi	s0,sp,16
	.cfi_def_cfa 8, 0
	.loc 1 110 1
	lw	s0,12(sp)
	.cfi_restore 8
	.cfi_def_cfa 2, 16
	.loc 1 109 5
	li	a0,0
.LVL52:
	.loc 1 110 1
	addi	sp,sp,16
	.cfi_def_cfa_offset 0
	.loc 1 109 5
	tail	vTaskDelete
.LVL53:
	.cfi_endproc
.LFE11:
	.size	aos_task_exit, .-aos_task_exit
	.section	.rodata.aos_task_name.str1.4,"aMS",@progbits,1
	.align	2
.LC1:
	.string	"unknown"
	.section	.text.aos_task_name,"ax",@progbits
	.align	1
	.globl	aos_task_name
	.type	aos_task_name, @function
aos_task_name:
.LFB12:
	.loc 1 113 1 is_stmt 1
	.cfi_startproc
	.loc 1 114 5
	.loc 1 113 1 is_stmt 0
	addi	sp,sp,-16
	.cfi_def_cfa_offset 16
	sw	s0,8(sp)
	sw	ra,12(sp)
	.cfi_offset 8, -8
	.cfi_offset 1, -4
	addi	s0,sp,16
	.cfi_def_cfa 8, 0
	.loc 1 114 48
	call	xTaskGetCurrentTaskHandle
.LVL54:
	.loc 1 115 5 is_stmt 1
	.loc 1 115 8 is_stmt 0
	lw	a4,160(a0)
	li	a5,538382336
	addi	a5,a5,32
	.loc 1 117 12
	addi	a0,a0,128
.LVL55:
	.loc 1 115 8
	beq	a4,a5,.L28
	.loc 1 116 16
	lui	a0,%hi(.LC1)
.LVL56:
	addi	a0,a0,%lo(.LC1)
.L28:
	.loc 1 118 1
	lw	ra,12(sp)
	.cfi_restore 1
	lw	s0,8(sp)
	.cfi_restore 8
	.cfi_def_cfa 2, 16
	addi	sp,sp,16
	.cfi_def_cfa_offset 0
	jr	ra
	.cfi_endproc
.LFE12:
	.size	aos_task_name, .-aos_task_name
	.section	.text.aos_task_key_create,"ax",@progbits
	.align	1
	.globl	aos_task_key_create
	.type	aos_task_key_create, @function
aos_task_key_create:
.LFB13:
	.loc 1 121 1 is_stmt 1
	.cfi_startproc
.LVL57:
	.loc 1 122 5
	.loc 1 121 1 is_stmt 0
	addi	sp,sp,-16
	.cfi_def_cfa_offset 16
	sw	s0,8(sp)
	sw	s1,4(sp)
	sw	ra,12(sp)
	.cfi_offset 8, -8
	.cfi_offset 9, -12
	.cfi_offset 1, -4
	addi	s0,sp,16
	.cfi_def_cfa 8, 0
	.loc 1 121 1
	mv	s1,a0
	.loc 1 122 48
	call	xTaskGetCurrentTaskHandle
.LVL58:
	.loc 1 123 5 is_stmt 1
	.loc 1 125 5
	.loc 1 125 8 is_stmt 0
	lw	a3,160(a0)
	li	a5,538382336
	addi	a5,a5,32
	bne	a3,a5,.L35
	.loc 1 129 17
	lw	a5,104(a0)
.LVL59:
	.loc 1 129 9 is_stmt 1
	mv	a4,a0
	.loc 1 129 30 is_stmt 0
	andi	a3,a5,1
	.loc 1 129 12
	beq	a3,zero,.L36
	.loc 1 130 13 is_stmt 1
	.loc 1 128 18
.LVL60:
	.loc 1 128 14
	.loc 1 129 9
	.loc 1 129 30 is_stmt 0
	andi	a3,a5,2
	.loc 1 129 12
	beq	a3,zero,.L37
	.loc 1 130 13 is_stmt 1
	.loc 1 128 18
.LVL61:
	.loc 1 128 14
	.loc 1 129 9
	.loc 1 129 30 is_stmt 0
	andi	a3,a5,4
	.loc 1 129 12
	beq	a3,zero,.L38
	.loc 1 130 13 is_stmt 1
	.loc 1 128 18
.LVL62:
	.loc 1 128 14
	.loc 1 129 9
	.loc 1 129 30 is_stmt 0
	andi	a3,a5,8
	.loc 1 126 16
	li	a0,-1
.LVL63:
	.loc 1 129 12
	bne	a3,zero,.L32
	.loc 1 128 19
	li	a3,3
	.loc 1 129 35
	li	a2,8
.LVL64:
.L34:
	.loc 1 132 9 is_stmt 1
	.loc 1 132 26 is_stmt 0
	or	a5,a5,a2
	sw	a5,104(a4)
	.loc 1 133 9 is_stmt 1
	.loc 1 133 14 is_stmt 0
	sw	a3,0(s1)
	.loc 1 134 9 is_stmt 1
	.loc 1 134 16 is_stmt 0
	li	a0,0
.LVL65:
.L32:
	.loc 1 138 1
	lw	ra,12(sp)
	.cfi_remember_state
	.cfi_restore 1
	lw	s0,8(sp)
	.cfi_restore 8
	.cfi_def_cfa 2, 16
	lw	s1,4(sp)
	.cfi_restore 9
.LVL66:
	addi	sp,sp,16
	.cfi_def_cfa_offset 0
	jr	ra
.LVL67:
.L36:
	.cfi_restore_state
	.loc 1 128 11
	li	a3,0
	.loc 1 129 35
	li	a2,1
	j	.L34
.LVL68:
.L37:
	.loc 1 128 19
	li	a3,1
	.loc 1 129 35
	li	a2,2
	j	.L34
.LVL69:
.L38:
	.loc 1 128 19
	li	a3,2
	.loc 1 129 35
	li	a2,4
	j	.L34
.LVL70:
.L35:
	.loc 1 126 16
	li	a0,-1
.LVL71:
	j	.L32
	.cfi_endproc
.LFE13:
	.size	aos_task_key_create, .-aos_task_key_create
	.section	.text.aos_task_key_delete,"ax",@progbits
	.align	1
	.globl	aos_task_key_delete
	.type	aos_task_key_delete, @function
aos_task_key_delete:
.LFB14:
	.loc 1 141 1 is_stmt 1
	.cfi_startproc
.LVL72:
	.loc 1 142 5
	.loc 1 141 1 is_stmt 0
	addi	sp,sp,-16
	.cfi_def_cfa_offset 16
	sw	s0,8(sp)
	sw	s1,4(sp)
	sw	ra,12(sp)
	.cfi_offset 8, -8
	.cfi_offset 9, -12
	.cfi_offset 1, -4
	addi	s0,sp,16
	.cfi_def_cfa 8, 0
	.loc 1 141 1
	mv	s1,a0
	.loc 1 142 48
	call	xTaskGetCurrentTaskHandle
.LVL73:
	.loc 1 143 5 is_stmt 1
	.loc 1 143 8 is_stmt 0
	lw	a4,160(a0)
	li	a5,538382336
	addi	a5,a5,32
	bne	a4,a5,.L41
	.loc 1 145 5 is_stmt 1
	.loc 1 145 22 is_stmt 0
	lw	a4,104(a0)
	.loc 1 145 29
	li	a5,1
	sll	a5,a5,s1
	.loc 1 145 25
	not	a5,a5
	.loc 1 145 22
	and	a5,a4,a5
	sw	a5,104(a0)
.L41:
	.loc 1 146 1
	lw	ra,12(sp)
	.cfi_restore 1
	lw	s0,8(sp)
	.cfi_restore 8
	.cfi_def_cfa 2, 16
	lw	s1,4(sp)
	.cfi_restore 9
.LVL74:
	addi	sp,sp,16
	.cfi_def_cfa_offset 0
	jr	ra
	.cfi_endproc
.LFE14:
	.size	aos_task_key_delete, .-aos_task_key_delete
	.section	.text.aos_task_setspecific,"ax",@progbits
	.align	1
	.globl	aos_task_setspecific
	.type	aos_task_setspecific, @function
aos_task_setspecific:
.LFB15:
	.loc 1 149 1 is_stmt 1
	.cfi_startproc
.LVL75:
	.loc 1 150 5
	.loc 1 149 1 is_stmt 0
	addi	sp,sp,-16
	.cfi_def_cfa_offset 16
	sw	s0,8(sp)
	sw	s1,4(sp)
	sw	s2,0(sp)
	sw	ra,12(sp)
	.cfi_offset 8, -8
	.cfi_offset 9, -12
	.cfi_offset 18, -16
	.cfi_offset 1, -4
	addi	s0,sp,16
	.cfi_def_cfa 8, 0
	.loc 1 149 1
	mv	s1,a0
	mv	s2,a1
	.loc 1 150 48
	call	xTaskGetCurrentTaskHandle
.LVL76:
	.loc 1 151 5 is_stmt 1
	.loc 1 151 8 is_stmt 0
	li	a4,3
	bgtu	s1,a4,.L46
	.loc 1 154 8
	lw	a3,160(a0)
	li	a4,538382336
	addi	a4,a4,32
	mv	a5,a0
	.loc 1 154 5 is_stmt 1
	.loc 1 152 16 is_stmt 0
	li	a0,-1
.LVL77:
	.loc 1 154 8
	bne	a3,a4,.L44
	.loc 1 157 5 is_stmt 1
	.loc 1 157 21 is_stmt 0
	addi	s1,s1,24
.LVL78:
	slli	s1,s1,2
.LVL79:
	add	s1,a5,s1
	sw	s2,12(s1)
	.loc 1 158 5 is_stmt 1
	.loc 1 158 12 is_stmt 0
	li	a0,0
.LVL80:
.L44:
	.loc 1 159 1
	lw	ra,12(sp)
	.cfi_remember_state
	.cfi_restore 1
	lw	s0,8(sp)
	.cfi_restore 8
	.cfi_def_cfa 2, 16
	lw	s1,4(sp)
	.cfi_restore 9
	lw	s2,0(sp)
	.cfi_restore 18
.LVL81:
	addi	sp,sp,16
	.cfi_def_cfa_offset 0
	jr	ra
.LVL82:
.L46:
	.cfi_restore_state
	.loc 1 152 16
	li	a0,-1
.LVL83:
	j	.L44
	.cfi_endproc
.LFE15:
	.size	aos_task_setspecific, .-aos_task_setspecific
	.section	.text.aos_task_getspecific,"ax",@progbits
	.align	1
	.globl	aos_task_getspecific
	.type	aos_task_getspecific, @function
aos_task_getspecific:
.LFB16:
	.loc 1 162 1 is_stmt 1
	.cfi_startproc
.LVL84:
	.loc 1 163 5
	.loc 1 162 1 is_stmt 0
	addi	sp,sp,-16
	.cfi_def_cfa_offset 16
	sw	s0,8(sp)
	sw	s1,4(sp)
	sw	ra,12(sp)
	.cfi_offset 8, -8
	.cfi_offset 9, -12
	.cfi_offset 1, -4
	addi	s0,sp,16
	.cfi_def_cfa 8, 0
	.loc 1 162 1
	mv	s1,a0
	.loc 1 163 48
	call	xTaskGetCurrentTaskHandle
.LVL85:
	.loc 1 164 5 is_stmt 1
	.loc 1 164 8 is_stmt 0
	li	a4,3
	bgtu	s1,a4,.L51
	.loc 1 167 8
	lw	a3,160(a0)
	li	a4,538382336
	addi	a4,a4,32
	mv	a5,a0
	.loc 1 167 5 is_stmt 1
	.loc 1 165 15 is_stmt 0
	li	a0,0
.LVL86:
	.loc 1 167 8
	bne	a3,a4,.L49
	.loc 1 170 5 is_stmt 1
	.loc 1 170 22 is_stmt 0
	addi	s1,s1,24
.LVL87:
	slli	s1,s1,2
.LVL88:
	add	s1,a5,s1
	lw	a0,12(s1)
.LVL89:
.L49:
	.loc 1 171 1
	lw	ra,12(sp)
	.cfi_remember_state
	.cfi_restore 1
	lw	s0,8(sp)
	.cfi_restore 8
	.cfi_def_cfa 2, 16
	lw	s1,4(sp)
	.cfi_restore 9
	addi	sp,sp,16
	.cfi_def_cfa_offset 0
	jr	ra
.LVL90:
.L51:
	.cfi_restore_state
	.loc 1 165 15
	li	a0,0
.LVL91:
	j	.L49
	.cfi_endproc
.LFE16:
	.size	aos_task_getspecific, .-aos_task_getspecific
	.section	.text.aos_mutex_new,"ax",@progbits
	.align	1
	.globl	aos_mutex_new
	.type	aos_mutex_new, @function
aos_mutex_new:
.LFB17:
	.loc 1 174 1 is_stmt 1
	.cfi_startproc
.LVL92:
	.loc 1 175 5
	.loc 1 174 1 is_stmt 0
	addi	sp,sp,-16
	.cfi_def_cfa_offset 16
	sw	s0,8(sp)
	sw	s1,4(sp)
	sw	ra,12(sp)
	.cfi_offset 8, -8
	.cfi_offset 9, -12
	.cfi_offset 1, -4
	addi	s0,sp,16
	.cfi_def_cfa 8, 0
	.loc 1 174 1
	mv	s1,a0
	.loc 1 175 29
	li	a0,1
.LVL93:
	call	xQueueCreateMutex
.LVL94:
	.loc 1 176 5 is_stmt 1
	.loc 1 178 1 is_stmt 0
	lw	ra,12(sp)
	.cfi_restore 1
	lw	s0,8(sp)
	.cfi_restore 8
	.cfi_def_cfa 2, 16
	.loc 1 176 16
	sw	a0,0(s1)
	.loc 1 177 5 is_stmt 1
	.loc 1 177 27 is_stmt 0
	seqz	a0,a0
.LVL95:
	.loc 1 178 1
	lw	s1,4(sp)
	.cfi_restore 9
.LVL96:
	neg	a0,a0
	addi	sp,sp,16
	.cfi_def_cfa_offset 0
	jr	ra
	.cfi_endproc
.LFE17:
	.size	aos_mutex_new, .-aos_mutex_new
	.section	.text.aos_mutex_free,"ax",@progbits
	.align	1
	.globl	aos_mutex_free
	.type	aos_mutex_free, @function
aos_mutex_free:
.LFB18:
	.loc 1 181 1 is_stmt 1
	.cfi_startproc
.LVL97:
	.loc 1 182 5
	.loc 1 181 1 is_stmt 0
	addi	sp,sp,-16
	.cfi_def_cfa_offset 16
	sw	s0,12(sp)
	.cfi_offset 8, -4
	addi	s0,sp,16
	.cfi_def_cfa 8, 0
	.loc 1 183 1
	lw	s0,12(sp)
	.cfi_restore 8
	.cfi_def_cfa 2, 16
	.loc 1 182 5
	lw	a0,0(a0)
.LVL98:
	.loc 1 183 1
	addi	sp,sp,16
	.cfi_def_cfa_offset 0
	.loc 1 182 5
	tail	vQueueDelete
.LVL99:
	.cfi_endproc
.LFE18:
	.size	aos_mutex_free, .-aos_mutex_free
	.section	.text.aos_mutex_lock,"ax",@progbits
	.align	1
	.globl	aos_mutex_lock
	.type	aos_mutex_lock, @function
aos_mutex_lock:
.LFB19:
	.loc 1 186 1 is_stmt 1
	.cfi_startproc
.LVL100:
	.loc 1 187 5
	.loc 1 187 8 is_stmt 0
	beq	a0,zero,.L65
	.loc 1 188 9 is_stmt 1
	.loc 1 186 1 is_stmt 0
	addi	sp,sp,-16
	.cfi_def_cfa_offset 16
	sw	s0,8(sp)
	sw	ra,12(sp)
	.cfi_offset 8, -8
	.cfi_offset 1, -4
	addi	s0,sp,16
	.cfi_def_cfa 8, 0
	.loc 1 188 9
	li	a5,-1
	.loc 1 188 37
	lw	a0,0(a0)
.LVL101:
	.loc 1 188 9
	beq	a1,a5,.L60
	.loc 1 188 141 discriminator 1
	li	a5,1000
	mul	a1,a1,a5
.LVL102:
	.loc 1 188 9 discriminator 1
	divu	a1,a1,a5
.L60:
	.loc 1 188 9 discriminator 4
	call	xQueueSemaphoreTake
.LVL103:
	.loc 1 190 5 is_stmt 1 discriminator 4
	.loc 1 191 1 is_stmt 0 discriminator 4
	lw	ra,12(sp)
	.cfi_restore 1
	lw	s0,8(sp)
	.cfi_restore 8
	.cfi_def_cfa 2, 16
	li	a0,0
	addi	sp,sp,16
	.cfi_def_cfa_offset 0
	jr	ra
.LVL104:
.L65:
	.loc 1 190 5 is_stmt 1
	.loc 1 191 1 is_stmt 0
	li	a0,0
.LVL105:
	ret
	.cfi_endproc
.LFE19:
	.size	aos_mutex_lock, .-aos_mutex_lock
	.section	.text.aos_mutex_unlock,"ax",@progbits
	.align	1
	.globl	aos_mutex_unlock
	.type	aos_mutex_unlock, @function
aos_mutex_unlock:
.LFB20:
	.loc 1 194 1 is_stmt 1
	.cfi_startproc
.LVL106:
	.loc 1 195 5
	.loc 1 195 8 is_stmt 0
	beq	a0,zero,.L74
	.loc 1 196 9 is_stmt 1
	.loc 1 194 1 is_stmt 0
	addi	sp,sp,-16
	.cfi_def_cfa_offset 16
	sw	s0,8(sp)
	sw	ra,12(sp)
	.cfi_offset 8, -8
	.cfi_offset 1, -4
	addi	s0,sp,16
	.cfi_def_cfa 8, 0
	.loc 1 196 9
	lw	a0,0(a0)
.LVL107:
	li	a3,0
	li	a2,0
	li	a1,0
	call	xQueueGenericSend
.LVL108:
	.loc 1 198 5 is_stmt 1
	.loc 1 199 1 is_stmt 0
	lw	ra,12(sp)
	.cfi_restore 1
	lw	s0,8(sp)
	.cfi_restore 8
	.cfi_def_cfa 2, 16
	li	a0,0
	addi	sp,sp,16
	.cfi_def_cfa_offset 0
	jr	ra
.LVL109:
.L74:
	.loc 1 198 5 is_stmt 1
	.loc 1 199 1 is_stmt 0
	li	a0,0
.LVL110:
	ret
	.cfi_endproc
.LFE20:
	.size	aos_mutex_unlock, .-aos_mutex_unlock
	.section	.text.aos_mutex_is_valid,"ax",@progbits
	.align	1
	.globl	aos_mutex_is_valid
	.type	aos_mutex_is_valid, @function
aos_mutex_is_valid:
.LFB21:
	.loc 1 202 1 is_stmt 1
	.cfi_startproc
.LVL111:
	.loc 1 203 5
	.loc 1 202 1 is_stmt 0
	addi	sp,sp,-16
	.cfi_def_cfa_offset 16
	sw	s0,12(sp)
	.cfi_offset 8, -4
	addi	s0,sp,16
	.cfi_def_cfa 8, 0
	.loc 1 203 23
	lw	a0,0(a0)
.LVL112:
	.loc 1 204 1
	lw	s0,12(sp)
	.cfi_restore 8
	.cfi_def_cfa 2, 16
	snez	a0,a0
	addi	sp,sp,16
	.cfi_def_cfa_offset 0
	jr	ra
	.cfi_endproc
.LFE21:
	.size	aos_mutex_is_valid, .-aos_mutex_is_valid
	.section	.text.aos_sem_new,"ax",@progbits
	.align	1
	.globl	aos_sem_new
	.type	aos_sem_new, @function
aos_sem_new:
.LFB22:
	.loc 1 207 1 is_stmt 1
	.cfi_startproc
.LVL113:
	.loc 1 208 5
	.loc 1 207 1 is_stmt 0
	addi	sp,sp,-16
	.cfi_def_cfa_offset 16
	sw	s0,8(sp)
	sw	s1,4(sp)
	sw	ra,12(sp)
	.cfi_offset 8, -8
	.cfi_offset 9, -12
	.cfi_offset 1, -4
	addi	s0,sp,16
	.cfi_def_cfa 8, 0
	.loc 1 207 1
	mv	s1,a0
	.loc 1 208 27
	li	a0,128
.LVL114:
	call	xQueueCreateCountingSemaphore
.LVL115:
	.loc 1 209 5 is_stmt 1
	.loc 1 211 1 is_stmt 0
	lw	ra,12(sp)
	.cfi_restore 1
	lw	s0,8(sp)
	.cfi_restore 8
	.cfi_def_cfa 2, 16
	.loc 1 209 14
	sw	a0,0(s1)
	.loc 1 210 5 is_stmt 1
	.loc 1 211 1 is_stmt 0
	lw	s1,4(sp)
	.cfi_restore 9
.LVL116:
	li	a0,0
.LVL117:
	addi	sp,sp,16
	.cfi_def_cfa_offset 0
	jr	ra
	.cfi_endproc
.LFE22:
	.size	aos_sem_new, .-aos_sem_new
	.section	.text.aos_sem_free,"ax",@progbits
	.align	1
	.globl	aos_sem_free
	.type	aos_sem_free, @function
aos_sem_free:
.LFB23:
	.loc 1 214 1 is_stmt 1
	.cfi_startproc
.LVL118:
	.loc 1 215 5
	.loc 1 214 1 is_stmt 0
	addi	sp,sp,-16
	.cfi_def_cfa_offset 16
	sw	s0,12(sp)
	.cfi_offset 8, -4
	addi	s0,sp,16
	.cfi_def_cfa 8, 0
	.loc 1 215 8
	beq	a0,zero,.L81
	.loc 1 219 5 is_stmt 1
	.loc 1 220 1 is_stmt 0
	lw	s0,12(sp)
	.cfi_remember_state
	.cfi_restore 8
	.cfi_def_cfa 2, 16
	.loc 1 219 5
	lw	a0,0(a0)
.LVL119:
	.loc 1 220 1
	addi	sp,sp,16
	.cfi_def_cfa_offset 0
	.loc 1 219 5
	tail	vQueueDelete
.LVL120:
.L81:
	.cfi_restore_state
	.loc 1 220 1
	lw	s0,12(sp)
	.cfi_restore 8
	.cfi_def_cfa 2, 16
	addi	sp,sp,16
	.cfi_def_cfa_offset 0
	jr	ra
	.cfi_endproc
.LFE23:
	.size	aos_sem_free, .-aos_sem_free
	.section	.text.aos_sem_wait,"ax",@progbits
	.align	1
	.globl	aos_sem_wait
	.type	aos_sem_wait, @function
aos_sem_wait:
.LFB24:
	.loc 1 223 1 is_stmt 1
	.cfi_startproc
.LVL121:
	.loc 1 224 5
	.loc 1 224 8 is_stmt 0
	beq	a0,zero,.L87
	.loc 1 228 5 is_stmt 1
	.loc 1 223 1 is_stmt 0
	addi	sp,sp,-16
	.cfi_def_cfa_offset 16
	sw	s0,8(sp)
	sw	ra,12(sp)
	.cfi_offset 8, -8
	.cfi_offset 1, -4
	addi	s0,sp,16
	.cfi_def_cfa 8, 0
	.loc 1 228 15
	li	a5,-1
	.loc 1 228 41
	lw	a0,0(a0)
.LVL122:
	.loc 1 228 15
	beq	a1,a5,.L86
	.loc 1 228 145 discriminator 1
	li	a5,1000
	mul	a1,a1,a5
.LVL123:
	.loc 1 228 15 discriminator 1
	divu	a1,a1,a5
.L86:
	.loc 1 228 15 discriminator 4
	call	xQueueSemaphoreTake
.LVL124:
	.loc 1 229 5 is_stmt 1 discriminator 4
	.loc 1 230 1 is_stmt 0 discriminator 4
	lw	ra,12(sp)
	.cfi_restore 1
	lw	s0,8(sp)
	.cfi_restore 8
	.cfi_def_cfa 2, 16
	.loc 1 229 48 discriminator 4
	addi	a0,a0,-1
.LVL125:
	snez	a0,a0
.LVL126:
	neg	a0,a0
	.loc 1 230 1 discriminator 4
	addi	sp,sp,16
	.cfi_def_cfa_offset 0
	jr	ra
.LVL127:
.L87:
	.loc 1 225 16
	li	a0,-1
.LVL128:
	.loc 1 230 1
	ret
	.cfi_endproc
.LFE24:
	.size	aos_sem_wait, .-aos_sem_wait
	.section	.text.aos_sem_signal,"ax",@progbits
	.align	1
	.globl	aos_sem_signal
	.type	aos_sem_signal, @function
aos_sem_signal:
.LFB25:
	.loc 1 233 1 is_stmt 1
	.cfi_startproc
.LVL129:
	.loc 1 234 5
	.loc 1 233 1 is_stmt 0
	addi	sp,sp,-32
	.cfi_def_cfa_offset 32
	sw	s0,24(sp)
	sw	ra,28(sp)
	.cfi_offset 8, -8
	.cfi_offset 1, -4
	addi	s0,sp,32
	.cfi_def_cfa 8, 0
	sw	s1,20(sp)
	.cfi_offset 9, -12
	.loc 1 234 16
	sw	zero,-20(s0)
	.loc 1 236 5 is_stmt 1
	.loc 1 236 8 is_stmt 0
	beq	a0,zero,.L92
	mv	s1,a0
	.loc 1 240 5 is_stmt 1
	.loc 1 240 9 is_stmt 0
	call	xPortIsInsideInterrupt
.LVL130:
	mv	a5,a0
	lw	a0,0(s1)
	.loc 1 240 8
	beq	a5,zero,.L94
	.loc 1 241 9 is_stmt 1
	addi	a1,s0,-20
	call	xQueueGiveFromISR
.LVL131:
	.loc 1 242 9
	.loc 1 242 11 is_stmt 0
	lw	a5,-20(s0)
	beq	a5,zero,.L92
	.loc 1 242 40 is_stmt 1 discriminator 1
	call	vTaskSwitchContext
.LVL132:
.L92:
	.loc 1 246 1 is_stmt 0
	lw	ra,28(sp)
	.cfi_remember_state
	.cfi_restore 1
	lw	s0,24(sp)
	.cfi_restore 8
	.cfi_def_cfa 2, 32
	lw	s1,20(sp)
	.cfi_restore 9
	addi	sp,sp,32
	.cfi_def_cfa_offset 0
	jr	ra
.LVL133:
.L94:
	.cfi_restore_state
	.loc 1 244 9 is_stmt 1
	li	a3,0
	li	a2,0
	li	a1,0
	call	xQueueGenericSend
.LVL134:
	j	.L92
	.cfi_endproc
.LFE25:
	.size	aos_sem_signal, .-aos_sem_signal
	.section	.text.aos_sem_is_valid,"ax",@progbits
	.align	1
	.globl	aos_sem_is_valid
	.type	aos_sem_is_valid, @function
aos_sem_is_valid:
.LFB26:
	.loc 1 249 1
	.cfi_startproc
.LVL135:
	.loc 1 250 5
	.loc 1 249 1 is_stmt 0
	addi	sp,sp,-16
	.cfi_def_cfa_offset 16
	sw	s0,12(sp)
	.cfi_offset 8, -4
	addi	s0,sp,16
	.cfi_def_cfa 8, 0
	.loc 1 250 16
	beq	a0,zero,.L102
	.loc 1 250 16 discriminator 1
	lw	a0,0(a0)
.LVL136:
	snez	a0,a0
.L100:
	.loc 1 251 1
	lw	s0,12(sp)
	.cfi_remember_state
	.cfi_restore 8
	.cfi_def_cfa 2, 16
	addi	sp,sp,16
	.cfi_def_cfa_offset 0
	jr	ra
.LVL137:
.L102:
	.cfi_restore_state
	.loc 1 250 16
	li	a0,0
.LVL138:
	j	.L100
	.cfi_endproc
.LFE26:
	.size	aos_sem_is_valid, .-aos_sem_is_valid
	.section	.text.aos_sem_signal_all,"ax",@progbits
	.align	1
	.globl	aos_sem_signal_all
	.type	aos_sem_signal_all, @function
aos_sem_signal_all:
.LFB27:
	.loc 1 254 1 is_stmt 1
	.cfi_startproc
.LVL139:
	.loc 1 255 5
	.loc 1 254 1 is_stmt 0
	addi	sp,sp,-16
	.cfi_def_cfa_offset 16
	sw	s0,12(sp)
	.cfi_offset 8, -4
	addi	s0,sp,16
	.cfi_def_cfa 8, 0
	.loc 1 256 1
	lw	s0,12(sp)
	.cfi_restore 8
	.cfi_def_cfa 2, 16
	addi	sp,sp,16
	.cfi_def_cfa_offset 0
	.loc 1 255 5
	tail	aos_sem_signal
.LVL140:
	.cfi_endproc
.LFE27:
	.size	aos_sem_signal_all, .-aos_sem_signal_all
	.section	.text.aos_queue_new,"ax",@progbits
	.align	1
	.globl	aos_queue_new
	.type	aos_queue_new, @function
aos_queue_new:
.LFB28:
	.loc 1 259 1 is_stmt 1
	.cfi_startproc
.LVL141:
	.loc 1 260 5
	.loc 1 261 5
	.loc 1 259 1 is_stmt 0
	addi	sp,sp,-16
	.cfi_def_cfa_offset 16
	sw	s1,4(sp)
	.cfi_offset 9, -12
	mv	s1,a0
	mv	a0,a2
.LVL142:
	.loc 1 261 9
	divu	a0,a0,a3
	.loc 1 259 1
	sw	s0,8(sp)
	sw	ra,12(sp)
	.cfi_offset 8, -8
	.cfi_offset 1, -4
	addi	s0,sp,16
	.cfi_def_cfa 8, 0
	.loc 1 259 1
	mv	a1,a3
.LVL143:
	.loc 1 261 9
	li	a2,0
.LVL144:
	call	xQueueGenericCreate
.LVL145:
	.loc 1 262 5 is_stmt 1
	.loc 1 264 1 is_stmt 0
	lw	ra,12(sp)
	.cfi_restore 1
	lw	s0,8(sp)
	.cfi_restore 8
	.cfi_def_cfa 2, 16
	.loc 1 262 16
	sw	a0,0(s1)
	.loc 1 263 5 is_stmt 1
	.loc 1 264 1 is_stmt 0
	lw	s1,4(sp)
	.cfi_restore 9
.LVL146:
	li	a0,0
.LVL147:
	addi	sp,sp,16
	.cfi_def_cfa_offset 0
	jr	ra
	.cfi_endproc
.LFE28:
	.size	aos_queue_new, .-aos_queue_new
	.section	.text.aos_queue_free,"ax",@progbits
	.align	1
	.globl	aos_queue_free
	.type	aos_queue_free, @function
aos_queue_free:
.LFB52:
	.cfi_startproc
	addi	sp,sp,-16
	.cfi_def_cfa_offset 16
	sw	s0,12(sp)
	.cfi_offset 8, -4
	addi	s0,sp,16
	.cfi_def_cfa 8, 0
	lw	s0,12(sp)
	.cfi_restore 8
	.cfi_def_cfa 2, 16
	addi	sp,sp,16
	.cfi_def_cfa_offset 0
	tail	aos_mutex_free
	.cfi_endproc
.LFE52:
	.size	aos_queue_free, .-aos_queue_free
	.section	.text.aos_queue_send,"ax",@progbits
	.align	1
	.globl	aos_queue_send
	.type	aos_queue_send, @function
aos_queue_send:
.LFB30:
	.loc 1 272 1 is_stmt 1
	.cfi_startproc
.LVL148:
	.loc 1 273 5
	.loc 1 272 1 is_stmt 0
	addi	sp,sp,-16
	.cfi_def_cfa_offset 16
	sw	s0,8(sp)
	sw	ra,12(sp)
	.cfi_offset 8, -8
	.cfi_offset 1, -4
	addi	s0,sp,16
	.cfi_def_cfa 8, 0
	.loc 1 273 12
	lw	a0,0(a0)
.LVL149:
	li	a3,0
	li	a2,-1
.LVL150:
	call	xQueueGenericSend
.LVL151:
	.loc 1 274 1
	lw	ra,12(sp)
	.cfi_restore 1
	lw	s0,8(sp)
	.cfi_restore 8
	.cfi_def_cfa 2, 16
	.loc 1 273 144
	addi	a0,a0,-1
	snez	a0,a0
	.loc 1 274 1
	neg	a0,a0
	addi	sp,sp,16
	.cfi_def_cfa_offset 0
	jr	ra
	.cfi_endproc
.LFE30:
	.size	aos_queue_send, .-aos_queue_send
	.section	.text.aos_queue_recv,"ax",@progbits
	.align	1
	.globl	aos_queue_recv
	.type	aos_queue_recv, @function
aos_queue_recv:
.LFB31:
	.loc 1 278 1 is_stmt 1
	.cfi_startproc
.LVL152:
	.loc 1 279 5
	.loc 1 278 1 is_stmt 0
	addi	sp,sp,-16
	.cfi_def_cfa_offset 16
	sw	s0,8(sp)
	sw	ra,12(sp)
	.cfi_offset 8, -8
	.cfi_offset 1, -4
	addi	s0,sp,16
	.cfi_def_cfa 8, 0
	.loc 1 278 1
	mv	a5,a1
	.loc 1 279 12
	li	a4,-1
	.loc 1 279 31
	lw	a0,0(a0)
.LVL153:
	.loc 1 278 1
	mv	a1,a2
.LVL154:
	.loc 1 279 12
	beq	a5,a4,.L113
	.loc 1 279 136 discriminator 1
	li	a4,1000
	mul	a5,a5,a4
.LVL155:
	.loc 1 279 12 discriminator 1
	divu	a5,a5,a4
.L113:
	.loc 1 279 12 discriminator 4
	mv	a2,a5
.LVL156:
	call	xQueueReceive
.LVL157:
	.loc 1 281 1 discriminator 4
	lw	ra,12(sp)
	.cfi_restore 1
	lw	s0,8(sp)
	.cfi_restore 8
	.cfi_def_cfa 2, 16
	.loc 1 280 44 discriminator 4
	addi	a0,a0,-1
	snez	a0,a0
	.loc 1 281 1 discriminator 4
	neg	a0,a0
	addi	sp,sp,16
	.cfi_def_cfa_offset 0
	jr	ra
	.cfi_endproc
.LFE31:
	.size	aos_queue_recv, .-aos_queue_recv
	.section	.text.aos_queue_is_valid,"ax",@progbits
	.align	1
	.globl	aos_queue_is_valid
	.type	aos_queue_is_valid, @function
aos_queue_is_valid:
.LFB54:
	.cfi_startproc
	addi	sp,sp,-16
	.cfi_def_cfa_offset 16
	sw	s0,12(sp)
	.cfi_offset 8, -4
	addi	s0,sp,16
	.cfi_def_cfa 8, 0
	lw	s0,12(sp)
	.cfi_restore 8
	.cfi_def_cfa 2, 16
	addi	sp,sp,16
	.cfi_def_cfa_offset 0
	tail	aos_sem_is_valid
	.cfi_endproc
.LFE54:
	.size	aos_queue_is_valid, .-aos_queue_is_valid
	.section	.text.aos_queue_buf_ptr,"ax",@progbits
	.align	1
	.globl	aos_queue_buf_ptr
	.type	aos_queue_buf_ptr, @function
aos_queue_buf_ptr:
.LFB33:
	.loc 1 289 1 is_stmt 1
	.cfi_startproc
.LVL158:
	.loc 1 290 5
	.loc 1 289 1 is_stmt 0
	addi	sp,sp,-16
	.cfi_def_cfa_offset 16
	sw	s0,12(sp)
	.cfi_offset 8, -4
	addi	s0,sp,16
	.cfi_def_cfa 8, 0
	.loc 1 291 1
	lw	s0,12(sp)
	.cfi_restore 8
	.cfi_def_cfa 2, 16
	li	a0,0
.LVL159:
	addi	sp,sp,16
	.cfi_def_cfa_offset 0
	jr	ra
	.cfi_endproc
.LFE33:
	.size	aos_queue_buf_ptr, .-aos_queue_buf_ptr
	.section	.text.aos_timer_new,"ax",@progbits
	.align	1
	.globl	aos_timer_new
	.type	aos_timer_new, @function
aos_timer_new:
.LFB34:
	.loc 1 295 1 is_stmt 1
	.cfi_startproc
.LVL160:
	.loc 1 296 5
	.loc 1 295 1 is_stmt 0
	addi	sp,sp,-16
	.cfi_def_cfa_offset 16
	sw	s0,12(sp)
	.cfi_offset 8, -4
	addi	s0,sp,16
	.cfi_def_cfa 8, 0
	.loc 1 297 1
	lw	s0,12(sp)
	.cfi_restore 8
	.cfi_def_cfa 2, 16
	li	a0,-1
.LVL161:
	addi	sp,sp,16
	.cfi_def_cfa_offset 0
	jr	ra
	.cfi_endproc
.LFE34:
	.size	aos_timer_new, .-aos_timer_new
	.section	.text.aos_timer_free,"ax",@progbits
	.align	1
	.globl	aos_timer_free
	.type	aos_timer_free, @function
aos_timer_free:
.LFB35:
	.loc 1 300 1 is_stmt 1
	.cfi_startproc
.LVL162:
	.loc 1 301 1
	.loc 1 300 1 is_stmt 0
	addi	sp,sp,-16
	.cfi_def_cfa_offset 16
	sw	s0,12(sp)
	.cfi_offset 8, -4
	addi	s0,sp,16
	.cfi_def_cfa 8, 0
	.loc 1 301 1
	lw	s0,12(sp)
	.cfi_restore 8
	.cfi_def_cfa 2, 16
	addi	sp,sp,16
	.cfi_def_cfa_offset 0
	jr	ra
	.cfi_endproc
.LFE35:
	.size	aos_timer_free, .-aos_timer_free
	.section	.text.aos_timer_start,"ax",@progbits
	.align	1
	.globl	aos_timer_start
	.type	aos_timer_start, @function
aos_timer_start:
.LFB36:
	.loc 1 304 1 is_stmt 1
	.cfi_startproc
.LVL163:
	.loc 1 305 5
	.loc 1 304 1 is_stmt 0
	addi	sp,sp,-16
	.cfi_def_cfa_offset 16
	sw	s0,12(sp)
	.cfi_offset 8, -4
	addi	s0,sp,16
	.cfi_def_cfa 8, 0
	.loc 1 306 1
	lw	s0,12(sp)
	.cfi_restore 8
	.cfi_def_cfa 2, 16
	li	a0,-1
.LVL164:
	addi	sp,sp,16
	.cfi_def_cfa_offset 0
	jr	ra
	.cfi_endproc
.LFE36:
	.size	aos_timer_start, .-aos_timer_start
	.section	.text.aos_timer_stop,"ax",@progbits
	.align	1
	.globl	aos_timer_stop
	.type	aos_timer_stop, @function
aos_timer_stop:
.LFB56:
	.cfi_startproc
	addi	sp,sp,-16
	.cfi_def_cfa_offset 16
	sw	s0,12(sp)
	.cfi_offset 8, -4
	addi	s0,sp,16
	.cfi_def_cfa 8, 0
	lw	s0,12(sp)
	.cfi_restore 8
	.cfi_def_cfa 2, 16
	li	a0,-1
	addi	sp,sp,16
	.cfi_def_cfa_offset 0
	jr	ra
	.cfi_endproc
.LFE56:
	.size	aos_timer_stop, .-aos_timer_stop
	.section	.text.aos_timer_change,"ax",@progbits
	.align	1
	.globl	aos_timer_change
	.type	aos_timer_change, @function
aos_timer_change:
.LFB38:
	.loc 1 314 1 is_stmt 1
	.cfi_startproc
.LVL165:
	.loc 1 315 5
	.loc 1 314 1 is_stmt 0
	addi	sp,sp,-16
	.cfi_def_cfa_offset 16
	sw	s0,12(sp)
	.cfi_offset 8, -4
	addi	s0,sp,16
	.cfi_def_cfa 8, 0
	.loc 1 316 1
	lw	s0,12(sp)
	.cfi_restore 8
	.cfi_def_cfa 2, 16
	li	a0,-1
.LVL166:
	addi	sp,sp,16
	.cfi_def_cfa_offset 0
	jr	ra
	.cfi_endproc
.LFE38:
	.size	aos_timer_change, .-aos_timer_change
	.section	.text.aos_workqueue_create,"ax",@progbits
	.align	1
	.globl	aos_workqueue_create
	.type	aos_workqueue_create, @function
aos_workqueue_create:
.LFB39:
	.loc 1 319 1 is_stmt 1
	.cfi_startproc
.LVL167:
	.loc 1 320 5
	.loc 1 319 1 is_stmt 0
	addi	sp,sp,-16
	.cfi_def_cfa_offset 16
	sw	s0,12(sp)
	.cfi_offset 8, -4
	addi	s0,sp,16
	.cfi_def_cfa 8, 0
	.loc 1 321 1
	lw	s0,12(sp)
	.cfi_restore 8
	.cfi_def_cfa 2, 16
	li	a0,-1
.LVL168:
	addi	sp,sp,16
	.cfi_def_cfa_offset 0
	jr	ra
	.cfi_endproc
.LFE39:
	.size	aos_workqueue_create, .-aos_workqueue_create
	.section	.text.aos_work_init,"ax",@progbits
	.align	1
	.globl	aos_work_init
	.type	aos_work_init, @function
aos_work_init:
.LFB40:
	.loc 1 330 1 is_stmt 1
	.cfi_startproc
.LVL169:
	.loc 1 331 5
	.loc 1 330 1 is_stmt 0
	addi	sp,sp,-32
	.cfi_def_cfa_offset 32
	sw	s0,24(sp)
	sw	s1,20(sp)
	sw	s2,16(sp)
	sw	s3,12(sp)
	sw	s4,8(sp)
	sw	ra,28(sp)
	.cfi_offset 8, -8
	.cfi_offset 9, -12
	.cfi_offset 18, -16
	.cfi_offset 19, -20
	.cfi_offset 20, -24
	.cfi_offset 1, -4
	addi	s0,sp,32
	.cfi_def_cfa 8, 0
	.loc 1 330 1
	mv	s1,a0
	.loc 1 331 22
	li	a0,12
.LVL170:
	.loc 1 330 1
	mv	s4,a1
	mv	s3,a2
	mv	s2,a3
	.loc 1 331 22
	call	pvPortMalloc
.LVL171:
	.loc 1 332 5 is_stmt 1
	.loc 1 332 11 is_stmt 0
	sw	s4,0(a0)
	.loc 1 333 5 is_stmt 1
	.loc 1 333 12 is_stmt 0
	sw	s3,4(a0)
	.loc 1 334 5 is_stmt 1
	.loc 1 334 12 is_stmt 0
	sw	s2,8(a0)
	.loc 1 335 5 is_stmt 1
	.loc 1 337 1 is_stmt 0
	lw	ra,28(sp)
	.cfi_restore 1
	lw	s0,24(sp)
	.cfi_restore 8
	.cfi_def_cfa 2, 32
	.loc 1 335 15
	sw	a0,0(s1)
	.loc 1 336 5 is_stmt 1
	.loc 1 337 1 is_stmt 0
	lw	s2,16(sp)
	.cfi_restore 18
.LVL172:
	lw	s1,20(sp)
	.cfi_restore 9
.LVL173:
	lw	s3,12(sp)
	.cfi_restore 19
.LVL174:
	lw	s4,8(sp)
	.cfi_restore 20
.LVL175:
	li	a0,0
.LVL176:
	addi	sp,sp,32
	.cfi_def_cfa_offset 0
	jr	ra
	.cfi_endproc
.LFE40:
	.size	aos_work_init, .-aos_work_init
	.section	.text.aos_work_destroy,"ax",@progbits
	.align	1
	.globl	aos_work_destroy
	.type	aos_work_destroy, @function
aos_work_destroy:
.LFB41:
	.loc 1 340 1 is_stmt 1
	.cfi_startproc
.LVL177:
	.loc 1 341 5
	.loc 1 340 1 is_stmt 0
	addi	sp,sp,-16
	.cfi_def_cfa_offset 16
	sw	s0,12(sp)
	.cfi_offset 8, -4
	addi	s0,sp,16
	.cfi_def_cfa 8, 0
	.loc 1 342 1
	lw	s0,12(sp)
	.cfi_restore 8
	.cfi_def_cfa 2, 16
	.loc 1 341 5
	lw	a0,0(a0)
.LVL178:
	.loc 1 342 1
	addi	sp,sp,16
	.cfi_def_cfa_offset 0
	.loc 1 341 5
	tail	vPortFree
.LVL179:
	.cfi_endproc
.LFE41:
	.size	aos_work_destroy, .-aos_work_destroy
	.section	.rodata.aos_work_sched.str1.4,"aMS",@progbits,1
	.align	2
.LC2:
	.string	"worker"
	.section	.text.aos_work_sched,"ax",@progbits
	.align	1
	.globl	aos_work_sched
	.type	aos_work_sched, @function
aos_work_sched:
.LFB44:
	.loc 1 359 1 is_stmt 1
	.cfi_startproc
.LVL180:
	.loc 1 360 5
	.loc 1 361 5
	.loc 1 359 1 is_stmt 0
	addi	sp,sp,-16
	.cfi_def_cfa_offset 16
	sw	s0,12(sp)
.LVL181:
	.cfi_offset 8, -4
	addi	s0,sp,16
	.cfi_def_cfa 8, 0
	.loc 1 362 1
	lw	s0,12(sp)
	.cfi_restore 8
	.cfi_def_cfa 2, 16
	.loc 1 361 12
	lw	a2,0(a0)
	lui	a1,%hi(worker_entry)
	lui	a0,%hi(.LC2)
.LVL182:
	.loc 1 362 1
	.loc 1 361 12
	li	a3,8192
	addi	a1,a1,%lo(worker_entry)
	addi	a0,a0,%lo(.LC2)
	.loc 1 362 1
	addi	sp,sp,16
	.cfi_def_cfa_offset 0
	.loc 1 361 12
	tail	aos_task_new
.LVL183:
	.cfi_endproc
.LFE44:
	.size	aos_work_sched, .-aos_work_sched
	.section	.text.aos_work_run,"ax",@progbits
	.align	1
	.globl	aos_work_run
	.type	aos_work_run, @function
aos_work_run:
.LFB42:
	.loc 1 345 1 is_stmt 1
	.cfi_startproc
.LVL184:
	.loc 1 346 5
	.loc 1 345 1 is_stmt 0
	addi	sp,sp,-16
	.cfi_def_cfa_offset 16
	sw	s0,12(sp)
	.cfi_offset 8, -4
	addi	s0,sp,16
	.cfi_def_cfa 8, 0
	.loc 1 347 1
	lw	s0,12(sp)
	.cfi_restore 8
	.cfi_def_cfa 2, 16
	.loc 1 346 12
	mv	a0,a1
.LVL185:
	.loc 1 347 1
	addi	sp,sp,16
	.cfi_def_cfa_offset 0
	.loc 1 346 12
	tail	aos_work_sched
.LVL186:
	.cfi_endproc
.LFE42:
	.size	aos_work_run, .-aos_work_run
	.section	.text.aos_work_cancel,"ax",@progbits
	.align	1
	.globl	aos_work_cancel
	.type	aos_work_cancel, @function
aos_work_cancel:
.LFB58:
	.cfi_startproc
	addi	sp,sp,-16
	.cfi_def_cfa_offset 16
	sw	s0,12(sp)
	.cfi_offset 8, -4
	addi	s0,sp,16
	.cfi_def_cfa 8, 0
	lw	s0,12(sp)
	.cfi_restore 8
	.cfi_def_cfa 2, 16
	li	a0,-1
	addi	sp,sp,16
	.cfi_def_cfa_offset 0
	jr	ra
	.cfi_endproc
.LFE58:
	.size	aos_work_cancel, .-aos_work_cancel
	.section	.text.aos_zalloc,"ax",@progbits
	.align	1
	.globl	aos_zalloc
	.type	aos_zalloc, @function
aos_zalloc:
.LFB46:
	.loc 1 370 1 is_stmt 1
	.cfi_startproc
.LVL187:
	.loc 1 371 5
	.loc 1 376 5
	.loc 1 370 1 is_stmt 0
	addi	sp,sp,-32
	.cfi_def_cfa_offset 32
	sw	s0,24(sp)
	sw	s1,20(sp)
	.cfi_offset 8, -8
	.cfi_offset 9, -12
	addi	s0,sp,32
	.cfi_def_cfa 8, 0
	sw	ra,28(sp)
	.cfi_offset 1, -4
	.loc 1 370 1
	sw	a0,-20(s0)
	.loc 1 376 11
	call	pvPortMalloc
.LVL188:
	mv	s1,a0
.LVL189:
	.loc 1 378 5 is_stmt 1
	.loc 1 378 8 is_stmt 0
	beq	a0,zero,.L141
	.loc 1 379 9 is_stmt 1
	lw	a2,-20(s0)
	li	a1,9
	call	memset
.LVL190:
	.loc 1 381 5
.L141:
	.loc 1 382 1 is_stmt 0
	lw	ra,28(sp)
	.cfi_restore 1
	lw	s0,24(sp)
	.cfi_restore 8
	.cfi_def_cfa 2, 32
.LVL191:
	mv	a0,s1
	lw	s1,20(sp)
	.cfi_restore 9
.LVL192:
	addi	sp,sp,32
	.cfi_def_cfa_offset 0
	jr	ra
	.cfi_endproc
.LFE46:
	.size	aos_zalloc, .-aos_zalloc
	.section	.text.aos_malloc,"ax",@progbits
	.align	1
	.globl	aos_malloc
	.type	aos_malloc, @function
aos_malloc:
.LFB47:
	.loc 1 385 1 is_stmt 1
	.cfi_startproc
.LVL193:
	.loc 1 389 5
	.loc 1 385 1 is_stmt 0
	addi	sp,sp,-16
	.cfi_def_cfa_offset 16
	sw	s0,12(sp)
	.cfi_offset 8, -4
	addi	s0,sp,16
	.cfi_def_cfa 8, 0
	.loc 1 391 1
	lw	s0,12(sp)
	.cfi_restore 8
	.cfi_def_cfa 2, 16
	addi	sp,sp,16
	.cfi_def_cfa_offset 0
	.loc 1 389 12
	tail	pvPortMalloc
.LVL194:
	.cfi_endproc
.LFE47:
	.size	aos_malloc, .-aos_malloc
	.section	.text.aos_free,"ax",@progbits
	.align	1
	.globl	aos_free
	.type	aos_free, @function
aos_free:
.LFB48:
	.loc 1 416 1 is_stmt 1
	.cfi_startproc
.LVL195:
	.loc 1 420 5
	.loc 1 416 1 is_stmt 0
	addi	sp,sp,-16
	.cfi_def_cfa_offset 16
	sw	s0,12(sp)
	.cfi_offset 8, -4
	addi	s0,sp,16
	.cfi_def_cfa 8, 0
	.loc 1 422 1
	lw	s0,12(sp)
	.cfi_restore 8
	.cfi_def_cfa 2, 16
	addi	sp,sp,16
	.cfi_def_cfa_offset 0
	.loc 1 420 5
	tail	vPortFree
.LVL196:
	.cfi_endproc
.LFE48:
	.size	aos_free, .-aos_free
	.section	.text.aos_msleep,"ax",@progbits
	.align	1
	.globl	aos_msleep
	.type	aos_msleep, @function
aos_msleep:
.LFB49:
	.loc 1 425 1 is_stmt 1
	.cfi_startproc
.LVL197:
	.loc 1 426 5
	.loc 1 426 59 is_stmt 0
	li	a5,1000
	mul	a0,a0,a5
.LVL198:
	.loc 1 425 1
	addi	sp,sp,-16
	.cfi_def_cfa_offset 16
	sw	s0,12(sp)
	.cfi_offset 8, -4
	addi	s0,sp,16
	.cfi_def_cfa 8, 0
	.loc 1 427 1
	lw	s0,12(sp)
	.cfi_restore 8
	.cfi_def_cfa 2, 16
	addi	sp,sp,16
	.cfi_def_cfa_offset 0
	.loc 1 426 5
	divu	a0,a0,a5
	tail	vTaskDelay
.LVL199:
	.cfi_endproc
.LFE49:
	.size	aos_msleep, .-aos_msleep
	.section	.text.aos_now_ms,"ax",@progbits
	.align	1
	.globl	aos_now_ms
	.type	aos_now_ms, @function
aos_now_ms:
.LFB50:
	.loc 1 440 1 is_stmt 1
	.cfi_startproc
	.loc 1 441 5
	.loc 1 442 5
	.loc 1 440 1 is_stmt 0
	addi	sp,sp,-32
	.cfi_def_cfa_offset 32
	sw	s0,24(sp)
	sw	ra,28(sp)
	.cfi_offset 8, -8
	.cfi_offset 1, -4
	addi	s0,sp,32
	.cfi_def_cfa 8, 0
	.loc 1 445 33
	addi	a1,s0,-20
	addi	a0,s0,-24
	.loc 1 442 16
	sw	zero,-24(s0)
	.loc 1 443 5 is_stmt 1
	.loc 1 443 16 is_stmt 0
	sw	zero,-20(s0)
	.loc 1 445 5 is_stmt 1
	.loc 1 445 33 is_stmt 0
	call	xTaskGetTickCount2
.LVL200:
	.loc 1 445 8
	li	a5,1
	beq	a0,a5,.L154
.L155:
	.loc 1 446 9 is_stmt 1 discriminator 1
	.loc 1 448 9 discriminator 1
	.loc 1 446 15 discriminator 1
	j	.L155
.L154:
	.loc 1 448 10
	.loc 1 452 5
	.loc 1 452 52 is_stmt 0
	lw	a5,-20(s0)
	.loc 1 452 49
	li	a3,-1
	.loc 1 452 11
	lw	a0,-24(s0)
	.loc 1 452 49
	mulhu	a3,a3,a5
	.loc 1 455 1
	lw	ra,28(sp)
	.cfi_restore 1
	lw	s0,24(sp)
	.cfi_restore 8
	.cfi_def_cfa 2, 32
	.loc 1 452 8
	sub	a0,a0,a5
	.loc 1 452 49
	srli	a4,a5,31
	neg	a1,a5
	.loc 1 452 8
	sltu	a1,a0,a1
	.loc 1 455 1
	addi	sp,sp,32
	.cfi_def_cfa_offset 0
	.loc 1 452 49
	add	a4,a4,a3
.LVL201:
	.loc 1 454 5 is_stmt 1
	.loc 1 455 1 is_stmt 0
	add	a1,a1,a4
.LVL202:
	jr	ra
	.cfi_endproc
.LFE50:
	.size	aos_now_ms, .-aos_now_ms
	.text
.Letext0:
	.file 2 "/home/dinhquangha/intern/Ai-Thinker-WB2/toolchain/riscv/Linux/riscv64-unknown-elf/include/machine/_default_types.h"
	.file 3 "/home/dinhquangha/intern/Ai-Thinker-WB2/toolchain/riscv/Linux/riscv64-unknown-elf/include/sys/_stdint.h"
	.file 4 "/home/dinhquangha/intern/Ai-Thinker-WB2/components/platform/soc/bl602/freertos_riscv_ram/portable/GCC/RISC-V/portmacro.h"
	.file 5 "/home/dinhquangha/intern/Ai-Thinker-WB2/components/platform/soc/bl602/freertos_riscv_ram/config/FreeRTOS.h"
	.file 6 "/home/dinhquangha/intern/Ai-Thinker-WB2/components/platform/soc/bl602/freertos_riscv_ram/config/task.h"
	.file 7 "/home/dinhquangha/intern/Ai-Thinker-WB2/components/platform/soc/bl602/freertos_riscv_ram/config/queue.h"
	.file 8 "/home/dinhquangha/intern/Ai-Thinker-WB2/components/platform/soc/bl602/freertos_riscv_ram/config/semphr.h"
	.file 9 "/home/dinhquangha/intern/Ai-Thinker-WB2/components/stage/yloop/include/aos/kernel.h"
	.file 10 "/home/dinhquangha/intern/Ai-Thinker-WB2/components/platform/soc/bl602/freertos_riscv_ram/config/portable.h"
	.file 11 "/home/dinhquangha/intern/Ai-Thinker-WB2/toolchain/riscv/Linux/riscv64-unknown-elf/include/string.h"