	.file	"wifi_if.c"
	.option nopic
	.attribute arch, "rv32i2p0_m2p0_f2p0_c2p0"
	.attribute unaligned_access, 0
	.attribute stack_align, 16
	.text
.Ltext0:
	.cfi_sections	.debug_frame
	.section	.rodata.wifi_event_handler.str1.4,"aMS",@progbits,1
	.align	2
.LC0:
	.string	"[WIFI_IF] WiFi INIT DONE, starting background\r\n"
	.align	2
.LC1:
	.string	"[WIFI_IF] WiFi MGMR DONE\r\n"
	.align	2
.LC2:
	.string	"[WIFI_IF] WiFi connected and got IP\r\n"
	.align	2
.LC3:
	.string	"[WIFI_IF] WiFi connected (no IP yet), waiting for DHCP...\r\n"
	.align	2
.LC4:
	.string	"[WIFI_IF] WiFi connecting...\r\n"
	.align	2
.LC5:
	.string	"[WIFI_IF] WiFi disconnected\r\n"
	.section	.text.wifi_event_handler,"ax",@progbits
	.align	1
	.type	wifi_event_handler, @function
wifi_event_handler:
.LFB29:
	.file 1 "/home/quanghaictu/intern/Ai-Thinker-WB2/datic/components/middle/wifi_if/wifi_if.c"
	.loc 1 28 1
	.cfi_startproc
.LVL0:
	.loc 1 29 5
	.loc 1 31 5
	.loc 1 31 8 is_stmt 0
	lhu	a4,4(a0)
	li	a5,2
	bne	a4,a5,.L23
.LVL1:
.LBB7:
.LBB8:
	.loc 1 35 5 is_stmt 1
	lhu	a5,6(a0)
	li	a4,7
	addi	a5,a5,-1
	slli	a5,a5,16
	srli	a5,a5,16
	bgtu	a5,a4,.L23
.LBE8:
.LBE7:
	.loc 1 28 1 is_stmt 0
	addi	sp,sp,-16
	.cfi_def_cfa_offset 16
	lui	a4,%hi(.L5)
	sw	s0,8(sp)
	sw	ra,12(sp)
	.cfi_offset 8, -8
	.cfi_offset 1, -4
	addi	s0,sp,16
	.cfi_def_cfa 8, 0
	slli	a5,a5,2
	addi	a4,a4,%lo(.L5)
	add	a5,a5,a4
	lw	a5,0(a5)
	jr	a5
	.section	.rodata.wifi_event_handler,"a",@progbits
	.align	2
	.align	2
.L5:
	.word	.L10
	.word	.L9
	.word	.L1
	.word	.L8
	.word	.L7
	.word	.L1
	.word	.L6
	.word	.L4
	.section	.text.wifi_event_handler
.L10:
.LBB21:
.LBB12:
	.loc 1 37 13 is_stmt 1
	lui	a0,%hi(.LC0)
.LVL2:
	addi	a0,a0,%lo(.LC0)
	call	printf
.LVL3:
	.loc 1 38 13
.LBE12:
.LBE21:
	.loc 1 87 1 is_stmt 0
	lw	s0,8(sp)
	.cfi_remember_state
	.cfi_restore 8
	.cfi_def_cfa 2, 16
	lw	ra,12(sp)
	.cfi_restore 1
.LBB22:
.LBB13:
	.loc 1 38 13
	lui	a0,%hi(.LANCHOR0)
.LBE13:
.LBE22:
	.loc 1 87 1
.LBB23:
.LBB14:
	.loc 1 38 13
	addi	a0,a0,%lo(.LANCHOR0)
.LBE14:
.LBE23:
	.loc 1 87 1
	addi	sp,sp,16
	.cfi_def_cfa_offset 0
.LBB24:
.LBB15:
	.loc 1 38 13
	tail	wifi_mgmr_start_background
.LVL4:
.L9:
	.cfi_restore_state
	.loc 1 42 13 is_stmt 1
	lui	a0,%hi(.LC1)
.LVL5:
	addi	a0,a0,%lo(.LC1)
	call	printf
.LVL6:
	.loc 1 43 13
	.loc 1 43 31 is_stmt 0
	lui	a5,%hi(.LANCHOR1)
	li	a4,1
	sb	a4,%lo(.LANCHOR1)(a5)
	.loc 1 44 13 is_stmt 1
.L1:
.LBE15:
.LBE24:
	.loc 1 87 1 is_stmt 0
	lw	ra,12(sp)
	.cfi_remember_state
	.cfi_restore 1
	lw	s0,8(sp)
	.cfi_restore 8
	.cfi_def_cfa 2, 16
	addi	sp,sp,16
	.cfi_def_cfa_offset 0
	jr	ra
.LVL7:
.L6:
	.cfi_restore_state
.LBB25:
.LBB16:
	.loc 1 47 13 is_stmt 1
	lui	a0,%hi(.LC2)
.LVL8:
	addi	a0,a0,%lo(.LC2)
	call	printf
.LVL9:
	.loc 1 48 13
	.loc 1 48 30 is_stmt 0
	lui	a5,%hi(.LANCHOR2)
	li	a4,1
	sb	a4,%lo(.LANCHOR2)(a5)
	.loc 1 49 13 is_stmt 1
	.loc 1 49 31 is_stmt 0
	lui	a5,%hi(.LANCHOR3)
	sb	zero,%lo(.LANCHOR3)(a5)
	.loc 1 50 13 is_stmt 1
	.loc 1 50 17 is_stmt 0
	lui	a5,%hi(.LANCHOR4)
	lw	a5,%lo(.LANCHOR4)(a5)
.L28:
.LBB9:
	.loc 1 77 20
	beq	a5,zero,.L1
	.loc 1 78 21 is_stmt 1
.LBE9:
.LBE16:
.LBE25:
	.loc 1 87 1 is_stmt 0
	lw	s0,8(sp)
	.cfi_remember_state
	.cfi_restore 8
	.cfi_def_cfa 2, 16
	lw	ra,12(sp)
	.cfi_restore 1
	addi	sp,sp,16
	.cfi_def_cfa_offset 0
.LBB26:
.LBB17:
.LBB10:
	.loc 1 78 21
	jr	a5
.LVL10:
.L8:
	.cfi_restore_state
.LBE10:
	.loc 1 56 13 is_stmt 1
.LBE17:
.LBE26:
	.loc 1 87 1 is_stmt 0
	lw	s0,8(sp)
	.cfi_remember_state
	.cfi_restore 8
	.cfi_def_cfa 2, 16
	lw	ra,12(sp)
	.cfi_restore 1
.LBB27:
.LBB18:
	.loc 1 56 13
	lui	a0,%hi(.LC3)
.LVL11:
.LBE18:
.LBE27:
	.loc 1 87 1
.LBB28:
.LBB19:
	.loc 1 56 13
	addi	a0,a0,%lo(.LC3)
.LBE19:
.LBE28:
	.loc 1 87 1
	addi	sp,sp,16
	.cfi_def_cfa_offset 0
.LBB29:
.LBB20:
	.loc 1 56 13
	tail	printf
.LVL12:
.L4:
	.cfi_restore_state
	.loc 1 61 13 is_stmt 1
	lui	a0,%hi(.LC4)
.LVL13:
	addi	a0,a0,%lo(.LC4)
	call	printf
.LVL14:
	.loc 1 62 13
	.loc 1 62 31 is_stmt 0
	lui	a5,%hi(.LANCHOR3)
	li	a4,1
	sb	a4,%lo(.LANCHOR3)(a5)
	.loc 1 63 13 is_stmt 1
	j	.L1
.LVL15:
.L7:
.LBB11:
	.loc 1 66 13
	lui	a0,%hi(.LC5)
.LVL16:
	addi	a0,a0,%lo(.LC5)
	call	printf
.LVL17:
	.loc 1 67 12
	.loc 1 67 17 is_stmt 0
	lui	a5,%hi(.LANCHOR2)
	addi	a5,a5,%lo(.LANCHOR2)
	lbu	a4,0(a5)
.LVL18:
	.loc 1 68 13 is_stmt 1
	.loc 1 68 30 is_stmt 0
	sb	zero,0(a5)
	.loc 1 69 13 is_stmt 1
	.loc 1 69 31 is_stmt 0
	lui	a5,%hi(.LANCHOR3)
	sb	zero,%lo(.LANCHOR3)(a5)
	.loc 1 71 13 is_stmt 1
	.loc 1 71 16 is_stmt 0
	beq	a4,zero,.L12
	.loc 1 72 17 is_stmt 1
	.loc 1 72 21 is_stmt 0
	lui	a5,%hi(.LANCHOR5)
	lw	a5,%lo(.LANCHOR5)(a5)
	j	.L28
.L12:
	.loc 1 77 17 is_stmt 1
	.loc 1 77 21 is_stmt 0
	lui	a5,%hi(.LANCHOR6)
	lw	a5,%lo(.LANCHOR6)(a5)
	j	.L28
.LVL19:
.L23:
	.cfi_def_cfa_register 2
	.cfi_restore 1
	.cfi_restore 8
	ret
.LBE11:
.LBE20:
.LBE29:
	.cfi_endproc
.LFE29:
	.size	wifi_event_handler, .-wifi_event_handler
	.section	.rodata.wifi_if_init.str1.4,"aMS",@progbits,1
	.align	2
.LC6:
	.string	"[WIFI_IF] WiFi already initialized\r\n"
	.align	2
.LC7:
	.string	"[WIFI_IF] Initializing WiFi...\r\n"
	.section	.text.wifi_if_init,"ax",@progbits
	.align	1
	.globl	wifi_if_init
	.type	wifi_if_init, @function
wifi_if_init:
.LFB30:
	.loc 1 90 1 is_stmt 1
	.cfi_startproc
	.loc 1 91 5
	.loc 1 93 5
	.loc 1 90 1 is_stmt 0
	addi	sp,sp,-16
	.cfi_def_cfa_offset 16
	sw	s0,8(sp)
	sw	ra,12(sp)
	.cfi_offset 8, -8
	.cfi_offset 1, -4
	addi	s0,sp,16
	.cfi_def_cfa 8, 0
	.loc 1 93 9
	lui	a5,%hi(.LANCHOR7)
	.loc 1 90 1
	.loc 1 93 9
	addi	a5,a5,%lo(.LANCHOR7)
	.loc 1 93 8
	lbu	a4,0(a5)
	beq	a4,zero,.L31
	.loc 1 94 9 is_stmt 1
	lui	a0,%hi(.LC6)
	addi	a0,a0,%lo(.LC6)
	call	printf
.LVL20:
	.loc 1 95 9
.L32:
	.loc 1 110 1 is_stmt 0
	lw	ra,12(sp)
	.cfi_remember_state
	.cfi_restore 1
	lw	s0,8(sp)
	.cfi_restore 8
	.cfi_def_cfa 2, 16
	li	a0,0
	addi	sp,sp,16
	.cfi_def_cfa_offset 0
	jr	ra
.L31:
	.cfi_restore_state
	.loc 1 98 5 is_stmt 1
	.loc 1 99 5 is_stmt 0
	lui	a0,%hi(.LC7)
	.loc 1 98 20
	li	a4,1
	.loc 1 99 5
	addi	a0,a0,%lo(.LC7)
	.loc 1 98 20
	sb	a4,0(a5)
	.loc 1 99 5 is_stmt 1
	call	printf
.LVL21:
	.loc 1 101 5
	lui	a1,%hi(wifi_event_handler)
	li	a2,0
	addi	a1,a1,%lo(wifi_event_handler)
	li	a0,2
	call	aos_register_event_filter
.LVL22:
	.loc 1 104 5
	call	hal_wifi_start_firmware_task
.LVL23:
	.loc 1 107 5
	li	a2,0
	li	a1,1
	li	a0,2
	call	aos_post_event
.LVL24:
	.loc 1 109 5
	.loc 1 109 12 is_stmt 0
	j	.L32
	.cfi_endproc
.LFE30:
	.size	wifi_if_init, .-wifi_if_init
	.section	.rodata.wifi_if_connect.str1.4,"aMS",@progbits,1
	.align	2
.LC8:
	.string	"[WIFI_IF] WiFi already connecting\r\n"
	.align	2
.LC9:
	.string	"[WIFI_IF] WiFi MGMR not ready, cannot connect yet\r\n"
	.align	2
.LC10:
	.string	"[WIFI_IF] Connecting to WiFi: %s\r\n"
	.section	.text.wifi_if_connect,"ax",@progbits
	.align	1
	.globl	wifi_if_connect
	.type	wifi_if_connect, @function
wifi_if_connect:
.LFB31:
	.loc 1 113 1 is_stmt 1
	.cfi_startproc
.LVL25:
	.loc 1 114 5
	.loc 1 115 5
	.loc 1 113 1 is_stmt 0
	addi	sp,sp,-64
	.cfi_def_cfa_offset 64
	sw	s0,56(sp)
	sw	s1,52(sp)
	sw	s3,44(sp)
	.cfi_offset 8, -8
	.cfi_offset 9, -12
	.cfi_offset 19, -20
	addi	s0,sp,64
	.cfi_def_cfa 8, 0
	sw	ra,60(sp)
	sw	s2,48(sp)
	sw	s4,40(sp)
	.cfi_offset 1, -4
	.cfi_offset 18, -16
	.cfi_offset 20, -24
	.loc 1 113 1
	mv	s1,a0
	mv	s3,a1
	.loc 1 115 27
	li	a2,28
	li	a1,0
.LVL26:
	addi	a0,s0,-60
.LVL27:
	call	memset
.LVL28:
	.loc 1 117 5 is_stmt 1
	.loc 1 118 16 is_stmt 0
	li	a0,-1
	.loc 1 117 8
	beq	s1,zero,.L34
	.loc 1 117 21 discriminator 1
	beq	s3,zero,.L34
	.loc 1 121 5 is_stmt 1
	.loc 1 121 9 is_stmt 0
	lui	s2,%hi(.LANCHOR3)
	addi	s2,s2,%lo(.LANCHOR3)
	.loc 1 121 8
	lbu	a5,0(s2)
	beq	a5,zero,.L36
	.loc 1 122 9 is_stmt 1
	lui	a0,%hi(.LC8)
	addi	a0,a0,%lo(.LC8)
	call	printf
.LVL29:
	.loc 1 123 9
.L41:
	.loc 1 129 9
	.loc 1 129 16 is_stmt 0
	li	a0,-1
.L34:
	.loc 1 150 1
	lw	ra,60(sp)
	.cfi_remember_state
	.cfi_restore 1
	lw	s0,56(sp)
	.cfi_restore 8
	.cfi_def_cfa 2, 64
	lw	s1,52(sp)
	.cfi_restore 9
.LVL30:
	lw	s2,48(sp)
	.cfi_restore 18
	lw	s3,44(sp)
	.cfi_restore 19
.LVL31:
	lw	s4,40(sp)
	.cfi_restore 20
	addi	sp,sp,64
	.cfi_def_cfa_offset 0
	jr	ra
.LVL32:
.L36:
	.cfi_restore_state
	.loc 1 126 5 is_stmt 1
	.loc 1 126 8 is_stmt 0
	lui	a5,%hi(.LANCHOR1)
	lbu	a5,%lo(.LANCHOR1)(a5)
	bne	a5,zero,.L37
	.loc 1 127 9 is_stmt 1
	lui	a0,%hi(.LC9)
	addi	a0,a0,%lo(.LC9)
	call	printf
.LVL33:
	.loc 1 128 9
	.loc 1 128 27 is_stmt 0
	sb	zero,0(s2)
	j	.L41
.L37:
	.loc 1 132 5 is_stmt 1
	lui	a0,%hi(.LC10)
	mv	a1,s1
	addi	a0,a0,%lo(.LC10)
	call	printf
.LVL34:
	.loc 1 133 5
	.loc 1 133 23 is_stmt 0
	li	s4,1
	sb	s4,0(s2)
	.loc 1 136 5 is_stmt 1
	.loc 1 136 22 is_stmt 0
	call	wifi_mgmr_sta_enable
.LVL35:
	mv	s2,a0
.LVL36:
	.loc 1 139 5 is_stmt 1
	call	wifi_mgmr_sta_autoconnect_enable
.LVL37:
	.loc 1 142 5
	li	a2,28
	li	a1,0
	addi	a0,s0,-60
	call	memset
.LVL38:
	.loc 1 143 5
	.loc 1 145 36 is_stmt 0
	li	a5,5
	.loc 1 149 12
	addi	a3,s0,-60
	mv	a2,s3
	mv	a1,s1
	mv	a0,s2
	.loc 1 143 19
	sw	zero,-60(s0)
	.loc 1 144 5 is_stmt 1
	.loc 1 144 28 is_stmt 0
	sw	s4,-56(s0)
	.loc 1 145 5 is_stmt 1
	.loc 1 145 36 is_stmt 0
	sw	a5,-52(s0)
	.loc 1 146 5 is_stmt 1
	.loc 1 146 28 is_stmt 0
	sb	zero,-44(s0)
	.loc 1 147 5 is_stmt 1
	.loc 1 147 32 is_stmt 0
	sb	s4,-40(s0)
	.loc 1 149 5 is_stmt 1
	.loc 1 149 12 is_stmt 0
	call	wifi_mgmr_sta_connect_ext
.LVL39:
	j	.L34
	.cfi_endproc
.LFE31:
	.size	wifi_if_connect, .-wifi_if_connect
	.section	.text.wifi_if_disconnect,"ax",@progbits
	.align	1
	.globl	wifi_if_disconnect
	.type	wifi_if_disconnect, @function
wifi_if_disconnect:
.LFB32:
	.loc 1 153 1 is_stmt 1
	.cfi_startproc
	.loc 1 155 5
	.loc 1 153 1 is_stmt 0
	addi	sp,sp,-16
	.cfi_def_cfa_offset 16
	sw	ra,12(sp)
	sw	s0,8(sp)
	.cfi_offset 1, -4
	.cfi_offset 8, -8
	addi	s0,sp,16
	.cfi_def_cfa 8, 0
	.loc 1 155 5
	call	wifi_mgmr_sta_autoconnect_disable
.LVL40:
	.loc 1 156 5 is_stmt 1
	call	wifi_mgmr_sta_disconnect
.LVL41:
	.loc 1 159 5
	.loc 1 160 5
	call	wifi_mgmr_api_idle
.LVL42:
	.loc 1 162 5
	.loc 1 165 1 is_stmt 0
	lw	ra,12(sp)
	.cfi_restore 1
	lw	s0,8(sp)
	.cfi_restore 8
	.cfi_def_cfa 2, 16
	.loc 1 162 22
	lui	a5,%hi(.LANCHOR2)
	sb	zero,%lo(.LANCHOR2)(a5)
	.loc 1 163 5 is_stmt 1
	.loc 1 163 23 is_stmt 0
	lui	a5,%hi(.LANCHOR3)
	sb	zero,%lo(.LANCHOR3)(a5)
	.loc 1 164 5 is_stmt 1
	.loc 1 165 1 is_stmt 0
	li	a0,0
	addi	sp,sp,16
	.cfi_def_cfa_offset 0
	jr	ra
	.cfi_endproc
.LFE32:
	.size	wifi_if_disconnect, .-wifi_if_disconnect
	.section	.rodata.wifi_if_disable.str1.4,"aMS",@progbits,1
	.align	2
.LC11:
	.string	"[WIFI_IF] Completely disabling WiFi STA to release radio for BLE\r\n"
	.align	2
.LC12:
	.string	"[WIFI_IF] Disabling WiFi STA interface to release radio...\r\n"
	.align	2
.LC13:
	.string	"[WIFI_IF] Warning: Could not get WiFi interface, may already be disabled\r\n"
	.align	2
.LC14:
	.string	"[WIFI_IF] Waiting for WiFi stack to fully release radio...\r\n"
	.align	2
.LC15:
	.string	"[WIFI_IF] WiFi STA disabled and radio should be released\r\n"
	.section	.text.wifi_if_disable,"ax",@progbits
	.align	1
	.globl	wifi_if_disable
	.type	wifi_if_disable, @function
wifi_if_disable:
.LFB33:
	.loc 1 168 1 is_stmt 1
	.cfi_startproc
	.loc 1 169 5
	.loc 1 168 1 is_stmt 0
	addi	sp,sp,-32
	.cfi_def_cfa_offset 32
	sw	ra,28(sp)
	sw	s0,24(sp)
	sw	s1,20(sp)
	sw	s2,16(sp)
	.cfi_offset 1, -4
	.cfi_offset 8, -8
	.cfi_offset 9, -12
	.cfi_offset 18, -16
	addi	s0,sp,32
	.cfi_def_cfa 8, 0
	.loc 1 169 5
	lui	a0,%hi(.LC11)
	.loc 1 168 1
	.loc 1 169 5
	addi	a0,a0,%lo(.LC11)
	call	printf
.LVL43:
	.loc 1 172 5 is_stmt 1
	call	wifi_mgmr_sta_autoconnect_disable
.LVL44:
	.loc 1 175 5
	.loc 1 175 9 is_stmt 0
	lui	a5,%hi(.LANCHOR2)
	.loc 1 175 8
	lbu	a4,%lo(.LANCHOR2)(a5)
	lui	s1,%hi(.LANCHOR3)
	addi	s2,a5,%lo(.LANCHOR2)
	addi	s1,s1,%lo(.LANCHOR3)
	bne	a4,zero,.L45
	.loc 1 175 26 discriminator 1
	lbu	a5,0(s1)
	beq	a5,zero,.L46
.L45:
	.loc 1 176 9 is_stmt 1
	call	wifi_mgmr_sta_disconnect
.LVL45:
.L46:
	.loc 1 180 5
	.loc 1 181 5
	call	wifi_mgmr_api_idle
.LVL46:
	.loc 1 186 5
	.loc 1 187 5
	.loc 1 187 22 is_stmt 0
	call	wifi_mgmr_sta_enable
.LVL47:
	.loc 1 187 20
	sw	a0,-20(s0)
	.loc 1 188 5 is_stmt 1
	.loc 1 188 8 is_stmt 0
	beq	a0,zero,.L47
	.loc 1 189 9 is_stmt 1
	lui	a0,%hi(.LC12)
	addi	a0,a0,%lo(.LC12)
	call	printf
.LVL48:
	.loc 1 190 9
	addi	a0,s0,-20
	call	wifi_mgmr_sta_disable
.LVL49:
.L48:
	.loc 1 195 5
	.loc 1 199 5 is_stmt 0
	lui	a0,%hi(.LC14)
	addi	a0,a0,%lo(.LC14)
	.loc 1 195 22
	sb	zero,0(s2)
	.loc 1 196 5 is_stmt 1
	.loc 1 196 23 is_stmt 0
	sb	zero,0(s1)
	.loc 1 199 5 is_stmt 1
	call	printf
.LVL50:
	.loc 1 200 5
	li	a0,4096
	addi	a0,a0,-1096
	call	aos_msleep
.LVL51:
	.loc 1 202 5
	lui	a0,%hi(.LC15)
	addi	a0,a0,%lo(.LC15)
	call	printf
.LVL52:
	.loc 1 203 5
	.loc 1 204 1 is_stmt 0
	lw	ra,28(sp)
	.cfi_remember_state
	.cfi_restore 1
	lw	s0,24(sp)
	.cfi_restore 8
	.cfi_def_cfa 2, 32
	lw	s1,20(sp)
	.cfi_restore 9
	lw	s2,16(sp)
	.cfi_restore 18
	li	a0,0
	addi	sp,sp,32
	.cfi_def_cfa_offset 0
	jr	ra
.L47:
	.cfi_restore_state
	.loc 1 192 9 is_stmt 1
	lui	a0,%hi(.LC13)
	addi	a0,a0,%lo(.LC13)
	call	printf
.LVL53:
	j	.L48
	.cfi_endproc
.LFE33:
	.size	wifi_if_disable, .-wifi_if_disable
	.section	.rodata.wifi_if_enable.str1.4,"aMS",@progbits,1
	.align	2
.LC16:
	.string	"[WIFI_IF] Re-enabling WiFi STA interface...\r\n"
	.align	2
.LC17:
	.string	"[WIFI_IF] WiFi STA interface re-enabled\r\n"
	.align	2
.LC18:
	.string	"[WIFI_IF] Warning: Failed to re-enable WiFi STA interface\r\n"
	.section	.text.wifi_if_enable,"ax",@progbits
	.align	1
	.globl	wifi_if_enable
	.type	wifi_if_enable, @function
wifi_if_enable:
.LFB34:
	.loc 1 207 1
	.cfi_startproc
	.loc 1 208 5
	.loc 1 207 1 is_stmt 0
	addi	sp,sp,-16
	.cfi_def_cfa_offset 16
	sw	ra,12(sp)
	sw	s0,8(sp)
	.loc 1 208 5
	lui	a0,%hi(.LC16)
	.cfi_offset 1, -4
	.cfi_offset 8, -8
	.loc 1 207 1
	addi	s0,sp,16
	.cfi_def_cfa 8, 0
	.loc 1 208 5
	addi	a0,a0,%lo(.LC16)
	call	printf
.LVL54:
	.loc 1 211 5 is_stmt 1
	.loc 1 212 5
	.loc 1 212 22 is_stmt 0
	call	wifi_mgmr_sta_enable
.LVL55:
	.loc 1 214 5 is_stmt 1
	.loc 1 214 8 is_stmt 0
	beq	a0,zero,.L54
	.loc 1 215 9 is_stmt 1
	lui	a0,%hi(.LC17)
.LVL56:
	addi	a0,a0,%lo(.LC17)
.L57:
	.loc 1 217 9 is_stmt 0
	call	printf
.LVL57:
	.loc 1 220 5 is_stmt 1
	.loc 1 221 1 is_stmt 0
	lw	ra,12(sp)
	.cfi_remember_state
	.cfi_restore 1
	lw	s0,8(sp)
	.cfi_restore 8
	.cfi_def_cfa 2, 16
	li	a0,0
	addi	sp,sp,16
	.cfi_def_cfa_offset 0
	jr	ra
.LVL58:
.L54:
	.cfi_restore_state
	.loc 1 217 9 is_stmt 1
	lui	a0,%hi(.LC18)
.LVL59:
	addi	a0,a0,%lo(.LC18)
	j	.L57
	.cfi_endproc
.LFE34:
	.size	wifi_if_enable, .-wifi_if_enable
	.section	.text.wifi_if_is_connected,"ax",@progbits
	.align	1
	.globl	wifi_if_is_connected
	.type	wifi_if_is_connected, @function
wifi_if_is_connected:
.LFB35:
	.loc 1 224 1
	.cfi_startproc
	.loc 1 225 5
	.loc 1 224 1 is_stmt 0
	addi	sp,sp,-16
	.cfi_def_cfa_offset 16
	sw	s0,12(sp)
	.cfi_offset 8, -4
	addi	s0,sp,16
	.cfi_def_cfa 8, 0
	.loc 1 226 1
	lw	s0,12(sp)
	.cfi_restore 8
	.cfi_def_cfa 2, 16
	lui	a5,%hi(.LANCHOR2)
	lbu	a0,%lo(.LANCHOR2)(a5)
	addi	sp,sp,16
	.cfi_def_cfa_offset 0
	jr	ra
	.cfi_endproc
.LFE35:
	.size	wifi_if_is_connected, .-wifi_if_is_connected
	.section	.text.wifi_if_is_mgmr_ready,"ax",@progbits
	.align	1
	.globl	wifi_if_is_mgmr_ready
	.type	wifi_if_is_mgmr_ready, @function
wifi_if_is_mgmr_ready:
.LFB36:
	.loc 1 229 1 is_stmt 1
	.cfi_startproc
	.loc 1 230 5
	.loc 1 229 1 is_stmt 0
	addi	sp,sp,-16
	.cfi_def_cfa_offset 16
	sw	s0,12(sp)
	.cfi_offset 8, -4
	addi	s0,sp,16
	.cfi_def_cfa 8, 0
	.loc 1 231 1
	lw	s0,12(sp)
	.cfi_restore 8
	.cfi_def_cfa 2, 16
	lui	a5,%hi(.LANCHOR1)
	lbu	a0,%lo(.LANCHOR1)(a5)
	addi	sp,sp,16
	.cfi_def_cfa_offset 0
	jr	ra
	.cfi_endproc
.LFE36:
	.size	wifi_if_is_mgmr_ready, .-wifi_if_is_mgmr_ready
	.section	.text.wifi_if_set_connected_cb,"ax",@progbits
	.align	1
	.globl	wifi_if_set_connected_cb
	.type	wifi_if_set_connected_cb, @function
wifi_if_set_connected_cb:
.LFB37:
	.loc 1 234 1 is_stmt 1
	.cfi_startproc
.LVL60:
	.loc 1 235 5
	.loc 1 234 1 is_stmt 0
	addi	sp,sp,-16
	.cfi_def_cfa_offset 16
	sw	s0,12(sp)
	.cfi_offset 8, -4
	addi	s0,sp,16
	.cfi_def_cfa 8, 0
	.loc 1 236 1
	lw	s0,12(sp)
	.cfi_restore 8
	.cfi_def_cfa 2, 16
	.loc 1 235 20
	lui	a5,%hi(.LANCHOR4)
	sw	a0,%lo(.LANCHOR4)(a5)
	.loc 1 236 1
	addi	sp,sp,16
	.cfi_def_cfa_offset 0
	jr	ra
	.cfi_endproc
.LFE37:
	.size	wifi_if_set_connected_cb, .-wifi_if_set_connected_cb
	.section	.text.wifi_if_set_disconnected_cb,"ax",@progbits
	.align	1
	.globl	wifi_if_set_disconnected_cb
	.type	wifi_if_set_disconnected_cb, @function
wifi_if_set_disconnected_cb:
.LFB38:
	.loc 1 239 1 is_stmt 1
	.cfi_startproc
.LVL61:
	.loc 1 240 5
	.loc 1 239 1 is_stmt 0
	addi	sp,sp,-16
	.cfi_def_cfa_offset 16
	sw	s0,12(sp)
	.cfi_offset 8, -4
	addi	s0,sp,16
	.cfi_def_cfa 8, 0
	.loc 1 241 1
	lw	s0,12(sp)
	.cfi_restore 8
	.cfi_def_cfa 2, 16
	.loc 1 240 23
	lui	a5,%hi(.LANCHOR5)
	sw	a0,%lo(.LANCHOR5)(a5)
	.loc 1 241 1
	addi	sp,sp,16
	.cfi_def_cfa_offset 0
	jr	ra
	.cfi_endproc
.LFE38:
	.size	wifi_if_set_disconnected_cb, .-wifi_if_set_disconnected_cb
	.section	.text.wifi_if_set_connect_failed_cb,"ax",@progbits
	.align	1
	.globl	wifi_if_set_connect_failed_cb
	.type	wifi_if_set_connect_failed_cb, @function
wifi_if_set_connect_failed_cb:
.LFB39:
	.loc 1 244 1 is_stmt 1
	.cfi_startproc
.LVL62:
	.loc 1 245 5
	.loc 1 244 1 is_stmt 0
	addi	sp,sp,-16
	.cfi_def_cfa_offset 16
	sw	s0,12(sp)
	.cfi_offset 8, -4
	addi	s0,sp,16
	.cfi_def_cfa 8, 0
	.loc 1 246 1
	lw	s0,12(sp)
	.cfi_restore 8
	.cfi_def_cfa 2, 16
	.loc 1 245 25
	lui	a5,%hi(.LANCHOR6)
	sw	a0,%lo(.LANCHOR6)(a5)
	.loc 1 246 1
	addi	sp,sp,16
	.cfi_def_cfa_offset 0
	jr	ra
	.cfi_endproc
.LFE39:
	.size	wifi_if_set_connect_failed_cb, .-wifi_if_set_connect_failed_cb
	.section	.sbss.s_connect_failed_cb,"aw",@nobits
	.align	2
	.set	.LANCHOR6,. + 0
	.type	s_connect_failed_cb, @object
	.size	s_connect_failed_cb, 4
s_connect_failed_cb:
	.zero	4
	.section	.sbss.s_connected_cb,"aw",@nobits
	.align	2
	.set	.LANCHOR4,. + 0
	.type	s_connected_cb, @object
	.size	s_connected_cb, 4
s_connected_cb:
	.zero	4
	.section	.sbss.s_disconnected_cb,"aw",@nobits
	.align	2
	.set	.LANCHOR5,. + 0
	.type	s_disconnected_cb, @object
	.size	s_disconnected_cb, 4
s_disconnected_cb:
	.zero	4
	.section	.sbss.s_wifi_connected,"aw",@nobits
	.set	.LANCHOR2,. + 0
	.type	s_wifi_connected, @object
	.size	s_wifi_connected, 1
s_wifi_connected:
	.zero	1
	.section	.sbss.s_wifi_connecting,"aw",@nobits
	.set	.LANCHOR3,. + 0
	.type	s_wifi_connecting, @object
	.size	s_wifi_connecting, 1
s_wifi_connecting:
	.zero	1
	.section	.sbss.s_wifi_mgmr_ready,"aw",@nobits
	.set	.LANCHOR1,. + 0
	.type	s_wifi_mgmr_ready, @object
	.size	s_wifi_mgmr_ready, 1
s_wifi_mgmr_ready:
	.zero	1
	.section	.sbss.wifi_init_done.0,"aw",@nobits
	.set	.LANCHOR7,. + 0
	.type	wifi_init_done.0, @object
	.size	wifi_init_done.0, 1
wifi_init_done.0:
	.zero	1
	.section	.sdata.s_wifi_conf,"aw"
	.align	2
	.set	.LANCHOR0,. + 0
	.type	s_wifi_conf, @object
	.size	s_wifi_conf, 8
s_wifi_conf:
	.string	"VN"
	.zero	1
	.word	0
	.text
.Letext0:
	.file 2 "/home/quanghaictu/intern/Ai-Thinker-WB2/datic/components/middle/wifi_if/wifi_if.h"
	.file 3 "/home/quanghaictu/intern/Ai-Thinker-WB2/toolchain/riscv/Linux/riscv64-unknown-elf/include/machine/_default_types.h"
	.file 4 "/home/quanghaictu/intern/Ai-Thinker-WB2/toolchain/riscv/Linux/riscv64-unknown-elf/include/sys/_stdint.h"
	.file 5 "/home/quanghaictu/intern/Ai-Thinker-WB2/components/stage/yloop/include/aos/yloop.h"
	.file 6 "/home/quanghaictu/intern/Ai-Thinker-WB2/components/network/lwip/src/include/lwip/netif.h"
	.file 7 "/home/quanghaictu/intern/Ai-Thinker-WB2/components/platform/hosal/bl602_hal/bl_pm.h"
	.file 8 "/home/quanghaictu/intern/Ai-Thinker-WB2/components/network/wifi/include/bl60x_fw_api.h"
	.file 9 "/home/quanghaictu/intern/Ai-Thinker-WB2/components/network/wifi_manager/bl60x_wifi_driver/include/wifi_mgmr_ext.h"
	.file 10 "/home/quanghaictu/intern/Ai-Thinker-WB2/toolchain/riscv/Linux/riscv64-unknown-elf/include/stdio.h"
	.file 11 "/home/quanghaictu/intern/Ai-Thinker-WB2/components/stage/yloop/include/aos/kernel.h"
	.file 12 "/home/quanghaictu/intern/Ai-Thinker-WB2/toolchain/riscv/Linux/riscv64-unknown-elf/include/string.h"
	.file 13 "/home/quanghaictu/intern/Ai-Thinker-WB2/components/platform/hosal/bl602_hal/hal_wifi.h"
	.file 14 "/home/quanghaictu/intern/Ai-Thinker-WB2/components/network/lwip/src/include/lwip/memp.h"
	.file 15 "<built-in>"