	.file	"app.c"
	.option nopic
	.attribute arch, "rv32i2p0_m2p0_f2p0_c2p0"
	.attribute unaligned_access, 0
	.attribute stack_align, 16
	.text
.Ltext0:
	.cfi_sections	.debug_frame
	.section	.rodata.app_task.str1.4,"aMS",@progbits,1
	.align	2
.LC0:
	.string	"[APP_TASK] Started\r\n"
	.section	.text.app_task,"ax",@progbits
	.align	1
	.type	app_task, @function
app_task:
.LFB3:
	.file 1 "/home/quanghaictu/intern/Ai-Thinker-WB2/datic/components/app/app_api/app.c"
	.loc 1 17 42
	.cfi_startproc
.LVL0:
	.loc 1 18 5
	.loc 1 17 42 is_stmt 0
	addi	sp,sp,-32
	.cfi_def_cfa_offset 32
	sw	ra,28(sp)
	sw	s0,24(sp)
	sw	s1,20(sp)
	.cfi_offset 1, -4
	.cfi_offset 8, -8
	.cfi_offset 9, -12
	addi	s0,sp,32
	.cfi_def_cfa 8, 0
	sw	s2,16(sp)
	.loc 1 18 5
	lui	a0,%hi(.LC0)
.LVL1:
	.loc 1 17 42
	.cfi_offset 18, -16
	.loc 1 18 5
	addi	a0,a0,%lo(.LC0)
	call	printf
.LVL2:
	.loc 1 20 5 is_stmt 1
	call	app_state_init
.LVL3:
	.loc 1 24 5
	call	OnStateInit
.LVL4:
	.loc 1 26 5
	.loc 1 27 5
	.loc 1 27 33 is_stmt 0
	call	xTaskGetTickCount
.LVL5:
	.loc 1 27 16
	sw	a0,-20(s0)
	.loc 1 28 5 is_stmt 1
.LVL6:
	.loc 1 32 13 is_stmt 0
	lui	s1,%hi(.LANCHOR0)
	.loc 1 32 12
	li	s2,1
.L3:
	.loc 1 30 5 is_stmt 1
	.loc 1 32 9
	.loc 1 32 13 is_stmt 0
	lw	a0,%lo(.LANCHOR0)(s1)
	li	a2,0
	addi	a1,s0,-24
	call	xQueueReceive
.LVL7:
	.loc 1 32 12
	bne	a0,s2,.L2
	.loc 1 33 13 is_stmt 1
	lw	a0,-24(s0)
	call	app_state_process_event
.LVL8:
.L2:
	.loc 1 37 9
	call	app_state_update
.LVL9:
	.loc 1 40 9
	li	a1,100
	addi	a0,s0,-20
	call	vTaskDelayUntil
.LVL10:
	.loc 1 30 11
	.loc 1 32 12 is_stmt 0
	j	.L3
	.cfi_endproc
.LFE3:
	.size	app_task, .-app_task
	.section	.rodata.app_init.str1.4,"aMS",@progbits,1
	.align	2
.LC1:
	.string	"[APP] Initializing...\r\n"
	.align	2
.LC2:
	.string	"[APP] ERROR: Failed to create event queue!\r\n"
	.align	2
.LC3:
	.string	"[APP] Initialized\r\n"
	.section	.text.app_init,"ax",@progbits
	.align	1
	.globl	app_init
	.type	app_init, @function
app_init:
.LFB4:
	.loc 1 45 21 is_stmt 1
	.cfi_startproc
	.loc 1 46 5
	.loc 1 45 21 is_stmt 0
	addi	sp,sp,-16
	.cfi_def_cfa_offset 16
	sw	ra,12(sp)
	sw	s0,8(sp)
	.loc 1 46 5
	lui	a0,%hi(.LC1)
	.cfi_offset 1, -4
	.cfi_offset 8, -8
	.loc 1 45 21
	addi	s0,sp,16
	.cfi_def_cfa 8, 0
	.loc 1 46 5
	addi	a0,a0,%lo(.LC1)
	call	printf
.LVL11:
	.loc 1 49 5 is_stmt 1
	.loc 1 49 23 is_stmt 0
	li	a2,0
	li	a1,4
	li	a0,10
	call	xQueueGenericCreate
.LVL12:
	.loc 1 49 21
	lui	a5,%hi(.LANCHOR0)
	sw	a0,%lo(.LANCHOR0)(a5)
	.loc 1 50 5 is_stmt 1
	.loc 1 50 8 is_stmt 0
	bne	a0,zero,.L6
	.loc 1 51 9 is_stmt 1
	lui	a0,%hi(.LC2)
	addi	a0,a0,%lo(.LC2)
.L8:
	.loc 1 56 1 is_stmt 0
	lw	s0,8(sp)
	.cfi_remember_state
	.cfi_restore 8
	.cfi_def_cfa 2, 16
	lw	ra,12(sp)
	.cfi_restore 1
	addi	sp,sp,16
	.cfi_def_cfa_offset 0
	.loc 1 55 5
	tail	printf
.LVL13:
.L6:
	.cfi_restore_state
	.loc 1 55 5 is_stmt 1
	lui	a0,%hi(.LC3)
	addi	a0,a0,%lo(.LC3)
	j	.L8
	.cfi_endproc
.LFE4:
	.size	app_init, .-app_init
	.section	.rodata.app_run.str1.4,"aMS",@progbits,1
	.align	2
.LC4:
	.string	"[APP] Starting app_run()...\r\n"
	.align	2
.LC5:
	.string	"app_task"
	.align	2
.LC6:
	.string	"[APP] ERROR: Failed to create app_task!\r\n"
	.align	2
.LC7:
	.string	"[APP] app_task created successfully\r\n"
	.section	.text.app_run,"ax",@progbits
	.align	1
	.globl	app_run
	.type	app_run, @function
app_run:
.LFB5:
	.loc 1 58 20
	.cfi_startproc
	.loc 1 59 5
	.loc 1 58 20 is_stmt 0
	addi	sp,sp,-16
	.cfi_def_cfa_offset 16
	sw	ra,12(sp)
	sw	s0,8(sp)
	sw	s1,4(sp)
	.cfi_offset 1, -4
	.cfi_offset 8, -8
	.cfi_offset 9, -12
	addi	s0,sp,16
	.cfi_def_cfa 8, 0
	.loc 1 59 5
	lui	a0,%hi(.LC4)
	.loc 1 58 20
	.loc 1 59 5
	addi	a0,a0,%lo(.LC4)
	call	printf
.LVL14:
	.loc 1 62 5 is_stmt 1
	lui	a5,%hi(.LANCHOR1)
	lui	a1,%hi(.LC5)
	lui	a0,%hi(app_task)
	addi	s1,a5,%lo(.LANCHOR1)
	li	a4,3
	addi	a5,a5,%lo(.LANCHOR1)
	li	a3,0
	li	a2,4096
	addi	a1,a1,%lo(.LC5)
	addi	a0,a0,%lo(app_task)
	call	xTaskCreate
.LVL15:
	.loc 1 71 5
	.loc 1 71 8 is_stmt 0
	lw	a5,0(s1)
	bne	a5,zero,.L10
	.loc 1 72 9 is_stmt 1
	lui	a0,%hi(.LC6)
	addi	a0,a0,%lo(.LC6)
.L12:
	.loc 1 77 1 is_stmt 0
	lw	s0,8(sp)
	.cfi_remember_state
	.cfi_restore 8
	.cfi_def_cfa 2, 16
	lw	ra,12(sp)
	.cfi_restore 1
	lw	s1,4(sp)
	.cfi_restore 9
	addi	sp,sp,16
	.cfi_def_cfa_offset 0
	.loc 1 76 5
	tail	printf
.LVL16:
.L10:
	.cfi_restore_state
	.loc 1 76 5 is_stmt 1
	lui	a0,%hi(.LC7)
	addi	a0,a0,%lo(.LC7)
	j	.L12
	.cfi_endproc
.LFE5:
	.size	app_run, .-app_run
	.section	.rodata.app_send_event.str1.4,"aMS",@progbits,1
	.align	2
.LC8:
	.string	"[APP] ERROR: Event queue not initialized!\r\n"
	.align	2
.LC9:
	.string	"[APP] WARNING: Event queue full, dropping event %s\r\n"
	.section	.text.app_send_event,"ax",@progbits
	.align	1
	.globl	app_send_event
	.type	app_send_event, @function
app_send_event:
.LFB6:
	.loc 1 79 38
	.cfi_startproc
.LVL17:
	.loc 1 80 5
	.loc 1 79 38 is_stmt 0
	addi	sp,sp,-32
	.cfi_def_cfa_offset 32
	sw	s0,24(sp)
	sw	ra,28(sp)
	.cfi_offset 8, -8
	.cfi_offset 1, -4
	addi	s0,sp,32
	.cfi_def_cfa 8, 0
	.loc 1 80 25
	lui	a5,%hi(.LANCHOR0)
	.loc 1 79 38
	sw	a0,-20(s0)
	.loc 1 80 25
	lw	a0,%lo(.LANCHOR0)(a5)
.LVL18:
	.loc 1 80 8
	bne	a0,zero,.L14
	.loc 1 81 9 is_stmt 1
	lui	a0,%hi(.LC8)
	addi	a0,a0,%lo(.LC8)
	call	printf
.LVL19:
	.loc 1 82 9
.L18:
	.loc 1 88 9
	.loc 1 88 15 is_stmt 0
	li	a5,0
.L15:
	.loc 1 92 1
	lw	ra,28(sp)
	.cfi_remember_state
	.cfi_restore 1
	lw	s0,24(sp)
	.cfi_restore 8
	.cfi_def_cfa 2, 32
	mv	a0,a5
	addi	sp,sp,32
	.cfi_def_cfa_offset 0
	jr	ra
.LVL20:
.L14:
	.cfi_restore_state
	.loc 1 85 5 is_stmt 1
	.loc 1 85 9 is_stmt 0
	li	a3,0
	li	a2,0
	addi	a1,s0,-20
.LVL21:
	call	xQueueGenericSend
.LVL22:
	.loc 1 91 11
	li	a5,1
	.loc 1 85 8
	beq	a0,a5,.L15
	.loc 1 86 9 is_stmt 1
	lw	a0,-20(s0)
	call	Event_GetName
.LVL23:
	mv	a1,a0
	lui	a0,%hi(.LC9)
	addi	a0,a0,%lo(.LC9)
	call	printf
.LVL24:
	j	.L18
	.cfi_endproc
.LFE6:
	.size	app_send_event, .-app_send_event
	.section	.text.app_GetCurrentState,"ax",@progbits
	.align	1
	.globl	app_GetCurrentState
	.type	app_GetCurrentState, @function
app_GetCurrentState:
.LFB7:
	.loc 1 94 38
	.cfi_startproc
	.loc 1 95 5
	.loc 1 94 38 is_stmt 0
	addi	sp,sp,-16
	.cfi_def_cfa_offset 16
	sw	s0,12(sp)
	.cfi_offset 8, -4
	addi	s0,sp,16
	.cfi_def_cfa 8, 0
	.loc 1 96 1
	lw	s0,12(sp)
	.cfi_restore 8
	.cfi_def_cfa 2, 16
	addi	sp,sp,16
	.cfi_def_cfa_offset 0
	.loc 1 95 12
	tail	app_state_get_current
.LVL25:
	.cfi_endproc
.LFE7:
	.size	app_GetCurrentState, .-app_GetCurrentState
	.section	.sbss.app_event_queue,"aw",@nobits
	.align	2
	.set	.LANCHOR0,. + 0
	.type	app_event_queue, @object
	.size	app_event_queue, 4
app_event_queue:
	.zero	4
	.section	.sbss.app_task_handle,"aw",@nobits
	.align	2
	.set	.LANCHOR1,. + 0
	.type	app_task_handle, @object
	.size	app_task_handle, 4
app_task_handle:
	.zero	4
	.text
.Letext0:
	.file 2 "/home/quanghaictu/intern/Ai-Thinker-WB2/datic/components/app/app_event/app_event.h"
	.file 3 "/home/quanghaictu/intern/Ai-Thinker-WB2/toolchain/riscv/Linux/lib/gcc/riscv64-unknown-elf/10.2.0/include/stdint-gcc.h"
	.file 4 "/home/quanghaictu/intern/Ai-Thinker-WB2/datic/components/app/app_state/app_state.h"
	.file 5 "/home/quanghaictu/intern/Ai-Thinker-WB2/components/platform/soc/bl602/freertos_riscv_ram/portable/GCC/RISC-V/portmacro.h"
	.file 6 "/home/quanghaictu/intern/Ai-Thinker-WB2/components/platform/soc/bl602/freertos_riscv_ram/config/task.h"
	.file 7 "/home/quanghaictu/intern/Ai-Thinker-WB2/components/platform/soc/bl602/freertos_riscv_ram/config/queue.h"
	.file 8 "/home/quanghaictu/intern/Ai-Thinker-WB2/toolchain/riscv/Linux/riscv64-unknown-elf/include/stdio.h"