	.file	"ctr_drbg.c"
	.option nopic
	.attribute arch, "rv32i2p0_m2p0_f2p0_c2p0"
	.attribute unaligned_access, 0
	.attribute stack_align, 16
	.text
.Ltext0:
	.cfi_sections	.debug_frame
	.section	.text.block_cipher_df,"ax",@progbits
	.align	1
	.type	block_cipher_df, @function
block_cipher_df:
.LFB11:
	.file 1 "/home/dinhquangha/Ai-Thinker-WB2/components/security/mbedtls_lts/mbedtls/library/ctr_drbg.c"
	.loc 1 127 1
	.cfi_startproc
.LVL0:
	.loc 1 128 5
	.loc 1 130 5
	.loc 1 131 5
	.loc 1 132 5
	.loc 1 133 5
	.loc 1 134 5
	.loc 1 135 5
	.loc 1 137 5
	.loc 1 138 5
	.loc 1 140 5
	.loc 1 127 1 is_stmt 0
	addi	sp,sp,-624
	.cfi_def_cfa_offset 624
	sw	s0,616(sp)
	sw	s1,612(sp)
	sw	ra,620(sp)
	sw	s2,608(sp)
	sw	s3,604(sp)
	sw	s4,600(sp)
	sw	s5,596(sp)
	sw	s6,592(sp)
	sw	s7,588(sp)
	sw	s8,584(sp)
	.cfi_offset 8, -8
	.cfi_offset 9, -12
	.cfi_offset 1, -4
	.cfi_offset 18, -16
	.cfi_offset 19, -20
	.cfi_offset 20, -24
	.cfi_offset 21, -28
	.cfi_offset 22, -32
	.cfi_offset 23, -36
	.cfi_offset 24, -40
	addi	s0,sp,624
	.cfi_def_cfa 8, 0
	.loc 1 140 7
	li	a5,384
	.loc 1 141 15
	li	s1,-56
	.loc 1 140 7
	bgtu	a2,a5,.L1
	mv	s2,a2
	.loc 1 143 5 is_stmt 1
	mv	s1,a1
	li	a2,416
.LVL1:
	li	a1,0
.LVL2:
	mv	s3,a0
	addi	a0,s0,-464
.LVL3:
	call	memset
.LVL4:
	.loc 1 145 5
	addi	a0,s0,-524
	call	mbedtls_aes_init
.LVL5:
	.loc 1 154 5
	.loc 1 155 7
	.loc 1 155 72
	.loc 1 155 157 is_stmt 0
	slli	a4,s2,16
	srli	a4,a4,16
	srli	a4,a4,8
	slli	a5,s2,8
	or	a5,a5,a4
	sh	a5,-446(s0)
	.loc 1 158 5
	mv	a2,s2
	.loc 1 157 10
	li	a5,48
	.loc 1 158 5
	mv	a1,s1
	addi	a0,s0,-440
	.loc 1 157 10
	sb	a5,-441(s0)
	.loc 1 155 21
	sh	zero,-448(s0)
	.loc 1 155 140 is_stmt 1
	.loc 1 155 207
	.loc 1 155 266
	.loc 1 156 5
.LVL6:
	.loc 1 157 5
	.loc 1 158 5
	call	memcpy
.LVL7:
	.loc 1 159 5
	.loc 1 159 17 is_stmt 0
	addi	a5,s0,-48
	li	a4,-128
	add	a5,a5,s2
	sb	a4,-392(a5)
	.loc 1 161 5 is_stmt 1
.LVL8:
	.loc 1 163 5
	.loc 1 163 17
	.loc 1 163 12 is_stmt 0
	li	a5,0
	.loc 1 163 5
	li	a4,32
.LVL9:
.L3:
	.loc 1 164 9 is_stmt 1 discriminator 3
	.loc 1 164 16 is_stmt 0 discriminator 3
	addi	a3,s0,-604
	add	a3,a3,a5
	sb	a5,0(a3)
	.loc 1 163 25 is_stmt 1 discriminator 3
	.loc 1 163 26 is_stmt 0 discriminator 3
	addi	a5,a5,1
.LVL10:
	.loc 1 163 17 is_stmt 1 discriminator 3
	.loc 1 163 5 is_stmt 0 discriminator 3
	bne	a5,a4,.L3
	.loc 1 166 5 is_stmt 1
	.loc 1 166 17 is_stmt 0
	li	a2,256
	addi	a1,s0,-604
	addi	a0,s0,-524
	call	mbedtls_aes_setkey_enc
.LVL11:
	mv	s1,a0
.LVL12:
	.loc 1 166 7
	bne	a0,zero,.L4
	.loc 1 161 13
	addi	s2,s2,25
.LVL13:
	.loc 1 175 12
	li	s5,0
	.loc 1 178 9
	li	s6,16
	.loc 1 175 5
	li	s7,48
.LVL14:
.L9:
	.loc 1 177 9 is_stmt 1
	.loc 1 178 9
	li	a2,16
	li	a1,0
	addi	a0,s0,-620
	call	memset
.LVL15:
	.loc 1 179 9
	.loc 1 181 9
	.loc 1 181 14
	.loc 1 179 17 is_stmt 0
	mv	s4,s2
	.loc 1 177 11
	addi	s8,s0,-464
.LVL16:
.L5:
	.loc 1 183 25 is_stmt 1
	addi	a4,s0,-620
	.loc 1 183 20 is_stmt 0
	li	a5,0
.LVL17:
.L6:
	.loc 1 184 17 is_stmt 1 discriminator 3
	.loc 1 184 30 is_stmt 0 discriminator 3
	add	a3,s8,a5
	.loc 1 184 26 discriminator 3
	lbu	a2,0(a4)
	lbu	a3,0(a3)
	.loc 1 183 34 discriminator 3
	addi	a5,a5,1
.LVL18:
	.loc 1 183 13 discriminator 3
	addi	a4,a4,1
	.loc 1 184 26 discriminator 3
	xor	a3,a3,a2
	sb	a3,-1(a4)
	.loc 1 183 33 is_stmt 1 discriminator 3
.LVL19:
	.loc 1 183 25 discriminator 3
	.loc 1 183 13 is_stmt 0 discriminator 3
	bne	a5,s6,.L6
	.loc 1 185 13 is_stmt 1
	.loc 1 185 15 is_stmt 0
	addi	s8,s8,16
.LVL20:
	.loc 1 186 13 is_stmt 1
	.loc 1 187 27 is_stmt 0
	mv	a5,s4
.LVL21:
	bleu	s4,s6,.L7
.LVL22:
	li	a5,16
.LVL23:
.L7:
	.loc 1 189 25
	addi	a3,s0,-620
	mv	a2,a3
	li	a1,1
	addi	a0,s0,-524
	.loc 1 186 21
	sub	s4,s4,a5
.LVL24:
	.loc 1 189 13 is_stmt 1
	.loc 1 189 25 is_stmt 0
	call	mbedtls_aes_crypt_ecb
.LVL25:
	mv	s1,a0
.LVL26:
	.loc 1 189 15
	bne	a0,zero,.L4
	.loc 1 181 14 is_stmt 1
	bne	s4,zero,.L5
	.loc 1 196 9 discriminator 2
	addi	a5,s0,-572
	add	a0,a5,s5
	li	a2,16
	addi	a1,s0,-620
	call	memcpy
.LVL27:
	.loc 1 201 9 discriminator 2
	.loc 1 201 15 is_stmt 0 discriminator 2
	lbu	a5,-461(s0)
	.loc 1 175 36 discriminator 2
	addi	s5,s5,16
.LVL28:
	.loc 1 201 15 discriminator 2
	addi	a5,a5,1
	sb	a5,-461(s0)
	.loc 1 175 34 is_stmt 1 discriminator 2
.LVL29:
	.loc 1 175 17 discriminator 2
	.loc 1 175 5 is_stmt 0 discriminator 2
	bne	s5,s7,.L9
	.loc 1 207 5 is_stmt 1
	.loc 1 207 17 is_stmt 0
	li	a2,256
	addi	a1,s0,-572
	addi	a0,s0,-524
	call	mbedtls_aes_setkey_enc
.LVL30:
	mv	s1,a0
.LVL31:
	.loc 1 207 7
	bne	a0,zero,.L4
	addi	s4,s3,48
.LVL32:
	.loc 1 213 7
	mv	s2,s3
.LVL33:
.L10:
	.loc 1 217 9 is_stmt 1
	.loc 1 217 21 is_stmt 0
	addi	a3,s0,-540
	mv	a2,a3
	li	a1,1
	addi	a0,s0,-524
	call	mbedtls_aes_crypt_ecb
.LVL34:
	mv	s1,a0
.LVL35:
	.loc 1 217 11
	bne	a0,zero,.L4
	.loc 1 222 9 is_stmt 1 discriminator 2
	mv	a0,s2
	li	a2,16
	addi	a1,s0,-540
	.loc 1 223 11 is_stmt 0 discriminator 2
	addi	s2,s2,16
.LVL36:
	.loc 1 222 9 discriminator 2
	call	memcpy
.LVL37:
	.loc 1 223 9 is_stmt 1 discriminator 2
	.loc 1 215 34 discriminator 2
	.loc 1 215 17 discriminator 2
	.loc 1 215 5 is_stmt 0 discriminator 2
	bne	s4,s2,.L10
.LVL38:
.L4:
	.loc 1 226 5 is_stmt 1
	addi	a0,s0,-524
	call	mbedtls_aes_free
.LVL39:
	.loc 1 230 5
	li	a1,416
	addi	a0,s0,-464
	call	mbedtls_platform_zeroize
.LVL40:
	.loc 1 231 5
	li	a1,48
	addi	a0,s0,-572
	call	mbedtls_platform_zeroize
.LVL41:
	.loc 1 232 5
	li	a1,32
	addi	a0,s0,-604
	call	mbedtls_platform_zeroize
.LVL42:
	.loc 1 233 5
	li	a1,16
	addi	a0,s0,-620
	call	mbedtls_platform_zeroize
.LVL43:
	.loc 1 234 5
	.loc 1 234 7 is_stmt 0
	beq	s1,zero,.L1
	.loc 1 239 9 is_stmt 1
	li	a1,48
	mv	a0,s3
	call	mbedtls_platform_zeroize
.LVL44:
.L1:
	.loc 1 243 1 is_stmt 0
	lw	ra,620(sp)
	.cfi_restore 1
	lw	s0,616(sp)
	.cfi_restore 8
	.cfi_def_cfa 2, 624
	lw	s2,608(sp)
	.cfi_restore 18
	lw	s3,604(sp)
	.cfi_restore 19
	lw	s4,600(sp)
	.cfi_restore 20
	lw	s5,596(sp)
	.cfi_restore 21
	lw	s6,592(sp)
	.cfi_restore 22
	lw	s7,588(sp)
	.cfi_restore 23
	lw	s8,584(sp)
	.cfi_restore 24
	mv	a0,s1
	lw	s1,612(sp)
	.cfi_restore 9
	addi	sp,sp,624
	.cfi_def_cfa_offset 0
	jr	ra
	.cfi_endproc
.LFE11:
	.size	block_cipher_df, .-block_cipher_df
	.section	.text.ctr_drbg_update_internal,"ax",@progbits
	.align	1
	.type	ctr_drbg_update_internal, @function
ctr_drbg_update_internal:
.LFB12:
	.loc 1 255 1 is_stmt 1
	.cfi_startproc
.LVL45:
	.loc 1 256 5
	.loc 1 257 5
	.loc 1 255 1 is_stmt 0
	addi	sp,sp,-96
	.cfi_def_cfa_offset 96
	sw	s0,88(sp)
	sw	s2,80(sp)
	sw	s4,72(sp)
	sw	s5,68(sp)
	sw	s6,64(sp)
	sw	s7,60(sp)
	sw	s8,56(sp)
	.cfi_offset 8, -8
	.cfi_offset 18, -16
	.cfi_offset 20, -24
	.cfi_offset 21, -28
	.cfi_offset 22, -32
	.cfi_offset 23, -36
	.cfi_offset 24, -40
	addi	s0,sp,96
	.cfi_def_cfa 8, 0
.LVL46:
	.loc 1 258 5 is_stmt 1
	.loc 1 259 5
	.loc 1 261 5
	.loc 1 255 1 is_stmt 0
	sw	ra,92(sp)
	sw	s1,84(sp)
	sw	s3,76(sp)
	mv	s2,a0
	.cfi_offset 1, -4
	.cfi_offset 9, -12
	.cfi_offset 19, -20
	.loc 1 255 1
	mv	s5,a1
	.loc 1 261 5
	li	a2,48
	li	a1,0
.LVL47:
	addi	a0,s0,-96
.LVL48:
	call	memset
.LVL49:
	.loc 1 263 5 is_stmt 1
	.loc 1 263 17
	.loc 1 263 12 is_stmt 0
	li	s4,0
	addi	s7,s2,15
	.loc 1 275 21
	addi	s6,s2,32
	.loc 1 263 5
	li	s8,48
.LVL50:
.L22:
	addi	s3,s0,-96
	add	a3,s3,s4
.LVL51:
	.loc 1 268 22 is_stmt 1
	mv	a4,s7
	j	.L24
.LVL52:
.L27:
	mv	a4,a5
.LVL53:
.L24:
	.loc 1 269 13
	.loc 1 269 17 is_stmt 0
	lbu	a5,0(a4)
	addi	a5,a5,1
	andi	a5,a5,0xff
	.loc 1 269 15
	sb	a5,0(a4)
	bne	a5,zero,.L23
.LVL54:
	.loc 1 268 22 is_stmt 1 discriminator 1
	.loc 1 268 9 is_stmt 0 discriminator 1
	addi	a5,a4,-1
	bne	s2,a4,.L27
.LVL55:
.L23:
	.loc 1 275 9 is_stmt 1
	.loc 1 275 21 is_stmt 0
	mv	a2,s2
	li	a1,1
	mv	a0,s6
	call	mbedtls_aes_crypt_ecb
.LVL56:
	mv	s1,a0
.LVL57:
	.loc 1 275 11
	bne	a0,zero,.L25
	.loc 1 281 9 is_stmt 1 discriminator 2
.LVL58:
	.loc 1 263 34 discriminator 2
	.loc 1 263 36 is_stmt 0 discriminator 2
	addi	s4,s4,16
.LVL59:
	.loc 1 263 17 is_stmt 1 discriminator 2
	.loc 1 263 5 is_stmt 0 discriminator 2
	bne	s4,s8,.L22
	.loc 1 284 5
	li	a4,48
.LVL60:
.L26:
	.loc 1 285 9 is_stmt 1 discriminator 3
	.loc 1 285 23 is_stmt 0 discriminator 3
	add	a5,s5,s1
	.loc 1 285 16 discriminator 3
	lbu	a3,0(s3)
	lbu	a5,0(a5)
	.loc 1 284 35 discriminator 3
	addi	s1,s1,1
.LVL61:
	.loc 1 284 5 discriminator 3
	addi	s3,s3,1
	.loc 1 285 16 discriminator 3
	xor	a5,a5,a3
	sb	a5,-1(s3)
	.loc 1 284 34 is_stmt 1 discriminator 3
.LVL62:
	.loc 1 284 17 discriminator 3
	.loc 1 284 5 is_stmt 0 discriminator 3
	bne	s1,a4,.L26
	.loc 1 290 5 is_stmt 1
	.loc 1 290 17 is_stmt 0
	li	a2,256
	addi	a1,s0,-96
	mv	a0,s6
.LVL63:
	call	mbedtls_aes_setkey_enc
.LVL64:
	mv	s1,a0
.LVL65:
	.loc 1 290 7
	bne	a0,zero,.L25
	.loc 1 295 5 is_stmt 1
	li	a2,16
	addi	a1,s0,-64
	mv	a0,s2
	call	memcpy
.LVL66:
.L25:
	.loc 1 299 5
	addi	a0,s0,-96
	li	a1,48
	call	mbedtls_platform_zeroize
.LVL67:
	.loc 1 300 5
	.loc 1 301 1 is_stmt 0
	lw	ra,92(sp)
	.cfi_restore 1
	lw	s0,88(sp)
	.cfi_restore 8
	.cfi_def_cfa 2, 96
	lw	s2,80(sp)
	.cfi_restore 18
.LVL68:
	lw	s3,76(sp)
	.cfi_restore 19
	lw	s4,72(sp)
	.cfi_restore 20
.LVL69:
	lw	s5,68(sp)
	.cfi_restore 21
.LVL70:
	lw	s6,64(sp)
	.cfi_restore 22
.LVL71:
	lw	s7,60(sp)
	.cfi_restore 23
.LVL72:
	lw	s8,56(sp)
	.cfi_restore 24
	mv	a0,s1
	lw	s1,84(sp)
	.cfi_restore 9
.LVL73:
	addi	sp,sp,96
	.cfi_def_cfa_offset 0
	jr	ra
	.cfi_endproc
.LFE12:
	.size	ctr_drbg_update_internal, .-ctr_drbg_update_internal
	.section	.text.mbedtls_ctr_drbg_reseed_internal,"ax",@progbits
	.align	1
	.type	mbedtls_ctr_drbg_reseed_internal, @function
mbedtls_ctr_drbg_reseed_internal:
.LFB15:
	.loc 1 365 1 is_stmt 1
	.cfi_startproc
.LVL74:
	.loc 1 366 5
	.loc 1 367 5
	.loc 1 368 5
	.loc 1 370 5
	.loc 1 365 1 is_stmt 0
	addi	sp,sp,-416
	.cfi_def_cfa_offset 416
	sw	s0,408(sp)
	sw	s1,404(sp)
	sw	ra,412(sp)
	sw	s2,400(sp)
	sw	s3,396(sp)
	sw	s4,392(sp)
	sw	s5,388(sp)
	.cfi_offset 8, -8
	.cfi_offset 9, -12
	.cfi_offset 1, -4
	.cfi_offset 18, -16
	.cfi_offset 19, -20
	.cfi_offset 20, -24
	.cfi_offset 21, -28
	addi	s0,sp,416
	.cfi_def_cfa 8, 0
	.loc 1 370 12
	lw	a4,24(a0)
	.loc 1 370 7
	li	a5,384
	.loc 1 371 15
	li	s1,-56
	.loc 1 370 7
	bgtu	a4,a5,.L31
	mv	s3,a3
	.loc 1 372 5 is_stmt 1
	.loc 1 372 25 is_stmt 0
	sub	a3,a5,a4
.LVL75:
	.loc 1 371 15
	li	s1,-56
	.loc 1 372 7
	bltu	a3,s3,.L31
	.loc 1 374 38
	sub	a5,a5,s3
	sub	a5,a5,a4
	mv	s4,a2
	.loc 1 374 5 is_stmt 1
	.loc 1 374 7 is_stmt 0
	bltu	a5,a2,.L31
	mv	s2,a0
	.loc 1 377 5
	li	a2,384
.LVL76:
	mv	s5,a1
	.loc 1 377 5 is_stmt 1
	addi	a0,s0,-416
.LVL77:
	li	a1,0
.LVL78:
	call	memset
.LVL79:
	.loc 1 380 5
	.loc 1 380 14 is_stmt 0
	lw	a5,92(s2)
	lw	a2,24(s2)
	lw	a0,96(s2)
	addi	a1,s0,-416
	jalr	a5
.LVL80:
	.loc 1 380 7
	beq	a0,zero,.L33
.LVL81:
.L35:
	.loc 1 382 15
	li	s1,-52
.LVL82:
.L31:
	.loc 1 415 1
	lw	ra,412(sp)
	.cfi_remember_state
	.cfi_restore 1
	lw	s0,408(sp)
	.cfi_restore 8
	.cfi_def_cfa 2, 416
	lw	s2,400(sp)
	.cfi_restore 18
	lw	s3,396(sp)
	.cfi_restore 19
	lw	s4,392(sp)
	.cfi_restore 20
	lw	s5,388(sp)
	.cfi_restore 21
	mv	a0,s1
	lw	s1,404(sp)
	.cfi_restore 9
	addi	sp,sp,416
	.cfi_def_cfa_offset 0
	jr	ra
.LVL83:
.L33:
	.cfi_restore_state
	.loc 1 384 5 is_stmt 1
	.loc 1 384 19 is_stmt 0
	lw	s1,24(s2)
.LVL84:
	.loc 1 387 5 is_stmt 1
	.loc 1 387 7 is_stmt 0
	beq	s3,zero,.L34
	.loc 1 389 9 is_stmt 1
	.loc 1 389 18 is_stmt 0
	lw	a5,92(s2)
	lw	a0,96(s2)
	addi	a4,s0,-416
	mv	a2,s3
	add	a1,a4,s1
	jalr	a5
.LVL85:
	.loc 1 389 11
	bne	a0,zero,.L35
	.loc 1 393 9 is_stmt 1
	.loc 1 393 17 is_stmt 0
	add	s1,s1,s3
.LVL86:
.L34:
	.loc 1 397 5 is_stmt 1
	.loc 1 397 7 is_stmt 0
	beq	s5,zero,.L36
	.loc 1 397 27 discriminator 1
	beq	s4,zero,.L36
	.loc 1 399 9 is_stmt 1
	addi	a5,s0,-416
	add	a0,a5,s1
	mv	a2,s4
	mv	a1,s5
	call	memcpy
.LVL87:
	.loc 1 400 9
	.loc 1 400 17 is_stmt 0
	add	s1,s1,s4
.LVL88:
.L36:
	.loc 1 404 5 is_stmt 1
	.loc 1 404 17 is_stmt 0
	addi	a1,s0,-416
	mv	a2,s1
	mv	a0,a1
	call	block_cipher_df
.LVL89:
	mv	s1,a0
.LVL90:
	.loc 1 404 7
	bne	a0,zero,.L37
	.loc 1 408 5 is_stmt 1
	.loc 1 408 17 is_stmt 0
	addi	a1,s0,-416
	mv	a0,s2
	call	ctr_drbg_update_internal
.LVL91:
	mv	s1,a0
.LVL92:
	.loc 1 408 7
	bne	a0,zero,.L37
	.loc 1 410 5 is_stmt 1
	.loc 1 410 25 is_stmt 0
	li	a5,1
	sw	a5,16(s2)
.L37:
	.loc 1 413 5 is_stmt 1
	li	a1,384
	addi	a0,s0,-416
	call	mbedtls_platform_zeroize
.LVL93:
	.loc 1 414 5
	.loc 1 414 11 is_stmt 0
	j	.L31
	.cfi_endproc
.LFE15:
	.size	mbedtls_ctr_drbg_reseed_internal, .-mbedtls_ctr_drbg_reseed_internal
	.section	.text.mbedtls_ctr_drbg_init,"ax",@progbits
	.align	1
	.globl	mbedtls_ctr_drbg_init
	.type	mbedtls_ctr_drbg_init, @function
mbedtls_ctr_drbg_init:
.LFB5:
	.loc 1 52 1 is_stmt 1
	.cfi_startproc
.LVL94:
	.loc 1 53 5
	.loc 1 52 1 is_stmt 0
	addi	sp,sp,-16
	.cfi_def_cfa_offset 16
	sw	s0,8(sp)
	sw	s1,4(sp)
	sw	ra,12(sp)
	.cfi_offset 8, -8
	.cfi_offset 9, -12
	.cfi_offset 1, -4
	addi	s0,sp,16
	.cfi_def_cfa 8, 0
	.loc 1 53 5
	li	a2,100
	li	a1,0
	.loc 1 52 1
	mv	s1,a0
	.loc 1 53 5
	call	memset
.LVL95:
	.loc 1 56 5 is_stmt 1
	.loc 1 56 25 is_stmt 0
	li	a5,-1
	sw	a5,16(s1)
	.loc 1 58 5 is_stmt 1
	.loc 1 59 1 is_stmt 0
	lw	ra,12(sp)
	.cfi_restore 1
	lw	s0,8(sp)
	.cfi_restore 8
	.cfi_def_cfa 2, 16
	.loc 1 58 26
	li	a5,8192
	addi	a5,a5,1808
	sw	a5,28(s1)
	.loc 1 59 1
	lw	s1,4(sp)
	.cfi_restore 9
.LVL96:
	addi	sp,sp,16
	.cfi_def_cfa_offset 0
	jr	ra
	.cfi_endproc
.LFE5:
	.size	mbedtls_ctr_drbg_init, .-mbedtls_ctr_drbg_init
	.section	.text.mbedtls_ctr_drbg_free,"ax",@progbits
	.align	1
	.globl	mbedtls_ctr_drbg_free
	.type	mbedtls_ctr_drbg_free, @function
mbedtls_ctr_drbg_free:
.LFB6:
	.loc 1 66 1 is_stmt 1
	.cfi_startproc
.LVL97:
	.loc 1 67 5
	.loc 1 67 7 is_stmt 0
	beq	a0,zero,.L59
	.loc 1 66 1
	addi	sp,sp,-16
	.cfi_def_cfa_offset 16
	sw	ra,12(sp)
	sw	s0,8(sp)
	sw	s1,4(sp)
	.cfi_offset 1, -4
	.cfi_offset 8, -8
	.cfi_offset 9, -12
	addi	s0,sp,16
	.cfi_def_cfa 8, 0
	mv	s1,a0
	.loc 1 75 5 is_stmt 1
	addi	a0,a0,32
.LVL98:
	call	mbedtls_aes_free
.LVL99:
	.loc 1 76 5
	mv	a0,s1
	li	a1,100
	call	mbedtls_platform_zeroize
.LVL100:
	.loc 1 77 5
	.loc 1 77 26 is_stmt 0
	li	a5,8192
	addi	a5,a5,1808
	sw	a5,28(s1)
	.loc 1 78 5 is_stmt 1
	.loc 1 78 25 is_stmt 0
	li	a5,-1
	sw	a5,16(s1)
	.loc 1 79 1
	lw	ra,12(sp)
	.cfi_restore 1
	lw	s0,8(sp)
	.cfi_restore 8
	.cfi_def_cfa 2, 16
	lw	s1,4(sp)
	.cfi_restore 9
.LVL101:
	addi	sp,sp,16
	.cfi_def_cfa_offset 0
	jr	ra
.LVL102:
.L59:
	ret
	.cfi_endproc
.LFE6:
	.size	mbedtls_ctr_drbg_free, .-mbedtls_ctr_drbg_free
	.section	.text.mbedtls_ctr_drbg_set_prediction_resistance,"ax",@progbits
	.align	1
	.globl	mbedtls_ctr_drbg_set_prediction_resistance
	.type	mbedtls_ctr_drbg_set_prediction_resistance, @function
mbedtls_ctr_drbg_set_prediction_resistance:
.LFB7:
	.loc 1 83 1 is_stmt 1
	.cfi_startproc
.LVL103:
	.loc 1 84 5
	.loc 1 83 1 is_stmt 0
	addi	sp,sp,-16
	.cfi_def_cfa_offset 16
	sw	s0,12(sp)
	.cfi_offset 8, -4
	addi	s0,sp,16
	.cfi_def_cfa 8, 0
	.loc 1 84 32
	sw	a1,20(a0)
	.loc 1 85 1
	lw	s0,12(sp)
	.cfi_restore 8
	.cfi_def_cfa 2, 16
	addi	sp,sp,16
	.cfi_def_cfa_offset 0
	jr	ra
	.cfi_endproc
.LFE7:
	.size	mbedtls_ctr_drbg_set_prediction_resistance, .-mbedtls_ctr_drbg_set_prediction_resistance
	.section	.text.mbedtls_ctr_drbg_set_entropy_len,"ax",@progbits
	.align	1
	.globl	mbedtls_ctr_drbg_set_entropy_len
	.type	mbedtls_ctr_drbg_set_entropy_len, @function
mbedtls_ctr_drbg_set_entropy_len:
.LFB8:
	.loc 1 89 1 is_stmt 1
	.cfi_startproc
.LVL104:
	.loc 1 90 5
	.loc 1 89 1 is_stmt 0
	addi	sp,sp,-16
	.cfi_def_cfa_offset 16
	sw	s0,12(sp)
	.cfi_offset 8, -4
	addi	s0,sp,16
	.cfi_def_cfa 8, 0
	.loc 1 90 22
	sw	a1,24(a0)
	.loc 1 91 1
	lw	s0,12(sp)
	.cfi_restore 8
	.cfi_def_cfa 2, 16
	addi	sp,sp,16
	.cfi_def_cfa_offset 0
	jr	ra
	.cfi_endproc
.LFE8:
	.size	mbedtls_ctr_drbg_set_entropy_len, .-mbedtls_ctr_drbg_set_entropy_len
	.section	.text.mbedtls_ctr_drbg_set_nonce_len,"ax",@progbits
	.align	1
	.globl	mbedtls_ctr_drbg_set_nonce_len
	.type	mbedtls_ctr_drbg_set_nonce_len, @function
mbedtls_ctr_drbg_set_nonce_len:
.LFB9:
	.loc 1 95 1 is_stmt 1
	.cfi_startproc
.LVL105:
	.loc 1 98 5
	.loc 1 95 1 is_stmt 0
	addi	sp,sp,-16
	.cfi_def_cfa_offset 16
	sw	s0,12(sp)
	.cfi_offset 8, -4
	addi	s0,sp,16
	.cfi_def_cfa 8, 0
	.loc 1 98 7
	lw	a4,92(a0)
	bne	a4,zero,.L68
	.loc 1 101 7
	li	a4,384
	mv	a5,a0
	.loc 1 101 5 is_stmt 1
	.loc 1 102 15 is_stmt 0
	li	a0,-56
.LVL106:
	.loc 1 101 7
	bgtu	a1,a4,.L66
	.loc 1 107 5 is_stmt 1
	.loc 1 115 5
	.loc 1 115 25 is_stmt 0
	sw	a1,16(a5)
	.loc 1 116 5 is_stmt 1
	.loc 1 116 11 is_stmt 0
	li	a0,0
.LVL107:
.L66:
	.loc 1 117 1
	lw	s0,12(sp)
	.cfi_remember_state
	.cfi_restore 8
	.cfi_def_cfa 2, 16
	addi	sp,sp,16
	.cfi_def_cfa_offset 0
	jr	ra
.LVL108:
.L68:
	.cfi_restore_state
	.loc 1 99 15
	li	a0,-52
.LVL109:
	j	.L66
	.cfi_endproc
.LFE9:
	.size	mbedtls_ctr_drbg_set_nonce_len, .-mbedtls_ctr_drbg_set_nonce_len
	.section	.text.mbedtls_ctr_drbg_set_reseed_interval,"ax",@progbits
	.align	1
	.globl	mbedtls_ctr_drbg_set_reseed_interval
	.type	mbedtls_ctr_drbg_set_reseed_interval, @function
mbedtls_ctr_drbg_set_reseed_interval:
.LFB10:
	.loc 1 121 1 is_stmt 1
	.cfi_startproc
.LVL110:
	.loc 1 122 5
	.loc 1 121 1 is_stmt 0
	addi	sp,sp,-16
	.cfi_def_cfa_offset 16
	sw	s0,12(sp)
	.cfi_offset 8, -4
	addi	s0,sp,16
	.cfi_def_cfa 8, 0
	.loc 1 122 26
	sw	a1,28(a0)
	.loc 1 123 1
	lw	s0,12(sp)
	.cfi_restore 8
	.cfi_def_cfa 2, 16
	addi	sp,sp,16
	.cfi_def_cfa_offset 0
	jr	ra
	.cfi_endproc
.LFE10:
	.size	mbedtls_ctr_drbg_set_reseed_interval, .-mbedtls_ctr_drbg_set_reseed_interval
	.section	.text.mbedtls_ctr_drbg_update_ret,"ax",@progbits
	.align	1
	.globl	mbedtls_ctr_drbg_update_ret
	.type	mbedtls_ctr_drbg_update_ret, @function
mbedtls_ctr_drbg_update_ret:
.LFB13:
	.loc 1 318 1 is_stmt 1
	.cfi_startproc
.LVL111:
	.loc 1 319 5
	.loc 1 320 5
	.loc 1 322 5
	.loc 1 318 1 is_stmt 0
	addi	sp,sp,-64
	.cfi_def_cfa_offset 64
	sw	s0,56(sp)
	sw	s1,52(sp)
	sw	ra,60(sp)
	sw	s2,48(sp)
	.cfi_offset 8, -8
	.cfi_offset 9, -12
	.cfi_offset 1, -4
	.cfi_offset 18, -16
	addi	s0,sp,64
	.cfi_def_cfa 8, 0
	.loc 1 323 15
	li	s1,0
	.loc 1 322 7
	beq	a2,zero,.L73
	mv	s2,a0
.LVL112:
.LBB4:
.LBB5:
	.loc 1 325 5 is_stmt 1
	.loc 1 325 17 is_stmt 0
	addi	a0,s0,-64
.LVL113:
	call	block_cipher_df
.LVL114:
	mv	s1,a0
.LVL115:
	.loc 1 325 7
	bne	a0,zero,.L75
	.loc 1 327 5 is_stmt 1
	.loc 1 327 17 is_stmt 0
	addi	a1,s0,-64
	mv	a0,s2
	call	ctr_drbg_update_internal
.LVL116:
	mv	s1,a0
.LVL117:
.L75:
	.loc 1 331 5 is_stmt 1
	li	a1,48
	addi	a0,s0,-64
	call	mbedtls_platform_zeroize
.LVL118:
	.loc 1 332 5
.L73:
.LBE5:
.LBE4:
	.loc 1 333 1 is_stmt 0
	lw	ra,60(sp)
	.cfi_restore 1
	lw	s0,56(sp)
	.cfi_restore 8
	.cfi_def_cfa 2, 64
	lw	s2,48(sp)
	.cfi_restore 18
	mv	a0,s1
	lw	s1,52(sp)
	.cfi_restore 9
	addi	sp,sp,64
	.cfi_def_cfa_offset 0
	jr	ra
	.cfi_endproc
.LFE13:
	.size	mbedtls_ctr_drbg_update_ret, .-mbedtls_ctr_drbg_update_ret
	.section	.text.mbedtls_ctr_drbg_update,"ax",@progbits
	.align	1
	.globl	mbedtls_ctr_drbg_update
	.type	mbedtls_ctr_drbg_update, @function
mbedtls_ctr_drbg_update:
.LFB14:
	.loc 1 339 1 is_stmt 1
	.cfi_startproc
.LVL119:
	.loc 1 342 5
	.loc 1 344 5
	.loc 1 339 1 is_stmt 0
	addi	sp,sp,-16
	.cfi_def_cfa_offset 16
	sw	s0,12(sp)
	.cfi_offset 8, -4
	addi	s0,sp,16
	.cfi_def_cfa 8, 0
	.loc 1 344 12
	li	a5,384
	bleu	a2,a5,.L79
	li	a2,384
.L79:
	.loc 1 345 1
	lw	s0,12(sp)
	.cfi_restore 8
	.cfi_def_cfa 2, 16
	addi	sp,sp,16
	.cfi_def_cfa_offset 0
	.loc 1 344 12
	tail	mbedtls_ctr_drbg_update_ret
.LVL120:
	.cfi_endproc
.LFE14:
	.size	mbedtls_ctr_drbg_update, .-mbedtls_ctr_drbg_update
	.section	.text.mbedtls_ctr_drbg_reseed,"ax",@progbits
	.align	1
	.globl	mbedtls_ctr_drbg_reseed
	.type	mbedtls_ctr_drbg_reseed, @function
mbedtls_ctr_drbg_reseed:
.LFB16:
	.loc 1 419 1 is_stmt 1
	.cfi_startproc
.LVL121:
	.loc 1 420 5
	.loc 1 419 1 is_stmt 0
	addi	sp,sp,-16
	.cfi_def_cfa_offset 16
	sw	s0,12(sp)
	.cfi_offset 8, -4
	addi	s0,sp,16
	.cfi_def_cfa 8, 0
	.loc 1 421 1
	lw	s0,12(sp)
	.cfi_restore 8
	.cfi_def_cfa 2, 16
	.loc 1 420 13
	li	a3,0
	.loc 1 421 1
	addi	sp,sp,16
	.cfi_def_cfa_offset 0
	.loc 1 420 13
	tail	mbedtls_ctr_drbg_reseed_internal
.LVL122:
	.cfi_endproc
.LFE16:
	.size	mbedtls_ctr_drbg_reseed, .-mbedtls_ctr_drbg_reseed
	.section	.text.mbedtls_ctr_drbg_seed,"ax",@progbits
	.align	1
	.globl	mbedtls_ctr_drbg_seed
	.type	mbedtls_ctr_drbg_seed, @function
mbedtls_ctr_drbg_seed:
.LFB18:
	.loc 1 452 1 is_stmt 1
	.cfi_startproc
.LVL123:
	.loc 1 453 5
	.loc 1 454 5
	.loc 1 455 5
	.loc 1 457 5
	.loc 1 452 1 is_stmt 0
	addi	sp,sp,-80
	.cfi_def_cfa_offset 80
	sw	ra,76(sp)
	sw	s0,72(sp)
	sw	s1,68(sp)
	.cfi_offset 1, -4
	.cfi_offset 8, -8
	.cfi_offset 9, -12
	addi	s0,sp,80
	.cfi_def_cfa 8, 0
	sw	s2,64(sp)
	sw	s3,60(sp)
	sw	s4,56(sp)
	sw	s5,52(sp)
	mv	s1,a0
	.cfi_offset 18, -16
	.cfi_offset 19, -20
	.cfi_offset 20, -24
	.cfi_offset 21, -28
	mv	s5,a1
	mv	s2,a2
	.loc 1 457 5
	li	a1,0
.LVL124:
	li	a2,32
.LVL125:
	.loc 1 452 1
	.loc 1 457 5
	addi	a0,s0,-64
.LVL126:
	.loc 1 452 1
	mv	s3,a3
	mv	s4,a4
	.loc 1 457 5
	call	memset
.LVL127:
	.loc 1 464 5 is_stmt 1
	addi	a0,s1,32
	sw	a0,-68(s0)
	call	mbedtls_aes_init
.LVL128:
	.loc 1 466 5
	.loc 1 469 7 is_stmt 0
	lw	a5,24(s1)
	.loc 1 466 20
	sw	s5,92(s1)
	.loc 1 467 5 is_stmt 1
	.loc 1 467 20 is_stmt 0
	sw	s2,96(s1)
	.loc 1 469 5 is_stmt 1
	.loc 1 469 7 is_stmt 0
	lw	a0,-68(s0)
	bne	a5,zero,.L84
	.loc 1 470 9 is_stmt 1
	.loc 1 470 26 is_stmt 0
	li	a5,48
	sw	a5,24(s1)
.L84:
	.loc 1 475 5 is_stmt 1
	.loc 1 475 22 is_stmt 0
	lw	s2,16(s1)
.LVL129:
	.loc 1 476 48
	bge	s2,zero,.L86
	.loc 1 477 19
	lw	a5,24(s1)
.LVL130:
.LBB8:
.LBB9:
	.loc 1 430 5 is_stmt 1
	.loc 1 430 7 is_stmt 0
	li	a4,47
	.loc 1 431 15
	li	s2,0
	.loc 1 430 7
	bgtu	a5,a4,.L86
	.loc 1 433 9 is_stmt 1
	.loc 1 433 31 is_stmt 0
	addi	a5,a5,1
.LVL131:
	.loc 1 433 37
	srli	s2,a5,1
.LVL132:
.L86:
.LBE9:
.LBE8:
	.loc 1 480 5 is_stmt 1
	.loc 1 480 17 is_stmt 0
	li	a2,256
	addi	a1,s0,-64
	call	mbedtls_aes_setkey_enc
.LVL133:
	.loc 1 480 7
	bne	a0,zero,.L83
	.loc 1 487 5 is_stmt 1
	.loc 1 487 17 is_stmt 0
	mv	a3,s2
	mv	a2,s4
	mv	a1,s3
	mv	a0,s1
.LVL134:
	call	mbedtls_ctr_drbg_reseed_internal
.LVL135:
.L83:
	.loc 1 493 1
	lw	ra,76(sp)
	.cfi_restore 1
	lw	s0,72(sp)
	.cfi_restore 8
	.cfi_def_cfa 2, 80
	lw	s1,68(sp)
	.cfi_restore 9
.LVL136:
	lw	s2,64(sp)
	.cfi_restore 18
.LVL137:
	lw	s3,60(sp)
	.cfi_restore 19
.LVL138:
	lw	s4,56(sp)
	.cfi_restore 20
.LVL139:
	lw	s5,52(sp)
	.cfi_restore 21
.LVL140:
	addi	sp,sp,80
	.cfi_def_cfa_offset 0
	jr	ra
	.cfi_endproc
.LFE18:
	.size	mbedtls_ctr_drbg_seed, .-mbedtls_ctr_drbg_seed
	.section	.text.mbedtls_ctr_drbg_random_with_add,"ax",@progbits
	.align	1
	.globl	mbedtls_ctr_drbg_random_with_add
	.type	mbedtls_ctr_drbg_random_with_add, @function
mbedtls_ctr_drbg_random_with_add:
.LFB19:
	.loc 1 517 1 is_stmt 1
	.cfi_startproc
.LVL141:
	.loc 1 518 5
	.loc 1 519 5
	.loc 1 520 5
	.loc 1 521 5
	.loc 1 522 5
	.loc 1 523 5
	.loc 1 524 5
	.loc 1 526 5
	.loc 1 517 1 is_stmt 0
	addi	sp,sp,-112
	.cfi_def_cfa_offset 112
	sw	s0,104(sp)
	sw	s1,100(sp)
	sw	ra,108(sp)
	sw	s2,96(sp)
	sw	s3,92(sp)
	sw	s4,88(sp)
	sw	s5,84(sp)
	sw	s6,80(sp)
	sw	s7,76(sp)
	.cfi_offset 8, -8
	.cfi_offset 9, -12
	.cfi_offset 1, -4
	.cfi_offset 18, -16
	.cfi_offset 19, -20
	.cfi_offset 20, -24
	.cfi_offset 21, -28
	.cfi_offset 22, -32
	.cfi_offset 23, -36
	addi	s0,sp,112
	.cfi_def_cfa 8, 0
	.loc 1 526 7
	li	a5,1024
	.loc 1 527 15
	li	s1,-54
	.loc 1 526 7
	bgtu	a2,a5,.L90
	.loc 1 529 7
	li	a5,256
	mv	s5,a4
	.loc 1 529 5 is_stmt 1
	.loc 1 530 15 is_stmt 0
	li	s1,-56
	.loc 1 529 7
	bgtu	a4,a5,.L90
	mv	s2,a0
	mv	s4,a1
	mv	s3,a2
	.loc 1 532 5
	li	a1,0
.LVL142:
	li	a2,48
.LVL143:
	addi	a0,s0,-96
.LVL144:
	mv	s6,a3
	.loc 1 532 5 is_stmt 1
	call	memset
.LVL145:
	.loc 1 534 5
	.loc 1 534 7 is_stmt 0
	lw	a4,16(s2)
	lw	a5,28(s2)
	bgt	a4,a5,.L92
	.loc 1 534 52 discriminator 1
	lw	a5,20(s2)
	beq	a5,zero,.L93
.L92:
	.loc 1 537 9 is_stmt 1
	.loc 1 537 21 is_stmt 0
	mv	a2,s5
	mv	a1,s6
	mv	a0,s2
	call	mbedtls_ctr_drbg_reseed
.LVL146:
	mv	s1,a0
.LVL147:
	.loc 1 537 11
	bne	a0,zero,.L90
.LVL148:
.L95:
	addi	s5,s2,15
.LVL149:
	.loc 1 564 21
	addi	s6,s2,32
.LVL150:
	.loc 1 570 17
	li	s7,16
.LVL151:
.L94:
	.loc 1 552 10 is_stmt 1
	bne	s3,zero,.L100
	.loc 1 580 5
	.loc 1 580 17 is_stmt 0
	addi	a1,s0,-96
	mv	a0,s2
	call	ctr_drbg_update_internal
.LVL152:
	mv	s1,a0
.LVL153:
	.loc 1 580 7
	bne	a0,zero,.L96
	.loc 1 583 5 is_stmt 1
	.loc 1 583 24 is_stmt 0
	lw	a5,16(s2)
	addi	a5,a5,1
	sw	a5,16(s2)
	j	.L96
.LVL154:
.L93:
	.loc 1 544 5 is_stmt 1
	.loc 1 544 7 is_stmt 0
	beq	s5,zero,.L95
	.loc 1 546 9 is_stmt 1
	.loc 1 546 21 is_stmt 0
	mv	a2,s5
	mv	a1,s6
	addi	a0,s0,-96
	call	block_cipher_df
.LVL155:
	mv	s1,a0
.LVL156:
	.loc 1 546 11
	bne	a0,zero,.L96
	.loc 1 548 9 is_stmt 1
	.loc 1 548 21 is_stmt 0
	addi	a1,s0,-96
	mv	a0,s2
	call	ctr_drbg_update_internal
.LVL157:
	mv	s1,a0
.LVL158:
	.loc 1 548 11
	beq	a0,zero,.L95
.LVL159:
.L96:
	.loc 1 586 5 is_stmt 1
	li	a1,48
	addi	a0,s0,-96
	call	mbedtls_platform_zeroize
.LVL160:
	.loc 1 587 5
	li	a1,16
	addi	a0,s0,-112
	call	mbedtls_platform_zeroize
.LVL161:
	.loc 1 588 5
.L90:
	.loc 1 589 1 is_stmt 0
	lw	ra,108(sp)
	.cfi_remember_state
	.cfi_restore 1
	lw	s0,104(sp)
	.cfi_restore 8
	.cfi_def_cfa 2, 112
	lw	s2,96(sp)
	.cfi_restore 18
	lw	s3,92(sp)
	.cfi_restore 19
	lw	s4,88(sp)
	.cfi_restore 20
	lw	s5,84(sp)
	.cfi_restore 21
	lw	s6,80(sp)
	.cfi_restore 22
	lw	s7,76(sp)
	.cfi_restore 23
	mv	a0,s1
	lw	s1,100(sp)
	.cfi_restore 9
	addi	sp,sp,112
	.cfi_def_cfa_offset 0
	jr	ra
.LVL162:
.L100:
	.cfi_restore_state
	mv	a4,s5
.L98:
.LVL163:
	.loc 1 558 13 is_stmt 1
	.loc 1 558 17 is_stmt 0
	lbu	a5,0(a4)
	addi	a5,a5,1
	andi	a5,a5,0xff
	.loc 1 558 15
	sb	a5,0(a4)
	bne	a5,zero,.L97
.LVL164:
	.loc 1 557 22 is_stmt 1 discriminator 1
	.loc 1 557 9 is_stmt 0 discriminator 1
	addi	a5,a4,-1
	bne	s2,a4,.L103
.LVL165:
.L97:
	.loc 1 564 9 is_stmt 1
	.loc 1 564 21 is_stmt 0
	addi	a3,s0,-112
	mv	a2,s2
	li	a1,1
	mv	a0,s6
	call	mbedtls_aes_crypt_ecb
.LVL166:
	mv	s1,a0
.LVL167:
	.loc 1 564 11
	bne	a0,zero,.L96
	.loc 1 570 9 is_stmt 1
	.loc 1 570 17 is_stmt 0
	mv	s1,s3
.LVL168:
	bleu	s3,s7,.L99
.LVL169:
	li	s1,16
.LVL170:
.L99:
	.loc 1 575 9 is_stmt 1
	mv	a0,s4
.LVL171:
	mv	a2,s1
	addi	a1,s0,-112
	call	memcpy
.LVL172:
	.loc 1 576 9
	.loc 1 576 11 is_stmt 0
	add	s4,s4,s1
.LVL173:
	.loc 1 577 9 is_stmt 1
	.loc 1 577 20 is_stmt 0
	sub	s3,s3,s1
.LVL174:
	j	.L94
.LVL175:
.L103:
	mv	a4,a5
.LVL176:
	j	.L98
	.cfi_endproc
.LFE19:
	.size	mbedtls_ctr_drbg_random_with_add, .-mbedtls_ctr_drbg_random_with_add
	.section	.text.mbedtls_ctr_drbg_random,"ax",@progbits
	.align	1
	.globl	mbedtls_ctr_drbg_random
	.type	mbedtls_ctr_drbg_random, @function
mbedtls_ctr_drbg_random:
.LFB20:
	.loc 1 593 1 is_stmt 1
	.cfi_startproc
.LVL177:
	.loc 1 594 5
	.loc 1 595 5
	.loc 1 602 5
	.loc 1 593 1 is_stmt 0
	addi	sp,sp,-16
	.cfi_def_cfa_offset 16
	sw	s0,12(sp)
	.cfi_offset 8, -4
	addi	s0,sp,16
	.cfi_def_cfa 8, 0
	.loc 1 610 1
	lw	s0,12(sp)
	.cfi_restore 8
	.cfi_def_cfa 2, 16
	.loc 1 602 11
	li	a4,0
	li	a3,0
	.loc 1 610 1
	addi	sp,sp,16
	.cfi_def_cfa_offset 0
	.loc 1 602 11
	tail	mbedtls_ctr_drbg_random_with_add
.LVL178:
	.cfi_endproc
.LFE20:
	.size	mbedtls_ctr_drbg_random, .-mbedtls_ctr_drbg_random
	.section	.rodata.mbedtls_ctr_drbg_write_seed_file.str1.4,"aMS",@progbits,1
	.align	2
.LC0:
	.string	"wb"
	.section	.text.mbedtls_ctr_drbg_write_seed_file,"ax",@progbits
	.align	1
	.globl	mbedtls_ctr_drbg_write_seed_file
	.type	mbedtls_ctr_drbg_write_seed_file, @function
mbedtls_ctr_drbg_write_seed_file:
.LFB21:
	.loc 1 615 1 is_stmt 1
	.cfi_startproc
.LVL179:
	.loc 1 616 5
	.loc 1 617 5
	.loc 1 618 5
	.loc 1 620 5
	.loc 1 615 1 is_stmt 0
	addi	sp,sp,-272
	.cfi_def_cfa_offset 272
	sw	s0,264(sp)
	sw	s1,260(sp)
	sw	ra,268(sp)
	sw	s2,256(sp)
	.cfi_offset 8, -8
	.cfi_offset 9, -12
	.cfi_offset 1, -4
	.cfi_offset 18, -16
	addi	s0,sp,272
	.cfi_def_cfa 8, 0
	mv	s1,a0
	mv	a0,a1
.LVL180:
	.loc 1 620 15
	lui	a1,%hi(.LC0)
.LVL181:
	.loc 1 615 1
	.loc 1 620 15
	addi	a1,a1,%lo(.LC0)
	call	fopen
.LVL182:
	.loc 1 620 7
	beq	a0,zero,.L113
	mv	s2,a0
	.loc 1 623 5 is_stmt 1
	.loc 1 623 17 is_stmt 0
	li	a2,256
	mv	a0,s1
.LVL183:
	addi	a1,s0,-272
	call	mbedtls_ctr_drbg_random
.LVL184:
	mv	s1,a0
.LVL185:
	.loc 1 623 7
	bne	a0,zero,.L112
	.loc 1 627 5 is_stmt 1
	.loc 1 627 9 is_stmt 0
	mv	a3,s2
	li	a2,256
	li	a1,1
	addi	a0,s0,-272
	call	fwrite
.LVL186:
	.loc 1 627 7
	li	a5,256
	beq	a0,a5,.L112
	.loc 1 630 13
	li	s1,-58
.LVL187:
.L112:
	.loc 1 638 5 is_stmt 1
	addi	a0,s0,-272
	li	a1,256
	call	mbedtls_platform_zeroize
.LVL188:
	.loc 1 640 5
	mv	a0,s2
	call	fclose
.LVL189:
	.loc 1 641 5
.L110:
	.loc 1 642 1 is_stmt 0
	lw	ra,268(sp)
	.cfi_remember_state
	.cfi_restore 1
	lw	s0,264(sp)
	.cfi_restore 8
	.cfi_def_cfa 2, 272
	lw	s2,256(sp)
	.cfi_restore 18
	mv	a0,s1
	lw	s1,260(sp)
	.cfi_restore 9
	addi	sp,sp,272
	.cfi_def_cfa_offset 0
	jr	ra
.LVL190:
.L113:
	.cfi_restore_state
	.loc 1 621 15
	li	s1,-58
.LVL191:
	j	.L110
	.cfi_endproc
.LFE21:
	.size	mbedtls_ctr_drbg_write_seed_file, .-mbedtls_ctr_drbg_write_seed_file
	.section	.rodata.mbedtls_ctr_drbg_update_seed_file.str1.4,"aMS",@progbits,1
	.align	2
.LC1:
	.string	"rb"
	.section	.text.mbedtls_ctr_drbg_update_seed_file,"ax",@progbits
	.align	1
	.globl	mbedtls_ctr_drbg_update_seed_file
	.type	mbedtls_ctr_drbg_update_seed_file, @function
mbedtls_ctr_drbg_update_seed_file:
.LFB22:
	.loc 1 646 1 is_stmt 1
	.cfi_startproc
.LVL192:
	.loc 1 647 5
	.loc 1 648 5
	.loc 1 649 5
	.loc 1 650 5
	.loc 1 651 5
	.loc 1 653 5
	.loc 1 646 1 is_stmt 0
	addi	sp,sp,-304
	.cfi_def_cfa_offset 304
	sw	s0,296(sp)
	sw	s1,292(sp)
	sw	s3,284(sp)
	sw	s4,280(sp)
	sw	ra,300(sp)
	sw	s2,288(sp)
	sw	s5,276(sp)
	.cfi_offset 8, -8
	.cfi_offset 9, -12
	.cfi_offset 19, -20
	.cfi_offset 20, -24
	.cfi_offset 1, -4
	.cfi_offset 18, -16
	.cfi_offset 21, -28
	addi	s0,sp,304
	.cfi_def_cfa 8, 0
	mv	s4,a1
	.loc 1 653 15
	lui	a1,%hi(.LC1)
.LVL193:
	.loc 1 646 1
	.loc 1 646 1
	mv	s3,a0
	.loc 1 653 15
	addi	a1,a1,%lo(.LC1)
	mv	a0,s4
.LVL194:
	call	fopen
.LVL195:
	.loc 1 654 15
	li	s1,-58
	.loc 1 653 7
	beq	a0,zero,.L116
	.loc 1 656 9
	mv	a3,a0
	mv	s2,a0
	.loc 1 656 5 is_stmt 1
	.loc 1 656 9 is_stmt 0
	li	a2,256
	li	a1,1
	addi	a0,s0,-288
.LVL196:
	call	fread
.LVL197:
	mv	s5,a0
.LVL198:
	.loc 1 657 5 is_stmt 1
	.loc 1 657 9 is_stmt 0
	mv	a3,s2
	li	a2,1
	li	a1,1
	addi	a0,s0,-289
.LVL199:
	call	fread
.LVL200:
	.loc 1 659 13
	li	s1,-56
	.loc 1 657 7
	bne	a0,zero,.L118
	.loc 1 662 5 is_stmt 1
	.loc 1 664 13 is_stmt 0
	li	s1,-58
	.loc 1 662 7
	beq	s5,zero,.L118
	.loc 1 662 16 discriminator 1
	lhu	a5,12(s2)
	andi	a5,a5,64
	bne	a5,zero,.L118
	.loc 1 667 5 is_stmt 1
	mv	a0,s2
	call	fclose
.LVL201:
	.loc 1 668 5
	.loc 1 670 5
	.loc 1 670 11 is_stmt 0
	mv	a2,s5
	addi	a1,s0,-288
	mv	a0,s3
	call	mbedtls_ctr_drbg_update_ret
.LVL202:
	mv	s1,a0
.LVL203:
	.loc 1 668 7
	li	s2,0
.LVL204:
.L118:
	.loc 1 673 5 is_stmt 1
	li	a1,256
	addi	a0,s0,-288
	call	mbedtls_platform_zeroize
.LVL205:
	.loc 1 674 5
	.loc 1 674 7 is_stmt 0
	beq	s2,zero,.L119
	.loc 1 675 9 is_stmt 1
	mv	a0,s2
	call	fclose
.LVL206:
.L119:
	.loc 1 676 5
	.loc 1 676 7 is_stmt 0
	bne	s1,zero,.L116
	.loc 1 678 5 is_stmt 1
	.loc 1 678 13 is_stmt 0
	mv	a1,s4
	mv	a0,s3
	call	mbedtls_ctr_drbg_write_seed_file
.LVL207:
	mv	s1,a0
.LVL208:
.L116:
	.loc 1 679 1
	lw	ra,300(sp)
	.cfi_restore 1
	lw	s0,296(sp)
	.cfi_restore 8
	.cfi_def_cfa 2, 304
	lw	s2,288(sp)
	.cfi_restore 18
	lw	s3,284(sp)
	.cfi_restore 19
.LVL209:
	lw	s4,280(sp)
	.cfi_restore 20
.LVL210:
	lw	s5,276(sp)
	.cfi_restore 21
	mv	a0,s1
	lw	s1,292(sp)
	.cfi_restore 9
	addi	sp,sp,304
	.cfi_def_cfa_offset 0
	jr	ra
	.cfi_endproc
.LFE22:
	.size	mbedtls_ctr_drbg_update_seed_file, .-mbedtls_ctr_drbg_update_seed_file
	.text
.Letext0:
	.file 2 "/home/dinhquangha/Ai-Thinker-WB2/toolchain/riscv/Linux/lib/gcc/riscv64-unknown-elf/10.2.0/include/stddef.h"
	.file 3 "/home/dinhquangha/Ai-Thinker-WB2/toolchain/riscv/Linux/lib/gcc/riscv64-unknown-elf/10.2.0/include/stdint-gcc.h"
	.file 4 "/home/dinhquangha/Ai-Thinker-WB2/components/platform/hosal/sec_common/bl_sec_aes.h"
	.file 5 "/home/dinhquangha/Ai-Thinker-WB2/components/security/mbedtls_lts/port/aes_alt.h"
	.file 6 "/home/dinhquangha/Ai-Thinker-WB2/components/security/mbedtls_lts/mbedtls/include/mbedtls/ctr_drbg.h"
	.file 7 "/home/dinhquangha/Ai-Thinker-WB2/toolchain/riscv/Linux/riscv64-unknown-elf/include/sys/_types.h"
	.file 8 "/home/dinhquangha/Ai-Thinker-WB2/toolchain/riscv/Linux/riscv64-unknown-elf/include/sys/reent.h"
	.file 9 "/home/dinhquangha/Ai-Thinker-WB2/toolchain/riscv/Linux/riscv64-unknown-elf/include/sys/lock.h"
	.file 10 "/home/dinhquangha/Ai-Thinker-WB2/toolchain/riscv/Linux/riscv64-unknown-elf/include/stdio.h"
	.file 11 "/home/dinhquangha/Ai-Thinker-WB2/components/security/mbedtls_lts/mbedtls/include/mbedtls/platform_util.h"
	.file 12 "/home/dinhquangha/Ai-Thinker-WB2/toolchain/riscv/Linux/riscv64-unknown-elf/include/string.h"
	.file 13 "/home/dinhquangha/Ai-Thinker-WB2/components/security/mbedtls_lts/mbedtls/include/mbedtls/aes.h"