	.file	"ecdsa.c"
	.option nopic
	.attribute arch, "rv32i2p0_m2p0_f2p0_c2p0"
	.attribute unaligned_access, 0
	.attribute stack_align, 16
	.text
.Ltext0:
	.cfi_sections	.debug_frame
	.section	.text.derive_mpi,"ax",@progbits
	.align	1
	.type	derive_mpi, @function
derive_mpi:
.LFB5:
	.file 1 "/home/dinhquangha/Ai-Thinker-WB2/components/security/mbedtls_lts/mbedtls/library/ecdsa.c"
	.loc 1 229 1
	.cfi_startproc
.LVL0:
	.loc 1 230 5
	.loc 1 231 5
	.loc 1 232 5
	.loc 1 229 1 is_stmt 0
	addi	sp,sp,-32
	.cfi_def_cfa_offset 32
	sw	s0,24(sp)
.LVL1:
	sw	s2,16(sp)
	sw	s3,12(sp)
	sw	ra,28(sp)
	sw	s1,20(sp)
	sw	s4,8(sp)
	.cfi_offset 8, -8
	.cfi_offset 18, -16
	.cfi_offset 19, -20
	.cfi_offset 1, -4
	.cfi_offset 9, -12
	.cfi_offset 20, -24
	addi	s0,sp,32
	.cfi_def_cfa 8, 0
	.loc 1 231 34
	lw	s1,92(a0)
	.loc 1 229 1
	mv	s3,a1
	mv	s2,a0
	.loc 1 231 34
	addi	s1,s1,7
	.loc 1 231 12
	srli	s1,s1,3
	.loc 1 229 1
	mv	a1,a2
.LVL2:
	.loc 1 232 12
	bleu	s1,a3,.L2
	mv	s1,a3
.L2:
.LVL3:
	.loc 1 234 5 is_stmt 1
	.loc 1 234 10
	.loc 1 234 23 is_stmt 0
	mv	a2,s1
.LVL4:
	mv	a0,s3
.LVL5:
	call	mbedtls_mpi_read_binary
.LVL6:
	mv	s4,a0
.LVL7:
	.loc 1 234 12
	bne	a0,zero,.L1
	.loc 1 234 98 is_stmt 1 discriminator 2
	.loc 1 235 5 discriminator 2
	.loc 1 235 27 is_stmt 0 discriminator 2
	lw	a1,92(s2)
	.loc 1 235 18 discriminator 2
	slli	s1,s1,3
.LVL8:
	.loc 1 235 7 discriminator 2
	bgtu	s1,a1,.L4
.LVL9:
.L6:
	.loc 1 236 110 is_stmt 1
	.loc 1 239 5
	.loc 1 239 9 is_stmt 0
	addi	s2,s2,76
.LVL10:
	mv	a1,s2
	mv	a0,s3
	call	mbedtls_mpi_cmp_mpi
.LVL11:
	.loc 1 239 7
	blt	a0,zero,.L1
	.loc 1 240 9 is_stmt 1
	.loc 1 240 14
	.loc 1 244 1 is_stmt 0
	lw	s0,24(sp)
	.cfi_remember_state
	.cfi_restore 8
	.cfi_def_cfa 2, 32
	lw	ra,28(sp)
	.cfi_restore 1
	lw	s1,20(sp)
	.cfi_restore 9
	lw	s4,8(sp)
	.cfi_restore 20
	.loc 1 240 27
	mv	a2,s2
	mv	a1,s3
	.loc 1 244 1
	lw	s2,16(sp)
	.cfi_restore 18
.LVL12:
	.loc 1 240 27
	mv	a0,s3
	.loc 1 244 1
	lw	s3,12(sp)
	.cfi_restore 19
.LVL13:
	addi	sp,sp,32
	.cfi_def_cfa_offset 0
	.loc 1 240 27
	tail	mbedtls_mpi_sub_mpi
.LVL14:
.L4:
	.cfi_restore_state
	.loc 1 236 9 is_stmt 1
	.loc 1 236 14
	.loc 1 236 27 is_stmt 0
	sub	a1,s1,a1
	mv	a0,s3
.LVL15:
	call	mbedtls_mpi_shift_r
.LVL16:
	.loc 1 236 16
	beq	a0,zero,.L6
	mv	s4,a0
	.loc 1 240 95 is_stmt 1
	.loc 1 243 5
.L3:
.LVL17:
.L1:
	.loc 1 244 1 is_stmt 0
	lw	ra,28(sp)
	.cfi_restore 1
	lw	s0,24(sp)
	.cfi_restore 8
	.cfi_def_cfa 2, 32
	lw	s1,20(sp)
	.cfi_restore 9
	lw	s2,16(sp)
	.cfi_restore 18
	lw	s3,12(sp)
	.cfi_restore 19
.LVL18:
	mv	a0,s4
	lw	s4,8(sp)
	.cfi_restore 20
	addi	sp,sp,32
	.cfi_def_cfa_offset 0
	jr	ra
	.cfi_endproc
.LFE5:
	.size	derive_mpi, .-derive_mpi
	.section	.text.ecdsa_verify_restartable.constprop.0,"ax",@progbits
	.align	1
	.type	ecdsa_verify_restartable.constprop.0, @function
ecdsa_verify_restartable.constprop.0:
.LFB21:
	.loc 1 598 12 is_stmt 1
	.cfi_startproc
.LVL19:
	.loc 1 604 5
	.loc 1 605 5
	.loc 1 606 5
	.loc 1 607 5
	.loc 1 598 12 is_stmt 0
	addi	sp,sp,-144
	.cfi_def_cfa_offset 144
	sw	ra,140(sp)
	sw	s0,136(sp)
	sw	s1,132(sp)
	.cfi_offset 1, -4
	.cfi_offset 8, -8
	.cfi_offset 9, -12
	addi	s0,sp,144
	.cfi_def_cfa 8, 0
.LVL20:
	.loc 1 609 5 is_stmt 1
	.loc 1 598 12 is_stmt 0
	sw	s2,128(sp)
	sw	s3,124(sp)
	sw	s5,116(sp)
	sw	s6,112(sp)
	sw	s7,108(sp)
	sw	s4,120(sp)
	.cfi_offset 18, -16
	.cfi_offset 19, -20
	.cfi_offset 21, -28
	.cfi_offset 22, -32
	.cfi_offset 23, -36
	.cfi_offset 20, -24
	mv	s2,a0
	.loc 1 609 5
	addi	a0,s0,-84
.LVL21:
	.loc 1 598 12
	mv	s6,a5
	mv	s1,a1
	mv	s7,a2
	mv	s5,a3
	mv	s3,a4
	.loc 1 609 5
	call	mbedtls_ecp_point_init
.LVL22:
	.loc 1 610 5 is_stmt 1
	addi	a0,s0,-132
	call	mbedtls_mpi_init
.LVL23:
	.loc 1 610 29
	addi	a0,s0,-120
	call	mbedtls_mpi_init
.LVL24:
	.loc 1 611 5
	addi	a0,s0,-108
.LVL25:
	call	mbedtls_mpi_init
.LVL26:
	.loc 1 611 30
	addi	a0,s0,-96
.LVL27:
	call	mbedtls_mpi_init
.LVL28:
	.loc 1 614 5
	.loc 1 388 5
	.loc 1 396 14
	.loc 1 614 43 is_stmt 0
	lw	a5,84(s2)
	beq	a5,zero,.L13
	.loc 1 617 5 is_stmt 1
	.loc 1 635 5
	.loc 1 635 9 is_stmt 0
	li	a1,1
	mv	a0,s3
	call	mbedtls_mpi_cmp_int
.LVL29:
	.loc 1 635 7
	blt	a0,zero,.L11
	.loc 1 635 68
	addi	s4,s2,76
	.loc 1 635 44
	mv	a1,s4
	mv	a0,s3
	call	mbedtls_mpi_cmp_mpi
.LVL30:
	.loc 1 635 41
	bge	a0,zero,.L11
	.loc 1 636 9
	li	a1,1
	mv	a0,s6
	call	mbedtls_mpi_cmp_int
.LVL31:
	.loc 1 635 83
	blt	a0,zero,.L11
	.loc 1 636 44
	mv	a1,s4
	mv	a0,s6
	call	mbedtls_mpi_cmp_mpi
.LVL32:
	.loc 1 636 41
	bge	a0,zero,.L11
	.loc 1 645 5 is_stmt 1
	.loc 1 645 10
	.loc 1 645 23 is_stmt 0
	mv	a2,s1
	mv	a3,s7
	addi	a1,s0,-132
	mv	a0,s2
	call	derive_mpi
.LVL33:
	mv	s1,a0
.LVL34:
	.loc 1 645 12
	bne	a0,zero,.L12
	.loc 1 645 87 is_stmt 1
	.loc 1 650 5
	.loc 1 652 5
	.loc 1 652 10
	.loc 1 652 23 is_stmt 0
	mv	a2,s4
	mv	a1,s6
	addi	a0,s0,-120
	call	mbedtls_mpi_inv_mod
.LVL35:
	mv	s1,a0
.LVL36:
	.loc 1 652 12
	bne	a0,zero,.L12
	.loc 1 652 96 is_stmt 1
	.loc 1 654 5
	.loc 1 654 10
	.loc 1 654 23 is_stmt 0
	addi	a2,s0,-120
	addi	a1,s0,-132
	addi	a0,s0,-108
.LVL37:
	call	mbedtls_mpi_mul_mpi
.LVL38:
	mv	s1,a0
.LVL39:
	.loc 1 654 12
	bne	a0,zero,.L12
	.loc 1 654 93 is_stmt 1
	.loc 1 655 5
	.loc 1 655 10
	.loc 1 655 23 is_stmt 0
	addi	a1,s0,-108
.LVL40:
	mv	a2,s4
	mv	a0,a1
	call	mbedtls_mpi_mod_mpi
.LVL41:
	mv	s1,a0
.LVL42:
	.loc 1 655 12
	bne	a0,zero,.L12
	.loc 1 655 95 is_stmt 1
	.loc 1 657 5
	.loc 1 657 10
	.loc 1 657 23 is_stmt 0
	addi	a2,s0,-120
	mv	a1,s3
	addi	a0,s0,-96
.LVL43:
	call	mbedtls_mpi_mul_mpi
.LVL44:
	mv	s1,a0
.LVL45:
	.loc 1 657 12
	bne	a0,zero,.L12
	.loc 1 657 92 is_stmt 1
	.loc 1 658 5
	.loc 1 658 10
	.loc 1 658 23 is_stmt 0
	addi	a1,s0,-96
.LVL46:
	mv	a2,s4
	mv	a0,a1
	call	mbedtls_mpi_mod_mpi
.LVL47:
	mv	s1,a0
.LVL48:
	.loc 1 658 12
	bne	a0,zero,.L12
	.loc 1 658 95 is_stmt 1
	.loc 1 669 5
	.loc 1 669 10
	.loc 1 669 23 is_stmt 0
	li	a6,0
	mv	a5,s5
	addi	a4,s0,-96
.LVL49:
	addi	a3,s2,40
	addi	a2,s0,-108
.LVL50:
	addi	a1,s0,-84
	mv	a0,s2
	call	mbedtls_ecp_muladd_restartable
.LVL51:
	mv	s1,a0
.LVL52:
	.loc 1 669 12
	bne	a0,zero,.L12
	.loc 1 669 37 is_stmt 1
	.loc 1 672 5
	.loc 1 672 9 is_stmt 0
	addi	a0,s0,-84
	call	mbedtls_ecp_is_zero
.LVL53:
	.loc 1 672 7
	bne	a0,zero,.L11
	.loc 1 682 5 is_stmt 1
	.loc 1 682 10
	.loc 1 682 23 is_stmt 0
	addi	a1,s0,-84
	mv	a2,s4
	mv	a0,a1
	call	mbedtls_mpi_mod_mpi
.LVL54:
	mv	s1,a0
.LVL55:
	.loc 1 682 12
	bne	a0,zero,.L12
	.loc 1 682 97 is_stmt 1
	.loc 1 687 5
	.loc 1 687 9 is_stmt 0
	mv	a1,s3
	addi	a0,s0,-84
	call	mbedtls_mpi_cmp_mpi
.LVL56:
	mv	s1,a0
.LVL57:
	.loc 1 687 7
	beq	a0,zero,.L12
.L11:
	.loc 1 689 9 is_stmt 1
.LVL58:
	.loc 1 690 9
	.loc 1 689 13 is_stmt 0
	li	a0,-20480
	addi	s1,a0,512
.LVL59:
.L12:
	.loc 1 694 5 is_stmt 1
	addi	a0,s0,-84
	call	mbedtls_ecp_point_free
.LVL60:
	.loc 1 695 5
	addi	a0,s0,-132
	call	mbedtls_mpi_free
.LVL61:
	.loc 1 695 29
	addi	a0,s0,-120
	call	mbedtls_mpi_free
.LVL62:
	.loc 1 696 5
	addi	a0,s0,-108
.LVL63:
	call	mbedtls_mpi_free
.LVL64:
	.loc 1 696 30
	addi	a0,s0,-96
.LVL65:
	call	mbedtls_mpi_free
.LVL66:
	.loc 1 698 5
	.loc 1 700 5
.L9:
	.loc 1 701 1 is_stmt 0
	lw	ra,140(sp)
	.cfi_remember_state
	.cfi_restore 1
	lw	s0,136(sp)
	.cfi_restore 8
	.cfi_def_cfa 2, 144
.LVL67:
	lw	s2,128(sp)
	.cfi_restore 18
.LVL68:
	lw	s3,124(sp)
	.cfi_restore 19
.LVL69:
	lw	s4,120(sp)
	.cfi_restore 20
	lw	s5,116(sp)
	.cfi_restore 21
.LVL70:
	lw	s6,112(sp)
	.cfi_restore 22
.LVL71:
	lw	s7,108(sp)
	.cfi_restore 23
.LVL72:
	mv	a0,s1
	lw	s1,132(sp)
	.cfi_restore 9
	addi	sp,sp,144
	.cfi_def_cfa_offset 0
	jr	ra
.LVL73:
.L13:
	.cfi_restore_state
	.loc 1 615 15
	li	a0,-20480
	addi	s1,a0,128
.LVL74:
	j	.L9
	.cfi_endproc
.LFE21:
	.size	ecdsa_verify_restartable.constprop.0, .-ecdsa_verify_restartable.constprop.0
	.section	.text.ecdsa_sign_restartable.constprop.0,"ax",@progbits
	.align	1
	.type	ecdsa_sign_restartable.constprop.0, @function
ecdsa_sign_restartable.constprop.0:
.LFB20:
	.loc 1 252 12 is_stmt 1
	.cfi_startproc
.LVL75:
	.loc 1 260 5
	.loc 1 261 5
	.loc 1 262 5
	.loc 1 263 5
	.loc 1 264 5
	.loc 1 252 12 is_stmt 0
	addi	sp,sp,-160
	.cfi_def_cfa_offset 160
	sw	s0,152(sp)
	sw	ra,156(sp)
	.cfi_offset 8, -8
	.cfi_offset 1, -4
	addi	s0,sp,160
	.cfi_def_cfa 8, 0
.LVL76:
	.loc 1 267 5 is_stmt 1
	.loc 1 388 5
	.loc 1 396 14
	.loc 1 252 12 is_stmt 0
	sw	s1,148(sp)
	sw	s2,144(sp)
	sw	s3,140(sp)
	sw	s4,136(sp)
	sw	s5,132(sp)
	sw	s6,128(sp)
	sw	s7,124(sp)
	sw	s8,120(sp)
	sw	s9,116(sp)
	sw	s10,112(sp)
	sw	s11,108(sp)
	.cfi_offset 9, -12
	.cfi_offset 18, -16
	.cfi_offset 19, -20
	.cfi_offset 20, -24
	.cfi_offset 21, -28
	.cfi_offset 22, -32
	.cfi_offset 23, -36
	.cfi_offset 24, -40
	.cfi_offset 25, -44
	.cfi_offset 26, -48
	.cfi_offset 27, -52
	.loc 1 252 12
	sw	a5,-152(s0)
	.loc 1 267 43
	lw	a5,84(a0)
.LVL77:
	.loc 1 252 12
	sw	a4,-148(s0)
	.loc 1 267 43
	beq	a5,zero,.L26
	mv	s2,a0
	mv	s4,a1
	.loc 1 271 9
	mv	a0,a3
.LVL78:
	li	a1,1
.LVL79:
	mv	s1,a2
	mv	s5,a3
	mv	s8,a6
	mv	s9,a7
	.loc 1 271 5 is_stmt 1
	.loc 1 271 9 is_stmt 0
	call	mbedtls_mpi_cmp_int
.LVL80:
	.loc 1 271 7
	bge	a0,zero,.L20
.L21:
	.loc 1 272 15
	li	a0,-20480
	addi	s7,a0,896
.LVL81:
.L18:
	.loc 1 384 1
	lw	ra,156(sp)
	.cfi_remember_state
	.cfi_restore 1
	lw	s0,152(sp)
	.cfi_restore 8
	.cfi_def_cfa 2, 160
	lw	s1,148(sp)
	.cfi_restore 9
	lw	s2,144(sp)
	.cfi_restore 18
	lw	s3,140(sp)
	.cfi_restore 19
	lw	s4,136(sp)
	.cfi_restore 20
	lw	s5,132(sp)
	.cfi_restore 21
	lw	s6,128(sp)
	.cfi_restore 22
	lw	s8,120(sp)
	.cfi_restore 24
	lw	s9,116(sp)
	.cfi_restore 25
	lw	s10,112(sp)
	.cfi_restore 26
	lw	s11,108(sp)
	.cfi_restore 27
	mv	a0,s7
	lw	s7,124(sp)
	.cfi_restore 23
	addi	sp,sp,160
	.cfi_def_cfa_offset 0
	jr	ra
.LVL82:
.L20:
	.cfi_restore_state
	.loc 1 271 68
	addi	s3,s2,76
	.loc 1 271 44
	mv	a1,s3
	mv	a0,s5
	call	mbedtls_mpi_cmp_mpi
.LVL83:
	.loc 1 271 41
	bge	a0,zero,.L21
	.loc 1 274 5 is_stmt 1
	addi	a0,s0,-100
	call	mbedtls_ecp_point_init
.LVL84:
	.loc 1 275 5
	addi	a0,s0,-136
.LVL85:
	call	mbedtls_mpi_init
.LVL86:
	.loc 1 275 29
	addi	a0,s0,-124
	call	mbedtls_mpi_init
.LVL87:
	.loc 1 275 53
	addi	a0,s0,-112
	call	mbedtls_mpi_init
.LVL88:
	.loc 1 277 5
	.loc 1 296 5
	.loc 1 275 53 is_stmt 0
	li	s6,12
	.loc 1 326 73
	addi	s11,s2,40
.LVL89:
.L25:
	.loc 1 297 5 is_stmt 1
	.loc 1 299 9
	.loc 1 299 11 is_stmt 0
	addi	s6,s6,-1
.LVL90:
	beq	s6,zero,.L22
	li	s10,12
.LVL91:
.L24:
	.loc 1 310 9 is_stmt 1
	.loc 1 312 13
	.loc 1 312 15 is_stmt 0
	addi	s10,s10,-1
.LVL92:
	beq	s10,zero,.L22
.LVL93:
	.loc 1 318 13 is_stmt 1
	.loc 1 318 18
	.loc 1 318 31 is_stmt 0
	mv	a3,s9
	mv	a2,s8
	addi	a1,s0,-136
.LVL94:
	mv	a0,s2
	call	mbedtls_ecp_gen_privkey
.LVL95:
	mv	s7,a0
.LVL96:
	.loc 1 318 20
	bne	a0,zero,.L23
	.loc 1 318 111 is_stmt 1
	.loc 1 326 13
	.loc 1 326 18
	.loc 1 326 31 is_stmt 0
	lw	a5,4(s0)
	lw	a4,0(s0)
	li	a6,0
	mv	a3,s11
	addi	a2,s0,-136
.LVL97:
	addi	a1,s0,-100
	mv	a0,s2
.LVL98:
	call	mbedtls_ecp_mul_restartable
.LVL99:
	mv	s7,a0
.LVL100:
	.loc 1 326 20
	bne	a0,zero,.L23
	.loc 1 326 45 is_stmt 1
	.loc 1 330 13
	.loc 1 330 18
	.loc 1 330 31 is_stmt 0
	mv	a2,s3
	addi	a1,s0,-100
	mv	a0,s4
.LVL101:
	call	mbedtls_mpi_mod_mpi
.LVL102:
	mv	s7,a0
.LVL103:
	.loc 1 330 20
	bne	a0,zero,.L23
	.loc 1 330 103 is_stmt 1
	.loc 1 332 14
	.loc 1 332 16 is_stmt 0
	li	a1,0
	mv	a0,s4
.LVL104:
	call	mbedtls_mpi_cmp_int
.LVL105:
	.loc 1 332 9
	beq	a0,zero,.L24
	.loc 1 344 9 is_stmt 1
	.loc 1 349 9
	.loc 1 349 14
	.loc 1 349 27 is_stmt 0
	lw	a3,-152(s0)
	lw	a2,-148(s0)
	addi	a1,s0,-124
	mv	a0,s2
	call	derive_mpi
.LVL106:
	mv	s7,a0
.LVL107:
	.loc 1 349 16
	bne	a0,zero,.L23
	.loc 1 349 91 is_stmt 1
	.loc 1 355 9
	.loc 1 355 14
	.loc 1 355 27 is_stmt 0
	lw	a3,4(s0)
	lw	a2,0(s0)
	addi	a1,s0,-112
	mv	a0,s2
.LVL108:
	call	mbedtls_ecp_gen_privkey
.LVL109:
	mv	s7,a0
.LVL110:
	.loc 1 355 16
	bne	a0,zero,.L23
	.loc 1 355 119 is_stmt 1
	.loc 1 361 9
	.loc 1 361 14
	.loc 1 361 27 is_stmt 0
	mv	a2,s5
	mv	a1,s4
	mv	a0,s1
.LVL111:
	call	mbedtls_mpi_mul_mpi
.LVL112:
	mv	s7,a0
.LVL113:
	.loc 1 361 16
	bne	a0,zero,.L23
	.loc 1 361 90 is_stmt 1
	.loc 1 362 9
	.loc 1 362 14
	.loc 1 362 27 is_stmt 0
	addi	a1,s0,-124
	mv	a2,s1
	mv	a0,a1
.LVL114:
	call	mbedtls_mpi_add_mpi
.LVL115:
	mv	s7,a0
.LVL116:
	.loc 1 362 16
	bne	a0,zero,.L23
	.loc 1 362 91 is_stmt 1
	.loc 1 363 9
	.loc 1 363 14
	.loc 1 363 27 is_stmt 0
	addi	a1,s0,-124
	addi	a2,s0,-112
	mv	a0,a1
.LVL117:
	call	mbedtls_mpi_mul_mpi
.LVL118:
	mv	s7,a0
.LVL119:
	.loc 1 363 16
	bne	a0,zero,.L23
	.loc 1 363 92 is_stmt 1
	.loc 1 364 9
	.loc 1 364 14
	.loc 1 364 27 is_stmt 0
	addi	a1,s0,-136
.LVL120:
	addi	a2,s0,-112
	mv	a0,a1
.LVL121:
	call	mbedtls_mpi_mul_mpi
.LVL122:
	mv	s7,a0
.LVL123:
	.loc 1 364 16
	bne	a0,zero,.L23
	.loc 1 364 92 is_stmt 1
	.loc 1 365 9
	.loc 1 365 14
	.loc 1 365 27 is_stmt 0
	addi	a1,s0,-136
.LVL124:
	mv	a2,s3
	mv	a0,a1
.LVL125:
	call	mbedtls_mpi_mod_mpi
.LVL126:
	mv	s7,a0
.LVL127:
	.loc 1 365 16
	bne	a0,zero,.L23
	.loc 1 365 97 is_stmt 1
	.loc 1 366 9
	.loc 1 366 14
	.loc 1 366 27 is_stmt 0
	mv	a2,s3
	addi	a1,s0,-136
.LVL128:
	mv	a0,s1
.LVL129:
	call	mbedtls_mpi_inv_mod
.LVL130:
	mv	s7,a0
.LVL131:
	.loc 1 366 16
	bne	a0,zero,.L23
	.loc 1 366 96 is_stmt 1
	.loc 1 367 9
	.loc 1 367 14
	.loc 1 367 27 is_stmt 0
	addi	a2,s0,-124
	mv	a1,s1
	mv	a0,s1
.LVL132:
	call	mbedtls_mpi_mul_mpi
.LVL133:
	mv	s7,a0
.LVL134:
	.loc 1 367 16
	bne	a0,zero,.L23
	.loc 1 367 90 is_stmt 1
	.loc 1 368 9
	.loc 1 368 14
	.loc 1 368 27 is_stmt 0
	mv	a2,s3
	mv	a1,s1
	mv	a0,s1
.LVL135:
	call	mbedtls_mpi_mod_mpi
.LVL136:
	mv	s7,a0
.LVL137:
	.loc 1 368 16
	bne	a0,zero,.L23
	.loc 1 368 95 is_stmt 1
	.loc 1 370 10
	.loc 1 370 12 is_stmt 0
	li	a1,0
	mv	a0,s1
.LVL138:
	call	mbedtls_mpi_cmp_int
.LVL139:
	.loc 1 370 5
	beq	a0,zero,.L25
.LVL140:
.L23:
	.loc 1 378 5 is_stmt 1
	addi	a0,s0,-100
	call	mbedtls_ecp_point_free
.LVL141:
	.loc 1 379 5
	addi	a0,s0,-136
.LVL142:
	call	mbedtls_mpi_free
.LVL143:
	.loc 1 379 29
	addi	a0,s0,-124
	call	mbedtls_mpi_free
.LVL144:
	.loc 1 379 53
	addi	a0,s0,-112
	call	mbedtls_mpi_free
.LVL145:
	.loc 1 381 5
	.loc 1 383 5
	.loc 1 383 11 is_stmt 0
	j	.L18
.LVL146:
.L22:
	.loc 1 301 17
	li	a0,-20480
	addi	s7,a0,768
	j	.L23
.LVL147:
.L26:
	.loc 1 268 15
	li	a0,-20480
.LVL148:
	addi	s7,a0,128
	j	.L18
	.cfi_endproc
.LFE20:
	.size	ecdsa_sign_restartable.constprop.0, .-ecdsa_sign_restartable.constprop.0
	.section	.text.mbedtls_ecdsa_can_do,"ax",@progbits
	.align	1
	.globl	mbedtls_ecdsa_can_do
	.type	mbedtls_ecdsa_can_do, @function
mbedtls_ecdsa_can_do:
.LFB7:
	.loc 1 387 1 is_stmt 1
	.cfi_startproc
.LVL149:
	.loc 1 388 5
	.loc 1 396 14
	.loc 1 387 1 is_stmt 0
	addi	sp,sp,-16
	.cfi_def_cfa_offset 16
	sw	s0,12(sp)
	.cfi_offset 8, -4
	addi	s0,sp,16
	.cfi_def_cfa 8, 0
	.loc 1 398 1
	lw	s0,12(sp)
	.cfi_restore 8
	.cfi_def_cfa 2, 16
	li	a0,1
.LVL150:
	addi	sp,sp,16
	.cfi_def_cfa_offset 0
	jr	ra
	.cfi_endproc
.LFE7:
	.size	mbedtls_ecdsa_can_do, .-mbedtls_ecdsa_can_do
	.section	.text.mbedtls_ecdsa_sign,"ax",@progbits
	.align	1
	.globl	mbedtls_ecdsa_sign
	.type	mbedtls_ecdsa_sign, @function
mbedtls_ecdsa_sign:
.LFB8:
	.loc 1 406 1 is_stmt 1
	.cfi_startproc
.LVL151:
	.loc 1 407 5
	.loc 1 407 10
	.loc 1 407 17
	.loc 1 408 5
	.loc 1 408 10
	.loc 1 408 17
	.loc 1 409 5
	.loc 1 409 10
	.loc 1 409 17
	.loc 1 410 5
	.loc 1 410 10
	.loc 1 410 17
	.loc 1 411 5
	.loc 1 411 10
	.loc 1 411 17
	.loc 1 412 5
	.loc 1 412 10
	.loc 1 412 17
	.loc 1 415 5
	.loc 1 406 1 is_stmt 0
	addi	sp,sp,-32
	.cfi_def_cfa_offset 32
	sw	s0,24(sp)
	sw	ra,28(sp)
	.cfi_offset 8, -8
	.cfi_offset 1, -4
	addi	s0,sp,32
	.cfi_def_cfa 8, 0
	.loc 1 415 13
	sw	a7,4(sp)
	sw	a6,0(sp)
	call	ecdsa_sign_restartable.constprop.0
.LVL152:
	.loc 1 417 1
	lw	ra,28(sp)
	.cfi_restore 1
	lw	s0,24(sp)
	.cfi_restore 8
	.cfi_def_cfa 2, 32
	addi	sp,sp,32
	.cfi_def_cfa_offset 0
	jr	ra
	.cfi_endproc
.LFE8:
	.size	mbedtls_ecdsa_sign, .-mbedtls_ecdsa_sign
	.section	.text.mbedtls_ecdsa_verify,"ax",@progbits
	.align	1
	.globl	mbedtls_ecdsa_verify
	.type	mbedtls_ecdsa_verify, @function
mbedtls_ecdsa_verify:
.LFB10:
	.loc 1 711 1 is_stmt 1
	.cfi_startproc
.LVL153:
	.loc 1 712 5
	.loc 1 712 10
	.loc 1 712 17
	.loc 1 713 5
	.loc 1 713 10
	.loc 1 713 17
	.loc 1 714 5
	.loc 1 714 10
	.loc 1 714 17
	.loc 1 715 5
	.loc 1 715 10
	.loc 1 715 17
	.loc 1 716 5
	.loc 1 716 10
	.loc 1 716 17
	.loc 1 718 5
	.loc 1 711 1 is_stmt 0
	addi	sp,sp,-16
	.cfi_def_cfa_offset 16
	sw	s0,12(sp)
	.cfi_offset 8, -4
	addi	s0,sp,16
	.cfi_def_cfa 8, 0
	.loc 1 719 1
	lw	s0,12(sp)
	.cfi_restore 8
	.cfi_def_cfa 2, 16
	addi	sp,sp,16
	.cfi_def_cfa_offset 0
	.loc 1 718 13
	tail	ecdsa_verify_restartable.constprop.0
.LVL154:
	.cfi_endproc
.LFE10:
	.size	mbedtls_ecdsa_verify, .-mbedtls_ecdsa_verify
	.section	.text.mbedtls_ecdsa_write_signature_restartable,"ax",@progbits
	.align	1
	.globl	mbedtls_ecdsa_write_signature_restartable
	.type	mbedtls_ecdsa_write_signature_restartable, @function
mbedtls_ecdsa_write_signature_restartable:
.LFB12:
	.loc 1 756 1 is_stmt 1
	.cfi_startproc
.LVL155:
	.loc 1 757 5
	.loc 1 758 5
	.loc 1 759 5
	.loc 1 759 10
	.loc 1 759 17
	.loc 1 760 5
	.loc 1 760 10
	.loc 1 760 17
	.loc 1 761 5
	.loc 1 761 10
	.loc 1 761 17
	.loc 1 762 5
	.loc 1 762 10
	.loc 1 762 17
	.loc 1 764 5
	.loc 1 756 1 is_stmt 0
	addi	sp,sp,-176
	.cfi_def_cfa_offset 176
	sw	ra,172(sp)
	sw	s0,168(sp)
	sw	s1,164(sp)
	.cfi_offset 1, -4
	.cfi_offset 8, -8
	.cfi_offset 9, -12
	addi	s0,sp,176
	.cfi_def_cfa 8, 0
	sw	s2,160(sp)
	sw	s3,156(sp)
	sw	s4,152(sp)
	sw	s5,148(sp)
	mv	s1,a0
	.cfi_offset 18, -16
	.cfi_offset 19, -20
	.cfi_offset 20, -24
	.cfi_offset 21, -28
	.loc 1 764 5
	addi	a0,s0,-128
.LVL156:
	.loc 1 756 1
	mv	s4,a2
	mv	s5,a3
	mv	s3,a4
	mv	s2,a5
	sw	a6,-152(s0)
	sw	a7,-148(s0)
	.loc 1 764 5
	call	mbedtls_mpi_init
.LVL157:
	.loc 1 765 5 is_stmt 1
	addi	a0,s0,-116
	call	mbedtls_mpi_init
.LVL158:
	.loc 1 772 5
	.loc 1 781 5
	.loc 1 781 10
	.loc 1 781 23 is_stmt 0
	lw	a7,-148(s0)
	lw	a6,-152(s0)
	addi	a3,s1,108
	mv	a0,s1
	sw	a7,4(sp)
	sw	a6,0(sp)
	mv	a5,s5
	mv	a4,s4
	addi	a2,s0,-116
	addi	a1,s0,-128
	call	ecdsa_sign_restartable.constprop.0
.LVL159:
	mv	s1,a0
.LVL160:
	.loc 1 781 12
	bne	a0,zero,.L45
	.loc 1 781 155 is_stmt 1
	.loc 1 787 5
	.loc 1 787 10
.LVL161:
.LBB10:
.LBB11:
	.loc 1 728 5
	.loc 1 729 5
	.loc 1 729 19 is_stmt 0
	li	a2,68
	li	a1,0
	addi	a0,s0,-100
	sw	zero,-104(s0)
	call	memset
.LVL162:
	.loc 1 730 5 is_stmt 1
	.loc 1 730 20 is_stmt 0
	addi	a5,s0,-32
	.loc 1 733 23
	addi	a2,s0,-116
.LVL163:
	addi	a1,s0,-104
	addi	a0,s0,-132
	.loc 1 730 20
	sw	a5,-132(s0)
	.loc 1 731 5 is_stmt 1
.LVL164:
	.loc 1 733 5
	.loc 1 733 10
	.loc 1 733 23 is_stmt 0
	call	mbedtls_asn1_write_mpi
.LVL165:
	mv	s1,a0
.LVL166:
	.loc 1 733 12
	blt	a0,zero,.L45
	.loc 1 733 89 is_stmt 1
.LVL167:
	.loc 1 733 110
	.loc 1 734 5
	.loc 1 734 10
	.loc 1 734 23 is_stmt 0
	addi	a2,s0,-128
.LVL168:
	addi	a1,s0,-104
	addi	a0,s0,-132
	call	mbedtls_asn1_write_mpi
.LVL169:
	.loc 1 734 12
	blt	a0,zero,.L48
	.loc 1 734 89 is_stmt 1
	.loc 1 734 95 is_stmt 0
	add	s4,s1,a0
.LVL170:
	.loc 1 734 110 is_stmt 1
	.loc 1 736 5
	.loc 1 736 10
	.loc 1 736 23 is_stmt 0
	mv	a2,s4
	addi	a1,s0,-104
	addi	a0,s0,-132
.LVL171:
	call	mbedtls_asn1_write_len
.LVL172:
	mv	s1,a0
.LVL173:
	.loc 1 736 12
	blt	a0,zero,.L45
	.loc 1 736 91 is_stmt 1
.LVL174:
	.loc 1 736 112
	.loc 1 737 5
	.loc 1 737 10
	.loc 1 737 23 is_stmt 0
	li	a2,48
	addi	a1,s0,-104
	addi	a0,s0,-132
	call	mbedtls_asn1_write_tag
.LVL175:
	.loc 1 737 12
	blt	a0,zero,.L48
	.loc 1 737 99 is_stmt 1
	.loc 1 740 5 is_stmt 0
	lw	a1,-132(s0)
	.loc 1 736 97
	add	s1,s1,s4
.LVL176:
	.loc 1 737 105
	add	s1,a0,s1
.LVL177:
	.loc 1 737 120 is_stmt 1
	.loc 1 740 5
	mv	a2,s1
	mv	a0,s3
.LVL178:
	call	memcpy
.LVL179:
	.loc 1 741 5
	.loc 1 741 11 is_stmt 0
	sw	s1,0(s2)
	.loc 1 743 5 is_stmt 1
	.loc 1 743 11 is_stmt 0
	li	s1,0
.LVL180:
.L45:
.LBE11:
.LBE10:
	.loc 1 787 99 is_stmt 1 discriminator 3
	.loc 1 790 5 discriminator 3
	addi	a0,s0,-128
	call	mbedtls_mpi_free
.LVL181:
	.loc 1 791 5 discriminator 3
	addi	a0,s0,-116
	call	mbedtls_mpi_free
.LVL182:
	.loc 1 793 5 discriminator 3
	.loc 1 794 1 is_stmt 0 discriminator 3
	lw	ra,172(sp)
	.cfi_remember_state
	.cfi_restore 1
	lw	s0,168(sp)
	.cfi_restore 8
	.cfi_def_cfa 2, 176
	lw	s2,160(sp)
	.cfi_restore 18
.LVL183:
	lw	s3,156(sp)
	.cfi_restore 19
.LVL184:
	lw	s4,152(sp)
	.cfi_restore 20
	lw	s5,148(sp)
	.cfi_restore 21
.LVL185:
	mv	a0,s1
	lw	s1,164(sp)
	.cfi_restore 9
.LVL186:
	addi	sp,sp,176
	.cfi_def_cfa_offset 0
	jr	ra
.LVL187:
.L48:
	.cfi_restore_state
.LBB13:
.LBB12:
	mv	s1,a0
.LVL188:
.LBE12:
.LBE13:
	.loc 1 789 1
	j	.L45
	.cfi_endproc
.LFE12:
	.size	mbedtls_ecdsa_write_signature_restartable, .-mbedtls_ecdsa_write_signature_restartable
	.section	.text.mbedtls_ecdsa_write_signature,"ax",@progbits
	.align	1
	.globl	mbedtls_ecdsa_write_signature
	.type	mbedtls_ecdsa_write_signature, @function
mbedtls_ecdsa_write_signature:
.LFB13:
	.loc 1 805 1 is_stmt 1
	.cfi_startproc
.LVL189:
	.loc 1 806 5
	.loc 1 806 10
	.loc 1 806 17
	.loc 1 807 5
	.loc 1 807 10
	.loc 1 807 17
	.loc 1 808 5
	.loc 1 808 10
	.loc 1 808 17
	.loc 1 809 5
	.loc 1 809 10
	.loc 1 809 17
	.loc 1 810 5
	.loc 1 805 1 is_stmt 0
	addi	sp,sp,-32
	.cfi_def_cfa_offset 32
	sw	s0,24(sp)
	sw	ra,28(sp)
	.cfi_offset 8, -8
	.cfi_offset 1, -4
	addi	s0,sp,32
	.cfi_def_cfa 8, 0
	.loc 1 810 13
	sw	zero,0(sp)
	call	mbedtls_ecdsa_write_signature_restartable
.LVL190:
	.loc 1 812 1
	lw	ra,28(sp)
	.cfi_restore 1
	lw	s0,24(sp)
	.cfi_restore 8
	.cfi_def_cfa 2, 32
	addi	sp,sp,32
	.cfi_def_cfa_offset 0
	jr	ra
	.cfi_endproc
.LFE13:
	.size	mbedtls_ecdsa_write_signature, .-mbedtls_ecdsa_write_signature
	.section	.text.mbedtls_ecdsa_read_signature_restartable,"ax",@progbits
	.align	1
	.globl	mbedtls_ecdsa_read_signature_restartable
	.type	mbedtls_ecdsa_read_signature_restartable, @function
mbedtls_ecdsa_read_signature_restartable:
.LFB15:
	.loc 1 851 1 is_stmt 1
	.cfi_startproc
.LVL191:
	.loc 1 852 5
	.loc 1 853 5
	.loc 1 851 1 is_stmt 0
	addi	sp,sp,-64
	.cfi_def_cfa_offset 64
	sw	ra,60(sp)
	sw	s0,56(sp)
	sw	s1,52(sp)
	.cfi_offset 1, -4
	.cfi_offset 8, -8
	.cfi_offset 9, -12
	addi	s0,sp,64
	.cfi_def_cfa 8, 0
	sw	s2,48(sp)
	sw	s3,44(sp)
	sw	s4,40(sp)
	.cfi_offset 18, -16
	.cfi_offset 19, -20
	.cfi_offset 20, -24
	.loc 1 851 1
	mv	s1,a0
	.loc 1 861 5
	addi	a0,s0,-56
.LVL192:
	.loc 1 854 26
	add	s2,a3,a4
	.loc 1 851 1
	mv	s3,a1
	mv	s4,a2
	.loc 1 853 20
	sw	a3,-64(s0)
	.loc 1 854 5 is_stmt 1
.LVL193:
	.loc 1 855 5
	.loc 1 856 5
	.loc 1 857 5
	.loc 1 857 10
	.loc 1 857 17
	.loc 1 858 5
	.loc 1 858 10
	.loc 1 858 17
	.loc 1 859 5
	.loc 1 859 10
	.loc 1 859 17
	.loc 1 861 5
	call	mbedtls_mpi_init
.LVL194:
	.loc 1 862 5
	addi	a0,s0,-44
	call	mbedtls_mpi_init
.LVL195:
	.loc 1 864 5
	.loc 1 864 17 is_stmt 0
	li	a3,48
	addi	a2,s0,-60
	mv	a1,s2
	addi	a0,s0,-64
	call	mbedtls_asn1_get_tag
.LVL196:
	.loc 1 864 7
	beq	a0,zero,.L53
.L55:
	.loc 1 881 9 is_stmt 1
	.loc 1 881 13 is_stmt 0
	li	s1,-20480
.LVL197:
	addi	s1,s1,128
	add	s1,a0,s1
.LVL198:
	.loc 1 882 9 is_stmt 1
.L54:
	.loc 1 903 5
	addi	a0,s0,-56
	call	mbedtls_mpi_free
.LVL199:
	.loc 1 904 5
	addi	a0,s0,-44
	call	mbedtls_mpi_free
.LVL200:
	.loc 1 906 5
	.loc 1 907 1 is_stmt 0
	lw	ra,60(sp)
	.cfi_remember_state
	.cfi_restore 1
	lw	s0,56(sp)
	.cfi_restore 8
	.cfi_def_cfa 2, 64
	lw	s2,48(sp)
	.cfi_restore 18
.LVL201:
	lw	s3,44(sp)
	.cfi_restore 19
.LVL202:
	lw	s4,40(sp)
	.cfi_restore 20
.LVL203:
	mv	a0,s1
	lw	s1,52(sp)
	.cfi_restore 9
.LVL204:
	addi	sp,sp,64
	.cfi_def_cfa_offset 0
	jr	ra
.LVL205:
.L53:
	.cfi_restore_state
	.loc 1 871 5 is_stmt 1
	.loc 1 871 11 is_stmt 0
	lw	a5,-64(s0)
	lw	a4,-60(s0)
	add	a5,a5,a4
	.loc 1 871 7
	bne	s2,a5,.L57
	.loc 1 878 5 is_stmt 1
	.loc 1 878 17 is_stmt 0
	addi	a2,s0,-56
	mv	a1,s2
	addi	a0,s0,-64
.LVL206:
	call	mbedtls_asn1_get_mpi
.LVL207:
	.loc 1 878 7
	bne	a0,zero,.L55
	.loc 1 879 17 discriminator 1
	addi	a2,s0,-44
	mv	a1,s2
	addi	a0,s0,-64
.LVL208:
	call	mbedtls_asn1_get_mpi
.LVL209:
	.loc 1 878 60 discriminator 1
	bne	a0,zero,.L55
	.loc 1 891 5 is_stmt 1
	.loc 1 891 17 is_stmt 0
	addi	a3,s1,120
	mv	a0,s1
.LVL210:
	addi	a5,s0,-44
	addi	a4,s0,-56
	mv	a2,s4
	mv	a1,s3
	call	ecdsa_verify_restartable.constprop.0
.LVL211:
	mv	s1,a0
.LVL212:
	.loc 1 891 7
	bne	a0,zero,.L54
	.loc 1 899 5 is_stmt 1
	.loc 1 899 7 is_stmt 0
	lw	a5,-64(s0)
	beq	a5,s2,.L54
	.loc 1 900 13
	li	s1,-20480
.LVL213:
	addi	s1,s1,1024
	j	.L54
.LVL214:
.L57:
	.loc 1 873 15
	li	s1,-20480
.LVL215:
	addi	s1,s1,26
	j	.L54
	.cfi_endproc
.LFE15:
	.size	mbedtls_ecdsa_read_signature_restartable, .-mbedtls_ecdsa_read_signature_restartable
	.section	.text.mbedtls_ecdsa_read_signature,"ax",@progbits
	.align	1
	.globl	mbedtls_ecdsa_read_signature
	.type	mbedtls_ecdsa_read_signature, @function
mbedtls_ecdsa_read_signature:
.LFB14:
	.loc 1 836 1 is_stmt 1
	.cfi_startproc
.LVL216:
	.loc 1 837 5
	.loc 1 837 10
	.loc 1 837 17
	.loc 1 838 5
	.loc 1 838 10
	.loc 1 838 17
	.loc 1 839 5
	.loc 1 839 10
	.loc 1 839 17
	.loc 1 840 5
	.loc 1 836 1 is_stmt 0
	addi	sp,sp,-16
	.cfi_def_cfa_offset 16
	sw	s0,12(sp)
	.cfi_offset 8, -4
	addi	s0,sp,16
	.cfi_def_cfa 8, 0
	.loc 1 842 1
	lw	s0,12(sp)
	.cfi_restore 8
	.cfi_def_cfa 2, 16
	.loc 1 840 13
	li	a5,0
	.loc 1 842 1
	addi	sp,sp,16
	.cfi_def_cfa_offset 0
	.loc 1 840 13
	tail	mbedtls_ecdsa_read_signature_restartable
.LVL217:
	.cfi_endproc
.LFE14:
	.size	mbedtls_ecdsa_read_signature, .-mbedtls_ecdsa_read_signature
	.section	.text.mbedtls_ecdsa_genkey,"ax",@progbits
	.align	1
	.globl	mbedtls_ecdsa_genkey
	.type	mbedtls_ecdsa_genkey, @function
mbedtls_ecdsa_genkey:
.LFB16:
	.loc 1 915 1 is_stmt 1
	.cfi_startproc
.LVL218:
	.loc 1 916 5
	.loc 1 917 5
	.loc 1 917 10
	.loc 1 917 17
	.loc 1 918 5
	.loc 1 918 10
	.loc 1 918 17
	.loc 1 920 5
	.loc 1 915 1 is_stmt 0
	addi	sp,sp,-32
	.cfi_def_cfa_offset 32
	sw	s0,24(sp)
	sw	s1,20(sp)
	sw	s2,16(sp)
	.cfi_offset 8, -8
	.cfi_offset 9, -12
	.cfi_offset 18, -16
	addi	s0,sp,32
	.cfi_def_cfa 8, 0
	sw	ra,28(sp)
	.cfi_offset 1, -4
	.loc 1 915 1
	mv	s1,a0
	mv	s2,a2
	sw	a3,-20(s0)
	.loc 1 920 11
	call	mbedtls_ecp_group_load
.LVL219:
	.loc 1 921 5 is_stmt 1
	.loc 1 921 7 is_stmt 0
	bne	a0,zero,.L61
	.loc 1 924 4 is_stmt 1
	.loc 1 924 12 is_stmt 0
	lw	a4,-20(s0)
	.loc 1 926 1
	lw	s0,24(sp)
	.cfi_remember_state
	.cfi_restore 8
	.cfi_def_cfa 2, 32
.LVL220:
	lw	ra,28(sp)
	.cfi_restore 1
	.loc 1 924 12
	mv	a3,s2
	addi	a2,s1,120
	.loc 1 926 1
	lw	s2,16(sp)
	.cfi_restore 18
.LVL221:
	.loc 1 924 12
	addi	a1,s1,108
	mv	a0,s1
.LVL222:
	.loc 1 926 1
	lw	s1,20(sp)
	.cfi_restore 9
.LVL223:
	addi	sp,sp,32
	.cfi_def_cfa_offset 0
	.loc 1 924 12
	tail	mbedtls_ecp_gen_keypair
.LVL224:
.L61:
	.cfi_restore_state
	.loc 1 926 1
	lw	ra,28(sp)
	.cfi_restore 1
	lw	s0,24(sp)
	.cfi_restore 8
	.cfi_def_cfa 2, 32
	lw	s1,20(sp)
	.cfi_restore 9
.LVL225:
	lw	s2,16(sp)
	.cfi_restore 18
.LVL226:
	addi	sp,sp,32
	.cfi_def_cfa_offset 0
	jr	ra
	.cfi_endproc
.LFE16:
	.size	mbedtls_ecdsa_genkey, .-mbedtls_ecdsa_genkey
	.section	.text.mbedtls_ecdsa_init,"ax",@progbits
	.align	1
	.globl	mbedtls_ecdsa_init
	.type	mbedtls_ecdsa_init, @function
mbedtls_ecdsa_init:
.LFB18:
	.loc 1 952 1 is_stmt 1
	.cfi_startproc
.LVL227:
	.loc 1 953 5
	.loc 1 953 10
	.loc 1 953 17
	.loc 1 955 5
	.loc 1 952 1 is_stmt 0
	addi	sp,sp,-16
	.cfi_def_cfa_offset 16
	sw	s0,12(sp)
	.cfi_offset 8, -4
	addi	s0,sp,16
	.cfi_def_cfa 8, 0
	.loc 1 956 1
	lw	s0,12(sp)
	.cfi_restore 8
	.cfi_def_cfa 2, 16
	addi	sp,sp,16
	.cfi_def_cfa_offset 0
	.loc 1 955 5
	tail	mbedtls_ecp_keypair_init
.LVL228:
	.cfi_endproc
.LFE18:
	.size	mbedtls_ecdsa_init, .-mbedtls_ecdsa_init
	.section	.text.mbedtls_ecdsa_free,"ax",@progbits
	.align	1
	.globl	mbedtls_ecdsa_free
	.type	mbedtls_ecdsa_free, @function
mbedtls_ecdsa_free:
.LFB19:
	.loc 1 962 1 is_stmt 1
	.cfi_startproc
.LVL229:
	.loc 1 963 5
	.loc 1 962 1 is_stmt 0
	addi	sp,sp,-16
	.cfi_def_cfa_offset 16
	sw	s0,12(sp)
	.cfi_offset 8, -4
	addi	s0,sp,16
	.cfi_def_cfa 8, 0
	.loc 1 963 7
	beq	a0,zero,.L66
	.loc 1 966 5 is_stmt 1
	.loc 1 967 1 is_stmt 0
	lw	s0,12(sp)
	.cfi_remember_state
	.cfi_restore 8
	.cfi_def_cfa 2, 16
	addi	sp,sp,16
	.cfi_def_cfa_offset 0
	.loc 1 966 5
	tail	mbedtls_ecp_keypair_free
.LVL230:
.L66:
	.cfi_restore_state
	.loc 1 967 1
	lw	s0,12(sp)
	.cfi_restore 8
	.cfi_def_cfa 2, 16
	addi	sp,sp,16
	.cfi_def_cfa_offset 0
	jr	ra
	.cfi_endproc
.LFE19:
	.size	mbedtls_ecdsa_free, .-mbedtls_ecdsa_free
	.section	.text.mbedtls_ecdsa_from_keypair,"ax",@progbits
	.align	1
	.globl	mbedtls_ecdsa_from_keypair
	.type	mbedtls_ecdsa_from_keypair, @function
mbedtls_ecdsa_from_keypair:
.LFB17:
	.loc 1 933 1 is_stmt 1
	.cfi_startproc
.LVL231:
	.loc 1 934 5
	.loc 1 935 5
	.loc 1 935 10
	.loc 1 935 17
	.loc 1 936 5
	.loc 1 936 10
	.loc 1 936 17
	.loc 1 938 5
	.loc 1 933 1 is_stmt 0
	addi	sp,sp,-32
	.cfi_def_cfa_offset 32
	sw	s0,24(sp)
	sw	s1,20(sp)
	sw	s2,16(sp)
	sw	s3,12(sp)
	sw	ra,28(sp)
	.cfi_offset 8, -8
	.cfi_offset 9, -12
	.cfi_offset 18, -16
	.cfi_offset 19, -20
	.cfi_offset 1, -4
	addi	s0,sp,32
	.cfi_def_cfa 8, 0
	.loc 1 933 1
	mv	s2,a0
	mv	s3,a1
	.loc 1 938 17
	call	mbedtls_ecp_group_copy
.LVL232:
	mv	s1,a0
.LVL233:
	.loc 1 938 7
	bne	a0,zero,.L70
	.loc 1 939 17 discriminator 1
	addi	a1,s3,108
	addi	a0,s2,108
	call	mbedtls_mpi_copy
.LVL234:
	mv	s1,a0
.LVL235:
	.loc 1 938 71 discriminator 1
	bne	a0,zero,.L70
	.loc 1 940 17
	addi	a1,s3,120
	addi	a0,s2,120
	call	mbedtls_ecp_copy
.LVL236:
	mv	s1,a0
.LVL237:
	.loc 1 939 61
	beq	a0,zero,.L69
.L70:
	.loc 1 942 9 is_stmt 1
	mv	a0,s2
	call	mbedtls_ecdsa_free
.LVL238:
	.loc 1 945 5
.L69:
	.loc 1 946 1 is_stmt 0
	lw	ra,28(sp)
	.cfi_restore 1
	lw	s0,24(sp)
	.cfi_restore 8
	.cfi_def_cfa 2, 32
	lw	s2,16(sp)
	.cfi_restore 18
.LVL239:
	lw	s3,12(sp)
	.cfi_restore 19
.LVL240:
	mv	a0,s1
	lw	s1,20(sp)
	.cfi_restore 9
.LVL241:
	addi	sp,sp,32
	.cfi_def_cfa_offset 0
	jr	ra
	.cfi_endproc
.LFE17:
	.size	mbedtls_ecdsa_from_keypair, .-mbedtls_ecdsa_from_keypair
	.text
.Letext0:
	.file 2 "/home/dinhquangha/Ai-Thinker-WB2/toolchain/riscv/Linux/lib/gcc/riscv64-unknown-elf/10.2.0/include/stddef.h"
	.file 3 "/home/dinhquangha/Ai-Thinker-WB2/toolchain/riscv/Linux/lib/gcc/riscv64-unknown-elf/10.2.0/include/stdint-gcc.h"
	.file 4 "/home/dinhquangha/Ai-Thinker-WB2/components/security/mbedtls_lts/mbedtls/include/mbedtls/bignum.h"
	.file 5 "/home/dinhquangha/Ai-Thinker-WB2/components/security/mbedtls_lts/mbedtls/include/mbedtls/ecp.h"
	.file 6 "/home/dinhquangha/Ai-Thinker-WB2/components/security/mbedtls_lts/port/ecp_alt.h"
	.file 7 "/home/dinhquangha/Ai-Thinker-WB2/components/security/mbedtls_lts/mbedtls/include/mbedtls/md.h"
	.file 8 "/home/dinhquangha/Ai-Thinker-WB2/components/security/mbedtls_lts/mbedtls/include/mbedtls/ecdsa.h"
	.file 9 "/home/dinhquangha/Ai-Thinker-WB2/components/security/mbedtls_lts/mbedtls/include/mbedtls/error.h"
	.file 10 "/home/dinhquangha/Ai-Thinker-WB2/components/security/mbedtls_lts/mbedtls/include/mbedtls/asn1.h"
	.file 11 "/home/dinhquangha/Ai-Thinker-WB2/components/security/mbedtls_lts/mbedtls/include/mbedtls/asn1write.h"
	.file 12 "/home/dinhquangha/Ai-Thinker-WB2/toolchain/riscv/Linux/riscv64-unknown-elf/include/string.h"
	.file 13 "<built-in>"