	.file	"entropy.c"
	.option nopic
	.attribute arch, "rv32i2p0_m2p0_f2p0_c2p0"
	.attribute unaligned_access, 0
	.attribute stack_align, 16
	.text
.Ltext0:
	.cfi_sections	.debug_frame
	.section	.text.entropy_update,"ax",@progbits
	.align	1
	.type	entropy_update, @function
entropy_update:
.LFB8:
	.file 1 "/home/dinhquangha/intern/Ai-Thinker-WB2/components/security/mbedtls_lts/mbedtls/library/entropy.c"
	.loc 1 182 1
	.cfi_startproc
.LVL0:
	.loc 1 183 5
	.loc 1 184 5
	.loc 1 185 5
	.loc 1 186 5
	.loc 1 182 1 is_stmt 0
	addi	sp,sp,-112
	.cfi_def_cfa_offset 112
	sw	s0,104(sp)
	sw	s2,96(sp)
	sw	s3,92(sp)
	sw	s4,88(sp)
	sw	s5,84(sp)
	sw	ra,108(sp)
	sw	s1,100(sp)
	.cfi_offset 8, -8
	.cfi_offset 18, -16
	.cfi_offset 19, -20
	.cfi_offset 20, -24
	.cfi_offset 21, -28
	.cfi_offset 1, -4
	.cfi_offset 9, -12
	addi	s0,sp,112
	.cfi_def_cfa 8, 0
	.loc 1 189 7
	li	a5,64
	.loc 1 182 1
	mv	s4,a0
	mv	s5,a1
	mv	s3,a2
.LVL1:
	.loc 1 187 5 is_stmt 1
	.loc 1 189 5
	.loc 1 182 1 is_stmt 0
	mv	s2,a3
	.loc 1 189 7
	bleu	a3,a5,.L2
	.loc 1 192 9 is_stmt 1
	.loc 1 192 21 is_stmt 0
	li	a3,0
.LVL2:
	addi	a2,s0,-96
.LVL3:
	mv	a1,s2
.LVL4:
	mv	a0,s3
.LVL5:
	call	mbedtls_sha512_ret
.LVL6:
	mv	s1,a0
.LVL7:
	.loc 1 192 11
	bne	a0,zero,.L3
	.loc 1 198 11
	addi	s3,s0,-96
.LVL8:
	.loc 1 199 17
	li	s2,64
.LVL9:
.L2:
	.loc 1 202 5 is_stmt 1
	.loc 1 211 7 is_stmt 0
	lw	a5,0(s4)
	.loc 1 202 15
	sb	s5,-100(s0)
	.loc 1 203 5 is_stmt 1
	.loc 1 203 15 is_stmt 0
	sb	s2,-99(s0)
	.loc 1 211 5 is_stmt 1
	.loc 1 212 17 is_stmt 0
	addi	s5,s4,8
	.loc 1 211 7
	beq	a5,zero,.L4
.L6:
	.loc 1 215 9 is_stmt 1
	.loc 1 215 34 is_stmt 0
	li	a5,1
	sw	a5,0(s4)
	.loc 1 216 5 is_stmt 1
	.loc 1 216 17 is_stmt 0
	li	a2,2
	addi	a1,s0,-100
	mv	a0,s5
	call	mbedtls_sha512_update_ret
.LVL10:
	mv	s1,a0
.LVL11:
	.loc 1 216 7
	bne	a0,zero,.L3
	.loc 1 218 5 is_stmt 1
	.loc 1 218 11 is_stmt 0
	mv	a2,s2
	mv	a1,s3
	mv	a0,s5
	call	mbedtls_sha512_update_ret
.LVL12:
	mv	s1,a0
.LVL13:
	j	.L3
.LVL14:
.L4:
	.loc 1 212 17 discriminator 1
	li	a1,0
	mv	a0,s5
	call	mbedtls_sha512_starts_ret
.LVL15:
	mv	s1,a0
.LVL16:
	.loc 1 211 39 discriminator 1
	beq	a0,zero,.L6
.L3:
	.loc 1 231 5 is_stmt 1
	addi	a0,s0,-96
	li	a1,64
	call	mbedtls_platform_zeroize
.LVL17:
	.loc 1 233 5
	.loc 1 234 1 is_stmt 0
	lw	ra,108(sp)
	.cfi_restore 1
	lw	s0,104(sp)
	.cfi_restore 8
	.cfi_def_cfa 2, 112
	lw	s2,96(sp)
	.cfi_restore 18
.LVL18:
	lw	s3,92(sp)
	.cfi_restore 19
.LVL19:
	lw	s4,88(sp)
	.cfi_restore 20
.LVL20:
	lw	s5,84(sp)
	.cfi_restore 21
	mv	a0,s1
	lw	s1,100(sp)
	.cfi_restore 9
.LVL21:
	addi	sp,sp,112
	.cfi_def_cfa_offset 0
	jr	ra
	.cfi_endproc
.LFE8:
	.size	entropy_update, .-entropy_update
	.section	.text.entropy_gather_internal.part.0,"ax",@progbits
	.align	1
	.type	entropy_gather_internal.part.0, @function
entropy_gather_internal.part.0:
.LFB15:
	.loc 1 259 12 is_stmt 1
	.cfi_startproc
.LVL22:
	addi	sp,sp,-176
	.cfi_def_cfa_offset 176
	sw	s0,168(sp)
	sw	s1,164(sp)
	sw	s2,160(sp)
	sw	s3,156(sp)
	sw	s4,152(sp)
	sw	s5,148(sp)
	sw	s6,144(sp)
	sw	ra,172(sp)
	.cfi_offset 8, -8
	.cfi_offset 9, -12
	.cfi_offset 18, -16
	.cfi_offset 19, -20
	.cfi_offset 20, -24
	.cfi_offset 21, -28
	.cfi_offset 22, -32
	.cfi_offset 1, -4
	addi	s0,sp,176
	.cfi_def_cfa 8, 0
	.loc 1 259 12 is_stmt 0
	mv	s3,a0
	addi	s1,a0,228
	.loc 1 263 9
	li	s5,0
	.loc 1 273 12
	li	s4,0
	.loc 1 261 9
	li	s2,-60
	.loc 1 275 11
	li	s6,1
.LVL23:
.L10:
	.loc 1 273 17 is_stmt 1
	.loc 1 273 5 is_stmt 0
	lw	a5,224(s3)
	blt	s4,a5,.L15
	.loc 1 297 5 is_stmt 1
	.loc 1 297 7 is_stmt 0
	bne	s5,zero,.L12
	.loc 1 298 13
	li	s2,-61
.LVL24:
.L12:
	.loc 1 301 5 is_stmt 1
	addi	a0,s0,-160
	li	a1,128
	call	mbedtls_platform_zeroize
.LVL25:
	.loc 1 303 5
	.loc 1 303 11 is_stmt 0
	mv	a0,s2
.LVL26:
.L9:
	.loc 1 304 1
	lw	ra,172(sp)
	.cfi_remember_state
	.cfi_restore 1
	lw	s0,168(sp)
	.cfi_restore 8
	.cfi_def_cfa 2, 176
	lw	s1,164(sp)
	.cfi_restore 9
	lw	s2,160(sp)
	.cfi_restore 18
	lw	s3,156(sp)
	.cfi_restore 19
.LVL27:
	lw	s4,152(sp)
	.cfi_restore 20
.LVL28:
	lw	s5,148(sp)
	.cfi_restore 21
.LVL29:
	lw	s6,144(sp)
	.cfi_restore 22
	addi	sp,sp,176
	.cfi_def_cfa_offset 0
	jr	ra
.LVL30:
.L15:
	.cfi_restore_state
	.loc 1 275 9 is_stmt 1
	.loc 1 275 27 is_stmt 0
	lw	a5,16(s1)
	.loc 1 275 11
	bne	a5,s6,.L11
	.loc 1 276 29
	li	s5,1
.LVL31:
.L11:
	.loc 1 278 9 is_stmt 1
	.loc 1 279 21 is_stmt 0
	lw	a5,0(s1)
	lw	a0,4(s1)
	.loc 1 278 14
	sw	zero,-164(s0)
	.loc 1 279 9 is_stmt 1
	.loc 1 279 21 is_stmt 0
	addi	a3,s0,-164
	li	a2,128
	addi	a1,s0,-160
	jalr	a5
.LVL32:
	mv	s2,a0
.LVL33:
	.loc 1 279 11
	bne	a0,zero,.L12
	.loc 1 288 9 is_stmt 1
	.loc 1 288 18 is_stmt 0
	lw	a3,-164(s0)
	.loc 1 288 11
	beq	a3,zero,.L13
	.loc 1 290 13 is_stmt 1
	.loc 1 290 25 is_stmt 0
	addi	a2,s0,-160
	andi	a1,s4,0xff
	mv	a0,s3
.LVL34:
	call	entropy_update
.LVL35:
	.loc 1 290 15
	bne	a0,zero,.L9
	.loc 1 293 13 is_stmt 1
	.loc 1 293 33 is_stmt 0
	lw	a5,8(s1)
	lw	a4,-164(s0)
	add	a5,a5,a4
	sw	a5,8(s1)
.L13:
.LVL36:
	.loc 1 273 40 is_stmt 1
	.loc 1 273 41 is_stmt 0
	addi	s4,s4,1
.LVL37:
	addi	s1,s1,20
	j	.L10
	.cfi_endproc
.LFE15:
	.size	entropy_gather_internal.part.0, .-entropy_gather_internal.part.0
	.section	.text.mbedtls_entropy_func.part.0,"ax",@progbits
	.align	1
	.type	mbedtls_entropy_func.part.0, @function
mbedtls_entropy_func.part.0:
.LFB16:
	.loc 1 328 5 is_stmt 1
	.cfi_startproc
.LVL38:
	addi	sp,sp,-112
	.cfi_def_cfa_offset 112
	sw	s0,104(sp)
	sw	s2,96(sp)
	sw	s3,92(sp)
	sw	s4,88(sp)
	sw	s5,84(sp)
	sw	s7,76(sp)
	sw	s8,72(sp)
	sw	ra,108(sp)
	sw	s1,100(sp)
	sw	s6,80(sp)
	.cfi_offset 8, -8
	.cfi_offset 18, -16
	.cfi_offset 19, -20
	.cfi_offset 20, -24
	.cfi_offset 21, -28
	.cfi_offset 23, -36
	.cfi_offset 24, -40
	.cfi_offset 1, -4
	.cfi_offset 9, -12
	.cfi_offset 22, -32
	addi	s0,sp,112
	.cfi_def_cfa 8, 0
	.loc 1 328 5 is_stmt 0
	mv	s2,a0
	mv	s4,a1
	mv	s5,a2
	li	s3,258
	.loc 1 369 28
	li	s8,1
	.loc 1 379 33
	li	s7,63
.LVL39:
.L32:
	.loc 1 358 5 is_stmt 1
	.loc 1 360 9
	.loc 1 360 11 is_stmt 0
	addi	s3,s3,-1
.LVL40:
	beq	s3,zero,.L29
.LVL41:
	.loc 1 366 9 is_stmt 1
.LBB6:
.LBB7:
	.loc 1 261 5
	.loc 1 262 5
	.loc 1 263 5
	.loc 1 264 5
	.loc 1 265 5
	.loc 1 267 5
	.loc 1 267 7 is_stmt 0
	lw	a5,224(s2)
	beq	a5,zero,.L30
	mv	a0,s2
	call	entropy_gather_internal.part.0
.LVL42:
	mv	s1,a0
.LVL43:
.LBE7:
.LBE6:
	.loc 1 366 11
	bne	a0,zero,.L21
	.loc 1 371 28
	lw	a0,224(s2)
	addi	s6,s2,236
	mv	a5,s6
	.loc 1 371 16
	li	a3,0
	.loc 1 370 21
	li	a4,0
	.loc 1 369 28
	li	a2,1
.L22:
.LVL44:
	.loc 1 371 21 is_stmt 1
	.loc 1 371 9 is_stmt 0
	blt	a3,a0,.L25
	.loc 1 379 10 is_stmt 1
	.loc 1 379 5 is_stmt 0
	beq	a2,zero,.L32
	.loc 1 379 33
	bleu	a4,s7,.L32
	.loc 1 381 5 is_stmt 1
	li	a2,64
.LVL45:
	li	a1,0
	addi	a0,s0,-112
	call	memset
.LVL46:
	.loc 1 389 5
	.loc 1 389 17 is_stmt 0
	addi	s3,s2,8
.LVL47:
	addi	a1,s0,-112
	mv	a0,s3
	call	mbedtls_sha512_finish_ret
.LVL48:
	mv	s1,a0
.LVL49:
	.loc 1 389 7
	bne	a0,zero,.L21
	.loc 1 395 5 is_stmt 1
	mv	a0,s3
	call	mbedtls_sha512_free
.LVL50:
	.loc 1 396 5
	mv	a0,s3
	call	mbedtls_sha512_init
.LVL51:
	.loc 1 397 5
	.loc 1 397 17 is_stmt 0
	li	a1,0
	mv	a0,s3
	call	mbedtls_sha512_starts_ret
.LVL52:
	mv	s1,a0
.LVL53:
	.loc 1 397 7
	bne	a0,zero,.L21
	.loc 1 399 5 is_stmt 1
	.loc 1 399 17 is_stmt 0
	li	a2,64
	addi	a1,s0,-112
	mv	a0,s3
	call	mbedtls_sha512_update_ret
.LVL54:
	mv	s1,a0
.LVL55:
	.loc 1 399 7
	bne	a0,zero,.L21
	.loc 1 406 5 is_stmt 1
	.loc 1 406 17 is_stmt 0
	addi	a2,s0,-112
	li	a3,0
	li	a1,64
	mv	a0,a2
	call	mbedtls_sha512_ret
.LVL56:
	mv	s1,a0
.LVL57:
	.loc 1 406 7
	bne	a0,zero,.L21
	.loc 1 432 24
	lw	a4,224(s2)
	.loc 1 432 12
	li	a5,0
.L27:
.LVL58:
	.loc 1 432 17 is_stmt 1
	.loc 1 432 5 is_stmt 0
	blt	a5,a4,.L28
	.loc 1 435 5 is_stmt 1
	mv	a2,s5
	addi	a1,s0,-112
	mv	a0,s4
	call	memcpy
.LVL59:
	.loc 1 437 5
.L21:
	.loc 1 440 5
	addi	a0,s0,-112
	li	a1,64
	call	mbedtls_platform_zeroize
.LVL60:
	.loc 1 447 5
	.loc 1 448 1 is_stmt 0
	lw	ra,108(sp)
	.cfi_remember_state
	.cfi_restore 1
	lw	s0,104(sp)
	.cfi_restore 8
	.cfi_def_cfa 2, 112
	lw	s2,96(sp)
	.cfi_restore 18
.LVL61:
	lw	s3,92(sp)
	.cfi_restore 19
	lw	s4,88(sp)
	.cfi_restore 20
.LVL62:
	lw	s5,84(sp)
	.cfi_restore 21
.LVL63:
	lw	s6,80(sp)
	.cfi_restore 22
	lw	s7,76(sp)
	.cfi_restore 23
	lw	s8,72(sp)
	.cfi_restore 24
	mv	a0,s1
	lw	s1,100(sp)
	.cfi_restore 9
.LVL64:
	addi	sp,sp,112
	.cfi_def_cfa_offset 0
	jr	ra
.LVL65:
.L25:
	.cfi_restore_state
	.loc 1 373 13 is_stmt 1
	.loc 1 373 31 is_stmt 0
	lw	a1,0(a5)
	.loc 1 373 15
	lw	a6,4(a5)
	bgeu	a1,a6,.L23
	.loc 1 374 36
	li	a2,0
.LVL66:
.L23:
	.loc 1 375 13 is_stmt 1
	.loc 1 375 15 is_stmt 0
	lw	a6,8(a5)
	bne	a6,s8,.L24
	.loc 1 376 17 is_stmt 1
	.loc 1 376 29 is_stmt 0
	add	a4,a4,a1
.LVL67:
.L24:
	.loc 1 371 44 is_stmt 1
	.loc 1 371 45 is_stmt 0
	addi	a3,a3,1
.LVL68:
	addi	a5,a5,20
	j	.L22
.LVL69:
.L28:
	.loc 1 433 9 is_stmt 1
	.loc 1 433 29 is_stmt 0
	sw	zero,0(s6)
	.loc 1 432 40 is_stmt 1
	.loc 1 432 41 is_stmt 0
	addi	a5,a5,1
.LVL70:
	addi	s6,s6,20
	j	.L27
.LVL71:
.L29:
	.loc 1 362 17
	li	s1,-60
	j	.L21
.LVL72:
.L30:
.LBB9:
.LBB8:
	.loc 1 268 15
	li	s1,-64
	j	.L21
.LBE8:
.LBE9:
	.cfi_endproc
.LFE16:
	.size	mbedtls_entropy_func.part.0, .-mbedtls_entropy_func.part.0
	.section	.text.mbedtls_entropy_free,"ax",@progbits
	.align	1
	.globl	mbedtls_entropy_free
	.type	mbedtls_entropy_free, @function
mbedtls_entropy_free:
.LFB6:
	.loc 1 118 1 is_stmt 1
	.cfi_startproc
.LVL73:
	.loc 1 121 5
	.loc 1 118 1 is_stmt 0
	addi	sp,sp,-16
	.cfi_def_cfa_offset 16
	sw	s0,8(sp)
	sw	s2,0(sp)
	sw	ra,12(sp)
	sw	s1,4(sp)
	.cfi_offset 8, -8
	.cfi_offset 18, -16
	.cfi_offset 1, -4
	.cfi_offset 9, -12
	addi	s0,sp,16
	.cfi_def_cfa 8, 0
	.loc 1 121 7
	lw	a5,0(a0)
	li	s2,-1
	beq	a5,s2,.L35
	mv	s1,a0
	.loc 1 131 5 is_stmt 1
	addi	a0,a0,8
.LVL74:
	call	mbedtls_sha512_free
.LVL75:
	.loc 1 138 5
	.loc 1 139 5 is_stmt 0
	li	a1,400
	.loc 1 138 23
	sw	zero,224(s1)
	.loc 1 139 5 is_stmt 1
	addi	a0,s1,228
	call	mbedtls_platform_zeroize
.LVL76:
	.loc 1 140 5
	.loc 1 140 30 is_stmt 0
	sw	s2,0(s1)
.LVL77:
.L35:
	.loc 1 141 1
	lw	ra,12(sp)
	.cfi_restore 1
	lw	s0,8(sp)
	.cfi_restore 8
	.cfi_def_cfa 2, 16
	lw	s1,4(sp)
	.cfi_restore 9
	lw	s2,0(sp)
	.cfi_restore 18
	addi	sp,sp,16
	.cfi_def_cfa_offset 0
	jr	ra
	.cfi_endproc
.LFE6:
	.size	mbedtls_entropy_free, .-mbedtls_entropy_free
	.section	.text.mbedtls_entropy_add_source,"ax",@progbits
	.align	1
	.globl	mbedtls_entropy_add_source
	.type	mbedtls_entropy_add_source, @function
mbedtls_entropy_add_source:
.LFB7:
	.loc 1 146 1 is_stmt 1
	.cfi_startproc
.LVL78:
	.loc 1 147 5
	.loc 1 154 5
	.loc 1 146 1 is_stmt 0
	addi	sp,sp,-16
	.cfi_def_cfa_offset 16
	sw	s0,12(sp)
	.cfi_offset 8, -4
	addi	s0,sp,16
	.cfi_def_cfa 8, 0
	.loc 1 154 9
	lw	a6,224(a0)
.LVL79:
	.loc 1 155 5 is_stmt 1
	.loc 1 155 7 is_stmt 0
	li	a5,19
	bgt	a6,a5,.L40
	.loc 1 161 5 is_stmt 1
	.loc 1 161 31 is_stmt 0
	li	a5,20
	mul	a5,a6,a5
	.loc 1 166 22
	addi	a6,a6,1
.LVL80:
	.loc 1 161 31
	add	a5,a0,a5
	addi	a5,a5,128
	sw	a1,100(a5)
.LVL81:
	.loc 1 162 5 is_stmt 1
	.loc 1 162 31 is_stmt 0
	sw	a2,104(a5)
	.loc 1 163 5 is_stmt 1
	.loc 1 163 32 is_stmt 0
	sw	a3,112(a5)
	.loc 1 164 5 is_stmt 1
	.loc 1 164 29 is_stmt 0
	sw	a4,116(a5)
	.loc 1 166 5 is_stmt 1
	.loc 1 166 22 is_stmt 0
	sw	a6,224(a0)
	.loc 1 147 14
	li	a0,0
.LVL82:
.L38:
	.loc 1 175 1
	lw	s0,12(sp)
	.cfi_remember_state
	.cfi_restore 8
	.cfi_def_cfa 2, 16
	addi	sp,sp,16
	.cfi_def_cfa_offset 0
	jr	ra
.LVL83:
.L40:
	.cfi_restore_state
.L39:
	.loc 1 174 5 is_stmt 1
	.loc 1 157 13 is_stmt 0
	li	a0,-62
.LVL84:
	.loc 1 174 11
	j	.L38
	.cfi_endproc
.LFE7:
	.size	mbedtls_entropy_add_source, .-mbedtls_entropy_add_source
	.section	.text.mbedtls_entropy_init,"ax",@progbits
	.align	1
	.globl	mbedtls_entropy_init
	.type	mbedtls_entropy_init, @function
mbedtls_entropy_init:
.LFB5:
	.loc 1 61 1 is_stmt 1
	.cfi_startproc
.LVL85:
	.loc 1 62 5
	.loc 1 61 1 is_stmt 0
	addi	sp,sp,-16
	.cfi_def_cfa_offset 16
	sw	ra,12(sp)
	sw	s0,8(sp)
	sw	s1,4(sp)
	.cfi_offset 1, -4
	.cfi_offset 8, -8
	.cfi_offset 9, -12
	addi	s0,sp,16
	.cfi_def_cfa 8, 0
	.loc 1 61 1
	mv	s1,a0
	.loc 1 63 5
	li	a2,400
	li	a1,0
	.loc 1 62 23
	sw	zero,224(a0)
	.loc 1 63 5 is_stmt 1
	addi	a0,a0,228
.LVL86:
	call	memset
.LVL87:
	.loc 1 69 5
	.loc 1 71 5 is_stmt 0
	addi	a0,s1,8
	.loc 1 69 30
	sw	zero,0(s1)
	.loc 1 71 5 is_stmt 1
	call	mbedtls_sha512_init
.LVL88:
	.loc 1 104 5
	.loc 1 115 1 is_stmt 0
	lw	s0,8(sp)
	.cfi_restore 8
	.cfi_def_cfa 2, 16
	lw	ra,12(sp)
	.cfi_restore 1
	.loc 1 104 5
	mv	a0,s1
	.loc 1 115 1
	lw	s1,4(sp)
	.cfi_restore 9
.LVL89:
	.loc 1 104 5
	lui	a1,%hi(mbedtls_hardware_poll)
	.loc 1 115 1
	.loc 1 104 5
	li	a4,1
	li	a3,32
	li	a2,0
	addi	a1,a1,%lo(mbedtls_hardware_poll)
	.loc 1 115 1
	addi	sp,sp,16
	.cfi_def_cfa_offset 0
	.loc 1 104 5
	tail	mbedtls_entropy_add_source
.LVL90:
	.cfi_endproc
.LFE5:
	.size	mbedtls_entropy_init, .-mbedtls_entropy_init
	.section	.text.mbedtls_entropy_update_manual,"ax",@progbits
	.align	1
	.globl	mbedtls_entropy_update_manual
	.type	mbedtls_entropy_update_manual, @function
mbedtls_entropy_update_manual:
.LFB9:
	.loc 1 238 1 is_stmt 1
	.cfi_startproc
.LVL91:
	.loc 1 239 5
	.loc 1 246 5
	.loc 1 238 1 is_stmt 0
	addi	sp,sp,-16
	.cfi_def_cfa_offset 16
	sw	s0,12(sp)
	.cfi_offset 8, -4
	addi	s0,sp,16
	.cfi_def_cfa 8, 0
	.loc 1 254 1
	lw	s0,12(sp)
	.cfi_restore 8
	.cfi_def_cfa 2, 16
	.loc 1 238 1
	mv	a3,a2
	.loc 1 246 11
	mv	a2,a1
.LVL92:
	.loc 1 254 1
	.loc 1 246 11
	li	a1,20
.LVL93:
	.loc 1 254 1
	addi	sp,sp,16
	.cfi_def_cfa_offset 0
	.loc 1 246 11
	tail	entropy_update
.LVL94:
	.cfi_endproc
.LFE9:
	.size	mbedtls_entropy_update_manual, .-mbedtls_entropy_update_manual
	.section	.text.mbedtls_entropy_gather,"ax",@progbits
	.align	1
	.globl	mbedtls_entropy_gather
	.type	mbedtls_entropy_gather, @function
mbedtls_entropy_gather:
.LFB11:
	.loc 1 310 1 is_stmt 1
	.cfi_startproc
.LVL95:
	.loc 1 311 5
	.loc 1 318 5
.LBB12:
.LBB13:
	.loc 1 261 5
	.loc 1 262 5
	.loc 1 263 5
	.loc 1 264 5
	.loc 1 265 5
	.loc 1 267 5
.LBE13:
.LBE12:
	.loc 1 310 1 is_stmt 0
	addi	sp,sp,-16
	.cfi_def_cfa_offset 16
	sw	s0,12(sp)
	.cfi_offset 8, -4
	addi	s0,sp,16
	.cfi_def_cfa 8, 0
.LBB16:
.LBB14:
	.loc 1 267 7
	lw	a5,224(a0)
	beq	a5,zero,.L47
.LBE14:
.LBE16:
	.loc 1 326 1
	lw	s0,12(sp)
	.cfi_remember_state
	.cfi_restore 8
	.cfi_def_cfa 2, 16
	addi	sp,sp,16
	.cfi_def_cfa_offset 0
.LBB17:
.LBB15:
	tail	entropy_gather_internal.part.0
.LVL96:
.L47:
	.cfi_restore_state
.LBE15:
.LBE17:
	.loc 1 325 5 is_stmt 1
	.loc 1 326 1 is_stmt 0
	lw	s0,12(sp)
	.cfi_restore 8
	.cfi_def_cfa 2, 16
	li	a0,-64
.LVL97:
	addi	sp,sp,16
	.cfi_def_cfa_offset 0
	jr	ra
	.cfi_endproc
.LFE11:
	.size	mbedtls_entropy_gather, .-mbedtls_entropy_gather
	.section	.text.mbedtls_entropy_func,"ax",@progbits
	.align	1
	.globl	mbedtls_entropy_func
	.type	mbedtls_entropy_func, @function
mbedtls_entropy_func:
.LFB12:
	.loc 1 329 1 is_stmt 1
	.cfi_startproc
.LVL98:
	.loc 1 330 5
	.loc 1 331 5
	.loc 1 332 5
	.loc 1 333 5
	.loc 1 335 5
	.loc 1 329 1 is_stmt 0
	addi	sp,sp,-16
	.cfi_def_cfa_offset 16
	sw	s0,12(sp)
	.cfi_offset 8, -4
	addi	s0,sp,16
	.cfi_def_cfa 8, 0
	.loc 1 335 7
	li	a5,64
	bgtu	a2,a5,.L50
	.loc 1 448 1
	lw	s0,12(sp)
	.cfi_remember_state
	.cfi_restore 8
	.cfi_def_cfa 2, 16
	addi	sp,sp,16
	.cfi_def_cfa_offset 0
	tail	mbedtls_entropy_func.part.0
.LVL99:
.L50:
	.cfi_restore_state
	lw	s0,12(sp)
	.cfi_restore 8
	.cfi_def_cfa 2, 16
	li	a0,-60
.LVL100:
	addi	sp,sp,16
	.cfi_def_cfa_offset 0
	jr	ra
	.cfi_endproc
.LFE12:
	.size	mbedtls_entropy_func, .-mbedtls_entropy_func
	.section	.rodata.mbedtls_entropy_write_seed_file.str1.4,"aMS",@progbits,1
	.align	2
.LC0:
	.string	"wb"
	.section	.text.mbedtls_entropy_write_seed_file,"ax",@progbits
	.align	1
	.globl	mbedtls_entropy_write_seed_file
	.type	mbedtls_entropy_write_seed_file, @function
mbedtls_entropy_write_seed_file:
.LFB13:
	.loc 1 473 1 is_stmt 1
	.cfi_startproc
.LVL101:
	.loc 1 474 5
	.loc 1 475 5
	.loc 1 476 5
	.loc 1 478 5
	.loc 1 473 1 is_stmt 0
	addi	sp,sp,-80
	.cfi_def_cfa_offset 80
	sw	s0,72(sp)
	sw	s2,64(sp)
	.cfi_offset 8, -8
	.cfi_offset 18, -16
	addi	s0,sp,80
	.cfi_def_cfa 8, 0
.LVL102:
.LBB18:
.LBB19:
	.loc 1 330 5 is_stmt 1
	.loc 1 331 5
	.loc 1 332 5
	.loc 1 333 5
	.loc 1 335 5
.LBE19:
.LBE18:
	.loc 1 473 1 is_stmt 0
	sw	ra,76(sp)
	sw	s1,68(sp)
	mv	s2,a1
	.cfi_offset 1, -4
	.cfi_offset 9, -12
.LBB21:
.LBB20:
	li	a2,64
	addi	a1,s0,-80
.LVL103:
	call	mbedtls_entropy_func.part.0
.LVL104:
.LBE20:
.LBE21:
	.loc 1 478 7
	bne	a0,zero,.L55
	.loc 1 484 15
	lui	a1,%hi(.LC0)
	mv	s1,a0
	.loc 1 484 5 is_stmt 1
	.loc 1 484 15 is_stmt 0
	addi	a1,a1,%lo(.LC0)
	mv	a0,s2
.LVL105:
	call	fopen
.LVL106:
	mv	s2,a0
.LVL107:
	.loc 1 484 7
	beq	a0,zero,.L56
	.loc 1 490 5 is_stmt 1
	.loc 1 490 9 is_stmt 0
	mv	a3,a0
	li	a2,64
	li	a1,1
	addi	a0,s0,-80
.LVL108:
	call	fwrite
.LVL109:
	.loc 1 490 7
	li	a5,64
	beq	a0,a5,.L53
.L56:
	.loc 1 486 13
	li	s1,-63
.LVL110:
	j	.L53
.LVL111:
.L55:
	.loc 1 475 11
	li	s2,0
.LVL112:
	.loc 1 480 13
	li	s1,-60
.LVL113:
.L53:
	.loc 1 499 5 is_stmt 1
	li	a1,64
	addi	a0,s0,-80
	call	mbedtls_platform_zeroize
.LVL114:
	.loc 1 501 5
	.loc 1 501 7 is_stmt 0
	beq	s2,zero,.L52
	.loc 1 502 9 is_stmt 1
	mv	a0,s2
	call	fclose
.LVL115:
	.loc 1 504 5
.L52:
	.loc 1 505 1 is_stmt 0
	lw	ra,76(sp)
	.cfi_restore 1
	lw	s0,72(sp)
	.cfi_restore 8
	.cfi_def_cfa 2, 80
	lw	s2,64(sp)
	.cfi_restore 18
.LVL116:
	mv	a0,s1
	lw	s1,68(sp)
	.cfi_restore 9
.LVL117:
	addi	sp,sp,80
	.cfi_def_cfa_offset 0
	jr	ra
	.cfi_endproc
.LFE13:
	.size	mbedtls_entropy_write_seed_file, .-mbedtls_entropy_write_seed_file
	.section	.rodata.mbedtls_entropy_update_seed_file.str1.4,"aMS",@progbits,1
	.align	2
.LC1:
	.string	"rb"
	.section	.text.mbedtls_entropy_update_seed_file,"ax",@progbits
	.align	1
	.globl	mbedtls_entropy_update_seed_file
	.type	mbedtls_entropy_update_seed_file, @function
mbedtls_entropy_update_seed_file:
.LFB14:
	.loc 1 508 1 is_stmt 1
	.cfi_startproc
.LVL118:
	.loc 1 509 5
	.loc 1 510 5
	.loc 1 511 5
	.loc 1 512 5
	.loc 1 514 5
	.loc 1 508 1 is_stmt 0
	addi	sp,sp,-1072
	.cfi_def_cfa_offset 1072
	sw	s0,1064(sp)
	sw	s1,1060(sp)
	sw	s3,1052(sp)
	sw	s4,1048(sp)
	sw	ra,1068(sp)
	sw	s2,1056(sp)
	.cfi_offset 8, -8
	.cfi_offset 9, -12
	.cfi_offset 19, -20
	.cfi_offset 20, -24
	.cfi_offset 1, -4
	.cfi_offset 18, -16
	addi	s0,sp,1072
	.cfi_def_cfa 8, 0
	mv	s4,a1
	.loc 1 514 15
	lui	a1,%hi(.LC1)
.LVL119:
	.loc 1 508 1
	.loc 1 508 1
	mv	s3,a0
	.loc 1 514 15
	addi	a1,a1,%lo(.LC1)
	mv	a0,s4
.LVL120:
	call	fopen
.LVL121:
	.loc 1 515 15
	li	s1,-63
	.loc 1 514 7
	beq	a0,zero,.L61
	.loc 1 517 5
	li	a2,2
	li	a1,0
	mv	s2,a0
	.loc 1 517 5 is_stmt 1
	call	fseek
.LVL122:
	.loc 1 518 5
	.loc 1 518 18 is_stmt 0
	mv	a0,s2
	call	ftell
.LVL123:
	mv	s1,a0
.LVL124:
	.loc 1 519 5 is_stmt 1
	li	a2,0
	li	a1,0
	mv	a0,s2
	call	fseek
.LVL125:
	.loc 1 521 5
	li	a5,1024
	mv	a2,s1
	bleu	s1,a5,.L63
	li	a2,1024
.L63:
.LVL126:
	.loc 1 524 5
	.loc 1 524 9 is_stmt 0
	mv	a3,s2
	li	a1,1
	addi	a0,s0,-1056
	sw	a2,-1060(s0)
	call	fread
.LVL127:
	.loc 1 524 7
	lw	a2,-1060(s0)
	.loc 1 525 13
	li	s1,-63
	.loc 1 524 7
	bne	a0,a2,.L64
	.loc 1 527 9 is_stmt 1
	.loc 1 527 15 is_stmt 0
	addi	a1,s0,-1056
	mv	a0,s3
	call	mbedtls_entropy_update_manual
.LVL128:
	mv	s1,a0
.LVL129:
.L64:
	.loc 1 529 5 is_stmt 1
	mv	a0,s2
	call	fclose
.LVL130:
	.loc 1 531 5
	li	a1,1024
	addi	a0,s0,-1056
	call	mbedtls_platform_zeroize
.LVL131:
	.loc 1 533 5
	.loc 1 533 7 is_stmt 0
	bne	s1,zero,.L61
	.loc 1 536 5 is_stmt 1
	.loc 1 536 13 is_stmt 0
	mv	a1,s4
	mv	a0,s3
	call	mbedtls_entropy_write_seed_file
.LVL132:
	mv	s1,a0
.LVL133:
.L61:
	.loc 1 537 1
	lw	ra,1068(sp)
	.cfi_restore 1
	lw	s0,1064(sp)
	.cfi_restore 8
	.cfi_def_cfa 2, 1072
	lw	s2,1056(sp)
	.cfi_restore 18
	lw	s3,1052(sp)
	.cfi_restore 19
.LVL134:
	lw	s4,1048(sp)
	.cfi_restore 20
.LVL135:
	mv	a0,s1
	lw	s1,1060(sp)
	.cfi_restore 9
	addi	sp,sp,1072
	.cfi_def_cfa_offset 0
	jr	ra
	.cfi_endproc
.LFE14:
	.size	mbedtls_entropy_update_seed_file, .-mbedtls_entropy_update_seed_file
	.text
.Letext0:
	.file 2 "/home/dinhquangha/intern/Ai-Thinker-WB2/toolchain/riscv/Linux/lib/gcc/riscv64-unknown-elf/10.2.0/include/stddef.h"
	.file 3 "/home/dinhquangha/intern/Ai-Thinker-WB2/toolchain/riscv/Linux/lib/gcc/riscv64-unknown-elf/10.2.0/include/stdint-gcc.h"
	.file 4 "/home/dinhquangha/intern/Ai-Thinker-WB2/components/security/mbedtls_lts/mbedtls/include/mbedtls/sha512.h"
	.file 5 "/home/dinhquangha/intern/Ai-Thinker-WB2/components/security/mbedtls_lts/mbedtls/include/mbedtls/entropy.h"
	.file 6 "/home/dinhquangha/intern/Ai-Thinker-WB2/toolchain/riscv/Linux/riscv64-unknown-elf/include/sys/_types.h"
	.file 7 "/home/dinhquangha/intern/Ai-Thinker-WB2/toolchain/riscv/Linux/riscv64-unknown-elf/include/sys/reent.h"
	.file 8 "/home/dinhquangha/intern/Ai-Thinker-WB2/toolchain/riscv/Linux/riscv64-unknown-elf/include/sys/lock.h"
	.file 9 "/home/dinhquangha/intern/Ai-Thinker-WB2/toolchain/riscv/Linux/riscv64-unknown-elf/include/stdio.h"
	.file 10 "/home/dinhquangha/intern/Ai-Thinker-WB2/components/security/mbedtls_lts/mbedtls/include/mbedtls/platform_util.h"
	.file 11 "/home/dinhquangha/intern/Ai-Thinker-WB2/toolchain/riscv/Linux/riscv64-unknown-elf/include/string.h"