	.file	"error.c"
	.option nopic
	.attribute arch, "rv32i2p0_m2p0_f2p0_c2p0"
	.attribute unaligned_access, 0
	.attribute stack_align, 16
	.text
.Ltext0:
	.cfi_sections	.debug_frame
	.section	.rodata.mbedtls_high_level_strerr.str1.4,"aMS",@progbits,1
	.align	2
.LC0:
	.string	"CIPHER - The selected feature is not available"
	.align	2
.LC1:
	.string	"CIPHER - Decryption of block requires a full block"
	.align	2
.LC2:
	.string	"CIPHER - Bad input parameters"
	.align	2
.LC3:
	.string	"SSL - An operation failed due to an unexpected version or configuration"
	.align	2
.LC4:
	.string	"CIPHER - Cipher hardware accelerator failed"
	.align	2
.LC5:
	.string	"CIPHER - Input data contains invalid padding and is rejected"
	.align	2
.LC6:
	.string	"CIPHER - The context is invalid. For example, because it was freed"
	.align	2
.LC7:
	.string	"X509 - A fatal error occurred, eg the chain is too long or the vrfy callback failed"
	.align	2
.LC8:
	.string	"DHM - Reading of the public values failed"
	.align	2
.LC9:
	.string	"DHM - Bad input parameters"
	.align	2
.LC10:
	.string	"X509 - Input invalid"
	.align	2
.LC11:
	.string	"DHM - The ASN.1 data is not formatted correctly"
	.align	2
.LC12:
	.string	"DHM - Making of the DHM parameters failed"
	.align	2
.LC13:
	.string	"DHM - Calculation of the DHM secret failed"
	.align	2
.LC14:
	.string	"ECP - The requested feature is not available, for example, the requested curve is not supported"
	.align	2
.LC15:
	.string	"DHM - Setting the modulus and generator failed"
	.align	2
.LC16:
	.string	"DHM - Read or write of file failed"
	.align	2
.LC17:
	.string	"PK - The buffer contains a valid signature followed by more data"
	.align	2
.LC18:
	.string	"ECP - The buffer is too small to write to"
	.align	2
.LC19:
	.string	"MD - The selected feature is not available"
	.align	2
.LC20:
	.string	"ECP - Memory allocation failed"
	.align	2
.LC21:
	.string	"ECP - The buffer contains a valid signature followed by more data"
	.align	2
.LC22:
	.string	"ECP - The signature is not valid"
	.align	2
.LC23:
	.string	"RSA - The PKCS#1 verification failed"
	.align	2
.LC24:
	.string	"ECP - Operation in progress, call again with the same parameters to continue"
	.align	2
.LC25:
	.string	"ECP - Invalid private or public key"
	.align	2
.LC26:
	.string	"RSA - RSA hardware accelerator failed"
	.align	2
.LC27:
	.string	"MD - Failed to allocate memory"
	.align	2
.LC28:
	.string	"ECP - Bad input parameters to function"
	.align	2
.LC29:
	.string	"SSL - An encrypted DTLS-frame with an unexpected CID was received"
	.align	2
.LC30:
	.string	"SSL - Invalid value in SSL config"
	.align	2
.LC31:
	.string	"MD - Opening or reading of file failed"
	.align	2
.LC32:
	.string	"PEM - Failed to allocate memory"
	.align	2
.LC33:
	.string	"PEM - No PEM header or footer found"
	.align	2
.LC34:
	.string	"PEM - Unsupported key encryption algorithm"
	.align	2
.LC35:
	.string	"PEM - PEM string is not as expected"
	.align	2
.LC36:
	.string	"X509 - Unavailable feature, e.g. RSA hashing/encryption combination"
	.align	2
.LC37:
	.string	"PEM - Unavailable feature, e.g. hashing/encryption combination"
	.align	2
.LC38:
	.string	"PEM - Private key password can't be empty"
	.align	2
.LC39:
	.string	"PEM - RSA IV is not in hex-format"
	.align	2
.LC40:
	.string	"PEM - Given private key password does not allow for correct decryption"
	.align	2
.LC41:
	.string	"PK - Type mismatch, eg attempt to encrypt with an ECDSA key"
	.align	2
.LC42:
	.string	"PK - Unsupported key version"
	.align	2
.LC43:
	.string	"PK - Memory allocation failed"
	.align	2
.LC44:
	.string	"PK - The pubkey tag or value is invalid (only RSA and EC are supported)"
	.align	2
.LC45:
	.string	"PK - Key algorithm is unsupported (only RSA and EC are supported)"
	.align	2
.LC46:
	.string	"PK - Read/write of file failed"
	.align	2
.LC47:
	.string	"PK - Private key password can't be empty"
	.align	2
.LC48:
	.string	"PK - Invalid key tag or value"
	.align	2
.LC49:
	.string	"RSA - Bad input parameters to function"
	.align	2
.LC50:
	.string	"PK - Elliptic curve is unsupported (only NIST curves are supported)"
	.align	2
.LC51:
	.string	"PK - PK hardware accelerator failed"
	.align	2
.LC52:
	.string	"PK - Unavailable feature, e.g. RSA disabled for RSA key"
	.align	2
.LC53:
	.string	"PK - The algorithm tag or value is invalid"
	.align	2
.LC54:
	.string	"PK - Given private key password does not allow for correct decryption"
	.align	2
.LC55:
	.string	"DHM - DHM hardware accelerator failed"
	.align	2
.LC56:
	.string	"DHM - Making of the public value failed"
	.align	2
.LC57:
	.string	"RSA - Key failed to pass the validity check of the library"
	.align	2
.LC58:
	.string	"RSA - Input data contains invalid padding and is rejected"
	.align	2
.LC59:
	.string	"RSA - The private key operation failed"
	.align	2
.LC60:
	.string	"RSA - Something failed during generation of a key"
	.align	2
.LC61:
	.string	"RSA - The implementation does not offer the requested operation, for example, because of security violations or lack of functionality"
	.align	2
.LC62:
	.string	"RSA - The random generator failed to generate non-zeros"
	.align	2
.LC63:
	.string	"RSA - The public key operation failed"
	.align	2
.LC64:
	.string	"RSA - The output buffer for decryption is not large enough"
	.align	2
.LC65:
	.string	"PK - Bad input parameters to function"
	.align	2
.LC66:
	.string	"ECP - The ECP hardware accelerator failed"
	.align	2
.LC67:
	.string	"SSL - Verification of the message MAC failed"
	.align	2
.LC68:
	.string	"SSL - The requested feature is not available"
	.align	2
.LC69:
	.string	"SSL - Hardware acceleration function skipped / left alone data"
	.align	2
.LC70:
	.string	"SSL - Bad input parameters to function"
	.align	2
.LC71:
	.string	"SSL - An unexpected message was received from our peer"
	.align	2
.LC72:
	.string	"SSL - No RNG was provided to the SSL module"
	.align	2
.LC73:
	.string	"SSL - An unknown cipher was received"
	.align	2
.LC74:
	.string	"SSL - Our own certificate(s) is/are too large to send in an SSL message"
	.align	2
.LC75:
	.string	"SSL - The server has no ciphersuites in common with the client"
	.align	2
.LC76:
	.string	"SSL - An invalid SSL record was received"
	.align	2
.LC77:
	.string	"SSL - No CA Chain is set, but required to operate"
	.align	2
.LC78:
	.string	"SSL - No client certification received from the client, but required by the authentication mode"
	.align	2
.LC79:
	.string	"SSL - The own private key or pre-shared key is not set, but needed"
	.align	2
.LC80:
	.string	"SSL - Internal error (eg, unexpected failure in lower-level module)"
	.align	2
.LC81:
	.string	"SSL - The peer notified us that the connection is going to be closed"
	.align	2
.LC82:
	.string	"SSL - A fatal alert message was received from our peer"
	.align	2
.LC83:
	.string	"SSL - Processing of the ServerHello handshake message failed"
	.align	2
.LC84:
	.string	"SSL - Verification of our peer failed"
	.align	2
.LC85:
	.string	"SSL - Processing of the ServerHelloDone handshake message failed"
	.align	2
.LC86:
	.string	"SSL - Processing of the ServerKeyExchange handshake message failed"
	.align	2
.LC87:
	.string	"SSL - Processing of the ClientHello handshake message failed"
	.align	2
.LC88:
	.string	"SSL - Processing of the CertificateRequest handshake message failed"
	.align	2
.LC89:
	.string	"SSL - The own certificate is not set, but needed by the server"
	.align	2
.LC90:
	.string	"SSL - Processing of the ClientKeyExchange handshake message failed in DHM / ECDH Calculate Secret"
	.align	2
.LC91:
	.string	"SSL - Processing of the ClientKeyExchange handshake message failed"
	.align	2
.LC92:
	.string	"SSL - Processing of the ChangeCipherSpec handshake message failed"
	.align	2
.LC93:
	.string	"SSL - Processing of the ClientKeyExchange handshake message failed in DHM / ECDH Read Public"
	.align	2
.LC94:
	.string	"SSL - Processing of the Certificate handshake message failed"
	.align	2
.LC95:
	.string	"SSL - Hardware acceleration function returned with error"
	.align	2
.LC96:
	.string	"SSL - Processing of the CertificateVerify handshake message failed"
	.align	2
.LC97:
	.string	"SSL - Memory allocation failed"
	.align	2
.LC98:
	.string	"SSL - Handshake protocol not within min/max boundaries"
	.align	2
.LC99:
	.string	"SSL - A cryptographic operation is in progress. Try again later"
	.align	2
.LC100:
	.string	"SSL - Processing of the NewSessionTicket handshake message failed"
	.align	2
.LC101:
	.string	"SSL - Processing of the compression / decompression failed"
	.align	2
.LC102:
	.string	"ECP - Generation of random value, such as ephemeral key, failed"
	.align	2
.LC103:
	.string	"SSL - Unknown identity received (eg, PSK identity)"
	.align	2
.LC104:
	.string	"SSL - Unexpected message at ServerHello in renegotiation"
	.align	2
.LC105:
	.string	"SSL - Public key type mismatch (eg, asked for RSA key exchange and presented EC key)"
	.align	2
.LC106:
	.string	"SSL - The client initiated a reconnect from the same port"
	.align	2
.LC107:
	.string	"SSL - A buffer is too small to receive or write a message"
	.align	2
.LC108:
	.string	"SSL - A counter would wrap (eg, too many messages exchanged)"
	.align	2
.LC109:
	.string	"SSL - None of the common ciphersuites is usable (eg, no suitable certificate, see debug messages)"
	.align	2
.LC110:
	.string	"SSL - DTLS client must retry for hello verification"
	.align	2
.LC111:
	.string	"CIPHER - Authentication failed (for AEAD modes)"
	.align	2
.LC112:
	.string	"SSL - The operation timed out"
	.align	2
.LC113:
	.string	"SSL - The alert message received indicates a non-fatal error"
	.align	2
.LC114:
	.string	"SSL - Connection requires a write call"
	.align	2
.LC115:
	.string	"SSL - No data of requested type currently available on underlying transport"
	.align	2
.LC116:
	.string	"SSL - Internal-only message signaling that further message-processing should be done"
	.align	2
.LC117:
	.string	"SSL - Record header looks valid but is not expected"
	.align	2
.LC118:
	.string	"SSL - The asynchronous operation is not completed yet"
	.align	2
.LC119:
	.string	"SSL - Couldn't set the hash for verifying CertificateVerify"
	.align	2
.LC120:
	.string	"SSL - Session ticket has expired"
	.align	2
.LC121:
	.string	"SSL - Internal-only message signaling that a message arrived early"
	.align	2
.LC122:
	.string	"MD - MD hardware accelerator failed"
	.align	2
.LC123:
	.string	"SSL - The connection indicated an EOF"
	.align	2
.LC124:
	.string	"MD - Bad input parameters to function"
	.align	2
.LC125:
	.string	"X509 - The extension tag or value is invalid"
	.align	2
.LC126:
	.string	"X509 - The CRT/CRL/CSR version element is invalid"
	.align	2
.LC127:
	.string	"X509 - Requested OID is unknown"
	.align	2
.LC128:
	.string	"X509 - The algorithm tag or value is invalid"
	.align	2
.LC129:
	.string	"X509 - The CRT/CRL/CSR format is invalid, e.g. different type expected"
	.align	2
.LC130:
	.string	"PEM - Bad input parameters to function"
	.align	2
.LC131:
	.string	"X509 - The signature tag or value invalid"
	.align	2
.LC132:
	.string	"X509 - The serial tag or value is invalid"
	.align	2
.LC133:
	.string	"X509 - The date tag or value is invalid"
	.align	2
.LC134:
	.string	"DHM - Allocation of memory failed"
	.align	2
.LC135:
	.string	"X509 - Signature algorithms do not match. (see \\c ::mbedtls_x509_crt sig_oid)"
	.align	2
.LC136:
	.string	"X509 - CRT/CRL/CSR has an unsupported version number"
	.align	2
.LC137:
	.string	"X509 - Format not recognized as DER or PEM"
	.align	2
.LC138:
	.string	"X509 - Signature algorithm (oid) is unsupported"
	.align	2
.LC139:
	.string	"X509 - Destination buffer is too small"
	.align	2
.LC140:
	.string	"X509 - Read/write of file failed"
	.align	2
.LC141:
	.string	"X509 - Certificate verification failed, e.g. CRL, CA or signature check failed"
	.align	2
.LC142:
	.string	"X509 - Allocation of memory failed"
	.align	2
.LC143:
	.string	"X509 - The name tag or value is invalid"
	.align	2
.LC144:
	.string	"DHM - Reading of the DHM parameters failed"
	.align	2
.LC145:
	.string	"CIPHER - Failed to allocate memory"
	.align	2
.LC146:
	.string	"SSL - Processing of the Finished handshake message failed"
	.section	.text.mbedtls_high_level_strerr,"ax",@progbits
	.align	1
	.globl	mbedtls_high_level_strerr
	.type	mbedtls_high_level_strerr, @function
mbedtls_high_level_strerr:
.LFB23:
	.file 1 "/home/dinhquangha/Ai-Thinker-WB2/components/security/mbedtls_lts/mbedtls/library/error.c"
	.loc 1 215 1
	.cfi_startproc
.LVL0:
	.loc 1 216 5
	.loc 1 218 5
	.loc 1 222 5
	.loc 1 222 27 is_stmt 0
	srai	a4,a0,31
	xor	a5,a4,a0
	.loc 1 215 1
	addi	sp,sp,-16
	.cfi_def_cfa_offset 16
	.loc 1 222 27
	sub	a5,a5,a4
	li	a4,65536
	.loc 1 215 1
	sw	s0,12(sp)
	.loc 1 222 27
	addi	a4,a4,-128
	.cfi_offset 8, -4
	.loc 1 215 1
	addi	s0,sp,16
	.cfi_def_cfa 8, 0
	.loc 1 224 5
	li	a2,20480
	.loc 1 222 27
	and	a5,a5,a4
.LVL1:
	.loc 1 224 5 is_stmt 1
	.loc 1 215 1 is_stmt 0
	.loc 1 224 5
	addi	a4,a2,-384
	beq	a5,a4,.L54
	bgt	a5,a4,.L3
	li	a3,12288
	addi	a4,a3,1024
	beq	a5,a4,.L55
	bgt	a5,a4,.L4
	li	a4,8192
	addi	a2,a4,1280
	beq	a5,a2,.L56
	bgt	a5,a2,.L5
	addi	a3,a4,128
	beq	a5,a3,.L57
	bgt	a5,a3,.L6
	li	a4,4096
	addi	a4,a4,640
	beq	a5,a4,.L58
	bgt	a5,a4,.L7
	li	a4,4096
	addi	a3,a4,384
	beq	a5,a3,.L59
	bgt	a5,a3,.L8
	addi	a3,a4,128
	beq	a5,a3,.L60
	addi	a4,a4,256
	.loc 1 575 11
	li	a0,0
.LVL2:
	.loc 1 224 5
	bne	a5,a4,.L1
	.loc 1 311 19
	lui	a0,%hi(.LC35)
	addi	a0,a0,%lo(.LC35)
.L1:
	.loc 1 576 1
	lw	s0,12(sp)
	.cfi_remember_state
	.cfi_restore 8
	.cfi_def_cfa 2, 16
	addi	sp,sp,16
	.cfi_def_cfa_offset 0
	jr	ra
.LVL3:
.L8:
	.cfi_restore_state
	.loc 1 224 5
	addi	a4,a4,512
	.loc 1 575 11
	li	a0,0
.LVL4:
	.loc 1 224 5
	bne	a5,a4,.L1
	.loc 1 315 19
	lui	a0,%hi(.LC39)
	addi	a0,a0,%lo(.LC39)
	j	.L1
.LVL5:
.L7:
	.loc 1 224 5
	li	a4,4096
	addi	a3,a4,1024
	beq	a5,a3,.L63
	bgt	a5,a3,.L9
	addi	a3,a4,768
	beq	a5,a3,.L64
	addi	a4,a4,896
	.loc 1 575 11
	li	a0,0
.LVL6:
	.loc 1 224 5
	bne	a5,a4,.L1
	.loc 1 321 19
	lui	a0,%hi(.LC40)
	addi	a0,a0,%lo(.LC40)
	j	.L1
.LVL7:
.L9:
	.loc 1 224 5
	addi	a4,a4,1152
	.loc 1 575 11
	li	a0,0
.LVL8:
	.loc 1 224 5
	bne	a5,a4,.L1
	.loc 1 325 19
	lui	a0,%hi(.LC130)
	addi	a0,a0,%lo(.LC130)
	j	.L1
.LVL9:
.L6:
	.loc 1 224 5
	addi	a4,a4,768
	beq	a5,a4,.L67
	bgt	a5,a4,.L10
	li	a4,8192
	addi	a3,a4,512
	beq	a5,a3,.L68
	bgt	a5,a3,.L11
	addi	a3,a4,256
	beq	a5,a3,.L69
	addi	a4,a4,384
	.loc 1 575 11
	li	a0,0
.LVL10:
	.loc 1 224 5
	bne	a5,a4,.L1
	.loc 1 533 19
	lui	a0,%hi(.LC129)
	addi	a0,a0,%lo(.LC129)
	j	.L1
.LVL11:
.L11:
	.loc 1 224 5
	addi	a4,a4,640
	.loc 1 575 11
	li	a0,0
.LVL12:
	.loc 1 224 5
	bne	a5,a4,.L1
	.loc 1 537 19
	lui	a0,%hi(.LC132)
	addi	a0,a0,%lo(.LC132)
	j	.L1
.LVL13:
.L10:
	.loc 1 224 5
	li	a4,8192
	addi	a3,a4,1024
	beq	a5,a3,.L72
	addi	a3,a4,1152
	beq	a5,a3,.L73
	addi	a4,a4,896
	.loc 1 575 11
	li	a0,0
.LVL14:
	.loc 1 224 5
	bne	a5,a4,.L1
	.loc 1 541 19
	lui	a0,%hi(.LC143)
	addi	a0,a0,%lo(.LC143)
	j	.L1
.LVL15:
.L5:
	.loc 1 224 5
	addi	a2,a3,-1664
	beq	a5,a2,.L75
	bgt	a5,a2,.L12
	addi	a4,a4,1920
	beq	a5,a4,.L76
	bgt	a5,a4,.L13
	li	a4,8192
	addi	a3,a4,1664
	beq	a5,a3,.L77
	bgt	a5,a3,.L14
	addi	a3,a4,1408
	beq	a5,a3,.L78
	addi	a4,a4,1536
	.loc 1 575 11
	li	a0,0
.LVL16:
	.loc 1 224 5
	bne	a5,a4,.L1
	.loc 1 551 19
	lui	a0,%hi(.LC138)
	addi	a0,a0,%lo(.LC138)
	j	.L1
.LVL17:
.L14:
	.loc 1 224 5
	addi	a4,a4,1792
	.loc 1 575 11
	li	a0,0
.LVL18:
	.loc 1 224 5
	bne	a5,a4,.L1
	.loc 1 555 19
	lui	a0,%hi(.LC141)
	addi	a0,a0,%lo(.LC141)
	j	.L1
.LVL19:
.L13:
	.loc 1 224 5
	li	a4,12288
	addi	a3,a4,-1920
	beq	a5,a3,.L81
	addi	a3,a4,-1792
	beq	a5,a3,.L82
	addi	a4,a4,-2048
	.loc 1 575 11
	li	a0,0
.LVL20:
	.loc 1 224 5
	bne	a5,a4,.L1
	.loc 1 559 19
	lui	a0,%hi(.LC10)
	addi	a0,a0,%lo(.LC10)
	j	.L1
.LVL21:
.L12:
	.loc 1 224 5
	addi	a3,a3,512
	beq	a5,a3,.L84
	li	a4,12288
	bgt	a5,a3,.L15
	addi	a3,a4,256
	beq	a5,a3,.L85
	bgt	a5,a3,.L16
	beq	a5,a4,.L86
	addi	a4,a4,128
	.loc 1 575 11
	li	a0,0
.LVL22:
	.loc 1 224 5
	bne	a5,a4,.L1
	.loc 1 248 19
	lui	a0,%hi(.LC9)
	addi	a0,a0,%lo(.LC9)
	j	.L1
.LVL23:
.L16:
	.loc 1 224 5
	addi	a4,a4,384
	.loc 1 575 11
	li	a0,0
.LVL24:
	.loc 1 224 5
	bne	a5,a4,.L1
	.loc 1 252 19
	lui	a0,%hi(.LC12)
	addi	a0,a0,%lo(.LC12)
	j	.L1
.LVL25:
.L15:
	.loc 1 224 5
	addi	a3,a4,768
	beq	a5,a3,.L89
	addi	a3,a4,896
	beq	a5,a3,.L90
	addi	a4,a4,640
	.loc 1 575 11
	li	a0,0
.LVL26:
	.loc 1 224 5
	bne	a5,a4,.L1
	.loc 1 256 19
	lui	a0,%hi(.LC56)
	addi	a0,a0,%lo(.LC56)
	j	.L1
.LVL27:
.L4:
	.loc 1 224 5
	li	a4,16384
	addi	a3,a4,128
	beq	a5,a3,.L92
	bgt	a5,a3,.L17
	addi	a3,a4,-1152
	beq	a5,a3,.L93
	bgt	a5,a3,.L18
	addi	a4,a4,-1792
	beq	a5,a4,.L94
	bgt	a5,a4,.L19
	li	a4,12288
	addi	a3,a4,1408
	beq	a5,a3,.L95
	bgt	a5,a3,.L20
	addi	a3,a4,1152
	beq	a5,a3,.L96
	addi	a4,a4,1280
	.loc 1 575 11
	li	a0,0
.LVL28:
	.loc 1 224 5
	bne	a5,a4,.L1
	.loc 1 266 19
	lui	a0,%hi(.LC55)
	addi	a0,a0,%lo(.LC55)
	j	.L1
.LVL29:
.L20:
	.loc 1 224 5
	li	a4,16384
	addi	a4,a4,-1920
	.loc 1 575 11
	li	a0,0
.LVL30:
	.loc 1 224 5
	bne	a5,a4,.L1
	.loc 1 358 19
	lui	a0,%hi(.LC51)
	addi	a0,a0,%lo(.LC51)
	j	.L1
.LVL31:
.L19:
	.loc 1 224 5
	li	a4,16384
	addi	a3,a4,-1408
	beq	a5,a3,.L99
	bgt	a5,a3,.L21
	addi	a3,a4,-1664
	beq	a5,a3,.L100
	addi	a4,a4,-1536
	.loc 1 575 11
	li	a0,0
.LVL32:
	.loc 1 224 5
	bne	a5,a4,.L1
	.loc 1 352 19
	lui	a0,%hi(.LC50)
	addi	a0,a0,%lo(.LC50)
	j	.L1
.LVL33:
.L21:
	.loc 1 224 5
	addi	a4,a4,-1280
	.loc 1 575 11
	li	a0,0
.LVL34:
	.loc 1 224 5
	bne	a5,a4,.L1
	.loc 1 348 19
	lui	a0,%hi(.LC44)
	addi	a0,a0,%lo(.LC44)
	j	.L1
.LVL35:
.L18:
	.loc 1 224 5
	addi	a4,a4,-512
	beq	a5,a4,.L103
	bgt	a5,a4,.L22
	li	a4,16384
	addi	a3,a4,-768
	beq	a5,a3,.L104
	bgt	a5,a3,.L23
	addi	a3,a4,-1024
	beq	a5,a3,.L105
	addi	a4,a4,-896
	.loc 1 575 11
	li	a0,0
.LVL36:
	.loc 1 224 5
	bne	a5,a4,.L1
	.loc 1 342 19
	lui	a0,%hi(.LC45)
	addi	a0,a0,%lo(.LC45)
	j	.L1
.LVL37:
.L23:
	.loc 1 224 5
	addi	a4,a4,-640
	.loc 1 575 11
	li	a0,0
.LVL38:
	.loc 1 224 5
	bne	a5,a4,.L1
	.loc 1 338 19
	lui	a0,%hi(.LC42)
	addi	a0,a0,%lo(.LC42)
	j	.L1
.LVL39:
.L22:
	.loc 1 224 5
	li	a4,16384
	addi	a3,a4,-256
	beq	a5,a3,.L108
	addi	a3,a4,-128
	beq	a5,a3,.L109
	addi	a4,a4,-384
	.loc 1 575 11
	li	a0,0
.LVL40:
	.loc 1 224 5
	bne	a5,a4,.L1
	.loc 1 334 19
	lui	a0,%hi(.LC65)
	addi	a0,a0,%lo(.LC65)
	j	.L1
.LVL41:
.L17:
	.loc 1 224 5
	addi	a3,a4,1280
	beq	a5,a3,.L111
	bgt	a5,a3,.L24
	addi	a4,a4,768
	beq	a5,a4,.L112
	bgt	a5,a4,.L25
	li	a4,16384
	addi	a3,a4,512
	beq	a5,a3,.L113
	bgt	a5,a3,.L26
	addi	a3,a4,256
	beq	a5,a3,.L114
	addi	a4,a4,384
	.loc 1 575 11
	li	a0,0
.LVL42:
	.loc 1 224 5
	bne	a5,a4,.L1
	.loc 1 389 19
	lui	a0,%hi(.LC60)
	addi	a0,a0,%lo(.LC60)
	j	.L1
.LVL43:
.L26:
	.loc 1 224 5
	addi	a4,a4,640
	.loc 1 575 11
	li	a0,0
.LVL44:
	.loc 1 224 5
	bne	a5,a4,.L1
	.loc 1 393 19
	lui	a0,%hi(.LC63)
	addi	a0,a0,%lo(.LC63)
	j	.L1
.LVL45:
.L25:
	.loc 1 224 5
	li	a4,16384
	addi	a3,a4,1024
	beq	a5,a3,.L117
	addi	a3,a4,1152
	beq	a5,a3,.L118
	addi	a4,a4,896
	.loc 1 575 11
	li	a0,0
.LVL46:
	.loc 1 224 5
	bne	a5,a4,.L1
	.loc 1 397 19
	lui	a0,%hi(.LC23)
	addi	a0,a0,%lo(.LC23)
	j	.L1
.LVL47:
.L24:
	.loc 1 224 5
	addi	a2,a2,-896
	beq	a5,a2,.L120
	li	a4,20480
	bgt	a5,a2,.L27
	addi	a3,a4,-1152
	beq	a5,a3,.L121
	bgt	a5,a3,.L28
	li	a3,16384
	addi	a3,a3,1408
	beq	a5,a3,.L122
	addi	a4,a4,-1280
	.loc 1 575 11
	li	a0,0
.LVL48:
	.loc 1 224 5
	bne	a5,a4,.L1
	.loc 1 291 19
	lui	a0,%hi(.LC24)
	addi	a0,a0,%lo(.LC24)
	j	.L1
.LVL49:
.L28:
	.loc 1 224 5
	addi	a4,a4,-1024
	.loc 1 575 11
	li	a0,0
.LVL50:
	.loc 1 224 5
	bne	a5,a4,.L1
	.loc 1 287 19
	lui	a0,%hi(.LC21)
	addi	a0,a0,%lo(.LC21)
	j	.L1
.LVL51:
.L27:
	.loc 1 224 5
	addi	a3,a4,-640
	beq	a5,a3,.L125
	addi	a3,a4,-512
	beq	a5,a3,.L126
	addi	a4,a4,-768
	.loc 1 575 11
	li	a0,0
.LVL52:
	.loc 1 224 5
	bne	a5,a4,.L1
	.loc 1 283 19
	lui	a0,%hi(.LC102)
	addi	a0,a0,%lo(.LC102)
	j	.L1
.LVL53:
.L3:
	.loc 1 224 5
	li	a4,28672
	addi	a3,a4,-640
	beq	a5,a3,.L128
	bgt	a5,a3,.L29
	li	a3,24576
	addi	a1,a3,1152
	beq	a5,a1,.L129
	bgt	a5,a1,.L30
	beq	a5,a3,.L130
	bgt	a5,a3,.L31
	addi	a2,a2,384
	beq	a5,a2,.L131
	bgt	a5,a2,.L32
	li	a4,20480
	addi	a3,a4,128
	beq	a5,a3,.L132
	bgt	a5,a3,.L33
	addi	a3,a4,-256
	beq	a5,a3,.L133
	addi	a4,a4,-128
	.loc 1 575 11
	li	a0,0
.LVL54:
	.loc 1 224 5
	bne	a5,a4,.L1
	.loc 1 273 19
	lui	a0,%hi(.LC28)
	addi	a0,a0,%lo(.LC28)
	j	.L1
.LVL55:
.L33:
	.loc 1 224 5
	addi	a4,a4,256
	.loc 1 575 11
	li	a0,0
.LVL56:
	.loc 1 224 5
	bne	a5,a4,.L1
	.loc 1 298 19
	lui	a0,%hi(.LC124)
	addi	a0,a0,%lo(.LC124)
	j	.L1
.LVL57:
.L32:
	.loc 1 224 5
	li	a4,24576
	addi	a3,a4,-384
	beq	a5,a3,.L136
	bgt	a5,a3,.L34
	li	a4,20480
	addi	a3,a4,512
	beq	a5,a3,.L137
	addi	a4,a4,640
	.loc 1 575 11
	li	a0,0
.LVL58:
	.loc 1 224 5
	bne	a5,a4,.L1
	.loc 1 304 19
	lui	a0,%hi(.LC122)
	addi	a0,a0,%lo(.LC122)
	j	.L1
.LVL59:
.L34:
	.loc 1 224 5
	addi	a4,a4,-256
	.loc 1 575 11
	li	a0,0
.LVL60:
	.loc 1 224 5
	bne	a5,a4,.L1
	.loc 1 520 19
	lui	a0,%hi(.LC3)
	addi	a0,a0,%lo(.LC3)
	j	.L1
.LVL61:
.L31:
	.loc 1 224 5
	addi	a3,a3,640
	beq	a5,a3,.L140
	li	a4,24576
	bgt	a5,a3,.L35
	addi	a3,a4,384
	beq	a5,a3,.L141
	bgt	a5,a3,.L36
	addi	a3,a4,128
	beq	a5,a3,.L142
	addi	a4,a4,256
	.loc 1 575 11
	li	a0,0
.LVL62:
	.loc 1 224 5
	bne	a5,a4,.L1
	lui	a0,%hi(.LC2)
	addi	a0,a0,%lo(.LC2)
	j	.L1
.LVL63:
.L36:
	addi	a4,a4,512
	.loc 1 575 11
	li	a0,0
.LVL64:
	.loc 1 224 5
	bne	a5,a4,.L1
	.loc 1 235 19
	lui	a0,%hi(.LC5)
	addi	a0,a0,%lo(.LC5)
	j	.L1
.LVL65:
.L35:
	.loc 1 224 5
	addi	a3,a4,896
	beq	a5,a3,.L145
	addi	a3,a4,1024
	beq	a5,a3,.L146
	addi	a4,a4,768
	.loc 1 575 11
	li	a0,0
.LVL66:
	.loc 1 224 5
	bne	a5,a4,.L1
	.loc 1 239 19
	lui	a0,%hi(.LC111)
	addi	a0,a0,%lo(.LC111)
	j	.L1
.LVL67:
.L30:
	.loc 1 224 5
	addi	a2,a4,-1792
	beq	a5,a2,.L148
	bgt	a5,a2,.L37
	addi	a3,a3,1792
	beq	a5,a3,.L149
	bgt	a5,a3,.L38
	li	a4,24576
	addi	a3,a4,1536
	beq	a5,a3,.L150
	bgt	a5,a3,.L39
	addi	a3,a4,1280
	beq	a5,a3,.L151
	addi	a4,a4,1408
	.loc 1 575 11
	li	a0,0
.LVL68:
	.loc 1 224 5
	bne	a5,a4,.L1
	.loc 1 512 19
	lui	a0,%hi(.LC116)
	addi	a0,a0,%lo(.LC116)
	j	.L1
.LVL69:
.L39:
	.loc 1 224 5
	addi	a4,a4,1664
	.loc 1 575 11
	li	a0,0
.LVL70:
	.loc 1 224 5
	bne	a5,a4,.L1
	.loc 1 508 19
	lui	a0,%hi(.LC113)
	addi	a0,a0,%lo(.LC113)
	j	.L1
.LVL71:
.L38:
	.loc 1 224 5
	li	a4,28672
	addi	a3,a4,-2048
	beq	a5,a3,.L154
	addi	a4,a4,-1920
	beq	a5,a4,.L155
	li	a4,24576
	addi	a4,a4,1920
	.loc 1 575 11
	li	a0,0
.LVL72:
	.loc 1 224 5
	bne	a5,a4,.L1
	.loc 1 504 19
	lui	a0,%hi(.LC106)
	addi	a0,a0,%lo(.LC106)
	j	.L1
.LVL73:
.L37:
	.loc 1 224 5
	addi	a4,a4,-1152
	beq	a5,a4,.L157
	bgt	a5,a4,.L40
	li	a4,28672
	addi	a3,a4,-1408
	beq	a5,a3,.L158
	bgt	a5,a3,.L41
	addi	a3,a4,-1664
	beq	a5,a3,.L159
	addi	a4,a4,-1536
	.loc 1 575 11
	li	a0,0
.LVL74:
	.loc 1 224 5
	bne	a5,a4,.L1
	.loc 1 494 19
	lui	a0,%hi(.LC107)
	addi	a0,a0,%lo(.LC107)
	j	.L1
.LVL75:
.L41:
	.loc 1 224 5
	addi	a4,a4,-1280
	.loc 1 575 11
	li	a0,0
.LVL76:
	.loc 1 224 5
	bne	a5,a4,.L1
	.loc 1 490 19
	lui	a0,%hi(.LC104)
	addi	a0,a0,%lo(.LC104)
	j	.L1
.LVL77:
.L40:
	.loc 1 224 5
	li	a4,28672
	addi	a3,a4,-896
	beq	a5,a3,.L162
	addi	a3,a4,-768
	beq	a5,a3,.L163
	addi	a4,a4,-1024
	.loc 1 575 11
	li	a0,0
.LVL78:
	.loc 1 224 5
	bne	a5,a4,.L1
	.loc 1 486 19
	lui	a0,%hi(.LC80)
	addi	a0,a0,%lo(.LC80)
	j	.L1
.LVL79:
.L29:
	.loc 1 224 5
	addi	a3,a4,1792
	beq	a5,a3,.L165
	bgt	a5,a3,.L42
	addi	a3,a4,640
	beq	a5,a3,.L166
	bgt	a5,a3,.L43
	beq	a5,a4,.L167
	bgt	a5,a4,.L44
	li	a4,28672
	addi	a3,a4,-256
	beq	a5,a3,.L168
	bgt	a5,a3,.L45
	addi	a3,a4,-512
	beq	a5,a3,.L169
	addi	a4,a4,-384
	.loc 1 575 11
	li	a0,0
.LVL80:
	.loc 1 224 5
	bne	a5,a4,.L1
	.loc 1 476 19
	lui	a0,%hi(.LC98)
	addi	a0,a0,%lo(.LC98)
	j	.L1
.LVL81:
.L45:
	.loc 1 224 5
	addi	a4,a4,-128
	.loc 1 575 11
	li	a0,0
.LVL82:
	.loc 1 224 5
	bne	a5,a4,.L1
	.loc 1 472 19
	lui	a0,%hi(.LC69)
	addi	a0,a0,%lo(.LC69)
	j	.L1
.LVL83:
.L44:
	.loc 1 224 5
	li	a4,28672
	addi	a3,a4,384
	beq	a5,a3,.L172
	bgt	a5,a3,.L46
	addi	a3,a4,128
	beq	a5,a3,.L173
	addi	a4,a4,256
	.loc 1 575 11
	li	a0,0
.LVL84:
	.loc 1 224 5
	bne	a5,a4,.L1
	.loc 1 412 19
	lui	a0,%hi(.LC70)
	addi	a0,a0,%lo(.LC70)
	j	.L1
.LVL85:
.L46:
	.loc 1 224 5
	addi	a4,a4,512
	.loc 1 575 11
	li	a0,0
.LVL86:
	.loc 1 224 5
	bne	a5,a4,.L1
	.loc 1 416 19
	lui	a0,%hi(.LC76)
	addi	a0,a0,%lo(.LC76)
	j	.L1
.LVL87:
.L43:
	.loc 1 224 5
	addi	a4,a4,1280
	beq	a5,a4,.L176
	bgt	a5,a4,.L47
	li	a4,28672
	addi	a3,a4,1024
	beq	a5,a3,.L177
	bgt	a5,a3,.L48
	addi	a3,a4,768
	beq	a5,a3,.L178
	addi	a4,a4,896
	.loc 1 575 11
	li	a0,0
.LVL88:
	.loc 1 224 5
	bne	a5,a4,.L1
	.loc 1 422 19
	lui	a0,%hi(.LC75)
	addi	a0,a0,%lo(.LC75)
	j	.L1
.LVL89:
.L48:
	.loc 1 224 5
	addi	a4,a4,1152
	.loc 1 575 11
	li	a0,0
.LVL90:
	.loc 1 224 5
	bne	a5,a4,.L1
	.loc 1 426 19
	lui	a0,%hi(.LC78)
	addi	a0,a0,%lo(.LC78)
	j	.L1
.LVL91:
.L47:
	.loc 1 224 5
	li	a4,28672
	addi	a3,a4,1536
	beq	a5,a3,.L181
	addi	a3,a4,1664
	beq	a5,a3,.L182
	addi	a4,a4,1408
	.loc 1 575 11
	li	a0,0
.LVL92:
	.loc 1 224 5
	bne	a5,a4,.L1
	.loc 1 430 19
	lui	a0,%hi(.LC89)
	addi	a0,a0,%lo(.LC89)
	j	.L1
.LVL93:
.L42:
	.loc 1 224 5
	li	a4,32768
	addi	a3,a4,-1152
	beq	a5,a3,.L184
	bgt	a5,a3,.L49
	addi	a4,a4,-1664
	beq	a5,a4,.L185
	bgt	a5,a4,.L50
	li	a4,32768
	addi	a3,a4,-1920
	beq	a5,a3,.L186
	bgt	a5,a3,.L51
	li	a3,28672
	addi	a3,a3,1920
	beq	a5,a3,.L187
	addi	a4,a4,-2048
	.loc 1 575 11
	li	a0,0
.LVL94:
	.loc 1 224 5
	bne	a5,a4,.L1
	.loc 1 440 19
	lui	a0,%hi(.LC84)
	addi	a0,a0,%lo(.LC84)
	j	.L1
.LVL95:
.L51:
	.loc 1 224 5
	addi	a4,a4,-1792
	.loc 1 575 11
	li	a0,0
.LVL96:
	.loc 1 224 5
	bne	a5,a4,.L1
	.loc 1 444 19
	lui	a0,%hi(.LC87)
	addi	a0,a0,%lo(.LC87)
	j	.L1
.LVL97:
.L50:
	.loc 1 224 5
	li	a4,32768
	addi	a3,a4,-1408
	beq	a5,a3,.L190
	addi	a3,a4,-1280
	beq	a5,a3,.L191
	addi	a4,a4,-1536
	.loc 1 575 11
	li	a0,0
.LVL98:
	.loc 1 224 5
	bne	a5,a4,.L1
	.loc 1 448 19
	lui	a0,%hi(.LC94)
	addi	a0,a0,%lo(.LC94)
	j	.L1
.LVL99:
.L49:
	.loc 1 224 5
	addi	a4,a4,-512
	beq	a5,a4,.L193
	bgt	a5,a4,.L52
	li	a4,32768
	addi	a3,a4,-768
	beq	a5,a3,.L194
	bgt	a5,a3,.L53
	addi	a3,a4,-1024
	beq	a5,a3,.L195
	addi	a4,a4,-896
	.loc 1 575 11
	li	a0,0
.LVL100:
	.loc 1 224 5
	bne	a5,a4,.L1
	.loc 1 458 19
	lui	a0,%hi(.LC93)
	addi	a0,a0,%lo(.LC93)
	j	.L1
.LVL101:
.L53:
	.loc 1 224 5
	addi	a4,a4,-640
	.loc 1 575 11
	li	a0,0
.LVL102:
	.loc 1 224 5
	bne	a5,a4,.L1
	.loc 1 462 19
	lui	a0,%hi(.LC96)
	addi	a0,a0,%lo(.LC96)
	j	.L1
.LVL103:
.L52:
	.loc 1 224 5
	li	a4,32768
	addi	a3,a4,-256
	beq	a5,a3,.L198
	addi	a3,a4,-128
	beq	a5,a3,.L199
	addi	a4,a4,-384
	.loc 1 575 11
	li	a0,0
.LVL104:
	.loc 1 224 5
	bne	a5,a4,.L1
	.loc 1 466 19
	lui	a0,%hi(.LC146)
	addi	a0,a0,%lo(.LC146)
	j	.L1
.LVL105:
.L54:
	.loc 1 277 19
	lui	a0,%hi(.LC14)
.LVL106:
	addi	a0,a0,%lo(.LC14)
	j	.L1
.LVL107:
.L55:
	.loc 1 262 19
	lui	a0,%hi(.LC134)
.LVL108:
	addi	a0,a0,%lo(.LC134)
	j	.L1
.LVL109:
.L56:
	.loc 1 547 19
	lui	a0,%hi(.LC125)
.LVL110:
	addi	a0,a0,%lo(.LC125)
	j	.L1
.LVL111:
.L57:
	.loc 1 529 19
	lui	a0,%hi(.LC36)
.LVL112:
	addi	a0,a0,%lo(.LC36)
	j	.L1
.LVL113:
.L58:
	.loc 1 317 19
	lui	a0,%hi(.LC34)
.LVL114:
	addi	a0,a0,%lo(.LC34)
	j	.L1
.LVL115:
.L59:
	.loc 1 313 19
	lui	a0,%hi(.LC32)
.LVL116:
	addi	a0,a0,%lo(.LC32)
	j	.L1
.LVL117:
.L60:
	.loc 1 309 19
	lui	a0,%hi(.LC33)
.LVL118:
	addi	a0,a0,%lo(.LC33)
	j	.L1
.LVL119:
.L63:
	.loc 1 323 19
	lui	a0,%hi(.LC37)
.LVL120:
	addi	a0,a0,%lo(.LC37)
	j	.L1
.LVL121:
.L64:
	.loc 1 319 19
	lui	a0,%hi(.LC38)
.LVL122:
	addi	a0,a0,%lo(.LC38)
	j	.L1
.LVL123:
.L67:
	.loc 1 539 19
	lui	a0,%hi(.LC128)
.LVL124:
	addi	a0,a0,%lo(.LC128)
	j	.L1
.LVL125:
.L68:
	.loc 1 535 19
	lui	a0,%hi(.LC126)
.LVL126:
	addi	a0,a0,%lo(.LC126)
	j	.L1
.LVL127:
.L69:
	.loc 1 531 19
	lui	a0,%hi(.LC127)
.LVL128:
	addi	a0,a0,%lo(.LC127)
	j	.L1
.LVL129:
.L72:
	.loc 1 543 19
	lui	a0,%hi(.LC133)
.LVL130:
	addi	a0,a0,%lo(.LC133)
	j	.L1
.LVL131:
.L73:
	.loc 1 545 19
	lui	a0,%hi(.LC131)
.LVL132:
	addi	a0,a0,%lo(.LC131)
	j	.L1
.LVL133:
.L75:
	.loc 1 565 19
	lui	a0,%hi(.LC139)
.LVL134:
	addi	a0,a0,%lo(.LC139)
	j	.L1
.LVL135:
.L76:
	.loc 1 557 19
	lui	a0,%hi(.LC137)
.LVL136:
	addi	a0,a0,%lo(.LC137)
	j	.L1
.LVL137:
.L77:
	.loc 1 553 19
	lui	a0,%hi(.LC135)
.LVL138:
	addi	a0,a0,%lo(.LC135)
	j	.L1
.LVL139:
.L78:
	.loc 1 549 19
	lui	a0,%hi(.LC136)
.LVL140:
	addi	a0,a0,%lo(.LC136)
	j	.L1
.LVL141:
.L81:
	.loc 1 561 19
	lui	a0,%hi(.LC142)
.LVL142:
	addi	a0,a0,%lo(.LC142)
	j	.L1
.LVL143:
.L82:
	.loc 1 563 19
	lui	a0,%hi(.LC140)
.LVL144:
	addi	a0,a0,%lo(.LC140)
	j	.L1
.LVL145:
.L84:
	.loc 1 254 19
	lui	a0,%hi(.LC8)
.LVL146:
	addi	a0,a0,%lo(.LC8)
	j	.L1
.LVL147:
.L85:
	.loc 1 250 19
	lui	a0,%hi(.LC144)
.LVL148:
	addi	a0,a0,%lo(.LC144)
	j	.L1
.LVL149:
.L86:
	.loc 1 567 19
	lui	a0,%hi(.LC7)
.LVL150:
	addi	a0,a0,%lo(.LC7)
	j	.L1
.LVL151:
.L89:
	.loc 1 258 19
	lui	a0,%hi(.LC13)
.LVL152:
	addi	a0,a0,%lo(.LC13)
	j	.L1
.LVL153:
.L90:
	.loc 1 260 19
	lui	a0,%hi(.LC11)
.LVL154:
	addi	a0,a0,%lo(.LC11)
	j	.L1
.LVL155:
.L92:
	.loc 1 385 19
	lui	a0,%hi(.LC49)
.LVL156:
	addi	a0,a0,%lo(.LC49)
	j	.L1
.LVL157:
.L93:
	.loc 1 346 19
	lui	a0,%hi(.LC54)
.LVL158:
	addi	a0,a0,%lo(.LC54)
	j	.L1
.LVL159:
.L94:
	.loc 1 356 19
	lui	a0,%hi(.LC17)
.LVL160:
	addi	a0,a0,%lo(.LC17)
	j	.L1
.LVL161:
.L95:
	.loc 1 268 19
	lui	a0,%hi(.LC15)
.LVL162:
	addi	a0,a0,%lo(.LC15)
	j	.L1
.LVL163:
.L96:
	.loc 1 264 19
	lui	a0,%hi(.LC16)
.LVL164:
	addi	a0,a0,%lo(.LC16)
	j	.L1
.LVL165:
.L99:
	.loc 1 350 19
	lui	a0,%hi(.LC53)
.LVL166:
	addi	a0,a0,%lo(.LC53)
	j	.L1
.LVL167:
.L100:
	.loc 1 354 19
	lui	a0,%hi(.LC52)
.LVL168:
	addi	a0,a0,%lo(.LC52)
	j	.L1
.LVL169:
.L103:
	.loc 1 336 19
	lui	a0,%hi(.LC46)
.LVL170:
	addi	a0,a0,%lo(.LC46)
	j	.L1
.LVL171:
.L104:
	.loc 1 340 19
	lui	a0,%hi(.LC48)
.LVL172:
	addi	a0,a0,%lo(.LC48)
	j	.L1
.LVL173:
.L105:
	.loc 1 344 19
	lui	a0,%hi(.LC47)
.LVL174:
	addi	a0,a0,%lo(.LC47)
	j	.L1
.LVL175:
.L108:
	.loc 1 332 19
	lui	a0,%hi(.LC41)
.LVL176:
	addi	a0,a0,%lo(.LC41)
	j	.L1
.LVL177:
.L109:
	.loc 1 330 19
	lui	a0,%hi(.LC43)
.LVL178:
	addi	a0,a0,%lo(.LC43)
	j	.L1
.LVL179:
.L111:
	.loc 1 403 19
	lui	a0,%hi(.LC61)
.LVL180:
	addi	a0,a0,%lo(.LC61)
	j	.L1
.LVL181:
.L112:
	.loc 1 395 19
	lui	a0,%hi(.LC59)
.LVL182:
	addi	a0,a0,%lo(.LC59)
	j	.L1
.LVL183:
.L113:
	.loc 1 391 19
	lui	a0,%hi(.LC57)
.LVL184:
	addi	a0,a0,%lo(.LC57)
	j	.L1
.LVL185:
.L114:
	.loc 1 387 19
	lui	a0,%hi(.LC58)
.LVL186:
	addi	a0,a0,%lo(.LC58)
	j	.L1
.LVL187:
.L117:
	.loc 1 399 19
	lui	a0,%hi(.LC64)
.LVL188:
	addi	a0,a0,%lo(.LC64)
	j	.L1
.LVL189:
.L118:
	.loc 1 401 19
	lui	a0,%hi(.LC62)
.LVL190:
	addi	a0,a0,%lo(.LC62)
	j	.L1
.LVL191:
.L120:
	.loc 1 285 19
	lui	a0,%hi(.LC25)
.LVL192:
	addi	a0,a0,%lo(.LC25)
	j	.L1
.LVL193:
.L121:
	.loc 1 289 19
	lui	a0,%hi(.LC66)
.LVL194:
	addi	a0,a0,%lo(.LC66)
	j	.L1
.LVL195:
.L122:
	.loc 1 405 19
	lui	a0,%hi(.LC26)
.LVL196:
	addi	a0,a0,%lo(.LC26)
	j	.L1
.LVL197:
.L125:
	.loc 1 281 19
	lui	a0,%hi(.LC20)
.LVL198:
	addi	a0,a0,%lo(.LC20)
	j	.L1
.LVL199:
.L126:
	.loc 1 279 19
	lui	a0,%hi(.LC22)
.LVL200:
	addi	a0,a0,%lo(.LC22)
	j	.L1
.LVL201:
.L128:
	.loc 1 480 19
	lui	a0,%hi(.LC120)
.LVL202:
	addi	a0,a0,%lo(.LC120)
	j	.L1
.LVL203:
.L129:
	.loc 1 516 19
	lui	a0,%hi(.LC121)
.LVL204:
	addi	a0,a0,%lo(.LC121)
	j	.L1
.LVL205:
.L130:
	.loc 1 518 19
	lui	a0,%hi(.LC29)
.LVL206:
	addi	a0,a0,%lo(.LC29)
	j	.L1
.LVL207:
.L131:
	.loc 1 300 19
	lui	a0,%hi(.LC27)
.LVL208:
	addi	a0,a0,%lo(.LC27)
	j	.L1
.LVL209:
.L132:
	.loc 1 296 19
	lui	a0,%hi(.LC19)
.LVL210:
	addi	a0,a0,%lo(.LC19)
	j	.L1
.LVL211:
.L133:
	.loc 1 275 19
	lui	a0,%hi(.LC18)
.LVL212:
	addi	a0,a0,%lo(.LC18)
	j	.L1
.LVL213:
.L136:
	.loc 1 524 19
	lui	a0,%hi(.LC30)
.LVL214:
	addi	a0,a0,%lo(.LC30)
	j	.L1
.LVL215:
.L137:
	.loc 1 302 19
	lui	a0,%hi(.LC31)
.LVL216:
	addi	a0,a0,%lo(.LC31)
	j	.L1
.LVL217:
.L140:
	.loc 1 237 19
	lui	a0,%hi(.LC1)
.LVL218:
	addi	a0,a0,%lo(.LC1)
	j	.L1
.LVL219:
.L141:
	.loc 1 233 19
	lui	a0,%hi(.LC145)
.LVL220:
	addi	a0,a0,%lo(.LC145)
	j	.L1
.LVL221:
.L142:
	.loc 1 229 19
	lui	a0,%hi(.LC0)
.LVL222:
	addi	a0,a0,%lo(.LC0)
	j	.L1
.LVL223:
.L145:
	.loc 1 241 19
	lui	a0,%hi(.LC6)
.LVL224:
	addi	a0,a0,%lo(.LC6)
	j	.L1
.LVL225:
.L146:
	.loc 1 243 19
	lui	a0,%hi(.LC4)
.LVL226:
	addi	a0,a0,%lo(.LC4)
	j	.L1
.LVL227:
.L148:
	.loc 1 498 19
	lui	a0,%hi(.LC115)
.LVL228:
	addi	a0,a0,%lo(.LC115)
	j	.L1
.LVL229:
.L149:
	.loc 1 506 19
	lui	a0,%hi(.LC117)
.LVL230:
	addi	a0,a0,%lo(.LC117)
	j	.L1
.LVL231:
.L150:
	.loc 1 510 19
	lui	a0,%hi(.LC119)
.LVL232:
	addi	a0,a0,%lo(.LC119)
	j	.L1
.LVL233:
.L151:
	.loc 1 514 19
	lui	a0,%hi(.LC118)
.LVL234:
	addi	a0,a0,%lo(.LC118)
	j	.L1
.LVL235:
.L154:
	.loc 1 502 19
	lui	a0,%hi(.LC112)
.LVL236:
	addi	a0,a0,%lo(.LC112)
	j	.L1
.LVL237:
.L155:
	.loc 1 500 19
	lui	a0,%hi(.LC114)
.LVL238:
	addi	a0,a0,%lo(.LC114)
	j	.L1
.LVL239:
.L157:
	.loc 1 488 19
	lui	a0,%hi(.LC108)
.LVL240:
	addi	a0,a0,%lo(.LC108)
	j	.L1
.LVL241:
.L158:
	.loc 1 492 19
	lui	a0,%hi(.LC110)
.LVL242:
	addi	a0,a0,%lo(.LC110)
	j	.L1
.LVL243:
.L159:
	.loc 1 496 19
	lui	a0,%hi(.LC109)
.LVL244:
	addi	a0,a0,%lo(.LC109)
	j	.L1
.LVL245:
.L162:
	.loc 1 484 19
	lui	a0,%hi(.LC103)
.LVL246:
	addi	a0,a0,%lo(.LC103)
	j	.L1
.LVL247:
.L163:
	.loc 1 482 19
	lui	a0,%hi(.LC105)
.LVL248:
	addi	a0,a0,%lo(.LC105)
	j	.L1
.LVL249:
.L165:
	.loc 1 436 19
	lui	a0,%hi(.LC71)
.LVL250:
	addi	a0,a0,%lo(.LC71)
	j	.L1
.LVL251:
.L166:
	.loc 1 418 19
	lui	a0,%hi(.LC123)
.LVL252:
	addi	a0,a0,%lo(.LC123)
	j	.L1
.LVL253:
.L167:
	.loc 1 522 19
	lui	a0,%hi(.LC99)
.LVL254:
	addi	a0,a0,%lo(.LC99)
	j	.L1
.LVL255:
.L168:
	.loc 1 474 19
	lui	a0,%hi(.LC101)
.LVL256:
	addi	a0,a0,%lo(.LC101)
	j	.L1
.LVL257:
.L169:
	.loc 1 478 19
	lui	a0,%hi(.LC100)
.LVL258:
	addi	a0,a0,%lo(.LC100)
	j	.L1
.LVL259:
.L172:
	.loc 1 414 19
	lui	a0,%hi(.LC67)
.LVL260:
	addi	a0,a0,%lo(.LC67)
	j	.L1
.LVL261:
.L173:
	.loc 1 410 19
	lui	a0,%hi(.LC68)
.LVL262:
	addi	a0,a0,%lo(.LC68)
	j	.L1
.LVL263:
.L176:
	.loc 1 428 19
	lui	a0,%hi(.LC74)
.LVL264:
	addi	a0,a0,%lo(.LC74)
	j	.L1
.LVL265:
.L177:
	.loc 1 424 19
	lui	a0,%hi(.LC72)
.LVL266:
	addi	a0,a0,%lo(.LC72)
	j	.L1
.LVL267:
.L178:
	.loc 1 420 19
	lui	a0,%hi(.LC73)
.LVL268:
	addi	a0,a0,%lo(.LC73)
	j	.L1
.LVL269:
.L181:
	.loc 1 432 19
	lui	a0,%hi(.LC79)
.LVL270:
	addi	a0,a0,%lo(.LC79)
	j	.L1
.LVL271:
.L182:
	.loc 1 434 19
	lui	a0,%hi(.LC77)
.LVL272:
	addi	a0,a0,%lo(.LC77)
	j	.L1
.LVL273:
.L184:
	.loc 1 454 19
	lui	a0,%hi(.LC85)
.LVL274:
	addi	a0,a0,%lo(.LC85)
	j	.L1
.LVL275:
.L185:
	.loc 1 446 19
	lui	a0,%hi(.LC83)
.LVL276:
	addi	a0,a0,%lo(.LC83)
	j	.L1
.LVL277:
.L186:
	.loc 1 442 19
	lui	a0,%hi(.LC81)
.LVL278:
	addi	a0,a0,%lo(.LC81)
	j	.L1
.LVL279:
.L187:
	.loc 1 438 19
	lui	a0,%hi(.LC82)
.LVL280:
	addi	a0,a0,%lo(.LC82)
	j	.L1
.LVL281:
.L190:
	.loc 1 450 19
	lui	a0,%hi(.LC88)
.LVL282:
	addi	a0,a0,%lo(.LC88)
	j	.L1
.LVL283:
.L191:
	.loc 1 452 19
	lui	a0,%hi(.LC86)
.LVL284:
	addi	a0,a0,%lo(.LC86)
	j	.L1
.LVL285:
.L193:
	.loc 1 464 19
	lui	a0,%hi(.LC92)
.LVL286:
	addi	a0,a0,%lo(.LC92)
	j	.L1
.LVL287:
.L194:
	.loc 1 460 19
	lui	a0,%hi(.LC90)
.LVL288:
	addi	a0,a0,%lo(.LC90)
	j	.L1
.LVL289:
.L195:
	.loc 1 456 19
	lui	a0,%hi(.LC91)
.LVL290:
	addi	a0,a0,%lo(.LC91)
	j	.L1
.LVL291:
.L198:
	.loc 1 468 19
	lui	a0,%hi(.LC97)
.LVL292:
	addi	a0,a0,%lo(.LC97)
	j	.L1
.LVL293:
.L199:
	.loc 1 470 19
	lui	a0,%hi(.LC95)
.LVL294:
	addi	a0,a0,%lo(.LC95)
	j	.L1
	.cfi_endproc
.LFE23:
	.size	mbedtls_high_level_strerr, .-mbedtls_high_level_strerr
	.section	.text.mbedtls_low_level_strerr,"ax",@progbits
	.align	1
	.globl	mbedtls_low_level_strerr
	.type	mbedtls_low_level_strerr, @function
mbedtls_low_level_strerr:
.LFB24:
	.loc 1 579 1 is_stmt 1
	.cfi_startproc
.LVL295:
	.loc 1 580 5
	.loc 1 582 5
	.loc 1 586 5
	.loc 1 588 5
	.loc 1 586 26 is_stmt 0
	srai	a4,a0,31
	xor	a5,a4,a0
	li	a0,-65536
.LVL296:
	.loc 1 579 1
	addi	sp,sp,-16
	.cfi_def_cfa_offset 16
	.loc 1 586 26
	sub	a5,a5,a4
	addi	a0,a0,127
	.loc 1 579 1
	sw	s0,12(sp)
	.loc 1 586 26
	and	a5,a5,a0
	.cfi_offset 8, -4
	.loc 1 579 1
	addi	s0,sp,16
	.cfi_def_cfa 8, 0
	addi	a5,a5,-1
	li	a4,116
	.loc 1 588 5
	li	a0,0
	bgtu	a5,a4,.L202
	lui	a4,%hi(.LANCHOR0)
	slli	a5,a5,2
	addi	a4,a4,%lo(.LANCHOR0)
	add	a5,a4,a5
	lw	a0,0(a5)
.L202:
	.loc 1 894 1
	lw	s0,12(sp)
	.cfi_restore 8
	.cfi_def_cfa 2, 16
	addi	sp,sp,16
	.cfi_def_cfa_offset 0
	jr	ra
	.cfi_endproc
.LFE24:
	.size	mbedtls_low_level_strerr, .-mbedtls_low_level_strerr
	.section	.rodata.mbedtls_strerror.str1.4,"aMS",@progbits,1
	.align	2
.LC147:
	.string	"UNKNOWN ERROR CODE (%04X)"
	.align	2
.LC148:
	.string	"%s"
	.align	2
.LC149:
	.string	" : "
	.section	.text.mbedtls_strerror,"ax",@progbits
	.align	1
	.globl	mbedtls_strerror
	.type	mbedtls_strerror, @function
mbedtls_strerror:
.LFB25:
	.loc 1 897 1 is_stmt 1
	.cfi_startproc
.LVL297:
	.loc 1 898 5
	.loc 1 899 5
	.loc 1 900 5
	.loc 1 901 5
	.loc 1 903 5
	.loc 1 903 7 is_stmt 0
	beq	a2,zero,.L225
	.loc 1 897 1
	addi	sp,sp,-32
	.cfi_def_cfa_offset 32
	sw	s0,24(sp)
	sw	s1,20(sp)
	sw	s2,16(sp)
	sw	s3,12(sp)
	sw	s4,8(sp)
	sw	ra,28(sp)
	sw	s5,4(sp)
	.cfi_offset 8, -8
	.cfi_offset 9, -12
	.cfi_offset 18, -16
	.cfi_offset 19, -20
	.cfi_offset 20, -24
	.cfi_offset 1, -4
	.cfi_offset 21, -28
	addi	s0,sp,32
	.cfi_def_cfa 8, 0
	mv	s2,a1
	mv	s3,a0
	.loc 1 906 5
	li	a1,0
.LVL298:
	mv	a0,s2
.LVL299:
	mv	s1,a2
	.loc 1 906 5 is_stmt 1
	call	memset
.LVL300:
	.loc 1 908 5
	srai	a5,s3,31
	xor	s3,a5,s3
.LVL301:
	.loc 1 911 13 is_stmt 0
	li	s4,65536
	sub	s3,s3,a5
.LVL302:
	.loc 1 911 5 is_stmt 1
	.loc 1 911 13 is_stmt 0
	addi	s4,s4,-128
	and	s4,s3,s4
	.loc 1 911 7
	bne	s4,zero,.L209
.LVL303:
.L214:
	.loc 1 931 5 is_stmt 1
	.loc 1 931 13 is_stmt 0
	li	s5,-65536
	addi	s5,s5,127
	and	s5,s3,s5
.LVL304:
	.loc 1 933 5 is_stmt 1
	.loc 1 933 7 is_stmt 0
	beq	s5,zero,.L206
	.loc 1 939 5 is_stmt 1
	.loc 1 939 11 is_stmt 0
	mv	a0,s2
	call	strlen
.LVL305:
	mv	s4,a0
.LVL306:
	.loc 1 941 5 is_stmt 1
	.loc 1 941 7 is_stmt 0
	beq	a0,zero,.L215
	.loc 1 943 9 is_stmt 1
	.loc 1 943 20 is_stmt 0
	sub	s1,s1,a0
.LVL307:
	.loc 1 943 11
	li	a5,4
	bleu	s1,a5,.L206
	.loc 1 946 9 is_stmt 1
	lui	a2,%hi(.LC149)
	mv	a1,s1
	add	a0,s2,a0
.LVL308:
	addi	a2,a2,%lo(.LC149)
	.loc 1 948 13 is_stmt 0
	addi	s4,s4,3
.LVL309:
	.loc 1 946 9
	call	snprintf
.LVL310:
	.loc 1 948 9 is_stmt 1
	.loc 1 948 13 is_stmt 0
	add	s2,s2,s4
.LVL311:
	.loc 1 949 9 is_stmt 1
	.loc 1 949 16 is_stmt 0
	addi	s1,s1,-3
.LVL312:
.L215:
	.loc 1 953 5 is_stmt 1
	.loc 1 953 35 is_stmt 0
	mv	a0,s3
	call	mbedtls_low_level_strerr
.LVL313:
	mv	a3,a0
.LVL314:
	.loc 1 955 5 is_stmt 1
	.loc 1 955 7 is_stmt 0
	bne	a0,zero,.L216
	.loc 1 956 9 is_stmt 1
	lui	a2,%hi(.LC147)
	mv	a3,s5
	addi	a2,a2,%lo(.LC147)
.L229:
	.loc 1 959 1 is_stmt 0
	lw	s0,24(sp)
	.cfi_remember_state
	.cfi_restore 8
	.cfi_def_cfa 2, 32
	lw	ra,28(sp)
	.cfi_restore 1
	lw	s3,12(sp)
	.cfi_restore 19
.LVL315:
	lw	s4,8(sp)
	.cfi_restore 20
	lw	s5,4(sp)
	.cfi_restore 21
.LVL316:
	.loc 1 958 9
	mv	a1,s1
	mv	a0,s2
.LVL317:
	.loc 1 959 1
	lw	s1,20(sp)
	.cfi_restore 9
.LVL318:
	lw	s2,16(sp)
	.cfi_restore 18
.LVL319:
	addi	sp,sp,32
	.cfi_def_cfa_offset 0
	.loc 1 958 9
	tail	snprintf
.LVL320:
.L209:
	.cfi_restore_state
	.loc 1 913 9 is_stmt 1
	.loc 1 916 9
	.loc 1 916 40 is_stmt 0
	mv	a0,s3
	call	mbedtls_high_level_strerr
.LVL321:
	mv	a3,a0
.LVL322:
	.loc 1 918 9 is_stmt 1
	.loc 1 918 11 is_stmt 0
	bne	a0,zero,.L212
	.loc 1 919 13 is_stmt 1
	lui	a2,%hi(.LC147)
	mv	a3,s4
	addi	a2,a2,%lo(.LC147)
.L228:
	.loc 1 921 13 is_stmt 0
	mv	a1,s1
	mv	a0,s2
.LVL323:
	call	snprintf
.LVL324:
	.loc 1 926 9 is_stmt 1
	.loc 1 926 11 is_stmt 0
	li	a5,28672
	addi	a5,a5,1920
	bne	s4,a5,.L214
.LVL325:
.L206:
	.loc 1 959 1
	lw	ra,28(sp)
	.cfi_remember_state
	.cfi_restore 1
	lw	s0,24(sp)
	.cfi_restore 8
	.cfi_def_cfa 2, 32
	lw	s1,20(sp)
	.cfi_restore 9
	lw	s2,16(sp)
	.cfi_restore 18
.LVL326:
	lw	s3,12(sp)
	.cfi_restore 19
.LVL327:
	lw	s4,8(sp)
	.cfi_restore 20
	lw	s5,4(sp)
	.cfi_restore 21
	addi	sp,sp,32
	.cfi_def_cfa_offset 0
	jr	ra
.LVL328:
.L212:
	.cfi_restore_state
	.loc 1 921 13 is_stmt 1
	lui	a2,%hi(.LC148)
	addi	a2,a2,%lo(.LC148)
	j	.L228
.LVL329:
.L216:
	.loc 1 958 9
	lui	a2,%hi(.LC148)
	addi	a2,a2,%lo(.LC148)
	j	.L229
.LVL330:
.L225:
	.cfi_def_cfa_register 2
	.cfi_restore 1
	.cfi_restore 8
	.cfi_restore 9
	.cfi_restore 18
	.cfi_restore 19
	.cfi_restore 20
	.cfi_restore 21
	ret
	.cfi_endproc
.LFE25:
	.size	mbedtls_strerror, .-mbedtls_strerror
	.section	.rodata.str1.4,"aMS",@progbits,1
	.align	2
.LC150:
	.string	"ERROR - Generic error"
	.align	2
.LC151:
	.string	"BIGNUM - An error occurred while reading from or writing to a file"
	.align	2
.LC152:
	.string	"BIGNUM - Bad input parameters to function"
	.align	2
.LC153:
	.string	"BIGNUM - There is an invalid character in the digit string"
	.align	2
.LC154:
	.string	"BIGNUM - The buffer is too small to write to"
	.align	2
.LC155:
	.string	"BIGNUM - The input arguments are negative or result in illegal output"
	.align	2
.LC156:
	.string	"OID - output buffer is too small"
	.align	2
.LC157:
	.string	"BIGNUM - The input argument for division is zero, which is not allowed"
	.align	2
.LC158:
	.string	"BIGNUM - The input arguments are not acceptable"
	.align	2
.LC159:
	.string	"BIGNUM - Memory allocation failed"
	.align	2
.LC160:
	.string	"GCM - Authenticated decryption failed"
	.align	2
.LC161:
	.string	"GCM - GCM hardware accelerator failed"
	.align	2
.LC162:
	.string	"GCM - Bad input parameters to function"
	.align	2
.LC163:
	.string	"AES - Invalid key length"
	.align	2
.LC164:
	.string	"AES - Invalid input data"
	.align	2
.LC165:
	.string	"AES - Invalid data input length"
	.align	2
.LC166:
	.string	"AES - Feature not available. For example, an unsupported AES key size"
	.align	2
.LC167:
	.string	"AES - AES hardware accelerator failed"
	.align	2
.LC168:
	.string	"BASE64 - Output buffer too small"
	.align	2
.LC169:
	.string	"BASE64 - Invalid character in input"
	.align	2
.LC170:
	.string	"OID - OID is not found"
	.align	2
.LC171:
	.string	"MD5 - MD5 hardware accelerator failed"
	.align	2
.LC172:
	.string	"CTR_DRBG - The entropy source failed"
	.align	2
.LC173:
	.string	"SHA1 - SHA-1 hardware accelerator failed"
	.align	2
.LC174:
	.string	"CTR_DRBG - The requested random buffer length is too big"
	.align	2
.LC175:
	.string	"SHA256 - SHA-256 hardware accelerator failed"
	.align	2
.LC176:
	.string	"CTR_DRBG - The input (entropy + additional data) is too large"
	.align	2
.LC177:
	.string	"SHA512 - SHA-512 hardware accelerator failed"
	.align	2
.LC178:
	.string	"CTR_DRBG - Read or write error in file"
	.align	2
.LC179:
	.string	"ENTROPY - Critical entropy source failure"
	.align	2
.LC180:
	.string	"ENTROPY - No strong sources have been added to poll"
	.align	2
.LC181:
	.string	"ENTROPY - No more sources can be added"
	.align	2
.LC182:
	.string	"ENTROPY - Read/write error in file"
	.align	2
.LC183:
	.string	"ENTROPY - No sources have been added to poll"
	.align	2
.LC184:
	.string	"NET - Failed to open a socket"
	.align	2
.LC185:
	.string	"NET - Buffer is too small to hold the data"
	.align	2
.LC186:
	.string	"NET - The connection to the given server / port failed"
	.align	2
.LC187:
	.string	"NET - The context is invalid, eg because it was free()ed"
	.align	2
.LC188:
	.string	"NET - Binding of the socket failed"
	.align	2
.LC189:
	.string	"NET - Polling the net context failed"
	.align	2
.LC190:
	.string	"NET - Could not listen on the socket"
	.align	2
.LC191:
	.string	"NET - Input invalid"
	.align	2
.LC192:
	.string	"NET - Could not accept the incoming connection"
	.align	2
.LC193:
	.string	"NET - Reading information from the socket failed"
	.align	2
.LC194:
	.string	"NET - Sending information through the socket failed"
	.align	2
.LC195:
	.string	"NET - Connection was reset by peer"
	.align	2
.LC196:
	.string	"NET - Failed to get an IP address for the given hostname"
	.align	2
.LC197:
	.string	"ASN1 - Out of data when parsing an ASN1 data structure"
	.align	2
.LC198:
	.string	"ASN1 - ASN1 tag was of an unexpected value"
	.align	2
.LC199:
	.string	"ASN1 - Error when trying to determine the length or invalid length"
	.align	2
.LC200:
	.string	"ASN1 - Actual length differs from expected length"
	.align	2
.LC201:
	.string	"ASN1 - Data is invalid"
	.align	2
.LC202:
	.string	"ASN1 - Memory allocation failed"
	.align	2
.LC203:
	.string	"ASN1 - Buffer too small when writing ASN.1 data structure"
	.align	2
.LC204:
	.string	"ERROR - This is a bug in the library"
	.align	2
.LC205:
	.string	"PLATFORM - Hardware accelerator failed"
	.align	2
.LC206:
	.string	"PLATFORM - The requested feature is not supported by the platform"
	.align	2
.LC207:
	.string	"SHA1 - SHA-1 input data was malformed"
	.align	2
.LC208:
	.string	"SHA256 - SHA-256 input data was malformed"
	.align	2
.LC209:
	.string	"SHA512 - SHA-512 input data was malformed"
	.section	.rodata.CSWTCH.4,"a"
	.align	2
	.set	.LANCHOR0,. + 0
	.type	CSWTCH.4, @object
	.size	CSWTCH.4, 468
CSWTCH.4:
	.word	.LC150
	.word	.LC151
	.word	0
	.word	.LC152
	.word	0
	.word	.LC153
	.word	0
	.word	.LC154
	.word	0
	.word	.LC155
	.word	.LC156
	.word	.LC157
	.word	0
	.word	.LC158
	.word	0
	.word	.LC159
	.word	0
	.word	.LC160
	.word	.LC161
	.word	.LC162
	.word	0
	.word	0
	.word	0
	.word	0
	.word	0
	.word	0
	.word	0
	.word	0
	.word	0
	.word	0
	.word	0
	.word	.LC163
	.word	.LC164
	.word	.LC165
	.word	.LC166
	.word	0
	.word	.LC167
	.word	0
	.word	0
	.word	0
	.word	0
	.word	.LC168
	.word	0
	.word	.LC169
	.word	0
	.word	.LC170
	.word	.LC171
	.word	0
	.word	0
	.word	0
	.word	0
	.word	.LC172
	.word	.LC173
	.word	.LC174
	.word	.LC175
	.word	.LC176
	.word	.LC177
	.word	.LC178
	.word	0
	.word	.LC179
	.word	.LC180
	.word	.LC181
	.word	.LC182
	.word	.LC183
	.word	0
	.word	.LC184
	.word	.LC185
	.word	.LC186
	.word	.LC187
	.word	.LC188
	.word	.LC189
	.word	.LC190
	.word	.LC191
	.word	.LC192
	.word	0
	.word	.LC193
	.word	0
	.word	.LC194
	.word	0
	.word	.LC195
	.word	0
	.word	.LC196
	.word	0
	.word	0
	.word	0
	.word	0
	.word	0
	.word	0
	.word	0
	.word	0
	.word	0
	.word	0
	.word	0
	.word	0
	.word	0
	.word	.LC197
	.word	0
	.word	.LC198
	.word	0
	.word	.LC199
	.word	0
	.word	.LC200
	.word	0
	.word	.LC201
	.word	0
	.word	.LC202
	.word	0
	.word	.LC203
	.word	0
	.word	.LC204
	.word	0
	.word	.LC205
	.word	0
	.word	.LC206
	.word	.LC207
	.word	.LC208
	.word	.LC209
	.text
.Letext0:
	.file 2 "/home/dinhquangha/Ai-Thinker-WB2/toolchain/riscv/Linux/riscv64-unknown-elf/include/string.h"
	.file 3 "/home/dinhquangha/Ai-Thinker-WB2/toolchain/riscv/Linux/riscv64-unknown-elf/include/stdio.h"
	.file 4 "/home/dinhquangha/Ai-Thinker-WB2/toolchain/riscv/Linux/lib/gcc/riscv64-unknown-elf/10.2.0/include/stddef.h"