	.file	"gcm.c"
	.option nopic
	.attribute arch, "rv32i2p0_m2p0_f2p0_c2p0"
	.attribute unaligned_access, 0
	.attribute stack_align, 16
	.text
.Ltext0:
	.cfi_sections	.debug_frame
	.section	.text.gcm_mult,"ax",@progbits
	.align	1
	.type	gcm_mult, @function
gcm_mult:
.LFB12:
	.file 1 "/home/dinhquangha/Ai-Thinker-WB2/components/security/mbedtls_lts/mbedtls/library/gcm.c"
	.loc 1 194 1
	.cfi_startproc
.LVL0:
	.loc 1 195 5
	.loc 1 196 5
	.loc 1 197 5
	.loc 1 213 5
	.loc 1 215 5
	.loc 1 194 1 is_stmt 0
	addi	sp,sp,-16
	.cfi_def_cfa_offset 16
	sw	s0,12(sp)
.LVL1:
	sw	s1,8(sp)
	sw	s2,4(sp)
	sw	s3,0(sp)
	.cfi_offset 8, -4
	.cfi_offset 9, -8
	.cfi_offset 18, -12
	.cfi_offset 19, -16
	addi	s0,sp,16
	.cfi_def_cfa 8, 0
	.loc 1 213 8
	lbu	a3,15(a1)
	.loc 1 228 35
	lui	t5,%hi(.LANCHOR0)
	.loc 1 218 12
	li	t1,15
	andi	a3,a3,15
	slli	a3,a3,3
	add	a3,a0,a3
	.loc 1 215 8
	addi	a5,a3,128
	lw	t2,64(a5)
	lw	a4,68(a5)
.LVL2:
	.loc 1 216 5 is_stmt 1
	.loc 1 216 8 is_stmt 0
	lw	a5,64(a3)
	lw	a3,68(a3)
.LVL3:
	.loc 1 218 5 is_stmt 1
	.loc 1 218 18
	.loc 1 228 35 is_stmt 0
	addi	t5,t5,%lo(.LANCHOR0)
	.loc 1 223 11
	li	t0,15
	.loc 1 218 5
	li	t6,-1
.LVL4:
.L3:
	.loc 1 220 9 is_stmt 1
	.loc 1 228 19 is_stmt 0
	andi	t3,a5,15
	.loc 1 228 35
	slli	t3,t3,3
	add	t3,t5,t3
	.loc 1 220 19
	add	a6,a1,t1
	lbu	a6,0(a6)
	.loc 1 228 41
	lw	t4,0(t3)
	.loc 1 226 38
	slli	s1,a3,28
	srli	s3,a5,4
	.loc 1 226 23
	slli	t3,t2,28
	.loc 1 226 38
	or	s3,s1,s3
	srli	s1,a3,4
	.loc 1 227 16
	slli	s2,a4,28
	.loc 1 226 16
	or	t3,t3,s1
	.loc 1 227 16
	srli	s1,t2,4
	.loc 1 220 12
	andi	a7,a6,15
.LVL5:
	.loc 1 221 9 is_stmt 1
	.loc 1 227 16 is_stmt 0
	or	s1,s2,s1
	.loc 1 221 12
	srli	a6,a6,4
.LVL6:
	.loc 1 223 9 is_stmt 1
	.loc 1 228 41 is_stmt 0
	slli	t4,t4,16
	.loc 1 227 16
	srli	s2,a4,4
	.loc 1 223 11
	beq	t1,t0,.L2
	.loc 1 225 13 is_stmt 1
.LVL7:
	.loc 1 226 13
	.loc 1 227 13
	.loc 1 228 13
	slli	a3,a7,3
	add	a3,a0,a3
	.loc 1 229 16 is_stmt 0
	addi	a4,a3,128
	lw	t2,64(a4)
	lw	a4,68(a4)
	.loc 1 228 16
	xor	a5,t4,s2
.LVL8:
	.loc 1 229 13 is_stmt 1
	.loc 1 229 16 is_stmt 0
	xor	t2,t2,s1
	xor	a4,a4,a5
.LVL9:
	.loc 1 230 13 is_stmt 1
	.loc 1 230 16 is_stmt 0
	lw	a5,64(a3)
.LVL10:
	lw	a3,68(a3)
.LVL11:
	xor	a5,a5,s3
.LVL12:
	xor	a3,a3,t3
.LVL13:
.L2:
	.loc 1 234 9 is_stmt 1 discriminator 2
	.loc 1 235 9 discriminator 2
	.loc 1 235 34 is_stmt 0 discriminator 2
	srli	a7,a5,4
	.loc 1 237 15 discriminator 2
	andi	a5,a5,15
.LVL14:
	.loc 1 235 34 discriminator 2
	slli	t3,a3,28
	slli	a6,a6,3
	.loc 1 237 31 discriminator 2
	slli	a5,a5,3
	add	a6,a0,a6
	.loc 1 235 34 discriminator 2
	or	a7,t3,a7
	srli	a3,a3,4
	.loc 1 235 19 discriminator 2
	slli	t3,t2,28
	.loc 1 237 31 discriminator 2
	add	a5,t5,a5
	.loc 1 235 12 discriminator 2
	or	a3,t3,a3
.LVL15:
	.loc 1 236 9 is_stmt 1 discriminator 2
	.loc 1 237 9 discriminator 2
	.loc 1 238 9 discriminator 2
	.loc 1 236 12 is_stmt 0 discriminator 2
	srli	s1,a4,4
	slli	t3,a4,28
	.loc 1 237 37 discriminator 2
	lw	a5,0(a5)
	lw	a4,196(a6)
	lw	t4,192(a6)
	slli	a5,a5,16
	xor	a4,a4,s1
	.loc 1 238 12 discriminator 2
	xor	a4,a5,a4
	.loc 1 239 12 discriminator 2
	lw	a5,64(a6)
	lw	a6,68(a6)
	.loc 1 236 12 discriminator 2
	srli	t2,t2,4
	or	t2,t3,t2
	.loc 1 218 27 discriminator 2
	addi	t1,t1,-1
	.loc 1 238 12 discriminator 2
	xor	t2,t4,t2
	.loc 1 239 9 is_stmt 1 discriminator 2
.LVL16:
	.loc 1 239 12 is_stmt 0 discriminator 2
	xor	a5,a5,a7
.LVL17:
	xor	a3,a6,a3
.LVL18:
	.loc 1 218 26 is_stmt 1 discriminator 2
	.loc 1 218 18 discriminator 2
	.loc 1 218 5 is_stmt 0 discriminator 2
	bne	t1,t6,.L3
	.loc 1 242 7 is_stmt 1
	.loc 1 242 57 is_stmt 0
	srli	a1,a4,24
.LVL19:
	.loc 1 242 30
	sb	a1,0(a2)
	.loc 1 242 77 is_stmt 1
	.loc 1 242 130 is_stmt 0
	srli	a1,a4,16
	.loc 1 242 103
	sb	a1,1(a2)
	.loc 1 242 150 is_stmt 1
	.loc 1 242 248 is_stmt 0
	sb	a4,3(a2)
	.loc 1 242 203
	srli	a1,a4,8
	.loc 1 243 51
	srli	a4,t2,24
	.loc 1 243 30
	sb	a4,4(a2)
	.loc 1 243 118
	srli	a4,t2,16
	.loc 1 243 97
	sb	a4,5(a2)
	.loc 1 243 185
	srli	a4,t2,8
	.loc 1 243 164
	sb	a4,6(a2)
	.loc 1 244 57
	srli	a4,a3,24
	.loc 1 244 30
	sb	a4,8(a2)
	.loc 1 244 130
	srli	a4,a3,16
	.loc 1 244 103
	sb	a4,9(a2)
	.loc 1 244 203
	srli	a4,a3,8
	.loc 1 244 176
	sb	a4,10(a2)
	.loc 1 245 52
	srli	a4,a5,24
	.loc 1 246 1
	lw	s0,12(sp)
	.cfi_restore 8
	.cfi_def_cfa 2, 16
	.loc 1 245 31
	sb	a4,12(a2)
	.loc 1 245 120
	srli	a4,a5,16
	.loc 1 245 99
	sb	a4,13(a2)
	.loc 1 245 188
	srli	a4,a5,8
	.loc 1 242 176
	sb	a1,2(a2)
	.loc 1 242 222 is_stmt 1
	.loc 1 242 286
	.loc 1 243 7
	.loc 1 243 71
	.loc 1 243 138
	.loc 1 243 204
	.loc 1 243 230 is_stmt 0
	sb	t2,7(a2)
	.loc 1 243 262 is_stmt 1
	.loc 1 244 7
	.loc 1 244 77
	.loc 1 244 150
	.loc 1 244 222
	.loc 1 244 248 is_stmt 0
	sb	a3,11(a2)
	.loc 1 244 286 is_stmt 1
	.loc 1 245 7
	.loc 1 245 72
	.loc 1 245 140
	.loc 1 245 167 is_stmt 0
	sb	a4,14(a2)
	.loc 1 245 207 is_stmt 1
	.loc 1 245 234 is_stmt 0
	sb	a5,15(a2)
	.loc 1 245 266 is_stmt 1
	.loc 1 246 1 is_stmt 0
	lw	s1,8(sp)
	.cfi_restore 9
	lw	s2,4(sp)
	.cfi_restore 18
	lw	s3,0(sp)
	.cfi_restore 19
	addi	sp,sp,16
	.cfi_def_cfa_offset 0
	jr	ra
	.cfi_endproc
.LFE12:
	.size	gcm_mult, .-gcm_mult
	.section	.text.mbedtls_gcm_init,"ax",@progbits
	.align	1
	.globl	mbedtls_gcm_init
	.type	mbedtls_gcm_init, @function
mbedtls_gcm_init:
.LFB9:
	.loc 1 65 1 is_stmt 1
	.cfi_startproc
.LVL20:
	.loc 1 66 5
	.loc 1 66 10
	.loc 1 66 17
	.loc 1 67 5
	.loc 1 65 1 is_stmt 0
	addi	sp,sp,-16
	.cfi_def_cfa_offset 16
	sw	s0,12(sp)
	.cfi_offset 8, -4
	addi	s0,sp,16
	.cfi_def_cfa 8, 0
	.loc 1 68 1
	lw	s0,12(sp)
	.cfi_restore 8
	.cfi_def_cfa 2, 16
	.loc 1 67 5
	li	a2,392
	li	a1,0
	.loc 1 68 1
	addi	sp,sp,16
	.cfi_def_cfa_offset 0
	.loc 1 67 5
	tail	memset
.LVL21:
	.cfi_endproc
.LFE9:
	.size	mbedtls_gcm_init, .-mbedtls_gcm_init
	.section	.text.mbedtls_gcm_setkey,"ax",@progbits
	.align	1
	.globl	mbedtls_gcm_setkey
	.type	mbedtls_gcm_setkey, @function
mbedtls_gcm_setkey:
.LFB11:
	.loc 1 142 1 is_stmt 1
	.cfi_startproc
.LVL22:
	.loc 1 143 5
	.loc 1 144 5
	.loc 1 146 5
	.loc 1 146 10
	.loc 1 146 17
	.loc 1 147 5
	.loc 1 147 10
	.loc 1 147 17
	.loc 1 148 5
	.loc 1 148 10
	.loc 1 148 17
	.loc 1 150 5
	.loc 1 142 1 is_stmt 0
	addi	sp,sp,-64
	.cfi_def_cfa_offset 64
	sw	s0,56(sp)
	sw	s1,52(sp)
	sw	s3,44(sp)
	sw	s4,40(sp)
	sw	ra,60(sp)
	sw	s2,48(sp)
	.cfi_offset 8, -8
	.cfi_offset 9, -12
	.cfi_offset 19, -20
	.cfi_offset 20, -24
	.cfi_offset 1, -4
	.cfi_offset 18, -16
	addi	s0,sp,64
	.cfi_def_cfa 8, 0
	mv	s1,a0
	mv	s4,a2
	mv	a0,a1
.LVL23:
	.loc 1 150 19
	li	a2,1
.LVL24:
	mv	a1,a3
.LVL25:
	.loc 1 142 1
	mv	s3,a3
	.loc 1 150 19
	call	mbedtls_cipher_info_from_values
.LVL26:
	.loc 1 152 5 is_stmt 1
	.loc 1 152 7 is_stmt 0
	beq	a0,zero,.L15
	.loc 1 155 7
	lw	a4,24(a0)
	li	a5,16
	mv	s2,a0
	.loc 1 155 5 is_stmt 1
	.loc 1 153 15 is_stmt 0
	li	a0,-20
.LVL27:
	.loc 1 155 7
	bne	a4,a5,.L8
	.loc 1 158 5 is_stmt 1
	mv	a0,s1
	call	mbedtls_cipher_free
.LVL28:
	.loc 1 160 5
	.loc 1 160 17 is_stmt 0
	mv	a1,s2
	mv	a0,s1
	call	mbedtls_cipher_setup
.LVL29:
	.loc 1 160 7
	bne	a0,zero,.L8
	.loc 1 163 5 is_stmt 1
	.loc 1 163 17 is_stmt 0
	li	a3,1
	mv	a2,s3
	mv	a1,s4
	mv	a0,s1
.LVL30:
	call	mbedtls_cipher_setkey
.LVL31:
	.loc 1 163 7
	bne	a0,zero,.L8
	.loc 1 169 5 is_stmt 1
.LVL32:
.LBB6:
.LBB7:
	.loc 1 80 5
	.loc 1 81 5
	.loc 1 82 5
	.loc 1 83 5
	.loc 1 84 5
	.loc 1 86 5 is_stmt 0
	li	a2,16
	li	a1,0
	addi	a0,s0,-48
.LVL33:
	.loc 1 84 12
	sw	zero,-52(s0)
	.loc 1 86 5 is_stmt 1
	call	memset
.LVL34:
	.loc 1 87 5
	.loc 1 87 17 is_stmt 0
	addi	a3,s0,-48
	addi	a4,s0,-52
	li	a2,16
	mv	a1,a3
	mv	a0,s1
	call	mbedtls_cipher_update
.LVL35:
	.loc 1 87 7
	bne	a0,zero,.L8
	.loc 1 91 5 is_stmt 1
.LVL36:
	.loc 1 92 5
	.loc 1 93 5
	.loc 1 91 14 is_stmt 0
	lbu	a5,-48(s0)
	.loc 1 91 51
	lbu	a4,-47(s0)
	.loc 1 92 14
	lbu	a1,-44(s0)
	.loc 1 92 51
	lbu	a3,-43(s0)
	.loc 1 91 79
	slli	a4,a4,16
.LVL37:
	.loc 1 91 39
	slli	a5,a5,24
.LVL38:
	.loc 1 92 79
	slli	a3,a3,16
.LVL39:
	.loc 1 92 39
	slli	a1,a1,24
.LVL40:
	.loc 1 91 47
	or	a5,a5,a4
.LVL41:
	.loc 1 92 47
	or	a1,a1,a3
.LVL42:
	.loc 1 91 130
	lbu	a4,-45(s0)
.LVL43:
	.loc 1 92 130
	lbu	a3,-41(s0)
.LVL44:
	.loc 1 96 52
	lbu	a6,-35(s0)
	.loc 1 91 126
	or	a5,a5,a4
	.loc 1 92 126
	or	a1,a1,a3
	.loc 1 91 91
	lbu	a4,-46(s0)
.LVL45:
	.loc 1 92 91
	lbu	a3,-42(s0)
.LVL46:
	.loc 1 96 81
	slli	a6,a6,16
	.loc 1 91 119
	slli	a4,a4,8
.LVL47:
	.loc 1 92 119
	slli	a3,a3,8
.LVL48:
	.loc 1 92 126
	or	a1,a1,a3
	.loc 1 93 8
	or	a5,a5,a4
.LVL49:
	.loc 1 95 5 is_stmt 1
	.loc 1 96 5
	.loc 1 97 5
	.loc 1 95 51 is_stmt 0
	lbu	a3,-39(s0)
	.loc 1 95 14
	lbu	a4,-40(s0)
	.loc 1 95 91
	lbu	a2,-38(s0)
.LVL50:
	.loc 1 95 79
	slli	a3,a3,16
.LVL51:
	.loc 1 95 39
	slli	a4,a4,24
.LVL52:
	.loc 1 95 47
	or	a4,a4,a3
.LVL53:
	.loc 1 95 130
	lbu	a3,-37(s0)
.LVL54:
	.loc 1 95 119
	slli	a2,a2,8
.LVL55:
	.loc 1 110 16
	li	a7,0
	.loc 1 95 126
	or	a4,a4,a3
	.loc 1 96 14
	lbu	a3,-36(s0)
	.loc 1 97 8
	or	a4,a4,a2
	.loc 1 100 16
	addi	a2,s1,128
	.loc 1 96 40
	slli	a3,a3,24
.LVL56:
	.loc 1 96 48
	or	a3,a3,a6
.LVL57:
	.loc 1 96 133
	lbu	a6,-33(s0)
.LVL58:
	.loc 1 100 16
	sw	a4,4(a2)
.LBB8:
	.loc 1 115 18
	li	t4,-520093696
.LBE8:
	.loc 1 96 129
	or	a3,a3,a6
	.loc 1 96 93
	lbu	a6,-34(s0)
.LVL59:
	.loc 1 96 122
	slli	a6,a6,8
.LVL60:
	.loc 1 96 129
	or	a3,a3,a6
.LVL61:
	.loc 1 100 5 is_stmt 1
	.loc 1 101 5
	.loc 1 100 16 is_stmt 0
	sw	a3,0(a2)
	.loc 1 101 16
	addi	a2,s1,256
	sw	a1,0(a2)
	sw	a5,4(a2)
	.loc 1 110 5 is_stmt 1
	.loc 1 110 16 is_stmt 0
	li	a6,0
	sw	a6,192(s1)
	sw	a7,196(s1)
	.loc 1 111 5 is_stmt 1
	.loc 1 111 16 is_stmt 0
	sw	a6,64(s1)
	sw	a7,68(s1)
	.loc 1 113 5 is_stmt 1
.LVL62:
	.loc 1 113 17
	.loc 1 111 16 is_stmt 0
	li	a6,3
	.loc 1 113 12
	li	a7,4
.LVL63:
.L11:
.LBB9:
	.loc 1 115 9 is_stmt 1
	.loc 1 115 18 is_stmt 0
	andi	a2,a3,1
	mul	a2,a2,t4
.LVL64:
	.loc 1 116 9 is_stmt 1
	.loc 1 116 19 is_stmt 0
	slli	t1,a1,31
	.loc 1 116 34
	slli	t3,a4,31
	srli	a4,a4,1
.LVL65:
	.loc 1 116 12
	or	a4,t1,a4
	.loc 1 117 19
	slli	t1,a5,31
	srli	a5,a5,1
.LVL66:
	.loc 1 116 34
	srli	a3,a3,1
	.loc 1 116 12
	or	a3,t3,a3
.LVL67:
	.loc 1 117 9 is_stmt 1
	.loc 1 117 19 is_stmt 0
	srli	a1,a1,1
	.loc 1 117 12
	xor	a5,a2,a5
	slli	a2,a7,3
.LVL68:
	add	a2,s1,a2
	.loc 1 119 20
	sw	a3,64(a2)
	sw	a4,68(a2)
	.loc 1 117 12
	or	a1,t1,a1
.LVL69:
	.loc 1 119 9 is_stmt 1
	.loc 1 120 9
	.loc 1 120 20 is_stmt 0
	addi	a2,a2,128
	sw	a1,64(a2)
	sw	a5,68(a2)
.LBE9:
	.loc 1 113 24 is_stmt 1
	.loc 1 113 5 is_stmt 0
	addi	a6,a6,-1
	.loc 1 113 26
	srai	a7,a7,1
.LVL70:
	.loc 1 113 17 is_stmt 1
	.loc 1 113 5 is_stmt 0
	bne	a6,zero,.L11
	li	a3,3
.LVL71:
	.loc 1 123 12
	li	a2,2
.LVL72:
.LBB10:
	.loc 1 125 25
	addi	t4,s1,64
	.loc 1 125 45
	addi	t5,s1,192
.LVL73:
.L13:
	.loc 1 125 9 is_stmt 1
	.loc 1 125 33 is_stmt 0
	slli	a1,a2,3
	.loc 1 125 19
	add	a7,t4,a1
.LVL74:
	.loc 1 125 39
	add	t1,t5,a1
.LVL75:
	.loc 1 126 9 is_stmt 1
	.loc 1 126 12 is_stmt 0
	lw	s2,0(t1)
	lw	t2,4(t1)
.LVL76:
	.loc 1 127 9 is_stmt 1
	.loc 1 127 12 is_stmt 0
	lw	t0,0(a7)
	lw	t6,4(a7)
.LVL77:
	.loc 1 128 9 is_stmt 1
	.loc 1 128 21
	addi	a5,s1,72
	.loc 1 127 12 is_stmt 0
	li	a4,8
.LVL78:
.L12:
	.loc 1 130 13 is_stmt 1
	.loc 1 130 25 is_stmt 0
	lw	a6,128(a5)
	.loc 1 130 20
	add	t3,t1,a4
	.loc 1 130 25
	xor	a6,a6,s2
	sw	a6,0(t3)
	lw	a6,132(a5)
	xor	a6,a6,t2
	sw	a6,4(t3)
	.loc 1 131 13 is_stmt 1
	.loc 1 131 25 is_stmt 0
	lw	a6,0(a5)
	.loc 1 131 20
	add	t3,a7,a4
	.loc 1 128 9
	addi	a4,a4,8
	.loc 1 131 25
	xor	a6,a6,t0
	sw	a6,0(t3)
	lw	a6,4(a5)
	.loc 1 128 9
	addi	a5,a5,8
	.loc 1 131 25
	xor	a6,a6,t6
	sw	a6,4(t3)
	.loc 1 128 28 is_stmt 1
	.loc 1 128 21
	.loc 1 128 9 is_stmt 0
	bne	a1,a4,.L12
.LBE10:
	.loc 1 123 25 is_stmt 1
	.loc 1 123 5 is_stmt 0
	addi	a3,a3,-1
	.loc 1 123 27
	slli	a2,a2,1
.LVL79:
	.loc 1 123 17 is_stmt 1
	.loc 1 123 5 is_stmt 0
	bne	a3,zero,.L13
.LVL80:
.L8:
.LBE7:
.LBE6:
	.loc 1 173 1
	lw	ra,60(sp)
	.cfi_remember_state
	.cfi_restore 1
	lw	s0,56(sp)
	.cfi_restore 8
	.cfi_def_cfa 2, 64
	lw	s1,52(sp)
	.cfi_restore 9
.LVL81:
	lw	s2,48(sp)
	.cfi_restore 18
	lw	s3,44(sp)
	.cfi_restore 19
.LVL82:
	lw	s4,40(sp)
	.cfi_restore 20
.LVL83:
	addi	sp,sp,64
	.cfi_def_cfa_offset 0
	jr	ra
.LVL84:
.L15:
	.cfi_restore_state
	.loc 1 153 15
	li	a0,-20
.LVL85:
	j	.L8
	.cfi_endproc
.LFE11:
	.size	mbedtls_gcm_setkey, .-mbedtls_gcm_setkey
	.section	.text.mbedtls_gcm_starts,"ax",@progbits
	.align	1
	.globl	mbedtls_gcm_starts
	.type	mbedtls_gcm_starts, @function
mbedtls_gcm_starts:
.LFB13:
	.loc 1 254 1 is_stmt 1
	.cfi_startproc
.LVL86:
	.loc 1 255 5
	.loc 1 256 5
	.loc 1 257 5
	.loc 1 258 5
	.loc 1 259 5
	.loc 1 254 1 is_stmt 0
	addi	sp,sp,-80
	.cfi_def_cfa_offset 80
	sw	s0,72(sp)
	sw	s2,64(sp)
	.cfi_offset 8, -8
	.cfi_offset 18, -16
	addi	s0,sp,80
	.cfi_def_cfa 8, 0
	sw	ra,76(sp)
	sw	s1,68(sp)
	sw	s3,60(sp)
	sw	s4,56(sp)
	sw	s5,52(sp)
	sw	s6,48(sp)
	sw	s7,44(sp)
	sw	s8,40(sp)
	sw	s9,36(sp)
	sw	s10,32(sp)
	.cfi_offset 1, -4
	.cfi_offset 9, -12
	.cfi_offset 19, -20
	.cfi_offset 20, -24
	.cfi_offset 21, -28
	.cfi_offset 22, -32
	.cfi_offset 23, -36
	.cfi_offset 24, -40
	.cfi_offset 25, -44
	.cfi_offset 26, -48
	.loc 1 259 21
	sw	zero,-68(s0)
	.loc 1 260 5 is_stmt 1
	.loc 1 262 5
	.loc 1 262 10
	.loc 1 262 17
	.loc 1 263 5
	.loc 1 263 10
	.loc 1 263 17
	.loc 1 264 5
	.loc 1 264 10
	.loc 1 264 17
	.loc 1 268 5
	.loc 1 272 15 is_stmt 0
	li	s2,-20
	.loc 1 268 7
	beq	a3,zero,.L21
	.loc 1 275 16 discriminator 1
	addi	s3,a0,352
	mv	s1,a0
	mv	s8,a1
	mv	s7,a2
	.loc 1 275 5 discriminator 1
	li	a1,0
.LVL87:
	li	a2,16
.LVL88:
	mv	a0,s3
.LVL89:
	mv	s4,a5
	.loc 1 275 5 is_stmt 1 discriminator 1
	mv	s2,a3
	mv	s6,a4
	.loc 1 276 16 is_stmt 0 discriminator 1
	addi	s5,s1,368
	.loc 1 275 5 discriminator 1
	call	memset
.LVL90:
	.loc 1 276 5 is_stmt 1 discriminator 1
	li	a2,16
	li	a1,0
	mv	a0,s5
	call	memset
.LVL91:
	.loc 1 278 5 discriminator 1
	.loc 1 279 14 is_stmt 0 discriminator 1
	li	a5,0
	li	a6,0
	sw	a5,320(s1)
	.loc 1 280 18 discriminator 1
	sw	a5,328(s1)
	.loc 1 278 15 discriminator 1
	sw	s8,384(s1)
	.loc 1 279 5 is_stmt 1 discriminator 1
	.loc 1 279 14 is_stmt 0 discriminator 1
	sw	a6,324(s1)
	.loc 1 280 5 is_stmt 1 discriminator 1
	.loc 1 280 18 is_stmt 0 discriminator 1
	sw	a6,332(s1)
	.loc 1 282 5 is_stmt 1 discriminator 1
	.loc 1 282 7 is_stmt 0 discriminator 1
	li	a5,12
	bne	s2,a5,.L23
	.loc 1 284 9 is_stmt 1
	li	a2,12
	mv	a1,s7
	mv	a0,s3
	call	memcpy
.LVL92:
	.loc 1 285 9
	.loc 1 285 20 is_stmt 0
	li	a5,1
	sb	a5,367(s1)
.LVL93:
.L24:
	.loc 1 313 5 is_stmt 1
	.loc 1 313 17 is_stmt 0
	addi	a4,s0,-68
	addi	a3,s1,336
	li	a2,16
	mv	a1,s3
	mv	a0,s1
	call	mbedtls_cipher_update
.LVL94:
	mv	s2,a0
.LVL95:
	.loc 1 313 7
	bne	a0,zero,.L21
	.loc 1 319 5 is_stmt 1
	.loc 1 270 9 is_stmt 0
	sw	s4,328(s1)
	sw	zero,332(s1)
	.loc 1 320 5 is_stmt 1
.LVL96:
	.loc 1 321 5
	.loc 1 323 17 is_stmt 0
	li	s7,16
.LVL97:
.L29:
	.loc 1 321 10 is_stmt 1
	bne	s4,zero,.L32
.LVL98:
.L21:
	.loc 1 335 1 is_stmt 0
	lw	ra,76(sp)
	.cfi_remember_state
	.cfi_restore 1
	lw	s0,72(sp)
	.cfi_restore 8
	.cfi_def_cfa 2, 80
	lw	s1,68(sp)
	.cfi_restore 9
	lw	s3,60(sp)
	.cfi_restore 19
	lw	s4,56(sp)
	.cfi_restore 20
	lw	s5,52(sp)
	.cfi_restore 21
	lw	s6,48(sp)
	.cfi_restore 22
	lw	s7,44(sp)
	.cfi_restore 23
	lw	s8,40(sp)
	.cfi_restore 24
	lw	s9,36(sp)
	.cfi_restore 25
	lw	s10,32(sp)
	.cfi_restore 26
	mv	a0,s2
	lw	s2,64(sp)
	.cfi_restore 18
	addi	sp,sp,80
	.cfi_def_cfa_offset 0
	jr	ra
.LVL99:
.L23:
	.cfi_restore_state
	.loc 1 289 9 is_stmt 1
	li	a2,16
	li	a1,0
	addi	a0,s0,-64
	call	memset
.LVL100:
	.loc 1 290 9
	.loc 1 290 17 is_stmt 0
	slli	a3,s2,3
	.loc 1 291 11 is_stmt 1
	.loc 1 291 82
	.loc 1 291 156
	.loc 1 290 17 is_stmt 0
	srli	a5,s2,29
	.loc 1 291 258
	sb	a5,-53(s0)
	.loc 1 291 358
	srli	a5,a3,24
	.loc 1 291 332
	sb	a5,-52(s0)
	.loc 1 291 432
	srli	a5,a3,16
	.loc 1 291 476
	slli	a3,a3,16
	srli	a3,a3,16
	.loc 1 291 406
	sb	a5,-51(s0)
	.loc 1 291 476
	srli	a3,a3,8
	slli	a5,s2,11
	or	a3,a5,a3
	.loc 1 291 32
	sh	zero,-56(s0)
	.loc 1 291 180
	sb	zero,-54(s0)
	.loc 1 291 230 is_stmt 1
	.loc 1 291 304
	.loc 1 291 378
	.loc 1 291 452
	.loc 1 291 525
	.loc 1 291 476 is_stmt 0
	sh	a3,-50(s0)
	.loc 1 291 590 is_stmt 1
	.loc 1 293 9
.LVL101:
	.loc 1 294 9
	.loc 1 294 14
	.loc 1 296 21 is_stmt 0
	li	s10,16
.LVL102:
.L27:
	.loc 1 296 13 is_stmt 1
	.loc 1 296 21 is_stmt 0
	mv	s9,s2
	bleu	s2,s10,.L25
	li	s9,16
.L25:
.LVL103:
	.loc 1 298 13 is_stmt 1
	.loc 1 298 25
	mv	s8,s3
	.loc 1 296 21 is_stmt 0
	mv	a4,s3
	.loc 1 298 20
	li	a5,0
.LVL104:
.L26:
	.loc 1 299 17 is_stmt 1 discriminator 3
	.loc 1 299 31 is_stmt 0 discriminator 3
	add	a3,s7,a5
	.loc 1 299 27 discriminator 3
	lbu	a2,0(a4)
	lbu	a3,0(a3)
	.loc 1 298 39 discriminator 3
	addi	a5,a5,1
.LVL105:
	.loc 1 298 13 discriminator 3
	addi	a4,a4,1
	.loc 1 299 27 discriminator 3
	xor	a3,a3,a2
	sb	a3,-1(a4)
	.loc 1 298 38 is_stmt 1 discriminator 3
.LVL106:
	.loc 1 298 25 discriminator 3
	.loc 1 298 13 is_stmt 0 discriminator 3
	bne	s9,a5,.L26
	.loc 1 301 13 is_stmt 1
	mv	a2,s3
	mv	a1,s3
	mv	a0,s1
	.loc 1 303 20 is_stmt 0
	sub	s2,s2,s9
.LVL107:
	.loc 1 301 13
	call	gcm_mult
.LVL108:
	.loc 1 303 13 is_stmt 1
	.loc 1 304 13
	.loc 1 304 15 is_stmt 0
	add	s7,s7,s9
.LVL109:
	.loc 1 294 14 is_stmt 1
	bne	s2,zero,.L27
	addi	a5,s0,-64
.L28:
.LVL110:
	.loc 1 308 13 discriminator 3
	.loc 1 308 23 is_stmt 0 discriminator 3
	lbu	a4,0(s8)
	lbu	a3,0(a5)
	.loc 1 307 9 discriminator 3
	addi	s8,s8,1
.LVL111:
	addi	a5,a5,1
	.loc 1 308 23 discriminator 3
	xor	a4,a4,a3
	sb	a4,-1(s8)
	.loc 1 307 29 is_stmt 1 discriminator 3
.LVL112:
	.loc 1 307 21 discriminator 3
	.loc 1 307 9 is_stmt 0 discriminator 3
	bne	s5,s8,.L28
	.loc 1 310 9 is_stmt 1
	mv	a2,s3
	mv	a1,s3
	mv	a0,s1
	call	gcm_mult
.LVL113:
	j	.L24
.LVL114:
.L32:
	.loc 1 323 9
	.loc 1 323 17 is_stmt 0
	mv	s3,s4
	bleu	s4,s7,.L30
.LVL115:
	li	s3,16
.LVL116:
.L30:
	.loc 1 325 9 is_stmt 1
	.loc 1 325 21
	mv	a4,s5
	.loc 1 325 16 is_stmt 0
	li	a5,0
.LVL117:
.L31:
	.loc 1 326 13 is_stmt 1 discriminator 3
	.loc 1 326 29 is_stmt 0 discriminator 3
	add	a3,s6,a5
	.loc 1 326 25 discriminator 3
	lbu	a2,0(a4)
	lbu	a3,0(a3)
	.loc 1 325 35 discriminator 3
	addi	a5,a5,1
.LVL118:
	.loc 1 325 9 discriminator 3
	addi	a4,a4,1
	.loc 1 326 25 discriminator 3
	xor	a3,a3,a2
	sb	a3,-1(a4)
	.loc 1 325 34 is_stmt 1 discriminator 3
.LVL119:
	.loc 1 325 21 discriminator 3
	.loc 1 325 9 is_stmt 0 discriminator 3
	bne	s3,a5,.L31
	.loc 1 328 9 is_stmt 1
	mv	a2,s5
	mv	a1,s5
	mv	a0,s1
	call	gcm_mult
.LVL120:
	.loc 1 330 9
	.loc 1 330 17 is_stmt 0
	sub	s4,s4,s3
.LVL121:
	.loc 1 331 9 is_stmt 1
	.loc 1 331 11 is_stmt 0
	add	s6,s6,s3
.LVL122:
	j	.L29
	.cfi_endproc
.LFE13:
	.size	mbedtls_gcm_starts, .-mbedtls_gcm_starts
	.section	.text.mbedtls_gcm_update,"ax",@progbits
	.align	1
	.globl	mbedtls_gcm_update
	.type	mbedtls_gcm_update, @function
mbedtls_gcm_update:
.LFB14:
	.loc 1 341 1 is_stmt 1
	.cfi_startproc
.LVL123:
	.loc 1 342 5
	.loc 1 343 5
	.loc 1 344 5
	.loc 1 345 5
	.loc 1 346 5
	.loc 1 347 5
	.loc 1 341 1 is_stmt 0
	addi	sp,sp,-80
	.cfi_def_cfa_offset 80
	sw	s0,72(sp)
	sw	s1,68(sp)
	sw	s2,64(sp)
	sw	s7,44(sp)
	sw	s8,40(sp)
	.cfi_offset 8, -8
	.cfi_offset 9, -12
	.cfi_offset 18, -16
	.cfi_offset 23, -36
	.cfi_offset 24, -40
	addi	s0,sp,80
	.cfi_def_cfa 8, 0
	sw	ra,76(sp)
	sw	s3,60(sp)
	sw	s4,56(sp)
	sw	s5,52(sp)
	sw	s6,48(sp)
	sw	s9,36(sp)
	.cfi_offset 1, -4
	.cfi_offset 19, -20
	.cfi_offset 20, -24
	.cfi_offset 21, -28
	.cfi_offset 22, -32
	.cfi_offset 25, -44
	.loc 1 347 21
	sw	zero,-68(s0)
	.loc 1 349 5 is_stmt 1
	.loc 1 349 10
	.loc 1 349 17
	.loc 1 350 5
	.loc 1 350 10
	.loc 1 350 17
	.loc 1 351 5
	.loc 1 351 10
	.loc 1 351 17
	.loc 1 353 5
	.loc 1 341 1 is_stmt 0
	mv	s1,a0
	mv	s2,a1
	mv	s7,a2
	mv	s8,a3
	.loc 1 353 7
	bleu	a3,a2,.L40
	.loc 1 353 45 discriminator 1
	sub	a5,a3,a2
	.loc 1 354 15 discriminator 1
	li	a0,-20
.LVL124:
	.loc 1 353 24 discriminator 1
	bltu	a5,a1,.L39
.L40:
	.loc 1 358 5 is_stmt 1
	.loc 1 358 12 is_stmt 0
	lw	a2,320(s1)
.LVL125:
	lw	a3,324(s1)
.LVL126:
	.loc 1 358 18
	add	a4,s2,a2
	sltu	a5,a4,s2
	add	a5,a5,a3
	.loc 1 358 7
	bgtu	a3,a5,.L54
	bne	a3,a5,.L55
	bgtu	a2,a4,.L54
.L55:
	.loc 1 358 38 discriminator 1
	li	a3,15
	bgtu	a5,a3,.L54
	bne	a5,a3,.L56
	li	a3,-32
	bgtu	a4,a3,.L54
.L56:
	.loc 1 364 5 is_stmt 1
	.loc 1 364 14 is_stmt 0
	sw	a4,320(s1)
	sw	a5,324(s1)
	.loc 1 366 5 is_stmt 1
.LVL127:
	.loc 1 367 5
	.loc 1 369 17 is_stmt 0
	li	s3,16
	addi	s4,s1,363
	.loc 1 375 65
	addi	s5,s1,352
	.loc 1 386 15
	li	s6,1
.LVL128:
.L44:
	.loc 1 367 10 is_stmt 1
	bne	s2,zero,.L51
	.loc 1 397 11 is_stmt 0
	li	a0,0
.LVL129:
.L39:
	.loc 1 398 1
	lw	ra,76(sp)
	.cfi_remember_state
	.cfi_restore 1
	lw	s0,72(sp)
	.cfi_restore 8
	.cfi_def_cfa 2, 80
	lw	s1,68(sp)
	.cfi_restore 9
.LVL130:
	lw	s2,64(sp)
	.cfi_restore 18
.LVL131:
	lw	s3,60(sp)
	.cfi_restore 19
	lw	s4,56(sp)
	.cfi_restore 20
	lw	s5,52(sp)
	.cfi_restore 21
	lw	s6,48(sp)
	.cfi_restore 22
	lw	s7,44(sp)
	.cfi_restore 23
	lw	s8,40(sp)
	.cfi_restore 24
.LVL132:
	lw	s9,36(sp)
	.cfi_restore 25
	addi	sp,sp,80
	.cfi_def_cfa_offset 0
	jr	ra
.LVL133:
.L51:
	.cfi_restore_state
	.loc 1 369 9 is_stmt 1
	.loc 1 369 17 is_stmt 0
	mv	s9,s2
	bleu	s2,s3,.L45
	li	s9,16
.L45:
.LVL134:
	.loc 1 371 9 is_stmt 1
	.loc 1 371 22
	addi	a4,s1,367
.LVL135:
.L47:
	.loc 1 372 13
	.loc 1 372 17 is_stmt 0
	lbu	a5,0(a4)
	addi	a5,a5,1
	andi	a5,a5,0xff
	.loc 1 372 15
	sb	a5,0(a4)
	bne	a5,zero,.L46
.LVL136:
	.loc 1 371 22 is_stmt 1 discriminator 1
	.loc 1 371 9 is_stmt 0 discriminator 1
	addi	a4,a4,-1
.LVL137:
	bne	a4,s4,.L47
.LVL138:
.L46:
	.loc 1 375 9 is_stmt 1
	.loc 1 375 21 is_stmt 0
	addi	a4,s0,-68
	addi	a3,s0,-64
	li	a2,16
	mv	a1,s5
	mv	a0,s1
	call	mbedtls_cipher_update
.LVL139:
	.loc 1 375 11
	bne	a0,zero,.L39
	addi	a4,s1,368
	.loc 1 381 16
	li	a3,0
	mv	a2,a4
.LVL140:
.L50:
	.loc 1 383 13 is_stmt 1
	.loc 1 383 15 is_stmt 0
	lw	a5,384(s1)
	add	a1,s7,a3
	bne	a5,zero,.L48
	.loc 1 384 17 is_stmt 1
	.loc 1 384 29 is_stmt 0
	lbu	a5,0(a1)
	lbu	a0,0(a4)
	xor	a5,a5,a0
	sb	a5,0(a4)
.L48:
	.loc 1 385 13 is_stmt 1
	.loc 1 385 28 is_stmt 0
	addi	a5,s0,-64
	add	a5,a5,a3
	.loc 1 385 22
	lbu	a1,0(a1)
	lbu	a5,0(a5)
	xor	a5,a5,a1
	andi	a5,a5,0xff
	add	a1,s8,a3
	sb	a5,0(a1)
	.loc 1 386 13 is_stmt 1
	.loc 1 386 15 is_stmt 0
	lw	a1,384(s1)
	bne	a1,s6,.L49
	.loc 1 387 17 is_stmt 1
	.loc 1 387 29 is_stmt 0
	lbu	a1,0(a4)
	xor	a5,a5,a1
	sb	a5,0(a4)
.L49:
	.loc 1 381 34 is_stmt 1 discriminator 2
	.loc 1 381 35 is_stmt 0 discriminator 2
	addi	a3,a3,1
.LVL141:
	.loc 1 381 21 is_stmt 1 discriminator 2
	.loc 1 381 9 is_stmt 0 discriminator 2
	addi	a4,a4,1
	bne	s9,a3,.L50
	.loc 1 390 9 is_stmt 1
	mv	a1,a2
	mv	a0,s1
	call	gcm_mult
.LVL142:
	.loc 1 392 9
	.loc 1 392 16 is_stmt 0
	sub	s2,s2,s9
.LVL143:
	.loc 1 393 9 is_stmt 1
	.loc 1 393 11 is_stmt 0
	add	s7,s7,s9
.LVL144:
	.loc 1 394 9 is_stmt 1
	.loc 1 394 15 is_stmt 0
	add	s8,s8,s9
.LVL145:
	j	.L44
.LVL146:
.L54:
	.loc 1 354 15
	li	a0,-20
	j	.L39
	.cfi_endproc
.LFE14:
	.size	mbedtls_gcm_update, .-mbedtls_gcm_update
	.section	.text.mbedtls_gcm_finish,"ax",@progbits
	.align	1
	.globl	mbedtls_gcm_finish
	.type	mbedtls_gcm_finish, @function
mbedtls_gcm_finish:
.LFB15:
	.loc 1 403 1 is_stmt 1
	.cfi_startproc
.LVL147:
	.loc 1 404 5
	.loc 1 405 5
	.loc 1 406 5
	.loc 1 407 5
	.loc 1 409 5
	.loc 1 409 10
	.loc 1 409 17
	.loc 1 410 5
	.loc 1 410 10
	.loc 1 410 17
	.loc 1 412 5
	.loc 1 403 1 is_stmt 0
	addi	sp,sp,-64
	.cfi_def_cfa_offset 64
	sw	s0,56(sp)
	sw	ra,60(sp)
	sw	s1,52(sp)
	sw	s2,48(sp)
	sw	s3,44(sp)
	sw	s4,40(sp)
	sw	s5,36(sp)
	sw	s6,32(sp)
	sw	s7,28(sp)
	sw	s8,24(sp)
	sw	s9,20(sp)
	.cfi_offset 8, -8
	.cfi_offset 1, -4
	.cfi_offset 9, -12
	.cfi_offset 18, -16
	.cfi_offset 19, -20
	.cfi_offset 20, -24
	.cfi_offset 21, -28
	.cfi_offset 22, -32
	.cfi_offset 23, -36
	.cfi_offset 24, -40
	.cfi_offset 25, -44
	addi	s0,sp,64
	.cfi_def_cfa 8, 0
	.loc 1 412 14
	addi	a5,a0,256
	.loc 1 403 1
	.loc 1 412 14
	lw	s8,64(a5)
	lw	s2,68(a5)
	.loc 1 413 18
	lw	s9,72(a5)
	lw	s3,76(a5)
	.loc 1 412 14
	srli	a4,s8,29
	slli	s2,s2,3
	or	s2,a4,s2
.LVL148:
	.loc 1 413 5 is_stmt 1
	.loc 1 413 18 is_stmt 0
	slli	s3,s3,3
	srli	a4,s9,29
	or	s3,a4,s3
.LVL149:
	.loc 1 415 5 is_stmt 1
	.loc 1 415 7 is_stmt 0
	li	a5,12
	.loc 1 415 22
	addi	a4,a2,-4
	.loc 1 415 7
	bgtu	a4,a5,.L66
	mv	s1,a1
	mv	s7,a0
	.loc 1 418 5
	addi	a1,a0,336
.LVL150:
	mv	a0,s1
.LVL151:
	mv	s6,a2
	slli	s4,s8,3
.LVL152:
	call	memcpy
.LVL153:
	slli	s5,s9,3
.LVL154:
	.loc 1 418 5 is_stmt 1
	.loc 1 420 5
	.loc 1 420 18 is_stmt 0
	or	a5,s4,s5
	or	a4,s2,s3
	or	a5,a5,a4
	bne	a5,zero,.L62
.LVL155:
.L65:
	.loc 1 438 11
	li	a0,0
.LVL156:
.L60:
	.loc 1 439 1
	lw	ra,60(sp)
	.cfi_remember_state
	.cfi_restore 1
	lw	s0,56(sp)
	.cfi_restore 8
	.cfi_def_cfa 2, 64
	lw	s1,52(sp)
	.cfi_restore 9
	lw	s2,48(sp)
	.cfi_restore 18
	lw	s3,44(sp)
	.cfi_restore 19
	lw	s4,40(sp)
	.cfi_restore 20
	lw	s5,36(sp)
	.cfi_restore 21
	lw	s6,32(sp)
	.cfi_restore 22
	lw	s7,28(sp)
	.cfi_restore 23
	lw	s8,24(sp)
	.cfi_restore 24
	lw	s9,20(sp)
	.cfi_restore 25
	addi	sp,sp,64
	.cfi_def_cfa_offset 0
	jr	ra
.LVL157:
.L62:
	.cfi_restore_state
	.loc 1 422 9 is_stmt 1
	li	a2,16
	li	a1,0
	addi	a0,s0,-64
	call	memset
.LVL158:
	.loc 1 424 11
	.loc 1 424 77 is_stmt 0
	srli	a5,s3,24
	.loc 1 424 36
	sb	a5,-64(s0)
	.loc 1 424 97 is_stmt 1
	.loc 1 424 166 is_stmt 0
	srli	a5,s3,16
	.loc 1 424 125
	sb	a5,-63(s0)
	.loc 1 424 186 is_stmt 1
	.loc 1 424 255 is_stmt 0
	srli	a5,s3,8
	.loc 1 424 214
	sb	a5,-62(s0)
	.loc 1 424 274 is_stmt 1
	.loc 1 425 71 is_stmt 0
	srli	a5,s5,24
	.loc 1 425 36
	sb	a5,-60(s0)
	.loc 1 425 154
	srli	a5,s5,16
	.loc 1 425 119
	sb	a5,-59(s0)
	.loc 1 426 73
	srli	a5,s2,24
	.loc 1 426 36
	sb	a5,-56(s0)
	.loc 1 426 158
	srli	a5,s2,16
	.loc 1 426 121
	sb	a5,-55(s0)
	.loc 1 426 243
	srli	a5,s2,8
	.loc 1 426 206
	sb	a5,-54(s0)
	.loc 1 427 68
	srli	a5,s4,24
	.loc 1 425 198
	slli	s5,s5,16
.LVL159:
	.loc 1 427 37
	sb	a5,-52(s0)
	.loc 1 427 148
	srli	a5,s4,16
	.loc 1 427 193
	slli	s4,s4,16
.LVL160:
	.loc 1 425 198
	srli	s5,s5,16
	.loc 1 427 193
	srli	s4,s4,16
	.loc 1 425 198
	slli	s9,s9,11
.LVL161:
	srli	s5,s5,8
	.loc 1 427 193
	slli	s8,s8,11
.LVL162:
	srli	s4,s4,8
	.loc 1 425 198
	or	s5,s9,s5
	.loc 1 426 290
	sb	s2,-53(s0)
	.loc 1 427 193
	or	s4,s8,s4
	addi	s2,s7,368
	.loc 1 427 117
	sb	a5,-51(s0)
	.loc 1 424 302
	sb	s3,-61(s0)
	.loc 1 424 354 is_stmt 1
	.loc 1 425 11
	.loc 1 425 91
	.loc 1 425 174
	.loc 1 425 256
	.loc 1 425 198 is_stmt 0
	sh	s5,-58(s0)
	.loc 1 425 330 is_stmt 1
	.loc 1 426 11
	.loc 1 426 93
	.loc 1 426 178
	.loc 1 426 262
	.loc 1 426 338
	.loc 1 427 11
	.loc 1 427 88
	.loc 1 427 168
	.loc 1 427 247
	.loc 1 427 193 is_stmt 0
	sh	s4,-50(s0)
	.loc 1 427 318 is_stmt 1
	.loc 1 429 9
.LVL163:
	.loc 1 429 21
	addi	a5,s0,-64
	addi	a2,s7,384
	.loc 1 427 193 is_stmt 0
	mv	a4,s2
.LVL164:
.L63:
	.loc 1 430 13 is_stmt 1 discriminator 3
	.loc 1 430 25 is_stmt 0 discriminator 3
	lbu	a3,0(a4)
	lbu	a1,0(a5)
	.loc 1 429 9 discriminator 3
	addi	a4,a4,1
.LVL165:
	addi	a5,a5,1
	.loc 1 430 25 discriminator 3
	xor	a3,a3,a1
	sb	a3,-1(a4)
	.loc 1 429 29 is_stmt 1 discriminator 3
.LVL166:
	.loc 1 429 21 discriminator 3
	.loc 1 429 9 is_stmt 0 discriminator 3
	bne	a4,a2,.L63
	.loc 1 432 9 is_stmt 1
	mv	a0,s7
	mv	a2,s2
	mv	a1,s2
	call	gcm_mult
.LVL167:
	.loc 1 434 9
	.loc 1 434 21
	mv	a0,s1
	add	s6,s1,s6
.LVL168:
.L64:
	.loc 1 435 13 discriminator 3
	.loc 1 435 20 is_stmt 0 discriminator 3
	lbu	a5,0(a0)
	lbu	a4,0(s2)
	.loc 1 434 9 discriminator 3
	addi	a0,a0,1
.LVL169:
	addi	s2,s2,1
	.loc 1 435 20 discriminator 3
	xor	a5,a5,a4
	sb	a5,-1(a0)
	.loc 1 434 34 is_stmt 1 discriminator 3
.LVL170:
	.loc 1 434 21 discriminator 3
	.loc 1 434 9 is_stmt 0 discriminator 3
	bne	s6,a0,.L64
	j	.L65
.LVL171:
.L66:
	.loc 1 416 15
	li	a0,-20
.LVL172:
	j	.L60
	.cfi_endproc
.LFE15:
	.size	mbedtls_gcm_finish, .-mbedtls_gcm_finish
	.section	.text.mbedtls_gcm_crypt_and_tag,"ax",@progbits
	.align	1
	.globl	mbedtls_gcm_crypt_and_tag
	.type	mbedtls_gcm_crypt_and_tag, @function
mbedtls_gcm_crypt_and_tag:
.LFB16:
	.loc 1 452 1 is_stmt 1
	.cfi_startproc
.LVL173:
	addi	sp,sp,-32
	.cfi_def_cfa_offset 32
	sw	s0,24(sp)
	sw	s1,20(sp)
	.cfi_offset 8, -8
	.cfi_offset 9, -12
	addi	s0,sp,32
	.cfi_def_cfa 8, 0
	sw	s2,16(sp)
	sw	s3,12(sp)
	sw	s4,8(sp)
	sw	s5,4(sp)
	sw	s6,0(sp)
	sw	ra,28(sp)
	.cfi_offset 18, -16
	.cfi_offset 19, -20
	.cfi_offset 20, -24
	.cfi_offset 21, -28
	.cfi_offset 22, -32
	.cfi_offset 1, -4
	.loc 1 452 1 is_stmt 0
	mv	s2,a2
	mv	a2,a3
.LVL174:
	mv	a3,a4
.LVL175:
	mv	a4,a5
.LVL176:
	mv	a5,a6
.LVL177:
	lw	s6,0(s0)
	lw	s5,4(s0)
	lw	s4,8(s0)
	mv	s1,a0
	mv	s3,a7
	.loc 1 453 5 is_stmt 1
.LVL178:
	.loc 1 455 5
	.loc 1 455 10
	.loc 1 455 17
	.loc 1 456 5
	.loc 1 456 10
	.loc 1 456 17
	.loc 1 457 5
	.loc 1 457 10
	.loc 1 457 17
	.loc 1 458 5
	.loc 1 458 10
	.loc 1 458 17
	.loc 1 459 5
	.loc 1 459 10
	.loc 1 459 17
	.loc 1 460 5
	.loc 1 460 10
	.loc 1 460 17
	.loc 1 462 5
	.loc 1 462 17 is_stmt 0
	call	mbedtls_gcm_starts
.LVL179:
	.loc 1 462 7
	bne	a0,zero,.L70
	.loc 1 465 5 is_stmt 1
	.loc 1 465 17 is_stmt 0
	mv	a3,s6
	mv	a2,s3
	mv	a1,s2
	mv	a0,s1
.LVL180:
	call	mbedtls_gcm_update
.LVL181:
	.loc 1 465 7
	bne	a0,zero,.L70
.LVL182:
.LBB13:
.LBB14:
	.loc 1 468 5 is_stmt 1
.LBE14:
.LBE13:
	.loc 1 472 1 is_stmt 0
	lw	s0,24(sp)
	.cfi_remember_state
	.cfi_restore 8
	.cfi_def_cfa 2, 32
	lw	ra,28(sp)
	.cfi_restore 1
	lw	s2,16(sp)
	.cfi_restore 18
.LVL183:
	lw	s3,12(sp)
	.cfi_restore 19
.LVL184:
	lw	s6,0(sp)
	.cfi_restore 22
.LVL185:
.LBB18:
.LBB15:
	.loc 1 468 17
	mv	a2,s5
	mv	a1,s4
.LBE15:
.LBE18:
	.loc 1 472 1
	lw	s5,4(sp)
	.cfi_restore 21
.LVL186:
	lw	s4,8(sp)
	.cfi_restore 20
.LVL187:
.LBB19:
.LBB16:
	.loc 1 468 17
	mv	a0,s1
.LVL188:
.LBE16:
.LBE19:
	.loc 1 472 1
	lw	s1,20(sp)
	.cfi_restore 9
.LVL189:
	addi	sp,sp,32
	.cfi_def_cfa_offset 0
.LBB20:
.LBB17:
	.loc 1 468 17
	tail	mbedtls_gcm_finish
.LVL190:
.L70:
	.cfi_restore_state
.LBE17:
.LBE20:
	.loc 1 472 1
	lw	ra,28(sp)
	.cfi_restore 1
	lw	s0,24(sp)
	.cfi_restore 8
	.cfi_def_cfa 2, 32
	lw	s1,20(sp)
	.cfi_restore 9
.LVL191:
	lw	s2,16(sp)
	.cfi_restore 18
.LVL192:
	lw	s3,12(sp)
	.cfi_restore 19
.LVL193:
	lw	s4,8(sp)
	.cfi_restore 20
	lw	s5,4(sp)
	.cfi_restore 21
	lw	s6,0(sp)
	.cfi_restore 22
	addi	sp,sp,32
	.cfi_def_cfa_offset 0
	jr	ra
	.cfi_endproc
.LFE16:
	.size	mbedtls_gcm_crypt_and_tag, .-mbedtls_gcm_crypt_and_tag
	.section	.text.mbedtls_gcm_auth_decrypt,"ax",@progbits
	.align	1
	.globl	mbedtls_gcm_auth_decrypt
	.type	mbedtls_gcm_auth_decrypt, @function
mbedtls_gcm_auth_decrypt:
.LFB17:
	.loc 1 484 1 is_stmt 1
	.cfi_startproc
.LVL194:
	.loc 1 485 5
	.loc 1 486 5
	.loc 1 487 5
	.loc 1 488 5
	.loc 1 490 5
	.loc 1 490 10
	.loc 1 490 17
	.loc 1 491 5
	.loc 1 491 10
	.loc 1 491 17
	.loc 1 492 5
	.loc 1 492 10
	.loc 1 492 17
	.loc 1 493 5
	.loc 1 493 10
	.loc 1 493 17
	.loc 1 494 5
	.loc 1 494 10
	.loc 1 494 17
	.loc 1 495 5
	.loc 1 495 10
	.loc 1 495 17
	.loc 1 497 5
	.loc 1 484 1 is_stmt 0
	addi	sp,sp,-64
	.cfi_def_cfa_offset 64
	sw	s0,56(sp)
	sw	s1,52(sp)
	.cfi_offset 8, -8
	.cfi_offset 9, -12
	addi	s0,sp,64
	.cfi_def_cfa 8, 0
	sw	s2,48(sp)
	sw	s3,44(sp)
	sw	s4,40(sp)
	sw	s5,36(sp)
	sw	ra,60(sp)
	.cfi_offset 18, -16
	.cfi_offset 19, -20
	.cfi_offset 20, -24
	.cfi_offset 21, -28
	.cfi_offset 1, -4
	.loc 1 484 1
	lw	s4,4(s0)
	.loc 1 497 17
	sw	a7,4(sp)
	.loc 1 484 1
	mv	s2,a7
	.loc 1 497 17
	lw	a7,0(s0)
.LVL195:
	addi	s5,s0,-48
	.loc 1 484 1
	mv	s1,a1
	mv	s3,a6
	.loc 1 497 17
	sw	s5,8(sp)
	mv	a6,a5
.LVL196:
	sw	s4,0(sp)
	mv	a5,a4
.LVL197:
	mv	a4,a3
.LVL198:
	mv	a3,a2
.LVL199:
	mv	a2,a1
.LVL200:
	li	a1,0
.LVL201:
	call	mbedtls_gcm_crypt_and_tag
.LVL202:
	.loc 1 505 22
	li	a5,0
	.loc 1 497 7
	beq	a0,zero,.L75
.LVL203:
.L73:
	.loc 1 515 1
	lw	ra,60(sp)
	.cfi_remember_state
	.cfi_restore 1
	lw	s0,56(sp)
	.cfi_restore 8
	.cfi_def_cfa 2, 64
	lw	s1,52(sp)
	.cfi_restore 9
.LVL204:
	lw	s2,48(sp)
	.cfi_restore 18
.LVL205:
	lw	s3,44(sp)
	.cfi_restore 19
.LVL206:
	lw	s4,40(sp)
	.cfi_restore 20
	lw	s5,36(sp)
	.cfi_restore 21
	addi	sp,sp,64
	.cfi_def_cfa_offset 0
	jr	ra
.LVL207:
.L76:
	.cfi_restore_state
	.loc 1 506 9 is_stmt 1 discriminator 3
	.loc 1 506 20 is_stmt 0 discriminator 3
	add	a4,s3,a5
	.loc 1 506 35 discriminator 3
	add	a3,s5,a5
	.loc 1 506 24 discriminator 3
	lbu	a4,0(a4)
	lbu	a3,0(a3)
	.loc 1 505 41 discriminator 3
	addi	a5,a5,1
.LVL208:
	.loc 1 506 24 discriminator 3
	xor	a4,a4,a3
	andi	a4,a4,0xff
	.loc 1 506 14 discriminator 3
	or	a0,a0,a4
.LVL209:
	.loc 1 505 40 is_stmt 1 discriminator 3
.L75:
	.loc 1 505 27 discriminator 1
	.loc 1 505 5 is_stmt 0 discriminator 1
	bne	a5,s2,.L76
	.loc 1 508 5 is_stmt 1
	.loc 1 508 7 is_stmt 0
	beq	a0,zero,.L73
	.loc 1 510 9 is_stmt 1
	mv	a0,s4
.LVL210:
	mv	a1,s1
	call	mbedtls_platform_zeroize
.LVL211:
	.loc 1 511 9
	.loc 1 511 15 is_stmt 0
	li	a0,-18
	j	.L73
	.cfi_endproc
.LFE17:
	.size	mbedtls_gcm_auth_decrypt, .-mbedtls_gcm_auth_decrypt
	.section	.text.mbedtls_gcm_free,"ax",@progbits
	.align	1
	.globl	mbedtls_gcm_free
	.type	mbedtls_gcm_free, @function
mbedtls_gcm_free:
.LFB18:
	.loc 1 518 1 is_stmt 1
	.cfi_startproc
.LVL212:
	.loc 1 519 5
	.loc 1 519 7 is_stmt 0
	beq	a0,zero,.L81
	.loc 1 518 1
	addi	sp,sp,-16
	.cfi_def_cfa_offset 16
	sw	s0,8(sp)
	sw	s1,4(sp)
	sw	ra,12(sp)
	.cfi_offset 8, -8
	.cfi_offset 9, -12
	.cfi_offset 1, -4
	addi	s0,sp,16
	.cfi_def_cfa 8, 0
	mv	s1,a0
	.loc 1 521 5 is_stmt 1
	call	mbedtls_cipher_free
.LVL213:
	.loc 1 522 5
	.loc 1 523 1 is_stmt 0
	lw	s0,8(sp)
	.cfi_restore 8
	.cfi_def_cfa 2, 16
	lw	ra,12(sp)
	.cfi_restore 1
	.loc 1 522 5
	mv	a0,s1
	.loc 1 523 1
	lw	s1,4(sp)
	.cfi_restore 9
.LVL214:
	.loc 1 522 5
	li	a1,392
	.loc 1 523 1
	addi	sp,sp,16
	.cfi_def_cfa_offset 0
	.loc 1 522 5
	tail	mbedtls_platform_zeroize
.LVL215:
.L81:
	ret
	.cfi_endproc
.LFE18:
	.size	mbedtls_gcm_free, .-mbedtls_gcm_free
	.section	.rodata.last4,"a"
	.align	3
	.set	.LANCHOR0,. + 0
	.type	last4, @object
	.size	last4, 128
last4:
	.word	0
	.word	0
	.word	7200
	.word	0
	.word	14400
	.word	0
	.word	9312
	.word	0
	.word	28800
	.word	0
	.word	27808
	.word	0
	.word	18624
	.word	0
	.word	21728
	.word	0
	.word	57600
	.word	0
	.word	64800
	.word	0
	.word	55616
	.word	0
	.word	50528
	.word	0
	.word	37248
	.word	0
	.word	36256
	.word	0
	.word	43456
	.word	0
	.word	46560
	.word	0
	.text
.Letext0:
	.file 2 "/home/dinhquangha/Ai-Thinker-WB2/toolchain/riscv/Linux/lib/gcc/riscv64-unknown-elf/10.2.0/include/stddef.h"
	.file 3 "/home/dinhquangha/Ai-Thinker-WB2/toolchain/riscv/Linux/lib/gcc/riscv64-unknown-elf/10.2.0/include/stdint-gcc.h"
	.file 4 "/home/dinhquangha/Ai-Thinker-WB2/components/security/mbedtls_lts/mbedtls/include/mbedtls/cipher.h"
	.file 5 "/home/dinhquangha/Ai-Thinker-WB2/components/security/mbedtls_lts/mbedtls/include/mbedtls/gcm.h"
	.file 6 "/home/dinhquangha/Ai-Thinker-WB2/components/security/mbedtls_lts/mbedtls/include/mbedtls/platform_util.h"
	.file 7 "/home/dinhquangha/Ai-Thinker-WB2/toolchain/riscv/Linux/riscv64-unknown-elf/include/string.h"