	.file	"md.c"
	.option nopic
	.attribute arch, "rv32i2p0_m2p0_f2p0_c2p0"
	.attribute unaligned_access, 0
	.attribute stack_align, 16
	.text
.Ltext0:
	.cfi_sections	.debug_frame
	.section	.text.mbedtls_md_list,"ax",@progbits
	.align	1
	.globl	mbedtls_md_list
	.type	mbedtls_md_list, @function
mbedtls_md_list:
.LFB5:
	.file 1 "/home/quanghaictu/intern/Ai-Thinker-WB2/components/security/mbedtls_lts/mbedtls/library/md.c"
	.loc 1 175 1
	.cfi_startproc
	.loc 1 176 5
	.loc 1 175 1 is_stmt 0
	addi	sp,sp,-16
	.cfi_def_cfa_offset 16
	sw	s0,12(sp)
	.cfi_offset 8, -4
	addi	s0,sp,16
	.cfi_def_cfa 8, 0
	.loc 1 177 1
	lw	s0,12(sp)
	.cfi_restore 8
	.cfi_def_cfa 2, 16
	.loc 1 176 11
	lui	a0,%hi(.LANCHOR0)
	.loc 1 177 1
	addi	a0,a0,%lo(.LANCHOR0)
	addi	sp,sp,16
	.cfi_def_cfa_offset 0
	jr	ra
	.cfi_endproc
.LFE5:
	.size	mbedtls_md_list, .-mbedtls_md_list
	.section	.rodata.mbedtls_md_info_from_string.str1.4,"aMS",@progbits,1
	.align	2
.LC0:
	.string	"MD5"
	.align	2
.LC1:
	.string	"SHA1"
	.align	2
.LC2:
	.string	"SHA"
	.align	2
.LC3:
	.string	"SHA224"
	.align	2
.LC4:
	.string	"SHA256"
	.align	2
.LC5:
	.string	"SHA384"
	.align	2
.LC6:
	.string	"SHA512"
	.section	.text.mbedtls_md_info_from_string,"ax",@progbits
	.align	1
	.globl	mbedtls_md_info_from_string
	.type	mbedtls_md_info_from_string, @function
mbedtls_md_info_from_string:
.LFB6:
	.loc 1 180 1 is_stmt 1
	.cfi_startproc
.LVL0:
	.loc 1 181 5
	.loc 1 181 7 is_stmt 0
	bne	a0,zero,.L4
	.loc 1 182 15
	li	a0,0
.LVL1:
	.loc 1 220 1
	ret
.LVL2:
.L8:
	.cfi_def_cfa_register 8
	.cfi_offset 1, -4
	.cfi_offset 8, -8
	.cfi_offset 9, -12
	.loc 1 182 15
	li	a0,0
.L3:
	.loc 1 220 1
	lw	ra,12(sp)
	.cfi_restore 1
	lw	s0,8(sp)
	.cfi_restore 8
	.cfi_def_cfa 2, 16
	lw	s1,4(sp)
	.cfi_restore 9
.LVL3:
	addi	sp,sp,16
	.cfi_def_cfa_offset 0
	jr	ra
.LVL4:
.L4:
	.loc 1 180 1
	addi	sp,sp,-16
	.cfi_def_cfa_offset 16
	sw	s0,8(sp)
	sw	s1,4(sp)
	sw	ra,12(sp)
	.cfi_offset 8, -8
	.cfi_offset 9, -12
	.cfi_offset 1, -4
	addi	s0,sp,16
	.cfi_def_cfa 8, 0
	mv	s1,a0
	.loc 1 194 5 is_stmt 1
	.loc 1 194 10 is_stmt 0
	mv	a1,a0
	lui	a0,%hi(.LC0)
.LVL5:
	.loc 1 180 1
	.loc 1 194 10
	addi	a0,a0,%lo(.LC0)
	call	strcmp
.LVL6:
	.loc 1 194 7
	beq	a0,zero,.L9
	.loc 1 202 5 is_stmt 1
	.loc 1 202 10 is_stmt 0
	lui	a0,%hi(.LC1)
	mv	a1,s1
	addi	a0,a0,%lo(.LC1)
	call	strcmp
.LVL7:
	.loc 1 202 7
	bne	a0,zero,.L6
.L7:
	.loc 1 203 16
	lui	a0,%hi(.LANCHOR2)
	addi	a0,a0,%lo(.LANCHOR2)
	j	.L3
.L6:
	.loc 1 202 40 discriminator 1
	lui	a0,%hi(.LC2)
	mv	a1,s1
	addi	a0,a0,%lo(.LC2)
	call	strcmp
.LVL8:
	.loc 1 202 36 discriminator 1
	beq	a0,zero,.L7
	.loc 1 206 5 is_stmt 1
	.loc 1 206 10 is_stmt 0
	lui	a0,%hi(.LC3)
	mv	a1,s1
	addi	a0,a0,%lo(.LC3)
	call	strcmp
.LVL9:
	.loc 1 206 7
	beq	a0,zero,.L10
	.loc 1 208 5 is_stmt 1
	.loc 1 208 10 is_stmt 0
	lui	a0,%hi(.LC4)
	mv	a1,s1
	addi	a0,a0,%lo(.LC4)
	call	strcmp
.LVL10:
	.loc 1 208 7
	beq	a0,zero,.L11
	.loc 1 213 5 is_stmt 1
	.loc 1 213 10 is_stmt 0
	lui	a0,%hi(.LC5)
	mv	a1,s1
	addi	a0,a0,%lo(.LC5)
	call	strcmp
.LVL11:
	.loc 1 213 7
	beq	a0,zero,.L12
	.loc 1 216 5 is_stmt 1
	.loc 1 216 10 is_stmt 0
	lui	a0,%hi(.LC6)
	mv	a1,s1
	addi	a0,a0,%lo(.LC6)
	call	strcmp
.LVL12:
	.loc 1 216 7
	bne	a0,zero,.L8
	.loc 1 217 16
	lui	a0,%hi(.LANCHOR6)
	addi	a0,a0,%lo(.LANCHOR6)
	j	.L3
.L9:
	.loc 1 195 16
	lui	a0,%hi(.LANCHOR4)
	addi	a0,a0,%lo(.LANCHOR4)
	j	.L3
.L10:
	.loc 1 207 16
	lui	a0,%hi(.LANCHOR5)
	addi	a0,a0,%lo(.LANCHOR5)
	j	.L3
.L11:
	.loc 1 209 16
	lui	a0,%hi(.LANCHOR3)
	addi	a0,a0,%lo(.LANCHOR3)
	j	.L3
.L12:
	.loc 1 214 16
	lui	a0,%hi(.LANCHOR1)
	addi	a0,a0,%lo(.LANCHOR1)
	j	.L3
	.cfi_endproc
.LFE6:
	.size	mbedtls_md_info_from_string, .-mbedtls_md_info_from_string
	.section	.text.mbedtls_md_info_from_type,"ax",@progbits
	.align	1
	.globl	mbedtls_md_info_from_type
	.type	mbedtls_md_info_from_type, @function
mbedtls_md_info_from_type:
.LFB7:
	.loc 1 223 1 is_stmt 1
	.cfi_startproc
.LVL13:
	.loc 1 224 5
	.loc 1 223 1 is_stmt 0
	addi	sp,sp,-16
	.cfi_def_cfa_offset 16
	sw	s0,12(sp)
	.cfi_offset 8, -4
	addi	s0,sp,16
	.cfi_def_cfa 8, 0
	addi	a0,a0,-3
.LVL14:
	li	a5,5
	bgtu	a0,a5,.L21
	lui	a5,%hi(.LANCHOR7)
	slli	a0,a0,2
.LVL15:
	addi	a5,a5,%lo(.LANCHOR7)
	add	a0,a5,a0
	lw	a0,0(a0)
.L19:
	.loc 1 263 1
	lw	s0,12(sp)
	.cfi_remember_state
	.cfi_restore 8
	.cfi_def_cfa 2, 16
	addi	sp,sp,16
	.cfi_def_cfa_offset 0
	jr	ra
.L21:
	.cfi_restore_state
	.loc 1 223 1
	li	a0,0
	j	.L19
	.cfi_endproc
.LFE7:
	.size	mbedtls_md_info_from_type, .-mbedtls_md_info_from_type
	.section	.text.mbedtls_md_init,"ax",@progbits
	.align	1
	.globl	mbedtls_md_init
	.type	mbedtls_md_init, @function
mbedtls_md_init:
.LFB8:
	.loc 1 266 1 is_stmt 1
	.cfi_startproc
.LVL16:
	.loc 1 267 5
	.loc 1 266 1 is_stmt 0
	addi	sp,sp,-16
	.cfi_def_cfa_offset 16
	sw	s0,12(sp)
	.cfi_offset 8, -4
	addi	s0,sp,16
	.cfi_def_cfa 8, 0
	.loc 1 268 1
	lw	s0,12(sp)
	.cfi_restore 8
	.cfi_def_cfa 2, 16
	.loc 1 267 5
	li	a2,12
	li	a1,0
	.loc 1 268 1
	addi	sp,sp,16
	.cfi_def_cfa_offset 0
	.loc 1 267 5
	tail	memset
.LVL17:
	.cfi_endproc
.LFE8:
	.size	mbedtls_md_init, .-mbedtls_md_init
	.section	.text.mbedtls_md_free,"ax",@progbits
	.align	1
	.globl	mbedtls_md_free
	.type	mbedtls_md_free, @function
mbedtls_md_free:
.LFB9:
	.loc 1 271 1 is_stmt 1
	.cfi_startproc
.LVL18:
	.loc 1 272 5
	.loc 1 272 7 is_stmt 0
	beq	a0,zero,.L49
	.loc 1 271 1 discriminator 1
	addi	sp,sp,-16
	.cfi_def_cfa_offset 16
	sw	s0,8(sp)
	sw	s1,4(sp)
	sw	ra,12(sp)
	.cfi_offset 8, -8
	.cfi_offset 9, -12
	.cfi_offset 1, -4
	addi	s0,sp,16
	.cfi_def_cfa 8, 0
	.loc 1 272 26 discriminator 1
	lw	a5,0(a0)
	mv	s1,a0
	.loc 1 272 20 discriminator 1
	beq	a5,zero,.L25
	.loc 1 275 5 is_stmt 1
	.loc 1 275 12 is_stmt 0
	lw	a0,4(a0)
.LVL19:
	.loc 1 275 7
	beq	a0,zero,.L27
	.loc 1 277 9 is_stmt 1
	.loc 1 277 29 is_stmt 0
	lw	a5,4(a5)
	.loc 1 277 9
	li	a4,6
	bgtu	a5,a4,.L28
	li	a4,4
	bgtu	a5,a4,.L29
	li	a3,3
	beq	a5,a3,.L30
	beq	a5,a4,.L31
.L32:
	.loc 1 322 9 is_stmt 1
	lw	a0,4(s1)
	call	mbedtls_free
.LVL20:
.L27:
	.loc 1 325 5
	.loc 1 325 12 is_stmt 0
	lw	a0,8(s1)
	.loc 1 325 7
	beq	a0,zero,.L34
	.loc 1 327 9 is_stmt 1
	.loc 1 328 51 is_stmt 0
	lw	a5,0(s1)
	lbu	a1,9(a5)
	.loc 1 327 9
	slli	a1,a1,1
	call	mbedtls_platform_zeroize
.LVL21:
	.loc 1 329 9 is_stmt 1
	lw	a0,8(s1)
	call	mbedtls_free
.LVL22:
.L34:
	.loc 1 332 5
	.loc 1 333 1 is_stmt 0
	lw	s0,8(sp)
	.cfi_remember_state
	.cfi_restore 8
	.cfi_def_cfa 2, 16
	lw	ra,12(sp)
	.cfi_restore 1
	.loc 1 332 5
	mv	a0,s1
	.loc 1 333 1
	lw	s1,4(sp)
	.cfi_restore 9
.LVL23:
	.loc 1 332 5
	li	a1,12
	.loc 1 333 1
	addi	sp,sp,16
	.cfi_def_cfa_offset 0
	.loc 1 332 5
	tail	mbedtls_platform_zeroize
.LVL24:
.L28:
	.cfi_restore_state
	.loc 1 277 9
	addi	a5,a5,-7
	li	a4,1
	bgtu	a5,a4,.L32
	.loc 1 315 17 is_stmt 1
	call	mbedtls_sha512_free
.LVL25:
	.loc 1 316 17
	j	.L32
.L30:
	.loc 1 291 17
	call	mbedtls_md5_free
.LVL26:
	.loc 1 292 17
	j	.L32
.L31:
	.loc 1 301 17
	call	mbedtls_sha1_free
.LVL27:
	.loc 1 302 17
	j	.L32
.L29:
	.loc 1 307 17
	call	mbedtls_sha256_free
.LVL28:
	.loc 1 308 17
	j	.L32
.L25:
	.loc 1 333 1 is_stmt 0
	lw	ra,12(sp)
	.cfi_restore 1
	lw	s0,8(sp)
	.cfi_restore 8
	.cfi_def_cfa 2, 16
	lw	s1,4(sp)
	.cfi_restore 9
.LVL29:
	addi	sp,sp,16
	.cfi_def_cfa_offset 0
	jr	ra
.L49:
	ret
	.cfi_endproc
.LFE9:
	.size	mbedtls_md_free, .-mbedtls_md_free
	.section	.text.mbedtls_md_clone,"ax",@progbits
	.align	1
	.globl	mbedtls_md_clone
	.type	mbedtls_md_clone, @function
mbedtls_md_clone:
.LFB10:
	.loc 1 337 1 is_stmt 1
	.cfi_startproc
.LVL30:
	.loc 1 338 5
	.loc 1 338 7 is_stmt 0
	beq	a0,zero,.L63
	.loc 1 338 26 discriminator 1
	lw	a5,0(a0)
	.loc 1 338 20 discriminator 1
	beq	a5,zero,.L63
	.loc 1 338 44 discriminator 2
	beq	a1,zero,.L63
	.loc 1 339 26
	lw	a4,0(a1)
	.loc 1 339 20
	beq	a4,zero,.L63
	.loc 1 339 44 discriminator 1
	bne	a5,a4,.L63
	.loc 1 345 5 is_stmt 1
	.loc 1 337 1 is_stmt 0
	addi	sp,sp,-16
	.cfi_def_cfa_offset 16
	sw	s0,8(sp)
	sw	ra,12(sp)
	.cfi_offset 8, -8
	.cfi_offset 1, -4
	addi	s0,sp,16
	.cfi_def_cfa 8, 0
	.loc 1 345 25
	lw	a5,4(a5)
	.loc 1 345 5
	li	a4,6
	bgtu	a5,a4,.L54
	li	a4,4
	bgtu	a5,a4,.L55
	li	a3,3
	beq	a5,a3,.L56
	beq	a5,a4,.L57
.L64:
	li	a0,-20480
.LVL31:
	addi	a0,a0,-256
	j	.L52
.LVL32:
.L54:
	addi	a5,a5,-7
	li	a4,1
	bgtu	a5,a4,.L64
	.loc 1 383 13 is_stmt 1
	lw	a1,4(a1)
.LVL33:
	lw	a0,4(a0)
.LVL34:
	call	mbedtls_sha512_clone
.LVL35:
	j	.L70
.LVL36:
.L56:
	.loc 1 359 13
	lw	a1,4(a1)
.LVL37:
	lw	a0,4(a0)
.LVL38:
	call	mbedtls_md5_clone
.LVL39:
	.loc 1 360 13
.L70:
	.loc 1 384 13
	.loc 1 390 11 is_stmt 0
	li	a0,0
.L52:
	.loc 1 391 1
	lw	ra,12(sp)
	.cfi_remember_state
	.cfi_restore 1
	lw	s0,8(sp)
	.cfi_restore 8
	.cfi_def_cfa 2, 16
	addi	sp,sp,16
	.cfi_def_cfa_offset 0
	jr	ra
.LVL40:
.L57:
	.cfi_restore_state
	.loc 1 369 13 is_stmt 1
	lw	a1,4(a1)
.LVL41:
	lw	a0,4(a0)
.LVL42:
	call	mbedtls_sha1_clone
.LVL43:
	.loc 1 370 13
	j	.L70
.LVL44:
.L55:
	.loc 1 375 13
	lw	a1,4(a1)
.LVL45:
	lw	a0,4(a0)
.LVL46:
	call	mbedtls_sha256_clone
.LVL47:
	.loc 1 376 13
	j	.L70
.LVL48:
.L63:
	.cfi_def_cfa_register 2
	.cfi_restore 1
	.cfi_restore 8
	.loc 1 342 15 is_stmt 0
	li	a0,-20480
.LVL49:
	addi	a0,a0,-256
	.loc 1 391 1
	ret
	.cfi_endproc
.LFE10:
	.size	mbedtls_md_clone, .-mbedtls_md_clone
	.section	.text.mbedtls_md_setup,"ax",@progbits
	.align	1
	.globl	mbedtls_md_setup
	.type	mbedtls_md_setup, @function
mbedtls_md_setup:
.LFB12:
	.loc 1 410 1 is_stmt 1
	.cfi_startproc
.LVL50:
	.loc 1 411 5
	.loc 1 411 7 is_stmt 0
	beq	a1,zero,.L83
	.loc 1 410 1 discriminator 1
	addi	sp,sp,-32
	.cfi_def_cfa_offset 32
	sw	s0,24(sp)
	sw	s1,20(sp)
	sw	ra,28(sp)
	sw	s2,16(sp)
	sw	s3,12(sp)
	.cfi_offset 8, -8
	.cfi_offset 9, -12
	.cfi_offset 1, -4
	.cfi_offset 18, -16
	.cfi_offset 19, -20
	addi	s0,sp,32
	.cfi_def_cfa 8, 0
	mv	s1,a0
	.loc 1 411 24 discriminator 1
	beq	a0,zero,.L85
	.loc 1 414 18
	sw	a1,0(a0)
	.loc 1 415 17
	sw	zero,4(a0)
	.loc 1 416 19
	sw	zero,8(a0)
	.loc 1 418 20
	lw	a5,4(a1)
	.loc 1 418 5
	li	a4,6
	mv	s2,a1
	mv	s3,a2
	.loc 1 414 5 is_stmt 1
	.loc 1 415 5
	.loc 1 416 5
	.loc 1 418 5
	bgtu	a5,a4,.L73
	li	a4,4
	bgtu	a5,a4,.L74
	li	a3,3
	beq	a5,a3,.L75
	beq	a5,a4,.L76
.L85:
	li	a0,-20480
.LVL51:
	addi	a0,a0,-256
	j	.L71
.L73:
	addi	a5,a5,-7
	li	a4,1
	bgtu	a5,a4,.L85
	.loc 1 456 13
	.loc 1 456 18
	.loc 1 456 32 is_stmt 0
	li	a1,216
.LVL52:
	li	a0,1
	call	mbedtls_calloc
.LVL53:
	.loc 1 456 30
	sw	a0,4(s1)
	.loc 1 456 87 is_stmt 1
	.loc 1 456 89 is_stmt 0
	beq	a0,zero,.L100
	.loc 1 456 33 is_stmt 1 discriminator 2
	call	mbedtls_sha512_init
.LVL54:
	.loc 1 456 76 discriminator 2
	.loc 1 457 13 discriminator 2
	j	.L79
.LVL55:
.L75:
	.loc 1 432 13
	.loc 1 432 18
	.loc 1 432 32 is_stmt 0
	li	a1,88
.LVL56:
	li	a0,1
	call	mbedtls_calloc
.LVL57:
	.loc 1 432 30
	sw	a0,4(s1)
	.loc 1 432 84 is_stmt 1
	.loc 1 432 86 is_stmt 0
	bne	a0,zero,.L78
.L100:
	.loc 1 469 13 is_stmt 1
	.loc 1 469 19 is_stmt 0
	li	a0,-20480
	addi	a0,a0,-384
	j	.L71
.L78:
	.loc 1 432 33 is_stmt 1 discriminator 2
	call	mbedtls_md5_init
.LVL58:
	.loc 1 432 73 discriminator 2
	.loc 1 433 13 discriminator 2
.L79:
	.loc 1 463 5
	.loc 1 463 7 is_stmt 0
	bne	s3,zero,.L81
.L82:
	.loc 1 473 11
	li	a0,0
.LVL59:
.L71:
	.loc 1 474 1
	lw	ra,28(sp)
	.cfi_remember_state
	.cfi_restore 1
	lw	s0,24(sp)
	.cfi_restore 8
	.cfi_def_cfa 2, 32
	lw	s1,20(sp)
	.cfi_restore 9
.LVL60:
	lw	s2,16(sp)
	.cfi_restore 18
	lw	s3,12(sp)
	.cfi_restore 19
	addi	sp,sp,32
	.cfi_def_cfa_offset 0
	jr	ra
.LVL61:
.L76:
	.cfi_restore_state
	.loc 1 442 13 is_stmt 1
	.loc 1 442 18
	.loc 1 442 32 is_stmt 0
	li	a1,192
.LVL62:
	li	a0,1
	call	mbedtls_calloc
.LVL63:
	.loc 1 442 30
	sw	a0,4(s1)
	.loc 1 442 85 is_stmt 1
	.loc 1 442 87 is_stmt 0
	beq	a0,zero,.L100
	.loc 1 442 33 is_stmt 1 discriminator 2
	call	mbedtls_sha1_init
.LVL64:
	.loc 1 442 74 discriminator 2
	.loc 1 443 13 discriminator 2
	j	.L79
.LVL65:
.L74:
	.loc 1 448 13
	.loc 1 448 18
	.loc 1 448 32 is_stmt 0
	li	a1,192
.LVL66:
	li	a0,1
	call	mbedtls_calloc
.LVL67:
	.loc 1 448 30
	sw	a0,4(s1)
	.loc 1 448 87 is_stmt 1
	.loc 1 448 89 is_stmt 0
	beq	a0,zero,.L100
	.loc 1 448 33 is_stmt 1 discriminator 2
	call	mbedtls_sha256_init
.LVL68:
	.loc 1 448 76 discriminator 2
	.loc 1 449 13 discriminator 2
	j	.L79
.L81:
	.loc 1 465 9
	.loc 1 465 25 is_stmt 0
	lbu	a1,9(s2)
	li	a0,2
	call	mbedtls_calloc
.LVL69:
	.loc 1 465 23
	sw	a0,8(s1)
	.loc 1 466 9 is_stmt 1
	.loc 1 466 11 is_stmt 0
	bne	a0,zero,.L82
	.loc 1 468 13 is_stmt 1
	mv	a0,s1
	call	mbedtls_md_free
.LVL70:
	j	.L100
.LVL71:
.L83:
	.cfi_def_cfa_register 2
	.cfi_restore 1
	.cfi_restore 8
	.cfi_restore 9
	.cfi_restore 18
	.cfi_restore 19
	.loc 1 412 15 is_stmt 0
	li	a0,-20480
.LVL72:
	addi	a0,a0,-256
	.loc 1 474 1
	ret
	.cfi_endproc
.LFE12:
	.size	mbedtls_md_setup, .-mbedtls_md_setup
	.section	.text.mbedtls_md_init_ctx,"ax",@progbits
	.align	1
	.globl	mbedtls_md_init_ctx
	.type	mbedtls_md_init_ctx, @function
mbedtls_md_init_ctx:
.LFB11:
	.loc 1 395 1 is_stmt 1
	.cfi_startproc
.LVL73:
	.loc 1 396 5
	.loc 1 395 1 is_stmt 0
	addi	sp,sp,-16
	.cfi_def_cfa_offset 16
	sw	s0,12(sp)
	.cfi_offset 8, -4
	addi	s0,sp,16
	.cfi_def_cfa 8, 0
	.loc 1 397 1
	lw	s0,12(sp)
	.cfi_restore 8
	.cfi_def_cfa 2, 16
	.loc 1 396 12
	li	a2,1
	.loc 1 397 1
	addi	sp,sp,16
	.cfi_def_cfa_offset 0
	.loc 1 396 12
	tail	mbedtls_md_setup
.LVL74:
	.cfi_endproc
.LFE11:
	.size	mbedtls_md_init_ctx, .-mbedtls_md_init_ctx
	.section	.text.mbedtls_md_starts,"ax",@progbits
	.align	1
	.globl	mbedtls_md_starts
	.type	mbedtls_md_starts, @function
mbedtls_md_starts:
.LFB13:
	.loc 1 478 1 is_stmt 1
	.cfi_startproc
.LVL75:
	.loc 1 479 5
	.loc 1 478 1 is_stmt 0
	addi	sp,sp,-16
	.cfi_def_cfa_offset 16
	sw	s0,12(sp)
	.cfi_offset 8, -4
	addi	s0,sp,16
	.cfi_def_cfa 8, 0
	.loc 1 479 7
	beq	a0,zero,.L114
	.loc 1 479 26 discriminator 1
	lw	a5,0(a0)
	.loc 1 479 20 discriminator 1
	beq	a5,zero,.L114
	.loc 1 482 5 is_stmt 1
	lw	a5,4(a5)
	li	a4,5
	addi	a5,a5,-3
	bgtu	a5,a4,.L114
	lui	a4,%hi(.L106)
	slli	a5,a5,2
	addi	a4,a4,%lo(.L106)
	add	a5,a5,a4
	lw	a5,0(a5)
	lw	a0,4(a0)
.LVL76:
	jr	a5
	.section	.rodata.mbedtls_md_starts,"a",@progbits
	.align	2
	.align	2
.L106:
	.word	.L111
	.word	.L110
	.word	.L109
	.word	.L108
	.word	.L107
	.word	.L105
	.section	.text.mbedtls_md_starts
.L111:
	.loc 1 494 13
	.loc 1 521 1 is_stmt 0
	lw	s0,12(sp)
	.cfi_remember_state
	.cfi_restore 8
	.cfi_def_cfa 2, 16
	addi	sp,sp,16
	.cfi_def_cfa_offset 0
	.loc 1 494 21
	tail	mbedtls_md5_starts_ret
.LVL77:
.L110:
	.cfi_restore_state
	.loc 1 502 13 is_stmt 1
	.loc 1 521 1 is_stmt 0
	lw	s0,12(sp)
	.cfi_remember_state
	.cfi_restore 8
	.cfi_def_cfa 2, 16
	addi	sp,sp,16
	.cfi_def_cfa_offset 0
	.loc 1 502 21
	tail	mbedtls_sha1_starts_ret
.LVL78:
.L109:
	.cfi_restore_state
	.loc 1 506 13 is_stmt 1
	.loc 1 506 21 is_stmt 0
	li	a1,1
.L116:
	.loc 1 521 1
	lw	s0,12(sp)
	.cfi_remember_state
	.cfi_restore 8
	.cfi_def_cfa 2, 16
	addi	sp,sp,16
	.cfi_def_cfa_offset 0
	.loc 1 508 21
	tail	mbedtls_sha256_starts_ret
.LVL79:
.L108:
	.cfi_restore_state
	.loc 1 508 13 is_stmt 1
	.loc 1 508 21 is_stmt 0
	li	a1,0
	j	.L116
.L107:
	.loc 1 513 13 is_stmt 1
	.loc 1 513 21 is_stmt 0
	li	a1,1
.L117:
	.loc 1 521 1
	lw	s0,12(sp)
	.cfi_remember_state
	.cfi_restore 8
	.cfi_def_cfa 2, 16
	addi	sp,sp,16
	.cfi_def_cfa_offset 0
	.loc 1 516 21
	tail	mbedtls_sha512_starts_ret
.LVL80:
.L105:
	.cfi_restore_state
	.loc 1 516 13 is_stmt 1
	.loc 1 516 21 is_stmt 0
	li	a1,0
	j	.L117
.LVL81:
.L114:
	.loc 1 521 1
	lw	s0,12(sp)
	.cfi_restore 8
	.cfi_def_cfa 2, 16
	.loc 1 482 25
	li	a0,-20480
.LVL82:
	addi	a0,a0,-256
	.loc 1 521 1
	addi	sp,sp,16
	.cfi_def_cfa_offset 0
	jr	ra
	.cfi_endproc
.LFE13:
	.size	mbedtls_md_starts, .-mbedtls_md_starts
	.section	.text.mbedtls_md_update,"ax",@progbits
	.align	1
	.globl	mbedtls_md_update
	.type	mbedtls_md_update, @function
mbedtls_md_update:
.LFB14:
	.loc 1 524 1 is_stmt 1
	.cfi_startproc
.LVL83:
	.loc 1 525 5
	.loc 1 524 1 is_stmt 0
	addi	sp,sp,-16
	.cfi_def_cfa_offset 16
	sw	s0,12(sp)
	.cfi_offset 8, -4
	addi	s0,sp,16
	.cfi_def_cfa 8, 0
	.loc 1 525 7
	beq	a0,zero,.L127
	.loc 1 525 26 discriminator 1
	lw	a5,0(a0)
	.loc 1 525 20 discriminator 1
	beq	a5,zero,.L127
	.loc 1 528 5 is_stmt 1
	.loc 1 528 25 is_stmt 0
	lw	a5,4(a5)
	.loc 1 528 5
	li	a4,6
	bgtu	a5,a4,.L120
	li	a4,4
	bgtu	a5,a4,.L121
	li	a3,3
	beq	a5,a3,.L122
	beq	a5,a4,.L123
.L127:
	.loc 1 565 1
	lw	s0,12(sp)
	.cfi_remember_state
	.cfi_restore 8
	.cfi_def_cfa 2, 16
	.loc 1 528 5
	li	a0,-20480
.LVL84:
	addi	a0,a0,-256
	.loc 1 565 1
	addi	sp,sp,16
	.cfi_def_cfa_offset 0
	jr	ra
.LVL85:
.L120:
	.cfi_restore_state
	.loc 1 528 5
	addi	a5,a5,-7
	li	a4,1
	bgtu	a5,a4,.L127
	.loc 1 560 13 is_stmt 1
	.loc 1 565 1 is_stmt 0
	lw	s0,12(sp)
	.cfi_remember_state
	.cfi_restore 8
	.cfi_def_cfa 2, 16
	.loc 1 560 21
	lw	a0,4(a0)
.LVL86:
	.loc 1 565 1
	addi	sp,sp,16
	.cfi_def_cfa_offset 0
	.loc 1 560 21
	tail	mbedtls_sha512_update_ret
.LVL87:
.L122:
	.cfi_restore_state
	.loc 1 540 13 is_stmt 1
	.loc 1 565 1 is_stmt 0
	lw	s0,12(sp)
	.cfi_remember_state
	.cfi_restore 8
	.cfi_def_cfa 2, 16
	.loc 1 540 21
	lw	a0,4(a0)
.LVL88:
	.loc 1 565 1
	addi	sp,sp,16
	.cfi_def_cfa_offset 0
	.loc 1 540 21
	tail	mbedtls_md5_update_ret
.LVL89:
.L123:
	.cfi_restore_state
	.loc 1 548 13 is_stmt 1
	.loc 1 565 1 is_stmt 0
	lw	s0,12(sp)
	.cfi_remember_state
	.cfi_restore 8
	.cfi_def_cfa 2, 16
	.loc 1 548 21
	lw	a0,4(a0)
.LVL90:
	.loc 1 565 1
	addi	sp,sp,16
	.cfi_def_cfa_offset 0
	.loc 1 548 21
	tail	mbedtls_sha1_update_ret
.LVL91:
.L121:
	.cfi_restore_state
	.loc 1 553 13 is_stmt 1
	.loc 1 565 1 is_stmt 0
	lw	s0,12(sp)
	.cfi_restore 8
	.cfi_def_cfa 2, 16
	.loc 1 553 21
	lw	a0,4(a0)
.LVL92:
	.loc 1 565 1
	addi	sp,sp,16
	.cfi_def_cfa_offset 0
	.loc 1 553 21
	tail	mbedtls_sha256_update_ret
.LVL93:
	.cfi_endproc
.LFE14:
	.size	mbedtls_md_update, .-mbedtls_md_update
	.section	.text.mbedtls_md_finish,"ax",@progbits
	.align	1
	.globl	mbedtls_md_finish
	.type	mbedtls_md_finish, @function
mbedtls_md_finish:
.LFB15:
	.loc 1 568 1 is_stmt 1
	.cfi_startproc
.LVL94:
	.loc 1 569 5
	.loc 1 568 1 is_stmt 0
	addi	sp,sp,-16
	.cfi_def_cfa_offset 16
	sw	s0,12(sp)
	.cfi_offset 8, -4
	addi	s0,sp,16
	.cfi_def_cfa 8, 0
	.loc 1 569 7
	beq	a0,zero,.L139
	.loc 1 569 26 discriminator 1
	lw	a5,0(a0)
	.loc 1 569 20 discriminator 1
	beq	a5,zero,.L139
	.loc 1 572 5 is_stmt 1
	.loc 1 572 25 is_stmt 0
	lw	a5,4(a5)
	.loc 1 572 5
	li	a4,6
	bgtu	a5,a4,.L132
	li	a4,4
	bgtu	a5,a4,.L133
	li	a3,3
	beq	a5,a3,.L134
	beq	a5,a4,.L135
.L139:
	.loc 1 609 1
	lw	s0,12(sp)
	.cfi_remember_state
	.cfi_restore 8
	.cfi_def_cfa 2, 16
	.loc 1 572 5
	li	a0,-20480
.LVL95:
	addi	a0,a0,-256
	.loc 1 609 1
	addi	sp,sp,16
	.cfi_def_cfa_offset 0
	jr	ra
.LVL96:
.L132:
	.cfi_restore_state
	.loc 1 572 5
	addi	a5,a5,-7
	li	a4,1
	bgtu	a5,a4,.L139
	.loc 1 604 13 is_stmt 1
	.loc 1 609 1 is_stmt 0
	lw	s0,12(sp)
	.cfi_remember_state
	.cfi_restore 8
	.cfi_def_cfa 2, 16
	.loc 1 604 21
	lw	a0,4(a0)
.LVL97:
	.loc 1 609 1
	addi	sp,sp,16
	.cfi_def_cfa_offset 0
	.loc 1 604 21
	tail	mbedtls_sha512_finish_ret
.LVL98:
.L134:
	.cfi_restore_state
	.loc 1 584 13 is_stmt 1
	.loc 1 609 1 is_stmt 0
	lw	s0,12(sp)
	.cfi_remember_state
	.cfi_restore 8
	.cfi_def_cfa 2, 16
	.loc 1 584 21
	lw	a0,4(a0)
.LVL99:
	.loc 1 609 1
	addi	sp,sp,16
	.cfi_def_cfa_offset 0
	.loc 1 584 21
	tail	mbedtls_md5_finish_ret
.LVL100:
.L135:
	.cfi_restore_state
	.loc 1 592 13 is_stmt 1
	.loc 1 609 1 is_stmt 0
	lw	s0,12(sp)
	.cfi_remember_state
	.cfi_restore 8
	.cfi_def_cfa 2, 16
	.loc 1 592 21
	lw	a0,4(a0)
.LVL101:
	.loc 1 609 1
	addi	sp,sp,16
	.cfi_def_cfa_offset 0
	.loc 1 592 21
	tail	mbedtls_sha1_finish_ret
.LVL102:
.L133:
	.cfi_restore_state
	.loc 1 597 13 is_stmt 1
	.loc 1 609 1 is_stmt 0
	lw	s0,12(sp)
	.cfi_restore 8
	.cfi_def_cfa 2, 16
	.loc 1 597 21
	lw	a0,4(a0)
.LVL103:
	.loc 1 609 1
	addi	sp,sp,16
	.cfi_def_cfa_offset 0
	.loc 1 597 21
	tail	mbedtls_sha256_finish_ret
.LVL104:
	.cfi_endproc
.LFE15:
	.size	mbedtls_md_finish, .-mbedtls_md_finish
	.section	.text.mbedtls_md,"ax",@progbits
	.align	1
	.globl	mbedtls_md
	.type	mbedtls_md, @function
mbedtls_md:
.LFB16:
	.loc 1 613 1 is_stmt 1
	.cfi_startproc
.LVL105:
	.loc 1 614 5
	.loc 1 613 1 is_stmt 0
	addi	sp,sp,-16
	.cfi_def_cfa_offset 16
	sw	s0,12(sp)
	.cfi_offset 8, -4
	addi	s0,sp,16
	.cfi_def_cfa 8, 0
	.loc 1 614 7
	beq	a0,zero,.L152
	.loc 1 617 5 is_stmt 1
	lw	a5,4(a0)
	li	a4,5
	addi	a5,a5,-3
	bgtu	a5,a4,.L152
	lui	a4,%hi(.L145)
	slli	a5,a5,2
	addi	a4,a4,%lo(.L145)
	add	a5,a5,a4
	lw	a5,0(a5)
	mv	a0,a1
.LVL106:
	mv	a1,a2
.LVL107:
	mv	a2,a3
.LVL108:
	jr	a5
	.section	.rodata.mbedtls_md,"a",@progbits
	.align	2
	.align	2
.L145:
	.word	.L150
	.word	.L149
	.word	.L148
	.word	.L147
	.word	.L146
	.word	.L144
	.section	.text.mbedtls_md
.L150:
	.loc 1 629 13
	.loc 1 656 1 is_stmt 0
	lw	s0,12(sp)
	.cfi_remember_state
	.cfi_restore 8
	.cfi_def_cfa 2, 16
	addi	sp,sp,16
	.cfi_def_cfa_offset 0
	.loc 1 629 21
	tail	mbedtls_md5_ret
.LVL109:
.L149:
	.cfi_restore_state
	.loc 1 637 13 is_stmt 1
	.loc 1 656 1 is_stmt 0
	lw	s0,12(sp)
	.cfi_remember_state
	.cfi_restore 8
	.cfi_def_cfa 2, 16
	addi	sp,sp,16
	.cfi_def_cfa_offset 0
	.loc 1 637 21
	tail	mbedtls_sha1_ret
.LVL110:
.L148:
	.cfi_restore_state
	.loc 1 641 13 is_stmt 1
	.loc 1 641 21 is_stmt 0
	li	a3,1
.L154:
	.loc 1 656 1
	lw	s0,12(sp)
	.cfi_remember_state
	.cfi_restore 8
	.cfi_def_cfa 2, 16
	addi	sp,sp,16
	.cfi_def_cfa_offset 0
	.loc 1 643 21
	tail	mbedtls_sha256_ret
.LVL111:
.L147:
	.cfi_restore_state
	.loc 1 643 13 is_stmt 1
	.loc 1 643 21 is_stmt 0
	li	a3,0
	j	.L154
.L146:
	.loc 1 648 13 is_stmt 1
	.loc 1 648 21 is_stmt 0
	li	a3,1
.L155:
	.loc 1 656 1
	lw	s0,12(sp)
	.cfi_remember_state
	.cfi_restore 8
	.cfi_def_cfa 2, 16
	addi	sp,sp,16
	.cfi_def_cfa_offset 0
	.loc 1 651 21
	tail	mbedtls_sha512_ret
.LVL112:
.L144:
	.cfi_restore_state
	.loc 1 651 13 is_stmt 1
	.loc 1 651 21 is_stmt 0
	li	a3,0
	j	.L155
.LVL113:
.L152:
	.loc 1 656 1
	lw	s0,12(sp)
	.cfi_restore 8
	.cfi_def_cfa 2, 16
	.loc 1 617 20
	li	a0,-20480
.LVL114:
	addi	a0,a0,-256
	.loc 1 656 1
	addi	sp,sp,16
	.cfi_def_cfa_offset 0
	jr	ra
	.cfi_endproc
.LFE16:
	.size	mbedtls_md, .-mbedtls_md
	.section	.rodata.mbedtls_md_file.str1.4,"aMS",@progbits,1
	.align	2
.LC7:
	.string	"rb"
	.section	.text.mbedtls_md_file,"ax",@progbits
	.align	1
	.globl	mbedtls_md_file
	.type	mbedtls_md_file, @function
mbedtls_md_file:
.LFB17:
	.loc 1 660 1 is_stmt 1
	.cfi_startproc
.LVL115:
	.loc 1 661 5
	.loc 1 662 5
	.loc 1 663 5
	.loc 1 664 5
	.loc 1 665 5
	.loc 1 667 5
	.loc 1 660 1 is_stmt 0
	addi	sp,sp,-1072
	.cfi_def_cfa_offset 1072
	sw	s0,1064(sp)
	sw	s1,1060(sp)
	sw	ra,1068(sp)
	sw	s2,1056(sp)
	sw	s3,1052(sp)
	.cfi_offset 8, -8
	.cfi_offset 9, -12
	.cfi_offset 1, -4
	.cfi_offset 18, -16
	.cfi_offset 19, -20
	addi	s0,sp,1072
	.cfi_def_cfa 8, 0
	.loc 1 660 1
	mv	s1,a0
	.loc 1 667 7
	beq	a0,zero,.L161
	mv	a0,a1
.LVL116:
	.loc 1 670 15
	lui	a1,%hi(.LC7)
.LVL117:
	addi	a1,a1,%lo(.LC7)
	mv	s3,a2
	.loc 1 670 5 is_stmt 1
	.loc 1 670 15 is_stmt 0
	call	fopen
.LVL118:
	mv	s2,a0
.LVL119:
	.loc 1 670 7
	beq	a0,zero,.L162
	.loc 1 673 5 is_stmt 1
	addi	a0,s0,-1068
.LVL120:
	call	mbedtls_md_init
.LVL121:
	.loc 1 675 5
	.loc 1 675 17 is_stmt 0
	mv	a1,s1
	li	a2,0
	addi	a0,s0,-1068
	call	mbedtls_md_setup
.LVL122:
	mv	s1,a0
.LVL123:
	.loc 1 675 7
	bne	a0,zero,.L158
	.loc 1 678 5 is_stmt 1
	.loc 1 678 17 is_stmt 0
	addi	a0,s0,-1068
	call	mbedtls_md_starts
.LVL124:
.L165:
	.loc 1 682 21
	mv	s1,a0
.LVL125:
	.loc 1 682 11
	bne	a0,zero,.L158
	.loc 1 681 10 is_stmt 1
	.loc 1 681 18 is_stmt 0
	li	a2,1024
	mv	a3,s2
	li	a1,1
	addi	a0,s0,-1056
	call	fread
.LVL126:
	mv	a2,a0
.LVL127:
	.loc 1 681 10
	bne	a0,zero,.L160
	.loc 1 685 5 is_stmt 1
	.loc 1 685 20 is_stmt 0
	lhu	a5,12(s2)
	srai	a5,a5,6
	.loc 1 685 7
	andi	a5,a5,1
	bne	a5,zero,.L163
	.loc 1 688 9 is_stmt 1
	.loc 1 688 15 is_stmt 0
	mv	a1,s3
	addi	a0,s0,-1068
.LVL128:
	call	mbedtls_md_finish
.LVL129:
	mv	s1,a0
.LVL130:
.L158:
	.loc 1 691 5 is_stmt 1
	li	a1,1024
	addi	a0,s0,-1056
	call	mbedtls_platform_zeroize
.LVL131:
	.loc 1 692 5
	mv	a0,s2
	call	fclose
.LVL132:
	.loc 1 693 5
	addi	a0,s0,-1068
	call	mbedtls_md_free
.LVL133:
	.loc 1 695 5
.L156:
	.loc 1 696 1 is_stmt 0
	lw	ra,1068(sp)
	.cfi_remember_state
	.cfi_restore 1
	lw	s0,1064(sp)
	.cfi_restore 8
	.cfi_def_cfa 2, 1072
	lw	s2,1056(sp)
	.cfi_restore 18
	lw	s3,1052(sp)
	.cfi_restore 19
	mv	a0,s1
	lw	s1,1060(sp)
	.cfi_restore 9
	addi	sp,sp,1072
	.cfi_def_cfa_offset 0
	jr	ra
.LVL134:
.L160:
	.cfi_restore_state
	.loc 1 682 9 is_stmt 1
	.loc 1 682 21 is_stmt 0
	addi	a1,s0,-1056
	addi	a0,s0,-1068
.LVL135:
	call	mbedtls_md_update
.LVL136:
	j	.L165
.LVL137:
.L163:
	.loc 1 686 13
	li	s1,-20480
.LVL138:
	addi	s1,s1,-512
	j	.L158
.LVL139:
.L161:
	.loc 1 668 15
	li	a0,-20480
	addi	s1,a0,-256
.LVL140:
	j	.L156
.LVL141:
.L162:
	.loc 1 671 15
	li	a0,-20480
.LVL142:
	addi	s1,a0,-512
.LVL143:
	j	.L156
	.cfi_endproc
.LFE17:
	.size	mbedtls_md_file, .-mbedtls_md_file
	.section	.text.mbedtls_md_hmac_starts,"ax",@progbits
	.align	1
	.globl	mbedtls_md_hmac_starts
	.type	mbedtls_md_hmac_starts, @function
mbedtls_md_hmac_starts:
.LFB18:
	.loc 1 700 1 is_stmt 1
	.cfi_startproc
.LVL144:
	.loc 1 701 5
	.loc 1 702 5
	.loc 1 703 5
	.loc 1 704 5
	.loc 1 706 5
	.loc 1 700 1 is_stmt 0
	addi	sp,sp,-96
	.cfi_def_cfa_offset 96
	sw	s0,88(sp)
	sw	ra,92(sp)
	sw	s1,84(sp)
	sw	s2,80(sp)
	sw	s3,76(sp)
	sw	s4,72(sp)
	sw	s5,68(sp)
	.cfi_offset 8, -8
	.cfi_offset 1, -4
	.cfi_offset 9, -12
	.cfi_offset 18, -16
	.cfi_offset 19, -20
	.cfi_offset 20, -24
	.cfi_offset 21, -28
	addi	s0,sp,96
	.cfi_def_cfa 8, 0
	.loc 1 706 7
	beq	a0,zero,.L174
	.loc 1 706 26 discriminator 1
	lw	a5,0(a0)
	mv	s2,a0
	.loc 1 706 20 discriminator 1
	beq	a5,zero,.L174
	.loc 1 706 44 discriminator 2
	lw	a4,8(a0)
	beq	a4,zero,.L174
	.loc 1 709 18
	lbu	a5,9(a5)
	mv	s3,a1
	mv	s4,a2
	.loc 1 709 5 is_stmt 1
	.loc 1 709 7 is_stmt 0
	bgeu	a5,a2,.L168
	.loc 1 711 9 is_stmt 1
	.loc 1 711 21 is_stmt 0
	call	mbedtls_md_starts
.LVL145:
	mv	s1,a0
.LVL146:
	.loc 1 711 11
	bne	a0,zero,.L169
	.loc 1 713 9 is_stmt 1
	.loc 1 713 21 is_stmt 0
	mv	a2,s4
	mv	a1,s3
	mv	a0,s2
	call	mbedtls_md_update
.LVL147:
	mv	s1,a0
.LVL148:
	.loc 1 713 11
	bne	a0,zero,.L169
	.loc 1 715 9 is_stmt 1
	.loc 1 715 21 is_stmt 0
	addi	a1,s0,-96
	mv	a0,s2
	call	mbedtls_md_finish
.LVL149:
	mv	s1,a0
.LVL150:
	.loc 1 715 11
	bne	a0,zero,.L169
	.loc 1 718 9 is_stmt 1
	.loc 1 718 30 is_stmt 0
	lw	a5,0(s2)
	.loc 1 719 13
	addi	s3,s0,-96
.LVL151:
	.loc 1 718 16
	lbu	s4,8(a5)
.LVL152:
	.loc 1 719 9 is_stmt 1
.L168:
	.loc 1 722 5
	.loc 1 723 58 is_stmt 0
	lw	a5,0(s2)
	.loc 1 722 10
	lw	s5,8(s2)
.LVL153:
	.loc 1 723 5 is_stmt 1
	.loc 1 725 5 is_stmt 0
	li	a1,54
	.loc 1 723 58
	lbu	a2,9(a5)
	.loc 1 725 5
	mv	a0,s5
	.loc 1 723 10
	add	s1,s5,a2
.LVL154:
	.loc 1 725 5 is_stmt 1
	call	memset
.LVL155:
	.loc 1 726 5
	.loc 1 726 37 is_stmt 0
	lw	a5,0(s2)
	.loc 1 726 5
	li	a1,92
	mv	a0,s1
	lbu	a2,9(a5)
	call	memset
.LVL156:
	.loc 1 728 5 is_stmt 1
	.loc 1 728 12 is_stmt 0
	li	a5,0
.LVL157:
.L170:
	.loc 1 728 17 is_stmt 1 discriminator 1
	.loc 1 728 5 is_stmt 0 discriminator 1
	bne	s4,a5,.L171
	.loc 1 734 5 is_stmt 1
	.loc 1 734 17 is_stmt 0
	mv	a0,s2
	call	mbedtls_md_starts
.LVL158:
	mv	s1,a0
.LVL159:
	.loc 1 734 7
	bne	a0,zero,.L169
	.loc 1 736 5 is_stmt 1
	.loc 1 737 48 is_stmt 0
	lw	a5,0(s2)
	.loc 1 736 17
	mv	a1,s5
	mv	a0,s2
	lbu	a2,9(a5)
	call	mbedtls_md_update
.LVL160:
	mv	s1,a0
.LVL161:
.L169:
	.loc 1 741 5 is_stmt 1
	li	a1,64
	addi	a0,s0,-96
	call	mbedtls_platform_zeroize
.LVL162:
	.loc 1 743 5
.L166:
	.loc 1 744 1 is_stmt 0
	lw	ra,92(sp)
	.cfi_remember_state
	.cfi_restore 1
	lw	s0,88(sp)
	.cfi_restore 8
	.cfi_def_cfa 2, 96
	lw	s2,80(sp)
	.cfi_restore 18
	lw	s3,76(sp)
	.cfi_restore 19
	lw	s4,72(sp)
	.cfi_restore 20
	lw	s5,68(sp)
	.cfi_restore 21
	mv	a0,s1
	lw	s1,84(sp)
	.cfi_restore 9
	addi	sp,sp,96
	.cfi_def_cfa_offset 0
	jr	ra
.LVL163:
.L171:
	.cfi_restore_state
	.loc 1 730 9 is_stmt 1 discriminator 3
	add	a3,s5,a5
	add	a2,s3,a5
	.loc 1 730 19 is_stmt 0 discriminator 3
	lbu	a4,0(a3)
	lbu	a1,0(a2)
	xor	a4,a4,a1
	.loc 1 730 17 discriminator 3
	sb	a4,0(a3)
	.loc 1 731 9 is_stmt 1 discriminator 3
	add	a3,s1,a5
	.loc 1 731 19 is_stmt 0 discriminator 3
	lbu	a4,0(a3)
	lbu	a2,0(a2)
	.loc 1 728 30 discriminator 3
	addi	a5,a5,1
.LVL164:
	.loc 1 731 19 discriminator 3
	xor	a4,a4,a2
	.loc 1 731 17 discriminator 3
	sb	a4,0(a3)
	.loc 1 728 29 is_stmt 1 discriminator 3
.LVL165:
	j	.L170
.LVL166:
.L174:
	.loc 1 707 15 is_stmt 0
	li	a0,-20480
.LVL167:
	addi	s1,a0,-256
	j	.L166
	.cfi_endproc
.LFE18:
	.size	mbedtls_md_hmac_starts, .-mbedtls_md_hmac_starts
	.section	.text.mbedtls_md_hmac_update,"ax",@progbits
	.align	1
	.globl	mbedtls_md_hmac_update
	.type	mbedtls_md_hmac_update, @function
mbedtls_md_hmac_update:
.LFB19:
	.loc 1 747 1 is_stmt 1
	.cfi_startproc
.LVL168:
	.loc 1 748 5
	.loc 1 747 1 is_stmt 0
	addi	sp,sp,-16
	.cfi_def_cfa_offset 16
	sw	s0,12(sp)
	.cfi_offset 8, -4
	addi	s0,sp,16
	.cfi_def_cfa 8, 0
	.loc 1 748 7
	beq	a0,zero,.L180
	.loc 1 748 20 discriminator 1
	lw	a4,0(a0)
	beq	a4,zero,.L180
	.loc 1 748 44 discriminator 2
	lw	a5,8(a0)
	beq	a5,zero,.L180
	.loc 1 751 5 is_stmt 1
	.loc 1 752 1 is_stmt 0
	lw	s0,12(sp)
	.cfi_remember_state
	.cfi_restore 8
	.cfi_def_cfa 2, 16
	addi	sp,sp,16
	.cfi_def_cfa_offset 0
	.loc 1 751 13
	tail	mbedtls_md_update
.LVL169:
.L180:
	.cfi_restore_state
	.loc 1 752 1
	lw	s0,12(sp)
	.cfi_restore 8
	.cfi_def_cfa 2, 16
	.loc 1 749 15
	li	a0,-20480
.LVL170:
	addi	a0,a0,-256
	.loc 1 752 1
	addi	sp,sp,16
	.cfi_def_cfa_offset 0
	jr	ra
	.cfi_endproc
.LFE19:
	.size	mbedtls_md_hmac_update, .-mbedtls_md_hmac_update
	.section	.text.mbedtls_md_hmac_finish,"ax",@progbits
	.align	1
	.globl	mbedtls_md_hmac_finish
	.type	mbedtls_md_hmac_finish, @function
mbedtls_md_hmac_finish:
.LFB20:
	.loc 1 755 1 is_stmt 1
	.cfi_startproc
.LVL171:
	.loc 1 756 5
	.loc 1 757 5
	.loc 1 758 5
	.loc 1 760 5
	.loc 1 760 7 is_stmt 0
	beq	a0,zero,.L184
	.loc 1 755 1 discriminator 1
	addi	sp,sp,-96
	.cfi_def_cfa_offset 96
	sw	s0,88(sp)
	sw	s1,84(sp)
	sw	ra,92(sp)
	sw	s2,80(sp)
	sw	s3,76(sp)
	sw	s4,72(sp)
	.cfi_offset 8, -8
	.cfi_offset 9, -12
	.cfi_offset 1, -4
	.cfi_offset 18, -16
	.cfi_offset 19, -20
	.cfi_offset 20, -24
	addi	s0,sp,96
	.cfi_def_cfa 8, 0
	.loc 1 760 26 discriminator 1
	lw	a5,0(a0)
	mv	s1,a0
	.loc 1 760 20 discriminator 1
	beq	a5,zero,.L186
	.loc 1 760 50 discriminator 2
	lw	s3,8(a0)
	.loc 1 760 44 discriminator 2
	beq	s3,zero,.L186
	mv	s2,a1
	.loc 1 763 5 is_stmt 1
	.loc 1 765 17 is_stmt 0
	addi	a1,s0,-96
.LVL172:
	.loc 1 763 58
	lbu	s4,9(a5)
.LVL173:
	.loc 1 765 5 is_stmt 1
	.loc 1 765 17 is_stmt 0
	call	mbedtls_md_finish
.LVL174:
	.loc 1 765 7
	bne	a0,zero,.L182
	.loc 1 767 5 is_stmt 1
	.loc 1 767 17 is_stmt 0
	mv	a0,s1
.LVL175:
	call	mbedtls_md_starts
.LVL176:
	.loc 1 767 7
	bne	a0,zero,.L182
	.loc 1 769 5 is_stmt 1
	.loc 1 770 48 is_stmt 0
	lw	a5,0(s1)
	.loc 1 769 17
	add	a1,s3,s4
	mv	a0,s1
.LVL177:
	lbu	a2,9(a5)
	call	mbedtls_md_update
.LVL178:
	.loc 1 769 7
	bne	a0,zero,.L182
	.loc 1 772 5 is_stmt 1
	.loc 1 773 48 is_stmt 0
	lw	a5,0(s1)
	.loc 1 772 17
	addi	a1,s0,-96
	mv	a0,s1
.LVL179:
	lbu	a2,8(a5)
	call	mbedtls_md_update
.LVL180:
	.loc 1 772 7
	bne	a0,zero,.L182
	.loc 1 775 5 is_stmt 1
	.loc 1 775 13 is_stmt 0
	mv	a1,s2
	mv	a0,s1
.LVL181:
	call	mbedtls_md_finish
.LVL182:
.L182:
	.loc 1 776 1
	lw	ra,92(sp)
	.cfi_restore 1
	lw	s0,88(sp)
	.cfi_restore 8
	.cfi_def_cfa 2, 96
	lw	s1,84(sp)
	.cfi_restore 9
.LVL183:
	lw	s2,80(sp)
	.cfi_restore 18
	lw	s3,76(sp)
	.cfi_restore 19
	lw	s4,72(sp)
	.cfi_restore 20
	addi	sp,sp,96
	.cfi_def_cfa_offset 0
	jr	ra
.LVL184:
.L184:
	.loc 1 761 15
	li	a0,-20480
.LVL185:
	addi	a0,a0,-256
	.loc 1 776 1
	ret
.LVL186:
.L186:
	.cfi_def_cfa_register 8
	.cfi_offset 1, -4
	.cfi_offset 8, -8
	.cfi_offset 9, -12
	.cfi_offset 18, -16
	.cfi_offset 19, -20
	.cfi_offset 20, -24
	.loc 1 761 15
	li	a0,-20480
	addi	a0,a0,-256
	j	.L182
	.cfi_endproc
.LFE20:
	.size	mbedtls_md_hmac_finish, .-mbedtls_md_hmac_finish
	.section	.text.mbedtls_md_hmac_reset,"ax",@progbits
	.align	1
	.globl	mbedtls_md_hmac_reset
	.type	mbedtls_md_hmac_reset, @function
mbedtls_md_hmac_reset:
.LFB21:
	.loc 1 779 1 is_stmt 1
	.cfi_startproc
.LVL187:
	.loc 1 780 5
	.loc 1 781 5
	.loc 1 783 5
	.loc 1 783 7 is_stmt 0
	beq	a0,zero,.L193
	.loc 1 779 1 discriminator 1
	addi	sp,sp,-32
	.cfi_def_cfa_offset 32
	sw	s0,24(sp)
	sw	s1,20(sp)
	sw	ra,28(sp)
	.cfi_offset 8, -8
	.cfi_offset 9, -12
	.cfi_offset 1, -4
	addi	s0,sp,32
	.cfi_def_cfa 8, 0
	.loc 1 783 20 discriminator 1
	lw	a5,0(a0)
	mv	s1,a0
	beq	a5,zero,.L195
	.loc 1 783 50 discriminator 2
	lw	a1,8(a0)
	.loc 1 783 44 discriminator 2
	sw	a1,-20(s0)
	beq	a1,zero,.L195
	.loc 1 786 5 is_stmt 1
.LVL188:
	.loc 1 788 5
	.loc 1 788 17 is_stmt 0
	call	mbedtls_md_starts
.LVL189:
	.loc 1 788 7
	bne	a0,zero,.L191
	.loc 1 790 5 is_stmt 1
	.loc 1 790 55 is_stmt 0
	lw	a5,0(s1)
	.loc 1 790 13
	lw	a1,-20(s0)
	.loc 1 791 1
	lw	s0,24(sp)
	.cfi_restore 8
	.cfi_def_cfa 2, 32
.LVL190:
	lw	ra,28(sp)
	.cfi_restore 1
	.loc 1 790 13
	lbu	a2,9(a5)
	mv	a0,s1
.LVL191:
	.loc 1 791 1
	lw	s1,20(sp)
	.cfi_restore 9
.LVL192:
	addi	sp,sp,32
	.cfi_def_cfa_offset 0
	.loc 1 790 13
	tail	mbedtls_md_update
.LVL193:
.L193:
	.loc 1 784 15
	li	a0,-20480
.LVL194:
	addi	a0,a0,-256
	.loc 1 791 1
	ret
.LVL195:
.L195:
	.cfi_def_cfa_register 8
	.cfi_offset 1, -4
	.cfi_offset 8, -8
	.cfi_offset 9, -12
	.loc 1 784 15
	li	a0,-20480
	addi	a0,a0,-256
.LVL196:
.L191:
	.loc 1 791 1
	lw	ra,28(sp)
	.cfi_restore 1
	lw	s0,24(sp)
	.cfi_restore 8
	.cfi_def_cfa 2, 32
	lw	s1,20(sp)
	.cfi_restore 9
.LVL197:
	addi	sp,sp,32
	.cfi_def_cfa_offset 0
	jr	ra
	.cfi_endproc
.LFE21:
	.size	mbedtls_md_hmac_reset, .-mbedtls_md_hmac_reset
	.section	.text.mbedtls_md_hmac,"ax",@progbits
	.align	1
	.globl	mbedtls_md_hmac
	.type	mbedtls_md_hmac, @function
mbedtls_md_hmac:
.LFB22:
	.loc 1 797 1 is_stmt 1
	.cfi_startproc
.LVL198:
	.loc 1 798 5
	.loc 1 799 5
	.loc 1 801 5
	.loc 1 797 1 is_stmt 0
	addi	sp,sp,-48
	.cfi_def_cfa_offset 48
	sw	s0,40(sp)
	sw	ra,44(sp)
	sw	s1,36(sp)
	sw	s2,32(sp)
	sw	s3,28(sp)
	sw	s4,24(sp)
	sw	s5,20(sp)
	sw	s6,16(sp)
	.cfi_offset 8, -8
	.cfi_offset 1, -4
	.cfi_offset 9, -12
	.cfi_offset 18, -16
	.cfi_offset 19, -20
	.cfi_offset 20, -24
	.cfi_offset 21, -28
	.cfi_offset 22, -32
	addi	s0,sp,48
	.cfi_def_cfa 8, 0
	.loc 1 801 7
	beq	a0,zero,.L203
	mv	s1,a0
	.loc 1 804 5
	addi	a0,s0,-44
.LVL199:
	mv	s5,a1
	mv	s6,a2
	mv	s3,a3
	mv	s4,a4
	mv	s2,a5
	.loc 1 804 5 is_stmt 1
	call	mbedtls_md_init
.LVL200:
	.loc 1 806 5
	.loc 1 806 17 is_stmt 0
	mv	a1,s1
	li	a2,1
	addi	a0,s0,-44
	call	mbedtls_md_setup
.LVL201:
	mv	s1,a0
.LVL202:
	.loc 1 806 7
	bne	a0,zero,.L202
	.loc 1 809 5 is_stmt 1
	.loc 1 809 17 is_stmt 0
	mv	a2,s6
	mv	a1,s5
	addi	a0,s0,-44
	call	mbedtls_md_hmac_starts
.LVL203:
	mv	s1,a0
.LVL204:
	.loc 1 809 7
	bne	a0,zero,.L202
	.loc 1 811 5 is_stmt 1
	.loc 1 811 17 is_stmt 0
	mv	a2,s4
	mv	a1,s3
	addi	a0,s0,-44
	call	mbedtls_md_hmac_update
.LVL205:
	mv	s1,a0
.LVL206:
	.loc 1 811 7
	bne	a0,zero,.L202
	.loc 1 813 5 is_stmt 1
	.loc 1 813 17 is_stmt 0
	mv	a1,s2
	addi	a0,s0,-44
	call	mbedtls_md_hmac_finish
.LVL207:
	mv	s1,a0
.LVL208:
.L202:
	.loc 1 817 5 is_stmt 1
	addi	a0,s0,-44
	call	mbedtls_md_free
.LVL209:
	.loc 1 819 5
.L200:
	.loc 1 820 1 is_stmt 0
	lw	ra,44(sp)
	.cfi_remember_state
	.cfi_restore 1
	lw	s0,40(sp)
	.cfi_restore 8
	.cfi_def_cfa 2, 48
	lw	s2,32(sp)
	.cfi_restore 18
	lw	s3,28(sp)
	.cfi_restore 19
	lw	s4,24(sp)
	.cfi_restore 20
	lw	s5,20(sp)
	.cfi_restore 21
	lw	s6,16(sp)
	.cfi_restore 22
	mv	a0,s1
	lw	s1,36(sp)
	.cfi_restore 9
	addi	sp,sp,48
	.cfi_def_cfa_offset 0
	jr	ra
.LVL210:
.L203:
	.cfi_restore_state
	.loc 1 802 15
	li	a0,-20480
.LVL211:
	addi	s1,a0,-256
	j	.L200
	.cfi_endproc
.LFE22:
	.size	mbedtls_md_hmac, .-mbedtls_md_hmac
	.section	.text.mbedtls_md_process,"ax",@progbits
	.align	1
	.globl	mbedtls_md_process
	.type	mbedtls_md_process, @function
mbedtls_md_process:
.LFB23:
	.loc 1 823 1 is_stmt 1
	.cfi_startproc
.LVL212:
	.loc 1 824 5
	.loc 1 823 1 is_stmt 0
	addi	sp,sp,-16
	.cfi_def_cfa_offset 16
	sw	s0,12(sp)
	.cfi_offset 8, -4
	addi	s0,sp,16
	.cfi_def_cfa 8, 0
	.loc 1 824 7
	beq	a0,zero,.L214
	.loc 1 824 26 discriminator 1
	lw	a5,0(a0)
	.loc 1 824 20 discriminator 1
	beq	a5,zero,.L214
	.loc 1 827 5 is_stmt 1
	.loc 1 827 25 is_stmt 0
	lw	a5,4(a5)
	.loc 1 827 5
	li	a4,6
	bgtu	a5,a4,.L207
	li	a4,4
	bgtu	a5,a4,.L208
	li	a3,3
	beq	a5,a3,.L209
	beq	a5,a4,.L210
.L214:
	.loc 1 864 1
	lw	s0,12(sp)
	.cfi_remember_state
	.cfi_restore 8
	.cfi_def_cfa 2, 16
	.loc 1 827 5
	li	a0,-20480
.LVL213:
	addi	a0,a0,-256
	.loc 1 864 1
	addi	sp,sp,16
	.cfi_def_cfa_offset 0
	jr	ra
.LVL214:
.L207:
	.cfi_restore_state
	.loc 1 827 5
	addi	a5,a5,-7
	li	a4,1
	bgtu	a5,a4,.L214
	.loc 1 859 13 is_stmt 1
	.loc 1 864 1 is_stmt 0
	lw	s0,12(sp)
	.cfi_remember_state
	.cfi_restore 8
	.cfi_def_cfa 2, 16
	.loc 1 859 21
	lw	a0,4(a0)
.LVL215:
	.loc 1 864 1
	addi	sp,sp,16
	.cfi_def_cfa_offset 0
	.loc 1 859 21
	tail	mbedtls_internal_sha512_process
.LVL216:
.L209:
	.cfi_restore_state
	.loc 1 839 13 is_stmt 1
	.loc 1 864 1 is_stmt 0
	lw	s0,12(sp)
	.cfi_remember_state
	.cfi_restore 8
	.cfi_def_cfa 2, 16
	.loc 1 839 21
	lw	a0,4(a0)
.LVL217:
	.loc 1 864 1
	addi	sp,sp,16
	.cfi_def_cfa_offset 0
	.loc 1 839 21
	tail	mbedtls_internal_md5_process
.LVL218:
.L210:
	.cfi_restore_state
	.loc 1 847 13 is_stmt 1
	.loc 1 864 1 is_stmt 0
	lw	s0,12(sp)
	.cfi_remember_state
	.cfi_restore 8
	.cfi_def_cfa 2, 16
	.loc 1 847 21
	lw	a0,4(a0)
.LVL219:
	.loc 1 864 1
	addi	sp,sp,16
	.cfi_def_cfa_offset 0
	.loc 1 847 21
	tail	mbedtls_internal_sha1_process
.LVL220:
.L208:
	.cfi_restore_state
	.loc 1 852 13 is_stmt 1
	.loc 1 864 1 is_stmt 0
	lw	s0,12(sp)
	.cfi_restore 8
	.cfi_def_cfa 2, 16
	.loc 1 852 21
	lw	a0,4(a0)
.LVL221:
	.loc 1 864 1
	addi	sp,sp,16
	.cfi_def_cfa_offset 0
	.loc 1 852 21
	tail	mbedtls_internal_sha256_process
.LVL222:
	.cfi_endproc
.LFE23:
	.size	mbedtls_md_process, .-mbedtls_md_process
	.section	.text.mbedtls_md_get_size,"ax",@progbits
	.align	1
	.globl	mbedtls_md_get_size
	.type	mbedtls_md_get_size, @function
mbedtls_md_get_size:
.LFB24:
	.loc 1 867 1 is_stmt 1
	.cfi_startproc
.LVL223:
	.loc 1 868 5
	.loc 1 867 1 is_stmt 0
	addi	sp,sp,-16
	.cfi_def_cfa_offset 16
	sw	s0,12(sp)
	.cfi_offset 8, -4
	addi	s0,sp,16
	.cfi_def_cfa 8, 0
	.loc 1 868 7
	beq	a0,zero,.L219
	.loc 1 871 5 is_stmt 1
	.loc 1 871 19 is_stmt 0
	lbu	a0,8(a0)
.LVL224:
.L218:
	.loc 1 872 1
	lw	s0,12(sp)
	.cfi_remember_state
	.cfi_restore 8
	.cfi_def_cfa 2, 16
	addi	sp,sp,16
	.cfi_def_cfa_offset 0
	jr	ra
.LVL225:
.L219:
	.cfi_restore_state
	.loc 1 869 15
	li	a0,0
.LVL226:
	j	.L218
	.cfi_endproc
.LFE24:
	.size	mbedtls_md_get_size, .-mbedtls_md_get_size
	.section	.text.mbedtls_md_get_type,"ax",@progbits
	.align	1
	.globl	mbedtls_md_get_type
	.type	mbedtls_md_get_type, @function
mbedtls_md_get_type:
.LFB25:
	.loc 1 875 1 is_stmt 1
	.cfi_startproc
.LVL227:
	.loc 1 876 5
	.loc 1 875 1 is_stmt 0
	addi	sp,sp,-16
	.cfi_def_cfa_offset 16
	sw	s0,12(sp)
	.cfi_offset 8, -4
	addi	s0,sp,16
	.cfi_def_cfa 8, 0
	.loc 1 876 7
	beq	a0,zero,.L223
	.loc 1 879 5 is_stmt 1
	.loc 1 879 19 is_stmt 0
	lw	a0,4(a0)
.LVL228:
.L221:
	.loc 1 880 1
	lw	s0,12(sp)
	.cfi_remember_state
	.cfi_restore 8
	.cfi_def_cfa 2, 16
	addi	sp,sp,16
	.cfi_def_cfa_offset 0
	jr	ra
.LVL229:
.L223:
	.cfi_restore_state
	.loc 1 877 15
	li	a0,0
.LVL230:
	j	.L221
	.cfi_endproc
.LFE25:
	.size	mbedtls_md_get_type, .-mbedtls_md_get_type
	.section	.text.mbedtls_md_get_name,"ax",@progbits
	.align	1
	.globl	mbedtls_md_get_name
	.type	mbedtls_md_get_name, @function
mbedtls_md_get_name:
.LFB26:
	.loc 1 883 1 is_stmt 1
	.cfi_startproc
.LVL231:
	.loc 1 884 5
	.loc 1 883 1 is_stmt 0
	addi	sp,sp,-16
	.cfi_def_cfa_offset 16
	sw	s0,12(sp)
	.cfi_offset 8, -4
	addi	s0,sp,16
	.cfi_def_cfa 8, 0
	.loc 1 884 7
	beq	a0,zero,.L226
	.loc 1 887 5 is_stmt 1
	.loc 1 887 19 is_stmt 0
	lw	a0,0(a0)
.LVL232:
.L226:
	.loc 1 888 1
	lw	s0,12(sp)
	.cfi_restore 8
	.cfi_def_cfa 2, 16
	addi	sp,sp,16
	.cfi_def_cfa_offset 0
	jr	ra
	.cfi_endproc
.LFE26:
	.size	mbedtls_md_get_name, .-mbedtls_md_get_name
	.globl	mbedtls_sha512_info
	.globl	mbedtls_sha384_info
	.globl	mbedtls_sha256_info
	.globl	mbedtls_sha224_info
	.globl	mbedtls_sha1_info
	.globl	mbedtls_md5_info
	.section	.rodata.CSWTCH.2,"a"
	.align	2
	.set	.LANCHOR7,. + 0
	.type	CSWTCH.2, @object
	.size	CSWTCH.2, 24
CSWTCH.2:
	.word	mbedtls_md5_info
	.word	mbedtls_sha1_info
	.word	mbedtls_sha224_info
	.word	mbedtls_sha256_info
	.word	mbedtls_sha384_info
	.word	mbedtls_sha512_info
	.section	.rodata.mbedtls_md5_info,"a"
	.align	2
	.set	.LANCHOR4,. + 0
	.type	mbedtls_md5_info, @object
	.size	mbedtls_md5_info, 12
mbedtls_md5_info:
	.word	.LC0
	.word	3
	.byte	16
	.byte	64
	.zero	2
	.section	.rodata.mbedtls_sha1_info,"a"
	.align	2
	.set	.LANCHOR2,. + 0
	.type	mbedtls_sha1_info, @object
	.size	mbedtls_sha1_info, 12
mbedtls_sha1_info:
	.word	.LC1
	.word	4
	.byte	20
	.byte	64
	.zero	2
	.section	.rodata.mbedtls_sha224_info,"a"
	.align	2
	.set	.LANCHOR5,. + 0
	.type	mbedtls_sha224_info, @object
	.size	mbedtls_sha224_info, 12
mbedtls_sha224_info:
	.word	.LC3
	.word	5
	.byte	28
	.byte	64
	.zero	2
	.section	.rodata.mbedtls_sha256_info,"a"
	.align	2
	.set	.LANCHOR3,. + 0
	.type	mbedtls_sha256_info, @object
	.size	mbedtls_sha256_info, 12
mbedtls_sha256_info:
	.word	.LC4
	.word	6
	.byte	32
	.byte	64
	.zero	2
	.section	.rodata.mbedtls_sha384_info,"a"
	.align	2
	.set	.LANCHOR1,. + 0
	.type	mbedtls_sha384_info, @object
	.size	mbedtls_sha384_info, 12
mbedtls_sha384_info:
	.word	.LC5
	.word	7
	.byte	48
	.byte	-128
	.zero	2
	.section	.rodata.mbedtls_sha512_info,"a"
	.align	2
	.set	.LANCHOR6,. + 0
	.type	mbedtls_sha512_info, @object
	.size	mbedtls_sha512_info, 12
mbedtls_sha512_info:
	.word	.LC6
	.word	8
	.byte	64
	.byte	-128
	.zero	2
	.section	.rodata.supported_digests,"a"
	.align	2
	.set	.LANCHOR0,. + 0
	.type	supported_digests, @object
	.size	supported_digests, 28
supported_digests:
	.word	8
	.word	7
	.word	6
	.word	5
	.word	4
	.word	3
	.word	0
	.text
.Letext0:
	.file 2 "/home/quanghaictu/intern/Ai-Thinker-WB2/toolchain/riscv/Linux/lib/gcc/riscv64-unknown-elf/10.2.0/include/stddef.h"
	.file 3 "/home/quanghaictu/intern/Ai-Thinker-WB2/components/security/mbedtls_lts/mbedtls/include/mbedtls/md.h"
	.file 4 "/home/quanghaictu/intern/Ai-Thinker-WB2/components/security/mbedtls_lts/mbedtls/include/mbedtls/md_internal.h"
	.file 5 "/home/quanghaictu/intern/Ai-Thinker-WB2/toolchain/riscv/Linux/riscv64-unknown-elf/include/sys/_types.h"
	.file 6 "/home/quanghaictu/intern/Ai-Thinker-WB2/toolchain/riscv/Linux/riscv64-unknown-elf/include/sys/reent.h"
	.file 7 "/home/quanghaictu/intern/Ai-Thinker-WB2/toolchain/riscv/Linux/riscv64-unknown-elf/include/sys/lock.h"
	.file 8 "/home/quanghaictu/intern/Ai-Thinker-WB2/toolchain/riscv/Linux/riscv64-unknown-elf/include/stdio.h"
	.file 9 "/home/quanghaictu/intern/Ai-Thinker-WB2/components/security/mbedtls_lts/mbedtls/include/mbedtls/sha512.h"
	.file 10 "/home/quanghaictu/intern/Ai-Thinker-WB2/components/security/mbedtls_lts/mbedtls/include/mbedtls/md5.h"
	.file 11 "/home/quanghaictu/intern/Ai-Thinker-WB2/components/security/mbedtls_lts/mbedtls/include/mbedtls/sha1.h"
	.file 12 "/home/quanghaictu/intern/Ai-Thinker-WB2/components/security/mbedtls_lts/mbedtls/include/mbedtls/sha256.h"
	.file 13 "/home/quanghaictu/intern/Ai-Thinker-WB2/toolchain/riscv/Linux/riscv64-unknown-elf/include/string.h"
	.file 14 "/home/quanghaictu/intern/Ai-Thinker-WB2/components/security/mbedtls_lts/mbedtls/include/mbedtls/platform_util.h"
	.file 15 "/home/quanghaictu/intern/Ai-Thinker-WB2/components/security/mbedtls_lts/mbedtls/include/mbedtls/platform.h"