	.file	"md5.c"
	.option nopic
	.attribute arch, "rv32i2p0_m2p0_f2p0_c2p0"
	.attribute unaligned_access, 0
	.attribute stack_align, 16
	.text
.Ltext0:
	.cfi_sections	.debug_frame
	.section	.text.mbedtls_md5_init,"ax",@progbits
	.align	1
	.globl	mbedtls_md5_init
	.type	mbedtls_md5_init, @function
mbedtls_md5_init:
.LFB2:
	.file 1 "/home/dinhquangha/Ai-Thinker-WB2/components/security/mbedtls_lts/mbedtls/library/md5.c"
	.loc 1 47 1
	.cfi_startproc
.LVL0:
	.loc 1 48 5
	.loc 1 47 1 is_stmt 0
	addi	sp,sp,-16
	.cfi_def_cfa_offset 16
	sw	s0,12(sp)
	.cfi_offset 8, -4
	addi	s0,sp,16
	.cfi_def_cfa 8, 0
	.loc 1 49 1
	lw	s0,12(sp)
	.cfi_restore 8
	.cfi_def_cfa 2, 16
	.loc 1 48 5
	li	a2,88
	li	a1,0
	.loc 1 49 1
	addi	sp,sp,16
	.cfi_def_cfa_offset 0
	.loc 1 48 5
	tail	memset
.LVL1:
	.cfi_endproc
.LFE2:
	.size	mbedtls_md5_init, .-mbedtls_md5_init
	.section	.text.mbedtls_md5_free,"ax",@progbits
	.align	1
	.globl	mbedtls_md5_free
	.type	mbedtls_md5_free, @function
mbedtls_md5_free:
.LFB3:
	.loc 1 52 1 is_stmt 1
	.cfi_startproc
.LVL2:
	.loc 1 53 5
	.loc 1 52 1 is_stmt 0
	addi	sp,sp,-16
	.cfi_def_cfa_offset 16
	sw	s0,12(sp)
	.cfi_offset 8, -4
	addi	s0,sp,16
	.cfi_def_cfa 8, 0
	.loc 1 53 7
	beq	a0,zero,.L3
	.loc 1 56 5 is_stmt 1
	.loc 1 57 1 is_stmt 0
	lw	s0,12(sp)
	.cfi_remember_state
	.cfi_restore 8
	.cfi_def_cfa 2, 16
	.loc 1 56 5
	li	a1,88
	.loc 1 57 1
	addi	sp,sp,16
	.cfi_def_cfa_offset 0
	.loc 1 56 5
	tail	mbedtls_platform_zeroize
.LVL3:
.L3:
	.cfi_restore_state
	.loc 1 57 1
	lw	s0,12(sp)
	.cfi_restore 8
	.cfi_def_cfa 2, 16
	addi	sp,sp,16
	.cfi_def_cfa_offset 0
	jr	ra
	.cfi_endproc
.LFE3:
	.size	mbedtls_md5_free, .-mbedtls_md5_free
	.section	.text.mbedtls_md5_clone,"ax",@progbits
	.align	1
	.globl	mbedtls_md5_clone
	.type	mbedtls_md5_clone, @function
mbedtls_md5_clone:
.LFB4:
	.loc 1 61 1 is_stmt 1
	.cfi_startproc
.LVL4:
	.loc 1 62 5
	.loc 1 61 1 is_stmt 0
	addi	sp,sp,-16
	.cfi_def_cfa_offset 16
	sw	s0,8(sp)
	sw	ra,12(sp)
	.cfi_offset 8, -8
	.cfi_offset 1, -4
	addi	s0,sp,16
	.cfi_def_cfa 8, 0
	.loc 1 62 10
	li	a2,88
	call	memcpy
.LVL5:
	.loc 1 63 1
	lw	ra,12(sp)
	.cfi_restore 1
	lw	s0,8(sp)
	.cfi_restore 8
	.cfi_def_cfa 2, 16
	addi	sp,sp,16
	.cfi_def_cfa_offset 0
	jr	ra
	.cfi_endproc
.LFE4:
	.size	mbedtls_md5_clone, .-mbedtls_md5_clone
	.section	.text.mbedtls_md5_starts_ret,"ax",@progbits
	.align	1
	.globl	mbedtls_md5_starts_ret
	.type	mbedtls_md5_starts_ret, @function
mbedtls_md5_starts_ret:
.LFB5:
	.loc 1 69 1 is_stmt 1
	.cfi_startproc
.LVL6:
	.loc 1 70 5
	.loc 1 69 1 is_stmt 0
	addi	sp,sp,-16
	.cfi_def_cfa_offset 16
	sw	s0,12(sp)
	.loc 1 73 19
	li	a5,1732583424
	.cfi_offset 8, -4
	.loc 1 69 1
	addi	s0,sp,16
	.cfi_def_cfa 8, 0
	.loc 1 73 19
	addi	a5,a5,769
	sw	a5,8(a0)
	.loc 1 74 19
	li	a5,-271732736
	addi	a5,a5,-1143
	sw	a5,12(a0)
	.loc 1 75 19
	li	a5,-1732583424
	addi	a5,a5,-770
	sw	a5,16(a0)
	.loc 1 76 19
	li	a5,271732736
	addi	a5,a5,1142
	.loc 1 70 19
	sw	zero,0(a0)
	.loc 1 71 5 is_stmt 1
	.loc 1 71 19 is_stmt 0
	sw	zero,4(a0)
	.loc 1 73 5 is_stmt 1
	.loc 1 74 5
	.loc 1 75 5
	.loc 1 76 5
	.loc 1 76 19 is_stmt 0
	sw	a5,20(a0)
	.loc 1 78 5 is_stmt 1
	.loc 1 79 1 is_stmt 0
	lw	s0,12(sp)
	.cfi_restore 8
	.cfi_def_cfa 2, 16
	li	a0,0
.LVL7:
	addi	sp,sp,16
	.cfi_def_cfa_offset 0
	jr	ra
	.cfi_endproc
.LFE5:
	.size	mbedtls_md5_starts_ret, .-mbedtls_md5_starts_ret
	.section	.text.mbedtls_md5_starts,"ax",@progbits
	.align	1
	.globl	mbedtls_md5_starts
	.type	mbedtls_md5_starts, @function
mbedtls_md5_starts:
.LFB6:
	.loc 1 83 1 is_stmt 1
	.cfi_startproc
.LVL8:
	.loc 1 84 5
	.loc 1 83 1 is_stmt 0
	addi	sp,sp,-16
	.cfi_def_cfa_offset 16
	sw	s0,12(sp)
	.cfi_offset 8, -4
	addi	s0,sp,16
	.cfi_def_cfa 8, 0
	.loc 1 85 1
	lw	s0,12(sp)
	.cfi_restore 8
	.cfi_def_cfa 2, 16
	addi	sp,sp,16
	.cfi_def_cfa_offset 0
	.loc 1 84 5
	tail	mbedtls_md5_starts_ret
.LVL9:
	.cfi_endproc
.LFE6:
	.size	mbedtls_md5_starts, .-mbedtls_md5_starts
	.section	.text.mbedtls_internal_md5_process,"ax",@progbits
	.align	1
	.globl	mbedtls_internal_md5_process
	.type	mbedtls_internal_md5_process, @function
mbedtls_internal_md5_process:
.LFB7:
	.loc 1 91 1 is_stmt 1
	.cfi_startproc
.LVL10:
	.loc 1 92 5
	.loc 1 97 5
	.loc 1 91 1 is_stmt 0
	addi	sp,sp,-144
	.cfi_def_cfa_offset 144
	sw	ra,140(sp)
	sw	s0,136(sp)
	sw	s2,128(sp)
	.cfi_offset 1, -4
	.cfi_offset 8, -8
	.cfi_offset 18, -16
	addi	s0,sp,144
	.cfi_def_cfa 8, 0
	sw	s3,124(sp)
	sw	s4,120(sp)
	sw	s5,116(sp)
	sw	s6,112(sp)
	sw	s7,108(sp)
	sw	s8,104(sp)
	sw	s9,100(sp)
	sw	s10,96(sp)
	sw	s11,92(sp)
	sw	s1,132(sp)
	.cfi_offset 19, -20
	.cfi_offset 20, -24
	.cfi_offset 21, -28
	.cfi_offset 22, -32
	.cfi_offset 23, -36
	.cfi_offset 24, -40
	.cfi_offset 25, -44
	.cfi_offset 26, -48
	.cfi_offset 27, -52
	.cfi_offset 9, -12
	.loc 1 97 138
	lbu	a5,1(a1)
	lbu	s1,0(a1)
	.loc 1 98 138
	lbu	t3,4(a1)
	.loc 1 97 138
	slli	a5,a5,8
	or	a5,a5,s1
	lbu	s1,2(a1)
	.loc 1 99 138
	lbu	a4,8(a1)
	.loc 1 100 141
	lbu	t5,12(a1)
	.loc 1 97 138
	slli	s1,s1,16
	or	a5,s1,a5
	lbu	s1,3(a1)
	.loc 1 131 20
	li	s6,-680878080
	addi	s6,s6,1144
	.loc 1 97 138
	slli	s1,s1,24
	or	s1,s1,a5
	.loc 1 98 138
	lbu	a5,5(a1)
	.loc 1 97 17
	sw	s1,-144(s0)
	.loc 1 98 5 is_stmt 1
	.loc 1 132 20 is_stmt 0
	li	s7,-389566464
	.loc 1 98 138
	slli	a5,a5,8
	or	a5,a5,t3
	lbu	t3,6(a1)
	.loc 1 132 20
	addi	s7,s7,1878
	.loc 1 134 20
	li	s5,-1044525056
	.loc 1 98 138
	slli	t3,t3,16
	or	a5,t3,a5
	lbu	t3,7(a1)
	.loc 1 134 20
	addi	s5,s5,-274
	.loc 1 135 20
	li	s9,-176418816
	.loc 1 98 138
	slli	t3,t3,24
	or	t3,t3,a5
	.loc 1 99 138
	lbu	a5,9(a1)
	.loc 1 98 17
	sw	t3,-140(s0)
	.loc 1 99 5 is_stmt 1
	.loc 1 135 20 is_stmt 0
	addi	s9,s9,-81
	.loc 1 99 138
	slli	a5,a5,8
	or	a5,a5,a4
	lbu	a4,10(a1)
	slli	a4,a4,16
	or	a5,a4,a5
	lbu	a4,11(a1)
	slli	a4,a4,24
	or	a4,a4,a5
	.loc 1 100 141
	lbu	a5,13(a1)
	.loc 1 99 17
	sw	a4,-136(s0)
	.loc 1 100 5 is_stmt 1
	.loc 1 100 141 is_stmt 0
	slli	a5,a5,8
	or	a5,a5,t5
	lbu	t5,14(a1)
	slli	t5,t5,16
	or	a5,t5,a5
	lbu	t5,15(a1)
	.loc 1 101 141
	lbu	a2,16(a1)
	.loc 1 102 141
	lbu	t0,20(a1)
	.loc 1 100 141
	slli	t5,t5,24
	or	t5,t5,a5
	.loc 1 101 141
	lbu	a5,17(a1)
	.loc 1 103 141
	lbu	a7,24(a1)
	.loc 1 104 141
	lbu	ra,28(a1)
	.loc 1 101 141
	slli	a5,a5,8
	or	a5,a5,a2
	lbu	a2,18(a1)
	.loc 1 105 141
	lbu	t1,32(a1)
	.loc 1 106 141
	lbu	a3,37(a1)
	.loc 1 101 141
	slli	a2,a2,16
	or	a5,a2,a5
	lbu	a2,19(a1)
	.loc 1 106 141
	slli	a3,a3,8
	.loc 1 100 17
	sw	t5,-132(s0)
	.loc 1 101 5 is_stmt 1
	.loc 1 101 141 is_stmt 0
	slli	a2,a2,24
	or	a2,a2,a5
	.loc 1 102 141
	lbu	a5,21(a1)
	.loc 1 101 17
	sw	a2,-128(s0)
	.loc 1 102 5 is_stmt 1
	.loc 1 135 20 is_stmt 0
	add	s9,a2,s9
	.loc 1 102 141
	slli	a5,a5,8
	or	a5,a5,t0
	lbu	t0,22(a1)
	slli	t0,t0,16
	or	a5,t0,a5
	lbu	t0,23(a1)
	slli	t0,t0,24
	or	t0,t0,a5
	.loc 1 103 141
	lbu	a5,25(a1)
	.loc 1 102 17
	sw	t0,-124(s0)
	.loc 1 103 5 is_stmt 1
	.loc 1 103 141 is_stmt 0
	slli	a5,a5,8
	or	a5,a5,a7
	lbu	a7,26(a1)
	slli	a7,a7,16
	or	a5,a7,a5
	lbu	a7,27(a1)
	slli	a7,a7,24
	or	a7,a7,a5
	.loc 1 104 141
	lbu	a5,29(a1)
	.loc 1 103 17
	sw	a7,-120(s0)
	.loc 1 104 5 is_stmt 1
	.loc 1 104 141 is_stmt 0
	slli	a5,a5,8
	or	a5,a5,ra
	lbu	ra,30(a1)
	slli	ra,ra,16
	or	a5,ra,a5
	lbu	ra,31(a1)
	slli	ra,ra,24
	or	ra,ra,a5
	.loc 1 105 141
	lbu	a5,33(a1)
	.loc 1 104 17
	sw	ra,-116(s0)
	.loc 1 105 5 is_stmt 1
	.loc 1 105 141 is_stmt 0
	slli	a5,a5,8
	or	a5,a5,t1
	lbu	t1,34(a1)
	slli	t1,t1,16
	or	a5,t1,a5
	lbu	t1,35(a1)
	slli	t1,t1,24
	or	t1,t1,a5
	.loc 1 106 141
	lbu	a5,36(a1)
	.loc 1 105 17
	sw	t1,-112(s0)
	.loc 1 106 5 is_stmt 1
	.loc 1 106 141 is_stmt 0
	or	a3,a3,a5
	lbu	a5,38(a1)
	slli	a5,a5,16
	or	a3,a5,a3
	lbu	a5,39(a1)
	slli	a5,a5,24
	or	a5,a5,a3
	.loc 1 106 17
	sw	a5,-108(s0)
	.loc 1 107 5 is_stmt 1
	.loc 1 107 141 is_stmt 0
	lbu	t4,40(a1)
	lbu	a3,41(a1)
	.loc 1 108 141
	lbu	a6,45(a1)
	.loc 1 109 141
	lbu	t6,48(a1)
	.loc 1 107 141
	slli	a3,a3,8
	or	a3,a3,t4
	lbu	t4,42(a1)
	.loc 1 108 141
	slli	a6,a6,8
	.loc 1 110 141
	lbu	t2,53(a1)
	.loc 1 107 141
	slli	t4,t4,16
	or	a3,t4,a3
	lbu	t4,43(a1)
	.loc 1 110 141
	slli	t2,t2,8
	.loc 1 111 141
	lbu	s2,57(a1)
	.loc 1 107 141
	slli	t4,t4,24
	or	t4,t4,a3
	.loc 1 108 141
	lbu	a3,44(a1)
	.loc 1 111 141
	slli	s2,s2,8
	.loc 1 112 141
	lbu	s3,60(a1)
	.loc 1 108 141
	or	a6,a6,a3
	lbu	a3,46(a1)
	.loc 1 125 25
	lw	s4,12(a0)
	.loc 1 126 25
	lw	s8,16(a0)
	.loc 1 108 141
	slli	a3,a3,16
	or	a6,a3,a6
	lbu	a3,47(a1)
	.loc 1 107 17
	sw	t4,-104(s0)
	.loc 1 108 5 is_stmt 1
	.loc 1 134 20 is_stmt 0
	add	s5,s4,s5
	.loc 1 108 141
	slli	a3,a3,24
	or	a3,a3,a6
	.loc 1 109 141
	lbu	a6,49(a1)
	.loc 1 108 17
	sw	a3,-100(s0)
	.loc 1 109 5 is_stmt 1
	.loc 1 134 20 is_stmt 0
	add	s5,s5,t5
	.loc 1 109 141
	slli	a6,a6,8
	or	a6,a6,t6
	lbu	t6,50(a1)
	slli	t6,t6,16
	or	a6,t6,a6
	lbu	t6,51(a1)
	slli	t6,t6,24
	or	t6,t6,a6
	.loc 1 110 141
	lbu	a6,52(a1)
	.loc 1 109 17
	sw	t6,-96(s0)
	.loc 1 110 5 is_stmt 1
	.loc 1 110 141 is_stmt 0
	or	t2,t2,a6
	lbu	a6,54(a1)
	slli	a6,a6,16
	or	t2,a6,t2
	lbu	a6,55(a1)
	slli	a6,a6,24
	or	a6,a6,t2
	.loc 1 111 141
	lbu	t2,56(a1)
	.loc 1 110 17
	sw	a6,-92(s0)
	.loc 1 111 5 is_stmt 1
	.loc 1 111 141 is_stmt 0
	or	s2,s2,t2
	lbu	t2,58(a1)
	slli	t2,t2,16
	or	s2,t2,s2
	lbu	t2,59(a1)
	slli	t2,t2,24
	or	t2,t2,s2
	.loc 1 112 141
	lbu	s2,61(a1)
	.loc 1 111 17
	sw	t2,-88(s0)
	.loc 1 112 5 is_stmt 1
	.loc 1 112 141 is_stmt 0
	slli	s2,s2,8
	or	s3,s2,s3
	lbu	s2,62(a1)
	lbu	a1,63(a1)
.LVL11:
	slli	s2,s2,16
	or	s2,s2,s3
	slli	a1,a1,24
	or	a1,a1,s2
	.loc 1 112 17
	sw	a1,-84(s0)
	.loc 1 124 5 is_stmt 1
	.loc 1 125 5
	.loc 1 126 5
	.loc 1 127 5
	.loc 1 127 25 is_stmt 0
	lw	s10,20(a0)
	.loc 1 131 5 is_stmt 1
	.loc 1 131 10
	.loc 1 131 114
	.loc 1 131 20 is_stmt 0
	lw	s3,8(a0)
	.loc 1 131 66
	xor	s2,s8,s10
	.loc 1 131 51
	and	s2,s2,s4
	.loc 1 131 20
	add	s6,s3,s6
	add	s6,s6,s1
	.loc 1 131 36
	xor	s2,s2,s10
	.loc 1 131 20
	add	s2,s2,s6
	.loc 1 131 153
	slli	s6,s2,7
	srli	s2,s2,25
	or	s2,s6,s2
	.loc 1 131 207
	add	s6,s2,s4
	.loc 1 131 227 is_stmt 1
	.loc 1 132 5
	.loc 1 132 10
	.loc 1 132 114
	.loc 1 132 66 is_stmt 0
	xor	s2,s4,s8
	.loc 1 132 51
	and	s2,s2,s6
	.loc 1 132 20
	add	s7,s10,s7
	add	s7,s7,t3
	.loc 1 132 36
	xor	s2,s2,s8
	.loc 1 132 20
	add	s2,s2,s7
	.loc 1 132 154
	slli	s7,s2,12
	srli	s2,s2,20
	or	s2,s7,s2
	.loc 1 132 209
	add	s7,s2,s6
	.loc 1 132 229 is_stmt 1
	.loc 1 133 5
	.loc 1 133 10
	.loc 1 133 114
	.loc 1 133 20 is_stmt 0
	li	s2,606105600
	.loc 1 133 66
	xor	s3,s4,s6
	.loc 1 133 20
	addi	s2,s2,219
	.loc 1 133 51
	and	s3,s3,s7
	.loc 1 133 20
	add	s2,s8,s2
	.loc 1 133 36
	xor	s3,s3,s4
	.loc 1 133 20
	add	s2,s2,a4
	add	s2,s3,s2
	.loc 1 133 154
	srli	s3,s2,15
	slli	s2,s2,17
	or	s2,s3,s2
	.loc 1 133 209
	add	s3,s2,s7
	.loc 1 133 229 is_stmt 1
	.loc 1 134 5
	.loc 1 134 10
	.loc 1 134 114
	.loc 1 134 66 is_stmt 0
	xor	s2,s6,s7
	.loc 1 134 51
	and	s2,s2,s3
	.loc 1 134 36
	xor	s2,s2,s6
	.loc 1 134 20
	add	s5,s2,s5
	.loc 1 134 154
	srli	s2,s5,10
	slli	s5,s5,22
	or	s5,s2,s5
	.loc 1 134 209
	add	s2,s5,s3
	.loc 1 134 229 is_stmt 1
	.loc 1 135 5
	.loc 1 135 10
	.loc 1 135 114
	.loc 1 135 66 is_stmt 0
	xor	s5,s7,s3
	.loc 1 135 51
	and	s5,s5,s2
	.loc 1 135 36
	xor	s5,s5,s7
	.loc 1 135 20
	add	s6,s9,s6
	add	s6,s5,s6
	.loc 1 135 153
	slli	s5,s6,7
	srli	s6,s6,25
	or	s6,s5,s6
	.loc 1 136 20
	li	s9,1200078848
	.loc 1 135 207
	add	s5,s6,s2
	.loc 1 135 227 is_stmt 1
	.loc 1 136 5
	.loc 1 136 10
	.loc 1 136 114
	.loc 1 136 20 is_stmt 0
	addi	s9,s9,1578
	.loc 1 136 66
	xor	s6,s3,s2
	.loc 1 136 20
	add	s9,t0,s9
	.loc 1 136 51
	and	s6,s6,s5
	.loc 1 136 36
	xor	s6,s6,s3
	.loc 1 136 20
	add	s7,s9,s7
	add	s7,s6,s7
	.loc 1 136 154
	slli	s6,s7,12
	srli	s7,s7,20
	or	s7,s6,s7
	.loc 1 137 20
	li	s9,-1473232896
	.loc 1 136 209
	add	s6,s7,s5
	.loc 1 136 229 is_stmt 1
	.loc 1 137 5
	.loc 1 137 10
	.loc 1 137 114
	.loc 1 137 20 is_stmt 0
	addi	s9,s9,1555
	.loc 1 137 66
	xor	s7,s2,s5
	.loc 1 137 20
	add	s9,a7,s9
	.loc 1 137 51
	and	s7,s7,s6
	.loc 1 137 36
	xor	s7,s7,s2
	.loc 1 137 20
	add	s3,s9,s3
	add	s3,s7,s3
	.loc 1 137 154
	srli	s7,s3,15
	slli	s3,s3,17
	or	s3,s7,s3
	.loc 1 138 20
	li	s9,-45707264
	.loc 1 137 209
	add	s7,s3,s6
	.loc 1 137 229 is_stmt 1
	.loc 1 138 5
	.loc 1 138 10
	.loc 1 138 114
	.loc 1 138 20 is_stmt 0
	addi	s9,s9,1281
	.loc 1 138 66
	xor	s3,s5,s6
	.loc 1 138 20
	add	s9,ra,s9
	.loc 1 138 51
	and	s3,s3,s7
	.loc 1 138 36
	xor	s3,s3,s5
	.loc 1 138 20
	add	s2,s9,s2
	add	s2,s3,s2
	.loc 1 138 154
	srli	s3,s2,10
	slli	s2,s2,22
	or	s2,s3,s2
	.loc 1 139 20
	li	s9,1770037248
	.loc 1 138 209
	add	s3,s2,s7
	.loc 1 138 229 is_stmt 1
	.loc 1 139 5
	.loc 1 139 10
	.loc 1 139 114
	.loc 1 139 20 is_stmt 0
	addi	s9,s9,-1832
	.loc 1 139 66
	xor	s2,s6,s7
	.loc 1 139 20
	add	s9,t1,s9
	.loc 1 139 51
	and	s2,s2,s3
	.loc 1 139 36
	xor	s2,s2,s6
	.loc 1 139 20
	add	s5,s9,s5
	add	s5,s2,s5
	.loc 1 139 153
	slli	s2,s5,7
	srli	s5,s5,25
	or	s5,s2,s5
	.loc 1 140 20
	li	s9,-1958416384
	.loc 1 139 207
	add	s2,s5,s3
	.loc 1 139 227 is_stmt 1
	.loc 1 140 5
	.loc 1 140 10
	.loc 1 140 114
	.loc 1 140 20 is_stmt 0
	addi	s9,s9,1967
	.loc 1 140 66
	xor	s5,s7,s3
	.loc 1 140 20
	add	s9,a5,s9
	.loc 1 140 51
	and	s5,s5,s2
	.loc 1 140 36
	xor	s5,s5,s7
	.loc 1 140 20
	add	s6,s9,s6
	add	s6,s5,s6
	.loc 1 140 154
	slli	s5,s6,12
	srli	s6,s6,20
	or	s6,s5,s6
	.loc 1 141 20
	li	s9,-40960
	.loc 1 140 209
	add	s5,s6,s2
	.loc 1 140 229 is_stmt 1
	.loc 1 141 5
	.loc 1 141 10
	.loc 1 141 115
	.loc 1 141 20 is_stmt 0
	addi	s9,s9,-1103
	.loc 1 141 66
	xor	s6,s3,s2
	.loc 1 141 20
	add	s9,t4,s9
	.loc 1 141 51
	and	s6,s6,s5
	.loc 1 141 36
	xor	s6,s6,s3
	.loc 1 141 20
	add	s7,s9,s7
	add	s7,s6,s7
	.loc 1 141 155
	srli	s6,s7,15
	slli	s7,s7,17
	or	s7,s6,s7
	.loc 1 142 20
	li	s9,-1990406144
	.loc 1 141 210
	add	s6,s7,s5
	.loc 1 141 230 is_stmt 1
	.loc 1 142 5
	.loc 1 142 10
	.loc 1 142 115
	.loc 1 142 20 is_stmt 0
	addi	s9,s9,1982
	.loc 1 142 66
	xor	s7,s2,s5
	.loc 1 142 20
	add	s9,a3,s9
	.loc 1 142 51
	and	s7,s7,s6
	.loc 1 142 36
	xor	s7,s7,s2
	.loc 1 142 20
	add	s3,s9,s3
	add	s3,s7,s3
	.loc 1 142 155
	srli	s7,s3,10
	slli	s3,s3,22
	or	s3,s7,s3
	.loc 1 143 20
	li	s9,1804603392
	.loc 1 142 210
	add	s7,s3,s6
	.loc 1 142 230 is_stmt 1
	.loc 1 143 5
	.loc 1 143 10
	.loc 1 143 115
	.loc 1 143 20 is_stmt 0
	addi	s9,s9,290
	.loc 1 143 66
	xor	s3,s5,s6
	.loc 1 143 20
	add	s9,t6,s9
	.loc 1 143 51
	and	s3,s3,s7
	.loc 1 143 36
	xor	s3,s3,s5
	.loc 1 143 20
	add	s2,s9,s2
	add	s2,s3,s2
	.loc 1 143 154
	slli	s3,s2,7
	srli	s2,s2,25
	or	s2,s3,s2
	.loc 1 144 20
	li	s9,-40341504
	.loc 1 143 208
	add	s3,s2,s7
	.loc 1 143 228 is_stmt 1
	.loc 1 144 5
	.loc 1 144 10
	.loc 1 144 115
	.loc 1 144 20 is_stmt 0
	addi	s9,s9,403
	.loc 1 144 66
	xor	s2,s6,s7
	.loc 1 144 20
	add	s9,a6,s9
	.loc 1 144 51
	and	s2,s2,s3
	.loc 1 144 36
	xor	s2,s2,s6
	.loc 1 144 20
	add	s5,s9,s5
	add	s5,s2,s5
	.loc 1 144 155
	slli	s2,s5,12
	srli	s5,s5,20
	or	s5,s2,s5
	.loc 1 145 20
	li	s9,-1502003200
	.loc 1 144 210
	add	s2,s5,s3
	.loc 1 144 230 is_stmt 1
	.loc 1 145 5
	.loc 1 145 10
	.loc 1 145 115
	.loc 1 145 20 is_stmt 0
	addi	s9,s9,910
	.loc 1 145 66
	xor	s5,s7,s3
	.loc 1 145 20
	add	s9,t2,s9
	.loc 1 145 51
	and	s5,s5,s2
	.loc 1 145 36
	xor	s5,s5,s7
	.loc 1 145 20
	add	s6,s9,s6
	add	s6,s5,s6
	.loc 1 145 155
	srli	s5,s6,15
	slli	s6,s6,17
	or	s6,s5,s6
	.loc 1 146 20
	li	s9,1236537344
	.loc 1 145 210
	add	s5,s6,s2
	.loc 1 145 230 is_stmt 1
	.loc 1 146 5
	.loc 1 146 10
	.loc 1 146 115
	.loc 1 146 20 is_stmt 0
	addi	s9,s9,-2015
	.loc 1 146 66
	xor	s6,s3,s2
	.loc 1 146 20
	add	s9,a1,s9
	.loc 1 146 51
	and	s6,s6,s5
	.loc 1 146 36
	xor	s6,s6,s3
	.loc 1 146 20
	add	s7,s9,s7
	add	s7,s6,s7
	.loc 1 146 155
	srli	s6,s7,10
	slli	s7,s7,22
	or	s7,s6,s7
	.loc 1 146 210
	add	s6,s7,s5
	.loc 1 146 230 is_stmt 1
	.loc 1 152 5
	.loc 1 152 10
	.loc 1 152 114
	.loc 1 152 20 is_stmt 0
	li	s9,-165797888
	.loc 1 152 66
	xor	s7,s5,s6
	.loc 1 152 20
	addi	s9,s9,1378
	add	s9,t3,s9
	.loc 1 152 51
	and	s7,s7,s2
	.loc 1 152 36
	xor	s7,s7,s5
	.loc 1 152 20
	add	s3,s9,s3
	add	s3,s7,s3
	.loc 1 152 153
	slli	s7,s3,5
	srli	s3,s3,27
	or	s3,s7,s3
	.loc 1 152 207
	add	s7,s3,s6
	.loc 1 152 227 is_stmt 1
	.loc 1 153 5
	.loc 1 153 10
	.loc 1 153 114
	.loc 1 153 20 is_stmt 0
	li	s9,-1069502464
	.loc 1 153 66
	xor	s3,s6,s7
	.loc 1 153 20
	addi	s9,s9,832
	add	s9,a7,s9
	.loc 1 153 51
	and	s3,s3,s5
	.loc 1 153 36
	xor	s3,s3,s6
	.loc 1 153 20
	add	s2,s9,s2
	add	s2,s3,s2
	.loc 1 153 153
	slli	s3,s2,9
	srli	s2,s2,23
	or	s2,s3,s2
	.loc 1 153 207
	add	s3,s2,s7
	.loc 1 153 227 is_stmt 1
	.loc 1 154 5
	.loc 1 154 10
	.loc 1 154 115
	.loc 1 154 20 is_stmt 0
	li	s9,643719168
	.loc 1 154 66
	xor	s2,s7,s3
	.loc 1 154 20
	addi	s9,s9,-1455
	add	s9,a3,s9
	.loc 1 154 51
	and	s2,s2,s6
	.loc 1 154 36
	xor	s2,s2,s7
	.loc 1 154 20
	add	s5,s9,s5
	add	s5,s2,s5
	.loc 1 154 155
	slli	s2,s5,14
	srli	s5,s5,18
	or	s5,s2,s5
	.loc 1 154 210
	add	s2,s5,s3
	.loc 1 154 230 is_stmt 1
	.loc 1 155 5
	.loc 1 155 10
	.loc 1 155 114
	.loc 1 155 20 is_stmt 0
	li	s9,-373899264
	.loc 1 155 66
	xor	s5,s3,s2
	.loc 1 155 20
	addi	s9,s9,1962
	add	s9,s1,s9
	.loc 1 155 51
	and	s5,s5,s7
	.loc 1 155 36
	xor	s5,s5,s3
	.loc 1 155 20
	add	s6,s9,s6
	add	s6,s5,s6
	.loc 1 155 154
	srli	s5,s6,12
	slli	s6,s6,20
	or	s6,s5,s6
	.loc 1 155 209
	add	s5,s6,s2
	.loc 1 155 229 is_stmt 1
	.loc 1 156 5
	.loc 1 156 10
	.loc 1 156 114
	.loc 1 156 20 is_stmt 0
	li	s9,-701558784
	.loc 1 156 66
	xor	s6,s2,s5
	.loc 1 156 20
	addi	s9,s9,93
	add	s9,t0,s9
	.loc 1 156 51
	and	s6,s6,s3
	.loc 1 156 36
	xor	s6,s6,s2
	.loc 1 156 20
	add	s7,s9,s7
	add	s7,s6,s7
	.loc 1 156 153
	slli	s6,s7,5
	srli	s7,s7,27
	or	s7,s6,s7
	.loc 1 156 207
	add	s6,s7,s5
	.loc 1 156 227 is_stmt 1
	.loc 1 157 5
	.loc 1 157 10
	.loc 1 157 115
	.loc 1 157 20 is_stmt 0
	li	s9,38014976
	.loc 1 157 66
	xor	s7,s5,s6
	.loc 1 157 20
	addi	s9,s9,1107
	add	s9,t4,s9
	.loc 1 157 51
	and	s7,s7,s2
	.loc 1 157 36
	xor	s7,s7,s5
	.loc 1 157 20
	add	s3,s9,s3
	add	s3,s7,s3
	.loc 1 157 154
	slli	s7,s3,9
	srli	s3,s3,23
	or	s3,s7,s3
	.loc 1 157 208
	add	s7,s3,s6
	.loc 1 157 228 is_stmt 1
	.loc 1 158 5
	.loc 1 158 10
	.loc 1 158 115
	.loc 1 158 20 is_stmt 0
	li	s9,-660480000
	.loc 1 158 66
	xor	s3,s6,s7
	.loc 1 158 20
	addi	s9,s9,1665
	add	s9,a1,s9
	.loc 1 158 51
	and	s3,s3,s5
	.loc 1 158 36
	xor	s3,s3,s6
	.loc 1 158 20
	add	s2,s9,s2
	add	s2,s3,s2
	.loc 1 158 155
	slli	s3,s2,14
	srli	s2,s2,18
	or	s2,s3,s2
	.loc 1 158 210
	add	s3,s2,s7
	.loc 1 158 230 is_stmt 1
	.loc 1 159 5
	.loc 1 159 10
	.loc 1 159 114
	.loc 1 159 20 is_stmt 0
	li	s9,-405536768
	.loc 1 159 66
	xor	s2,s7,s3
	.loc 1 159 20
	addi	s9,s9,-1080
	add	s9,a2,s9
	.loc 1 159 51
	and	s2,s2,s6
	.loc 1 159 36
	xor	s2,s2,s7
	.loc 1 159 20
	add	s5,s9,s5
	add	s5,s2,s5
	.loc 1 159 154
	srli	s2,s5,12
	slli	s5,s5,20
	or	s5,s2,s5
	.loc 1 159 209
	add	s2,s5,s3
	.loc 1 159 229 is_stmt 1
	.loc 1 160 5
	.loc 1 160 10
	.loc 1 160 114
	.loc 1 160 20 is_stmt 0
	li	s9,568446976
	.loc 1 160 66
	xor	s5,s3,s2
	.loc 1 160 20
	addi	s9,s9,-538
	add	s9,a5,s9
	.loc 1 160 51
	and	s5,s5,s7
	.loc 1 160 36
	xor	s5,s5,s3
	.loc 1 160 20
	add	s6,s9,s6
	add	s6,s5,s6
	.loc 1 160 153
	slli	s5,s6,5
	srli	s6,s6,27
	or	s6,s5,s6
	.loc 1 160 207
	add	s5,s6,s2
	.loc 1 160 227 is_stmt 1
	.loc 1 161 5
	.loc 1 161 10
	.loc 1 161 115
	.loc 1 161 20 is_stmt 0
	li	s9,-1019805696
	.loc 1 161 66
	xor	s6,s2,s5
	.loc 1 161 20
	addi	s9,s9,2006
	add	s9,t2,s9
	.loc 1 161 51
	and	s6,s6,s3
	.loc 1 161 36
	xor	s6,s6,s2
	.loc 1 161 20
	add	s7,s9,s7
	add	s7,s6,s7
	.loc 1 161 154
	slli	s6,s7,9
	srli	s7,s7,23
	or	s7,s6,s7
	.loc 1 161 208
	add	s6,s7,s5
	.loc 1 161 228 is_stmt 1
	.loc 1 162 5
	.loc 1 162 10
	.loc 1 162 114
	.loc 1 162 20 is_stmt 0
	li	s9,-187363328
	.loc 1 162 66
	xor	s7,s5,s6
	.loc 1 162 20
	addi	s9,s9,-633
	add	s9,t5,s9
	.loc 1 162 51
	and	s7,s7,s2
	.loc 1 162 36
	xor	s7,s7,s5
	.loc 1 162 20
	add	s3,s9,s3
	add	s3,s7,s3
	.loc 1 162 154
	slli	s7,s3,14
	srli	s3,s3,18
	or	s3,s7,s3
	.loc 1 162 209
	add	s7,s3,s6
	.loc 1 162 229 is_stmt 1
	.loc 1 163 5
	.loc 1 163 10
	.loc 1 163 114
	.loc 1 163 20 is_stmt 0
	li	s9,1163530240
	.loc 1 163 66
	xor	s3,s6,s7
	.loc 1 163 20
	addi	s9,s9,1261
	add	s9,t1,s9
	.loc 1 163 51
	and	s3,s3,s5
	.loc 1 163 36
	xor	s3,s3,s6
	.loc 1 163 20
	add	s2,s9,s2
	add	s2,s3,s2
	.loc 1 163 154
	srli	s3,s2,12
	slli	s2,s2,20
	or	s2,s3,s2
	.loc 1 163 209
	add	s3,s2,s7
	.loc 1 163 229 is_stmt 1
	.loc 1 164 5
	.loc 1 164 10
	.loc 1 164 115
	.loc 1 164 20 is_stmt 0
	li	s9,-1444679680
	.loc 1 164 66
	xor	s2,s7,s3
	.loc 1 164 20
	addi	s9,s9,-1787
	add	s9,a6,s9
	.loc 1 164 51
	and	s2,s2,s6
	.loc 1 164 36
	xor	s2,s2,s7
	.loc 1 164 20
	add	s5,s9,s5
	add	s5,s2,s5
	.loc 1 164 154
	slli	s2,s5,5
	srli	s5,s5,27
	or	s5,s2,s5
	.loc 1 164 208
	add	s2,s5,s3
	.loc 1 164 228 is_stmt 1
	.loc 1 165 5
	.loc 1 165 10
	.loc 1 165 114
	.loc 1 165 20 is_stmt 0
	li	s9,-51404800
	.loc 1 165 66
	xor	s5,s3,s2
	.loc 1 165 20
	addi	s9,s9,1016
	add	s9,a4,s9
	.loc 1 165 51
	and	s5,s5,s7
	.loc 1 165 36
	xor	s5,s5,s3
	.loc 1 165 20
	add	s6,s9,s6
	add	s6,s5,s6
	.loc 1 165 153
	slli	s5,s6,9
	srli	s6,s6,23
	or	s6,s5,s6
	.loc 1 165 207
	add	s5,s6,s2
	.loc 1 165 227 is_stmt 1
	.loc 1 166 5
	.loc 1 166 10
	.loc 1 166 114
	.loc 1 166 20 is_stmt 0
	li	s9,1735327744
	.loc 1 166 66
	xor	s6,s2,s5
	.loc 1 166 20
	addi	s9,s9,729
	add	s9,ra,s9
	.loc 1 166 51
	and	s6,s6,s3
	.loc 1 166 36
	xor	s6,s6,s2
	.loc 1 166 20
	add	s7,s9,s7
	add	s7,s6,s7
	.loc 1 166 154
	slli	s6,s7,14
	srli	s7,s7,18
	or	s7,s6,s7
	.loc 1 166 209
	add	s6,s7,s5
	.loc 1 166 229 is_stmt 1
	.loc 1 167 5
	.loc 1 167 10
	.loc 1 167 20 is_stmt 0
	li	s9,-1926606848
	.loc 1 167 66
	xor	s11,s5,s6
	.loc 1 167 115 is_stmt 1
	.loc 1 167 20 is_stmt 0
	addi	s9,s9,-886
	.loc 1 167 51
	and	s7,s2,s11
	.loc 1 167 20
	add	s9,t6,s9
	add	s3,s9,s3
	.loc 1 167 36
	xor	s7,s7,s5
	.loc 1 167 20
	add	s7,s7,s3
	.loc 1 167 155
	srli	s3,s7,12
	slli	s7,s7,20
	or	s7,s3,s7
	.loc 1 173 20
	li	s3,-376832
	addi	s3,s3,-1726
	.loc 1 167 210
	add	s7,s7,s6
	.loc 1 167 230 is_stmt 1
	.loc 1 173 5
	.loc 1 173 10
	.loc 1 173 96
	.loc 1 173 20 is_stmt 0
	add	s3,t0,s3
	add	s2,s3,s2
	.loc 1 173 50
	xor	s11,s11,s7
	.loc 1 173 20
	add	s11,s2,s11
	.loc 1 173 135
	slli	s2,s11,4
	.loc 1 174 20
	li	s3,-2022576128
	.loc 1 173 135
	srli	s11,s11,28
	or	s11,s2,s11
	.loc 1 174 20
	addi	s3,s3,1665
	.loc 1 173 189
	add	s11,s11,s7
	.loc 1 173 209 is_stmt 1
	.loc 1 174 5
	.loc 1 174 10
	.loc 1 174 96
	.loc 1 174 50 is_stmt 0
	xor	s2,s6,s7
	.loc 1 174 20
	add	s3,t1,s3
	.loc 1 174 50
	xor	s2,s2,s11
	.loc 1 174 20
	add	s5,s3,s5
	add	s5,s2,s5
	.loc 1 174 136
	slli	s2,s5,11
	.loc 1 175 20
	li	s3,1839030272
	.loc 1 174 136
	srli	s5,s5,21
	or	s5,s2,s5
	.loc 1 175 20
	addi	s3,s3,290
	.loc 1 174 191
	add	s2,s5,s11
	.loc 1 174 211 is_stmt 1
	.loc 1 175 5
	.loc 1 175 10
	.loc 1 175 97
	.loc 1 175 20 is_stmt 0
	add	s3,a3,s3
	.loc 1 175 50
	xor	s5,s7,s11
	xor	s5,s5,s2
	.loc 1 175 20
	add	s6,s3,s6
	add	s6,s5,s6
	.loc 1 175 137
	slli	s5,s6,16
	srli	s6,s6,16
	or	s6,s5,s6
	.loc 1 175 192
	add	s5,s6,s2
	.loc 1 175 212 is_stmt 1
	.loc 1 176 5
	.loc 1 176 10
	.loc 1 176 97
	.loc 1 176 20 is_stmt 0
	li	s6,-35307520
	addi	s6,s6,-2036
	.loc 1 176 50
	xor	s3,s11,s2
	.loc 1 176 20
	add	s6,t2,s6
	.loc 1 176 50
	xor	s3,s3,s5
	.loc 1 176 20
	add	s7,s6,s7
	add	s7,s3,s7
	.loc 1 176 137
	srli	s3,s7,9
	.loc 1 177 20
	li	s6,-1530990592
	.loc 1 176 137
	slli	s7,s7,23
	or	s7,s3,s7
	.loc 1 177 20
	addi	s6,s6,-1468
	.loc 1 176 192
	add	s3,s7,s5
	.loc 1 176 212 is_stmt 1
	.loc 1 177 5
	.loc 1 177 10
	.loc 1 177 96
	.loc 1 177 20 is_stmt 0
	add	s6,t3,s6
	.loc 1 177 50
	xor	s7,s2,s5
	xor	s7,s7,s3
	.loc 1 177 20
	add	s11,s6,s11
	add	s11,s7,s11
	.loc 1 177 135
	slli	s7,s11,4
	.loc 1 178 20
	li	s9,1272893440
	.loc 1 177 135
	srli	s11,s11,28
	or	s11,s7,s11
	.loc 1 178 20
	addi	s9,s9,-87
	.loc 1 177 189
	add	s7,s11,s3
	.loc 1 177 209 is_stmt 1
	.loc 1 178 5
	.loc 1 178 10
	.loc 1 178 96
	.loc 1 178 50 is_stmt 0
	xor	s6,s5,s3
	.loc 1 178 20
	add	s9,a2,s9
	.loc 1 178 50
	xor	s6,s6,s7
	.loc 1 178 20
	add	s2,s9,s2
	add	s2,s6,s2
	.loc 1 178 136
	slli	s6,s2,11
	.loc 1 179 20
	li	s9,-155496448
	.loc 1 178 136
	srli	s2,s2,21
	or	s2,s6,s2
	.loc 1 179 20
	addi	s9,s9,-1184
	.loc 1 178 191
	add	s6,s2,s7
	.loc 1 178 211 is_stmt 1
	.loc 1 179 5
	.loc 1 179 10
	.loc 1 179 96
	.loc 1 179 20 is_stmt 0
	add	s9,ra,s9
	.loc 1 179 50
	xor	s2,s3,s7
	xor	s2,s2,s6
	.loc 1 179 20
	add	s5,s9,s5
	add	s5,s2,s5
	.loc 1 179 136
	slli	s2,s5,16
	srli	s5,s5,16
	or	s5,s2,s5
	.loc 1 179 191
	add	s2,s5,s6
	.loc 1 179 211 is_stmt 1
	.loc 1 180 5
	.loc 1 180 10
	.loc 1 180 97
	.loc 1 180 20 is_stmt 0
	li	s5,-1094729728
	addi	s5,s5,-912
	.loc 1 180 50
	xor	s9,s7,s6
	.loc 1 180 20
	add	s5,t4,s5
	.loc 1 180 50
	xor	s9,s9,s2
	.loc 1 180 20
	add	s3,s5,s3
	add	s3,s9,s3
	.loc 1 180 137
	srli	s9,s3,9
	slli	s3,s3,23
	or	s3,s9,s3
	.loc 1 180 192
	add	s9,s3,s2
	.loc 1 180 212 is_stmt 1
	.loc 1 181 5
	.loc 1 181 10
	.loc 1 181 97
	.loc 1 181 20 is_stmt 0
	li	s3,681279488
	addi	s3,s3,-314
	.loc 1 181 50
	xor	s5,s6,s2
	.loc 1 181 20
	add	s3,a6,s3
	.loc 1 181 50
	xor	s5,s5,s9
	.loc 1 181 20
	add	s7,s3,s7
	add	s7,s5,s7
	.loc 1 181 136
	slli	s5,s7,4
	srli	s7,s7,28
	or	s7,s5,s7
	.loc 1 181 190
	add	s5,s7,s9
	.loc 1 181 210 is_stmt 1
	.loc 1 182 5
	.loc 1 182 10
	.loc 1 182 96
	.loc 1 182 20 is_stmt 0
	li	s7,-358539264
	addi	s7,s7,2042
	.loc 1 182 50
	xor	s3,s2,s9
	.loc 1 182 20
	add	s7,s1,s7
	.loc 1 182 50
	xor	s3,s3,s5
	.loc 1 182 20
	add	s6,s7,s6
	add	s6,s3,s6
	.loc 1 182 136
	slli	s3,s6,11
	srli	s6,s6,21
	or	s6,s3,s6
	.loc 1 182 191
	add	s3,s6,s5
	.loc 1 182 211 is_stmt 1
	.loc 1 183 5
	.loc 1 183 10
	.loc 1 183 96
	.loc 1 183 20 is_stmt 0
	li	s6,-722522112
	addi	s6,s6,133
	.loc 1 183 50
	xor	s7,s9,s5
	.loc 1 183 20
	add	s6,t5,s6
	.loc 1 183 50
	xor	s7,s7,s3
	.loc 1 183 20
	add	s2,s6,s2
	add	s2,s7,s2
	.loc 1 183 136
	slli	s7,s2,16
	srli	s2,s2,16
	or	s2,s7,s2
	.loc 1 183 191
	add	s7,s2,s3
	.loc 1 183 211 is_stmt 1
	.loc 1 184 5
	.loc 1 184 10
	.loc 1 184 96
	.loc 1 184 20 is_stmt 0
	li	s2,76029952
	addi	s2,s2,-763
	.loc 1 184 50
	xor	s6,s5,s3
	.loc 1 184 20
	add	s2,a7,s2
	.loc 1 184 50
	xor	s6,s6,s7
	.loc 1 184 20
	add	s9,s2,s9
	add	s9,s6,s9
	.loc 1 184 136
	srli	s6,s9,9
	slli	s9,s9,23
	or	s9,s6,s9
	.loc 1 184 191
	add	s6,s9,s7
	.loc 1 184 211 is_stmt 1
	.loc 1 185 5
	.loc 1 185 10
	.loc 1 185 96
	.loc 1 185 20 is_stmt 0
	li	s9,-640364544
	addi	s9,s9,57
	.loc 1 185 50
	xor	s2,s3,s7
	.loc 1 185 20
	add	s9,a5,s9
	.loc 1 185 50
	xor	s2,s2,s6
	.loc 1 185 20
	add	s5,s9,s5
	add	s5,s2,s5
	.loc 1 185 135
	slli	s2,s5,4
	srli	s5,s5,28
	or	s5,s2,s5
	.loc 1 185 189
	add	s2,s5,s6
	.loc 1 185 209 is_stmt 1
	.loc 1 186 5
	.loc 1 186 10
	.loc 1 186 97
	.loc 1 186 20 is_stmt 0
	li	s5,-421814272
	addi	s5,s5,-1563
	.loc 1 186 50
	xor	s9,s7,s6
	.loc 1 186 20
	add	s5,t6,s5
	.loc 1 186 50
	xor	s9,s9,s2
	.loc 1 186 20
	add	s3,s5,s3
	add	s3,s9,s3
	.loc 1 186 137
	slli	s9,s3,11
	srli	s3,s3,21
	or	s3,s9,s3
	.loc 1 186 192
	add	s9,s3,s2
	.loc 1 186 212 is_stmt 1
	.loc 1 187 5
	.loc 1 187 10
	.loc 1 187 97
	.loc 1 187 20 is_stmt 0
	li	s3,530743296
	addi	s3,s3,-776
	.loc 1 187 50
	xor	s5,s6,s2
	.loc 1 187 20
	add	s3,a1,s3
	.loc 1 187 50
	xor	s5,s5,s9
	.loc 1 187 20
	add	s7,s3,s7
	add	s7,s5,s7
	.loc 1 187 137
	slli	s5,s7,16
	srli	s7,s7,16
	or	s7,s5,s7
	.loc 1 187 192
	add	s5,s7,s9
	.loc 1 187 212 is_stmt 1
	.loc 1 188 5
	.loc 1 188 10
	.loc 1 188 96
	.loc 1 188 20 is_stmt 0
	li	s7,-995340288
	addi	s7,s7,1637
	.loc 1 188 50
	xor	s3,s2,s9
	.loc 1 188 20
	add	s7,a4,s7
	.loc 1 188 50
	xor	s3,s3,s5
	.loc 1 188 20
	add	s6,s7,s6
	add	s6,s3,s6
	.loc 1 188 136
	srli	s3,s6,9
	slli	s6,s6,23
	or	s6,s3,s6
	.loc 1 194 20
	li	s7,-198631424
	.loc 1 188 191
	add	s3,s6,s5
	.loc 1 188 211 is_stmt 1
	.loc 1 194 5
	.loc 1 194 10
	.loc 1 194 99
	.loc 1 194 20 is_stmt 0
	addi	s7,s7,580
	.loc 1 194 53
	not	s6,s9
	.loc 1 194 20
	add	s1,s1,s7
	.loc 1 194 51
	or	s6,s6,s3
	.loc 1 194 36
	xor	s6,s6,s5
	.loc 1 194 20
	add	s2,s1,s2
	add	s2,s6,s2
	.loc 1 194 138
	slli	s6,s2,6
	srli	s2,s2,26
	or	s2,s6,s2
	.loc 1 195 20
	li	s1,1126891520
	.loc 1 194 192
	add	s6,s2,s3
	.loc 1 194 212 is_stmt 1
	.loc 1 195 5
	.loc 1 195 10
	.loc 1 195 99
	.loc 1 195 20 is_stmt 0
	addi	s1,s1,-105
	.loc 1 195 53
	not	s2,s5
	.loc 1 195 20
	add	ra,ra,s1
	.loc 1 195 51
	or	s2,s2,s6
	.loc 1 195 36
	xor	s2,s2,s3
	.loc 1 195 20
	add	s9,ra,s9
	add	s9,s2,s9
	.loc 1 195 139
	slli	s2,s9,10
	srli	s9,s9,22
	or	s9,s2,s9
	.loc 1 196 20
	li	ra,-1416355840
	.loc 1 195 194
	add	s2,s9,s6
	.loc 1 195 214 is_stmt 1
	.loc 1 196 5
	.loc 1 196 10
	.loc 1 196 100
	.loc 1 196 53 is_stmt 0
	not	s1,s3
	.loc 1 196 20
	addi	ra,ra,935
	add	t2,t2,ra
	.loc 1 196 51
	or	s1,s1,s2
	.loc 1 196 36
	xor	s1,s1,s6
	.loc 1 196 20
	add	s5,t2,s5
	add	s5,s1,s5
	.loc 1 196 140
	slli	s1,s5,15
	srli	s5,s5,17
	or	s5,s1,s5
	.loc 1 197 20
	li	t2,-57434112
	.loc 1 196 195
	add	s1,s5,s2
	.loc 1 196 215 is_stmt 1
	.loc 1 197 5
	.loc 1 197 10
	.loc 1 197 99
	.loc 1 197 53 is_stmt 0
	not	ra,s6
	.loc 1 197 20
	addi	t2,t2,57
	add	t0,t0,t2
	.loc 1 197 51
	or	ra,ra,s1
	.loc 1 197 36
	xor	ra,ra,s2
	.loc 1 197 20
	add	s3,t0,s3
	add	s3,ra,s3
	.loc 1 197 139
	srli	ra,s3,11
	slli	s3,s3,21
	or	s3,ra,s3
	.loc 1 198 20
	li	t0,1700487168
	.loc 1 197 194
	add	ra,s3,s1
	.loc 1 197 214 is_stmt 1
	.loc 1 198 5
	.loc 1 198 10
	.loc 1 198 100
	.loc 1 198 53 is_stmt 0
	not	t2,s2
	.loc 1 198 20
	addi	t0,t0,-1597
	.loc 1 198 51
	or	t2,t2,ra
	.loc 1 198 20
	add	t6,t6,t0
	.loc 1 198 36
	xor	t2,t2,s1
	.loc 1 198 20
	add	t6,t6,s6
	add	t6,t2,t6
	.loc 1 198 139
	slli	t2,t6,6
	srli	t6,t6,26
	or	t6,t2,t6
	.loc 1 198 193
	add	t2,t6,ra
	.loc 1 198 213 is_stmt 1
	.loc 1 199 5
	.loc 1 199 10
	.loc 1 199 99
	.loc 1 199 20 is_stmt 0
	li	t6,-1894985728
	.loc 1 199 53
	not	t0,s1
	.loc 1 199 20
	addi	t6,t6,-878
	.loc 1 199 51
	or	t0,t0,t2
	.loc 1 199 20
	add	t5,t5,t6
	.loc 1 199 36
	xor	t0,t0,ra
	.loc 1 199 20
	add	t5,t5,s2
	add	t5,t0,t5
	.loc 1 199 139
	slli	t0,t5,10
	srli	t5,t5,22
	or	t5,t0,t5
	.loc 1 199 194
	add	t0,t5,t2
	.loc 1 199 214 is_stmt 1
	.loc 1 200 5
	.loc 1 200 10
	.loc 1 200 100
	.loc 1 200 20 is_stmt 0
	li	t5,-1052672
	.loc 1 200 53
	not	t6,ra
	.loc 1 200 20
	addi	t5,t5,1149
	.loc 1 200 51
	or	t6,t6,t0
	.loc 1 200 20
	add	t4,t4,t5
	.loc 1 200 36
	xor	t6,t6,t2
	.loc 1 200 20
	add	t4,t4,s1
	add	t4,t6,t4
	.loc 1 200 140
	slli	t6,t4,15
	srli	t4,t4,17
	or	t4,t6,t4
	.loc 1 200 195
	add	t6,t4,t0
	.loc 1 200 215 is_stmt 1
	.loc 1 201 5
	.loc 1 201 10
	.loc 1 201 99
	.loc 1 201 20 is_stmt 0
	li	t4,-2054922240
	.loc 1 201 53
	not	t5,t2
	.loc 1 201 20
	addi	t4,t4,-559
	.loc 1 201 51
	or	t5,t5,t6
	.loc 1 201 20
	add	t3,t3,t4
	.loc 1 201 36
	xor	t5,t5,t0
	.loc 1 201 20
	add	t3,t3,ra
	add	t3,t5,t3
	.loc 1 201 139
	srli	t5,t3,11
	slli	t3,t3,21
	or	t3,t5,t3
	.loc 1 201 194
	add	t5,t3,t6
	.loc 1 201 214 is_stmt 1
	.loc 1 202 5
	.loc 1 202 10
	.loc 1 202 99
	.loc 1 202 20 is_stmt 0
	li	t3,1873313792
	.loc 1 202 53
	not	t4,t0
	.loc 1 202 20
	addi	t3,t3,-433
	.loc 1 202 51
	or	t4,t4,t5
	.loc 1 202 20
	add	t1,t1,t3
	.loc 1 202 36
	xor	t4,t4,t6
	.loc 1 202 20
	add	t1,t1,t2
	add	t1,t4,t1
	.loc 1 202 138
	slli	t4,t1,6
	srli	t1,t1,26
	or	t1,t4,t1
	.loc 1 202 192
	add	t4,t1,t5
	.loc 1 202 212 is_stmt 1
	.loc 1 203 5
	.loc 1 203 10
	.loc 1 203 100
	.loc 1 203 20 is_stmt 0
	li	t1,-30613504
	.loc 1 203 53
	not	t3,t6
	.loc 1 203 20
	addi	t1,t1,1760
	.loc 1 203 51
	or	t3,t3,t4
	.loc 1 203 20
	add	a1,a1,t1
	.loc 1 203 36
	xor	t3,t3,t5
	.loc 1 203 20
	add	a1,a1,t0
	add	a1,t3,a1
	.loc 1 203 140
	slli	t3,a1,10
	srli	a1,a1,22
	or	a1,t3,a1
	.loc 1 203 195
	add	t3,a1,t4
	.loc 1 203 215 is_stmt 1
	.loc 1 204 5
	.loc 1 204 10
	.loc 1 204 99
	.loc 1 204 20 is_stmt 0
	li	a1,-1560199168
	.loc 1 204 53
	not	t1,t5
	.loc 1 204 20
	addi	a1,a1,788
	.loc 1 204 51
	or	t1,t1,t3
	.loc 1 204 20
	add	a7,a7,a1
	.loc 1 204 36
	xor	t1,t1,t4
	.loc 1 204 20
	add	a7,a7,t6
	add	a7,t1,a7
	.loc 1 204 139
	slli	t1,a7,15
	srli	a7,a7,17
	or	a7,t1,a7
	.loc 1 205 20
	li	a1,1309151232
	.loc 1 204 194
	add	t1,a7,t3
	.loc 1 204 214 is_stmt 1
	.loc 1 205 5
	.loc 1 205 10
	.loc 1 205 100
	.loc 1 205 20 is_stmt 0
	addi	a1,a1,417
	.loc 1 205 53
	not	a7,t4
	.loc 1 205 20
	add	a6,a6,a1
	.loc 1 205 51
	or	a7,a7,t1
	.loc 1 205 20
	add	t5,a6,t5
	.loc 1 205 36
	xor	a7,a7,t3
	.loc 1 205 20
	add	a7,a7,t5
	.loc 1 205 140
	srli	a6,a7,11
	slli	a7,a7,21
	or	a7,a6,a7
	.loc 1 205 195
	add	a6,a7,t1
	.loc 1 205 215 is_stmt 1
	.loc 1 206 5
	.loc 1 206 10
	.loc 1 206 99
	.loc 1 206 20 is_stmt 0
	li	a7,-145522688
	.loc 1 206 53
	not	a1,t3
	.loc 1 206 20
	addi	a7,a7,-382
	add	a2,a2,a7
	.loc 1 206 51
	or	a1,a1,a6
	.loc 1 206 20
	add	t4,a2,t4
	.loc 1 206 36
	xor	a1,a1,t1
	.loc 1 206 20
	add	a1,a1,t4
	.loc 1 206 138
	slli	a2,a1,6
	srli	a1,a1,26
	or	a1,a2,a1
	.loc 1 207 20
	li	a7,-1120210944
	.loc 1 206 192
	add	a2,a1,a6
	.loc 1 207 20
	addi	a7,a7,565
	.loc 1 207 53
	not	a1,t1
	.loc 1 207 51
	or	a1,a1,a2
	.loc 1 207 20
	add	a3,a3,a7
	.loc 1 207 36
	xor	a1,a1,a6
	.loc 1 207 20
	add	a3,a3,t3
	add	a3,a1,a3
	.loc 1 207 140
	slli	a1,a3,10
	srli	a3,a3,22
	or	a3,a1,a3
	.loc 1 208 20
	li	a7,718786560
	.loc 1 207 195
	add	a1,a3,a2
	.loc 1 208 20
	addi	a7,a7,699
	.loc 1 208 53
	not	a3,a6
	.loc 1 208 51
	or	a3,a3,a1
	.loc 1 208 20
	add	a4,a4,a7
	.loc 1 208 36
	xor	a3,a3,a2
	.loc 1 208 20
	add	a4,a4,t1
	add	a4,a3,a4
	.loc 1 208 139
	slli	a3,a4,15
	srli	a4,a4,17
	or	a4,a3,a4
	.loc 1 209 20
	li	a7,-343486464
	.loc 1 208 194
	add	a3,a4,a1
	.loc 1 209 20
	addi	a7,a7,913
	.loc 1 209 53
	not	a4,a2
	.loc 1 209 51
	or	a4,a4,a3
	.loc 1 209 20
	add	a5,a5,a7
	.loc 1 209 36
	xor	a4,a4,a1
	.loc 1 209 20
	add	a5,a5,a6
	add	a5,a4,a5
	.loc 1 209 139
	srli	a4,a5,11
	slli	a5,a5,21
	or	a5,a4,a5
	.loc 1 213 19
	lw	a4,8(a0)
	.loc 1 209 194
	add	a5,a5,a3
	.loc 1 206 109
	sw	a2,-80(s0)
	.loc 1 206 212 is_stmt 1
	.loc 1 207 5
	.loc 1 207 10
	.loc 1 207 100
	.loc 1 207 110 is_stmt 0
	sw	a1,-68(s0)
	.loc 1 207 215 is_stmt 1
	.loc 1 208 5
	.loc 1 208 10
	.loc 1 208 99
	.loc 1 208 109 is_stmt 0
	sw	a3,-72(s0)
	.loc 1 208 214 is_stmt 1
	.loc 1 209 5
	.loc 1 209 10
	.loc 1 209 99
	.loc 1 214 19 is_stmt 0
	add	s4,s4,a5
	.loc 1 215 19
	add	a3,s8,a3
	.loc 1 216 19
	add	a1,s10,a1
	.loc 1 213 19
	add	a2,a4,a2
	.loc 1 214 19
	sw	s4,12(a0)
	.loc 1 216 19
	sw	a1,20(a0)
	.loc 1 213 19
	sw	a2,8(a0)
	.loc 1 215 19
	sw	a3,16(a0)
	.loc 1 219 5
	li	a1,80
	addi	a0,s0,-144
.LVL12:
	.loc 1 209 109
	sw	a5,-76(s0)
	.loc 1 209 214 is_stmt 1
	.loc 1 213 5
	.loc 1 214 5
	.loc 1 215 5
	.loc 1 216 5
	.loc 1 219 5
	call	mbedtls_platform_zeroize
.LVL13:
	.loc 1 221 5
	.loc 1 222 1 is_stmt 0
	lw	ra,140(sp)
	.cfi_restore 1
	lw	s0,136(sp)
	.cfi_restore 8
	.cfi_def_cfa 2, 144
	lw	s1,132(sp)
	.cfi_restore 9
	lw	s2,128(sp)
	.cfi_restore 18
	lw	s3,124(sp)
	.cfi_restore 19
	lw	s4,120(sp)
	.cfi_restore 20
	lw	s5,116(sp)
	.cfi_restore 21
	lw	s6,112(sp)
	.cfi_restore 22
	lw	s7,108(sp)
	.cfi_restore 23
	lw	s8,104(sp)
	.cfi_restore 24
	lw	s9,100(sp)
	.cfi_restore 25
	lw	s10,96(sp)
	.cfi_restore 26
	lw	s11,92(sp)
	.cfi_restore 27
	li	a0,0
	addi	sp,sp,144
	.cfi_def_cfa_offset 0
	jr	ra
	.cfi_endproc
.LFE7:
	.size	mbedtls_internal_md5_process, .-mbedtls_internal_md5_process
	.section	.text.mbedtls_md5_process,"ax",@progbits
	.align	1
	.globl	mbedtls_md5_process
	.type	mbedtls_md5_process, @function
mbedtls_md5_process:
.LFB8:
	.loc 1 227 1 is_stmt 1
	.cfi_startproc
.LVL14:
	.loc 1 228 5
	.loc 1 227 1 is_stmt 0
	addi	sp,sp,-16
	.cfi_def_cfa_offset 16
	sw	s0,12(sp)
	.cfi_offset 8, -4
	addi	s0,sp,16
	.cfi_def_cfa 8, 0
	.loc 1 229 1
	lw	s0,12(sp)
	.cfi_restore 8
	.cfi_def_cfa 2, 16
	addi	sp,sp,16
	.cfi_def_cfa_offset 0
	.loc 1 228 5
	tail	mbedtls_internal_md5_process
.LVL15:
	.cfi_endproc
.LFE8:
	.size	mbedtls_md5_process, .-mbedtls_md5_process
	.section	.text.mbedtls_md5_update_ret,"ax",@progbits
	.align	1
	.globl	mbedtls_md5_update_ret
	.type	mbedtls_md5_update_ret, @function
mbedtls_md5_update_ret:
.LFB9:
	.loc 1 239 1 is_stmt 1
	.cfi_startproc
.LVL16:
	.loc 1 240 5
	.loc 1 241 5
	.loc 1 242 5
	.loc 1 244 5
	.loc 1 244 7 is_stmt 0
	bne	a2,zero,.L17
	.loc 1 245 15
	li	a0,0
.LVL17:
	.loc 1 282 1
	ret
.LVL18:
.L17:
	.loc 1 239 1
	addi	sp,sp,-32
	.cfi_def_cfa_offset 32
	sw	s0,24(sp)
	sw	s1,20(sp)
	sw	s2,16(sp)
	sw	s3,12(sp)
	sw	s4,8(sp)
	sw	ra,28(sp)
	sw	s5,4(sp)
	sw	s6,0(sp)
	.cfi_offset 8, -8
	.cfi_offset 9, -12
	.cfi_offset 18, -16
	.cfi_offset 19, -20
	.cfi_offset 20, -24
	.cfi_offset 1, -4
	.cfi_offset 21, -28
	.cfi_offset 22, -32
	addi	s0,sp,32
	.cfi_def_cfa 8, 0
.LBB6:
.LBB7:
	.loc 1 247 22
	lw	a5,0(a0)
	mv	s2,a0
	mv	s3,a1
	.loc 1 247 10
	andi	s4,a5,63
	.loc 1 250 19
	add	a5,a2,a5
	sw	a5,0(a0)
	mv	s1,a2
.LVL19:
	.loc 1 247 5 is_stmt 1
	.loc 1 248 5
	.loc 1 250 5
	.loc 1 251 5
	.loc 1 253 5
	.loc 1 253 7 is_stmt 0
	bleu	a2,a5,.L19
.LVL20:
	.loc 1 254 9 is_stmt 1
	.loc 1 254 22 is_stmt 0
	lw	a5,4(a0)
	addi	a5,a5,1
	sw	a5,4(a0)
.L19:
	.loc 1 256 5 is_stmt 1
	.loc 1 256 7 is_stmt 0
	beq	s4,zero,.L20
	.loc 1 248 10
	li	s5,64
	sub	s5,s5,s4
	.loc 1 256 14
	bltu	s1,s5,.L20
	.loc 1 258 9 is_stmt 1
	.loc 1 258 27 is_stmt 0
	addi	s6,s2,24
	.loc 1 258 9
	mv	a1,s3
.LVL21:
	mv	a2,s5
	add	a0,s6,s4
.LVL22:
	call	memcpy
.LVL23:
	.loc 1 259 9 is_stmt 1
	.loc 1 259 21 is_stmt 0
	mv	a1,s6
	mv	a0,s2
	call	mbedtls_internal_md5_process
.LVL24:
	.loc 1 259 11
	bne	a0,zero,.L16
	.loc 1 262 9 is_stmt 1
.LVL25:
	.loc 1 263 14 is_stmt 0
	add	s1,s1,s4
.LVL26:
	.loc 1 262 15
	add	s3,s3,s5
.LVL27:
	.loc 1 263 9 is_stmt 1
	.loc 1 263 14 is_stmt 0
	addi	s1,s1,-64
.LVL28:
	.loc 1 264 9 is_stmt 1
	.loc 1 264 14 is_stmt 0
	li	s4,0
.LVL29:
.L20:
	add	s3,s3,s1
.LVL30:
	.loc 1 267 10
	li	s5,63
	j	.L21
.LVL31:
.L22:
	.loc 1 269 9 is_stmt 1
	.loc 1 269 21 is_stmt 0
	mv	a0,s2
	call	mbedtls_internal_md5_process
.LVL32:
	.loc 1 269 11
	bne	a0,zero,.L16
	.loc 1 272 9 is_stmt 1
.LVL33:
	.loc 1 273 9
	.loc 1 273 14 is_stmt 0
	addi	s1,s1,-64
.LVL34:
.L21:
	sub	a1,s3,s1
.LVL35:
	.loc 1 267 10 is_stmt 1
	bgtu	s1,s5,.L22
	.loc 1 276 5
	.loc 1 276 7 is_stmt 0
	beq	s1,zero,.L33
	.loc 1 278 9 is_stmt 1
	.loc 1 278 27 is_stmt 0
	addi	a0,s2,24
	.loc 1 278 9
	mv	a2,s1
	add	a0,a0,s4
	call	memcpy
.LVL36:
.L33:
	.loc 1 281 11
	li	a0,0
.LVL37:
.L16:
.LBE7:
.LBE6:
	.loc 1 282 1
	lw	ra,28(sp)
	.cfi_restore 1
	lw	s0,24(sp)
	.cfi_restore 8
	.cfi_def_cfa 2, 32
	lw	s1,20(sp)
	.cfi_restore 9
	lw	s2,16(sp)
	.cfi_restore 18
.LVL38:
	lw	s3,12(sp)
	.cfi_restore 19
	lw	s4,8(sp)
	.cfi_restore 20
	lw	s5,4(sp)
	.cfi_restore 21
	lw	s6,0(sp)
	.cfi_restore 22
	addi	sp,sp,32
	.cfi_def_cfa_offset 0
	jr	ra
	.cfi_endproc
.LFE9:
	.size	mbedtls_md5_update_ret, .-mbedtls_md5_update_ret
	.section	.text.mbedtls_md5_update,"ax",@progbits
	.align	1
	.globl	mbedtls_md5_update
	.type	mbedtls_md5_update, @function
mbedtls_md5_update:
.LFB10:
	.loc 1 288 1 is_stmt 1
	.cfi_startproc
.LVL39:
	.loc 1 289 5
	.loc 1 288 1 is_stmt 0
	addi	sp,sp,-16
	.cfi_def_cfa_offset 16
	sw	s0,12(sp)
	.cfi_offset 8, -4
	addi	s0,sp,16
	.cfi_def_cfa 8, 0
	.loc 1 290 1
	lw	s0,12(sp)
	.cfi_restore 8
	.cfi_def_cfa 2, 16
	addi	sp,sp,16
	.cfi_def_cfa_offset 0
	.loc 1 289 5
	tail	mbedtls_md5_update_ret
.LVL40:
	.cfi_endproc
.LFE10:
	.size	mbedtls_md5_update, .-mbedtls_md5_update
	.section	.text.mbedtls_md5_finish_ret,"ax",@progbits
	.align	1
	.globl	mbedtls_md5_finish_ret
	.type	mbedtls_md5_finish_ret, @function
mbedtls_md5_finish_ret:
.LFB11:
	.loc 1 298 1 is_stmt 1
	.cfi_startproc
.LVL41:
	.loc 1 299 5
	.loc 1 300 5
	.loc 1 301 5
	.loc 1 306 5
	.loc 1 298 1 is_stmt 0
	addi	sp,sp,-32
	.cfi_def_cfa_offset 32
	sw	s0,24(sp)
	sw	s1,20(sp)
	sw	s2,16(sp)
	sw	s3,12(sp)
	sw	ra,28(sp)
	.cfi_offset 8, -8
	.cfi_offset 9, -12
	.cfi_offset 18, -16
	.cfi_offset 19, -20
	.cfi_offset 1, -4
	addi	s0,sp,32
	.cfi_def_cfa 8, 0
	.loc 1 306 10
	lw	a5,0(a0)
	.loc 1 308 25
	li	a3,-128
	.loc 1 313 17
	addi	s3,a0,24
	.loc 1 306 10
	andi	a5,a5,63
.LVL42:
	.loc 1 308 5 is_stmt 1
	.loc 1 308 21 is_stmt 0
	addi	a4,a5,1
.LVL43:
	.loc 1 308 25
	add	a5,a0,a5
	sb	a3,24(a5)
	.loc 1 310 5 is_stmt 1
	.loc 1 310 7 is_stmt 0
	li	a2,56
	.loc 1 298 1
	mv	s1,a0
	mv	s2,a1
	.loc 1 313 9
	add	a0,s3,a4
.LVL44:
	.loc 1 310 7
	bgtu	a4,a2,.L37
	.loc 1 313 9 is_stmt 1
	sub	a2,a2,a4
	li	a1,0
.LVL45:
.L41:
	.loc 1 323 9 is_stmt 0
	call	memset
.LVL46:
	.loc 1 329 5 is_stmt 1
	.loc 1 329 24 is_stmt 0
	lw	a4,0(s1)
	.loc 1 330 28
	lw	a5,4(s1)
	.loc 1 336 17
	mv	a1,s3
	.loc 1 329 28
	srli	a3,a4,29
	.loc 1 330 28
	slli	a5,a5,3
	.loc 1 329 10
	or	a5,a5,a3
.LVL47:
	.loc 1 331 5 is_stmt 1
	.loc 1 333 7
	.loc 1 333 68
	.loc 1 333 141
	.loc 1 333 215
	.loc 1 331 9 is_stmt 0
	slli	a4,a4,3
.LVL48:
	.loc 1 333 32
	sw	a4,80(s1)
	.loc 1 333 290 is_stmt 1
	.loc 1 334 7
	.loc 1 334 69
	.loc 1 334 143
	.loc 1 334 218
	.loc 1 334 32 is_stmt 0
	sw	a5,84(s1)
	.loc 1 334 294 is_stmt 1
	.loc 1 336 5
	.loc 1 336 17 is_stmt 0
	mv	a0,s1
	call	mbedtls_internal_md5_process
.LVL49:
	.loc 1 336 7
	bne	a0,zero,.L36
	.loc 1 342 7 is_stmt 1
	.loc 1 342 30 is_stmt 0
	lw	a5,8(s1)
	sb	a5,0(s2)
	.loc 1 342 72 is_stmt 1
	.loc 1 342 130 is_stmt 0
	lw	a5,8(s1)
	srli	a5,a5,8
	.loc 1 342 98
	sb	a5,1(s2)
	.loc 1 342 149 is_stmt 1
	.loc 1 342 207 is_stmt 0
	lhu	a5,10(s1)
	.loc 1 342 175
	sb	a5,2(s2)
	.loc 1 342 227 is_stmt 1
	.loc 1 342 285 is_stmt 0
	lbu	a5,11(s1)
	.loc 1 342 253
	sb	a5,3(s2)
	.loc 1 342 306 is_stmt 1
	.loc 1 343 7
	.loc 1 343 30 is_stmt 0
	lw	a5,12(s1)
	sb	a5,4(s2)
	.loc 1 343 72 is_stmt 1
	.loc 1 343 130 is_stmt 0
	lw	a5,12(s1)
	srli	a5,a5,8
	.loc 1 343 98
	sb	a5,5(s2)
	.loc 1 343 149 is_stmt 1
	.loc 1 343 207 is_stmt 0
	lhu	a5,14(s1)
	.loc 1 343 175
	sb	a5,6(s2)
	.loc 1 343 227 is_stmt 1
	.loc 1 343 285 is_stmt 0
	lbu	a5,15(s1)
	.loc 1 343 253
	sb	a5,7(s2)
	.loc 1 343 306 is_stmt 1
	.loc 1 344 7
	.loc 1 344 30 is_stmt 0
	lw	a5,16(s1)
	sb	a5,8(s2)
	.loc 1 344 72 is_stmt 1
	.loc 1 344 130 is_stmt 0
	lw	a5,16(s1)
	srli	a5,a5,8
	.loc 1 344 98
	sb	a5,9(s2)
	.loc 1 344 149 is_stmt 1
	.loc 1 344 207 is_stmt 0
	lhu	a5,18(s1)
	.loc 1 344 175
	sb	a5,10(s2)
	.loc 1 344 227 is_stmt 1
	.loc 1 344 285 is_stmt 0
	lbu	a5,19(s1)
	.loc 1 344 253
	sb	a5,11(s2)
	.loc 1 344 306 is_stmt 1
	.loc 1 345 7
	.loc 1 345 31 is_stmt 0
	lw	a5,20(s1)
	sb	a5,12(s2)
	.loc 1 345 73 is_stmt 1
	.loc 1 345 132 is_stmt 0
	lw	a5,20(s1)
	srli	a5,a5,8
	.loc 1 345 100
	sb	a5,13(s2)
	.loc 1 345 151 is_stmt 1
	.loc 1 345 210 is_stmt 0
	lhu	a5,22(s1)
	.loc 1 345 178
	sb	a5,14(s2)
	.loc 1 345 230 is_stmt 1
	.loc 1 345 289 is_stmt 0
	lbu	a5,23(s1)
	.loc 1 345 257
	sb	a5,15(s2)
	.loc 1 345 310 is_stmt 1
	.loc 1 347 5
.L36:
	.loc 1 348 1 is_stmt 0
	lw	ra,28(sp)
	.cfi_remember_state
	.cfi_restore 1
	lw	s0,24(sp)
	.cfi_restore 8
	.cfi_def_cfa 2, 32
	lw	s1,20(sp)
	.cfi_restore 9
.LVL50:
	lw	s2,16(sp)
	.cfi_restore 18
.LVL51:
	lw	s3,12(sp)
	.cfi_restore 19
.LVL52:
	addi	sp,sp,32
	.cfi_def_cfa_offset 0
	jr	ra
.LVL53:
.L37:
	.cfi_restore_state
	.loc 1 318 9 is_stmt 1
	li	a2,64
	li	a1,0
.LVL54:
	sub	a2,a2,a4
	call	memset
.LVL55:
	.loc 1 320 9
	.loc 1 320 21 is_stmt 0
	mv	a1,s3
	mv	a0,s1
	call	mbedtls_internal_md5_process
.LVL56:
	.loc 1 320 11
	bne	a0,zero,.L36
	.loc 1 323 9 is_stmt 1
	li	a2,56
	li	a1,0
	mv	a0,s3
.LVL57:
	j	.L41
	.cfi_endproc
.LFE11:
	.size	mbedtls_md5_finish_ret, .-mbedtls_md5_finish_ret
	.section	.text.mbedtls_md5_finish,"ax",@progbits
	.align	1
	.globl	mbedtls_md5_finish
	.type	mbedtls_md5_finish, @function
mbedtls_md5_finish:
.LFB12:
	.loc 1 353 1
	.cfi_startproc
.LVL58:
	.loc 1 354 5
	.loc 1 353 1 is_stmt 0
	addi	sp,sp,-16
	.cfi_def_cfa_offset 16
	sw	s0,12(sp)
	.cfi_offset 8, -4
	addi	s0,sp,16
	.cfi_def_cfa 8, 0
	.loc 1 355 1
	lw	s0,12(sp)
	.cfi_restore 8
	.cfi_def_cfa 2, 16
	addi	sp,sp,16
	.cfi_def_cfa_offset 0
	.loc 1 354 5
	tail	mbedtls_md5_finish_ret
.LVL59:
	.cfi_endproc
.LFE12:
	.size	mbedtls_md5_finish, .-mbedtls_md5_finish
	.section	.text.mbedtls_md5_ret,"ax",@progbits
	.align	1
	.globl	mbedtls_md5_ret
	.type	mbedtls_md5_ret, @function
mbedtls_md5_ret:
.LFB13:
	.loc 1 366 1 is_stmt 1
	.cfi_startproc
.LVL60:
	.loc 1 367 5
	.loc 1 368 5
	.loc 1 370 5
	.loc 1 366 1 is_stmt 0
	addi	sp,sp,-128
	.cfi_def_cfa_offset 128
	sw	s0,120(sp)
	sw	s1,116(sp)
	.cfi_offset 8, -8
	.cfi_offset 9, -12
	addi	s0,sp,128
	.cfi_def_cfa 8, 0
	sw	s2,112(sp)
	sw	s3,108(sp)
	sw	ra,124(sp)
	mv	s1,a0
	.cfi_offset 18, -16
	.cfi_offset 19, -20
	.cfi_offset 1, -4
	.loc 1 370 5
	addi	a0,s0,-120
.LVL61:
	.loc 1 366 1
	mv	s3,a1
	mv	s2,a2
	.loc 1 370 5
	call	mbedtls_md5_init
.LVL62:
	.loc 1 372 5 is_stmt 1
.LBB8:
.LBB9:
	.loc 1 70 5
	.loc 1 73 19 is_stmt 0
	li	a5,1732583424
	addi	a5,a5,769
	sw	a5,-112(s0)
	.loc 1 74 19
	li	a5,-271732736
	addi	a5,a5,-1143
	sw	a5,-108(s0)
	.loc 1 75 19
	li	a5,-1732583424
	addi	a5,a5,-770
	sw	a5,-104(s0)
	.loc 1 76 19
	li	a5,271732736
	addi	a5,a5,1142
.LBE9:
.LBE8:
	.loc 1 375 17
	mv	a2,s3
	mv	a1,s1
	addi	a0,s0,-120
.LVL63:
.LBB11:
.LBB10:
	.loc 1 70 19
	sw	zero,-120(s0)
	.loc 1 71 5 is_stmt 1
	.loc 1 71 19 is_stmt 0
	sw	zero,-116(s0)
	.loc 1 73 5 is_stmt 1
	.loc 1 74 5
	.loc 1 75 5
	.loc 1 76 5
	.loc 1 76 19 is_stmt 0
	sw	a5,-100(s0)
	.loc 1 78 5 is_stmt 1
.LVL64:
.LBE10:
.LBE11:
	.loc 1 375 5
	.loc 1 375 17 is_stmt 0
	call	mbedtls_md5_update_ret
.LVL65:
	.loc 1 375 7
	bne	a0,zero,.L46
	.loc 1 378 5 is_stmt 1
	.loc 1 378 17 is_stmt 0
	mv	a1,s2
	addi	a0,s0,-120
.LVL66:
	call	mbedtls_md5_finish_ret
.LVL67:
.L46:
.L45:
	mv	s1,a0
.LVL68:
	.loc 1 382 5 is_stmt 1
	addi	a0,s0,-120
	call	mbedtls_md5_free
.LVL69:
	.loc 1 384 5
	.loc 1 385 1 is_stmt 0
	lw	ra,124(sp)
	.cfi_restore 1
	lw	s0,120(sp)
	.cfi_restore 8
	.cfi_def_cfa 2, 128
	lw	s2,112(sp)
	.cfi_restore 18
.LVL70:
	lw	s3,108(sp)
	.cfi_restore 19
.LVL71:
	mv	a0,s1
	lw	s1,116(sp)
	.cfi_restore 9
.LVL72:
	addi	sp,sp,128
	.cfi_def_cfa_offset 0
	jr	ra
	.cfi_endproc
.LFE13:
	.size	mbedtls_md5_ret, .-mbedtls_md5_ret
	.section	.text.mbedtls_md5,"ax",@progbits
	.align	1
	.globl	mbedtls_md5
	.type	mbedtls_md5, @function
mbedtls_md5:
.LFB14:
	.loc 1 391 1 is_stmt 1
	.cfi_startproc
.LVL73:
	.loc 1 392 5
	.loc 1 391 1 is_stmt 0
	addi	sp,sp,-16
	.cfi_def_cfa_offset 16
	sw	s0,12(sp)
	.cfi_offset 8, -4
	addi	s0,sp,16
	.cfi_def_cfa 8, 0
	.loc 1 393 1
	lw	s0,12(sp)
	.cfi_restore 8
	.cfi_def_cfa 2, 16
	addi	sp,sp,16
	.cfi_def_cfa_offset 0
	.loc 1 392 5
	tail	mbedtls_md5_ret
.LVL74:
	.cfi_endproc
.LFE14:
	.size	mbedtls_md5, .-mbedtls_md5
	.text
.Letext0:
	.file 2 "/home/dinhquangha/Ai-Thinker-WB2/toolchain/riscv/Linux/lib/gcc/riscv64-unknown-elf/10.2.0/include/stddef.h"
	.file 3 "/home/dinhquangha/Ai-Thinker-WB2/toolchain/riscv/Linux/lib/gcc/riscv64-unknown-elf/10.2.0/include/stdint-gcc.h"
	.file 4 "/home/dinhquangha/Ai-Thinker-WB2/components/security/mbedtls_lts/mbedtls/include/mbedtls/md5.h"
	.file 5 "/home/dinhquangha/Ai-Thinker-WB2/toolchain/riscv/Linux/riscv64-unknown-elf/include/string.h"
	.file 6 "/home/dinhquangha/Ai-Thinker-WB2/components/security/mbedtls_lts/mbedtls/include/mbedtls/platform_util.h"
	.file 7 "<built-in>"