	.file	"oid.c"
	.option nopic
	.attribute arch, "rv32i2p0_m2p0_f2p0_c2p0"
	.attribute unaligned_access, 0
	.attribute stack_align, 16
	.text
.Ltext0:
	.cfi_sections	.debug_frame
	.section	.text.oid_sig_alg_from_asn1.part.0,"ax",@progbits
	.align	1
	.type	oid_sig_alg_from_asn1.part.0, @function
oid_sig_alg_from_asn1.part.0:
.LFB41:
	.file 1 "/home/quanghaictu/intern/Ai-Thinker-WB2/components/security/mbedtls_lts/mbedtls/library/oid.c"
	.loc 1 415 30
	.cfi_startproc
.LVL0:
	addi	sp,sp,-16
	.cfi_def_cfa_offset 16
	sw	s0,8(sp)
	sw	s1,4(sp)
	sw	s2,0(sp)
	sw	ra,12(sp)
	.cfi_offset 8, -8
	.cfi_offset 9, -12
	.cfi_offset 18, -16
	.cfi_offset 1, -4
	addi	s0,sp,16
	.cfi_def_cfa 8, 0
	.loc 1 415 106 is_stmt 0
	lui	s1,%hi(.LANCHOR0)
	.loc 1 415 30
	.loc 1 415 30
	mv	s2,a0
	.loc 1 415 106
	addi	s1,s1,%lo(.LANCHOR0)
.LVL1:
.L2:
	.loc 1 415 9 is_stmt 1
	.loc 1 415 14 is_stmt 0
	lw	a0,0(s1)
	.loc 1 415 9
	bne	a0,zero,.L6
	.loc 1 415 157
	li	s1,0
.LVL2:
	j	.L1
.LVL3:
.L6:
	.loc 1 415 5 is_stmt 1
	.loc 1 415 29 is_stmt 0
	lw	a5,4(s2)
	.loc 1 415 7
	lw	a2,4(s1)
	beq	a2,a5,.L3
.L5:
	.loc 1 415 100 is_stmt 1
	.loc 1 415 101 is_stmt 0
	addi	s1,s1,24
.LVL4:
	.loc 1 415 105 is_stmt 1
	j	.L2
.L3:
	.loc 1 415 38 is_stmt 0
	lw	a1,8(s2)
	call	memcmp
.LVL5:
	.loc 1 415 35
	bne	a0,zero,.L5
.LVL6:
.L1:
	.loc 1 415 4
	lw	ra,12(sp)
	.cfi_restore 1
	lw	s0,8(sp)
	.cfi_restore 8
	.cfi_def_cfa 2, 16
	lw	s2,0(sp)
	.cfi_restore 18
.LVL7:
	mv	a0,s1
	lw	s1,4(sp)
	.cfi_restore 9
	addi	sp,sp,16
	.cfi_def_cfa_offset 0
	jr	ra
	.cfi_endproc
.LFE41:
	.size	oid_sig_alg_from_asn1.part.0, .-oid_sig_alg_from_asn1.part.0
	.section	.text.mbedtls_oid_get_attr_short_name,"ax",@progbits
	.align	1
	.globl	mbedtls_oid_get_attr_short_name
	.type	mbedtls_oid_get_attr_short_name, @function
mbedtls_oid_get_attr_short_name:
.LFB16:
	.loc 1 242 95 is_stmt 1
	.cfi_startproc
.LVL8:
	.loc 1 242 97
.LBB4:
.LBB5:
	.loc 1 241 89
	.loc 1 241 138
	.loc 1 241 214
	.loc 1 241 1 is_stmt 0
	bne	a0,zero,.L19
.LBE5:
.LBE4:
	.loc 1 242 9
	li	a0,-46
.LVL9:
	.loc 1 242 67
	ret
.LVL10:
.L17:
	.cfi_def_cfa_register 8
	.cfi_offset 1, -4
	.cfi_offset 8, -8
	.cfi_offset 9, -12
	.cfi_offset 18, -16
	.cfi_offset 19, -20
.LBB10:
.LBB6:
	.loc 1 241 5 is_stmt 1
	.loc 1 241 29 is_stmt 0
	lw	a5,4(s2)
	.loc 1 241 7
	lw	a2,4(s1)
	beq	a2,a5,.L14
.L16:
	.loc 1 241 100 is_stmt 1
	.loc 1 241 101 is_stmt 0
	addi	s1,s1,20
.LVL11:
	.loc 1 241 105 is_stmt 1
.L12:
	.loc 1 241 9
	.loc 1 241 14 is_stmt 0
	lw	a0,0(s1)
	.loc 1 241 9
	bne	a0,zero,.L17
.LBE6:
.LBE10:
	.loc 1 242 9
	li	a0,-46
.LVL12:
.L11:
	.loc 1 242 67
	lw	ra,28(sp)
	.cfi_remember_state
	.cfi_restore 1
	lw	s0,24(sp)
	.cfi_restore 8
	.cfi_def_cfa 2, 32
	lw	s1,20(sp)
	.cfi_restore 9
.LVL13:
	lw	s2,16(sp)
	.cfi_restore 18
.LVL14:
	lw	s3,12(sp)
	.cfi_restore 19
.LVL15:
	addi	sp,sp,32
	.cfi_def_cfa_offset 0
	jr	ra
.LVL16:
.L14:
	.cfi_restore_state
.LBB11:
.LBB7:
	.loc 1 241 38
	lw	a1,8(s2)
	call	memcmp
.LVL17:
	.loc 1 241 35
	bne	a0,zero,.L16
.LVL18:
.LBE7:
.LBE11:
	.loc 1 242 159 is_stmt 1
	.loc 1 242 22
	.loc 1 242 40 is_stmt 0
	lw	a5,16(s1)
	.loc 1 242 34
	sw	a5,0(s3)
	.loc 1 242 54 is_stmt 1
	.loc 1 242 60 is_stmt 0
	j	.L11
.LVL19:
.L19:
	.cfi_def_cfa_register 2
	.cfi_restore 1
	.cfi_restore 8
	.cfi_restore 9
	.cfi_restore 18
	.cfi_restore 19
	.loc 1 242 95
	addi	sp,sp,-32
	.cfi_def_cfa_offset 32
	sw	s0,24(sp)
	sw	s1,20(sp)
	sw	s2,16(sp)
	sw	s3,12(sp)
	sw	ra,28(sp)
	.cfi_offset 8, -8
	.cfi_offset 9, -12
	.cfi_offset 18, -16
	.cfi_offset 19, -20
	.cfi_offset 1, -4
	addi	s0,sp,32
	.cfi_def_cfa 8, 0
.LBB12:
.LBB8:
	.loc 1 241 112
	lui	s1,%hi(.LANCHOR1)
.LBE8:
.LBE12:
	.loc 1 242 95
	mv	s2,a0
	mv	s3,a1
.LBB13:
.LBB9:
	.loc 1 241 112
	addi	s1,s1,%lo(.LANCHOR1)
	j	.L12
.LBE9:
.LBE13:
	.cfi_endproc
.LFE16:
	.size	mbedtls_oid_get_attr_short_name, .-mbedtls_oid_get_attr_short_name
	.section	.text.mbedtls_oid_get_x509_ext_type,"ax",@progbits
	.align	1
	.globl	mbedtls_oid_get_x509_ext_type
	.type	mbedtls_oid_get_x509_ext_type, @function
mbedtls_oid_get_x509_ext_type:
.LFB18:
	.loc 1 285 82 is_stmt 1
	.cfi_startproc
.LVL20:
	.loc 1 285 84
.LBB16:
.LBB17:
	.loc 1 284 87
	.loc 1 284 129
	.loc 1 284 205
	.loc 1 284 1 is_stmt 0
	bne	a0,zero,.L31
.LBE17:
.LBE16:
	.loc 1 285 9
	li	a0,-46
.LVL21:
	.loc 1 285 63
	ret
.LVL22:
.L29:
	.cfi_def_cfa_register 8
	.cfi_offset 1, -4
	.cfi_offset 8, -8
	.cfi_offset 9, -12
	.cfi_offset 18, -16
	.cfi_offset 19, -20
.LBB22:
.LBB18:
	.loc 1 284 5 is_stmt 1
	.loc 1 284 29 is_stmt 0
	lw	a5,4(s2)
	.loc 1 284 7
	lw	a2,4(s1)
	beq	a2,a5,.L26
.L28:
	.loc 1 284 100 is_stmt 1
	.loc 1 284 101 is_stmt 0
	addi	s1,s1,20
.LVL23:
	.loc 1 284 105 is_stmt 1
.L24:
	.loc 1 284 9
	.loc 1 284 14 is_stmt 0
	lw	a0,0(s1)
	.loc 1 284 9
	bne	a0,zero,.L29
.LBE18:
.LBE22:
	.loc 1 285 9
	li	a0,-46
.LVL24:
.L23:
	.loc 1 285 63
	lw	ra,28(sp)
	.cfi_remember_state
	.cfi_restore 1
	lw	s0,24(sp)
	.cfi_restore 8
	.cfi_def_cfa 2, 32
	lw	s1,20(sp)
	.cfi_restore 9
.LVL25:
	lw	s2,16(sp)
	.cfi_restore 18
.LVL26:
	lw	s3,12(sp)
	.cfi_restore 19
.LVL27:
	addi	sp,sp,32
	.cfi_def_cfa_offset 0
	jr	ra
.LVL28:
.L26:
	.cfi_restore_state
.LBB23:
.LBB19:
	.loc 1 284 38
	lw	a1,8(s2)
	call	memcmp
.LVL29:
	.loc 1 284 35
	bne	a0,zero,.L28
.LVL30:
.LBE19:
.LBE23:
	.loc 1 285 144 is_stmt 1
	.loc 1 285 22
	.loc 1 285 38 is_stmt 0
	lw	a5,16(s1)
	.loc 1 285 32
	sw	a5,0(s3)
	.loc 1 285 50 is_stmt 1
	.loc 1 285 56 is_stmt 0
	j	.L23
.LVL31:
.L31:
	.cfi_def_cfa_register 2
	.cfi_restore 1
	.cfi_restore 8
	.cfi_restore 9
	.cfi_restore 18
	.cfi_restore 19
	.loc 1 285 82
	addi	sp,sp,-32
	.cfi_def_cfa_offset 32
	sw	s0,24(sp)
	sw	s1,20(sp)
	sw	s2,16(sp)
	sw	s3,12(sp)
	sw	ra,28(sp)
	.cfi_offset 8, -8
	.cfi_offset 9, -12
	.cfi_offset 18, -16
	.cfi_offset 19, -20
	.cfi_offset 1, -4
	addi	s0,sp,32
	.cfi_def_cfa 8, 0
.LBB24:
.LBB20:
	.loc 1 284 109
	lui	s1,%hi(.LANCHOR2)
.LBE20:
.LBE24:
	.loc 1 285 82
	mv	s2,a0
	mv	s3,a1
.LBB25:
.LBB21:
	.loc 1 284 109
	addi	s1,s1,%lo(.LANCHOR2)
	j	.L24
.LBE21:
.LBE25:
	.cfi_endproc
.LFE18:
	.size	mbedtls_oid_get_x509_ext_type, .-mbedtls_oid_get_x509_ext_type
	.section	.text.mbedtls_oid_get_extended_key_usage,"ax",@progbits
	.align	1
	.globl	mbedtls_oid_get_extended_key_usage
	.type	mbedtls_oid_get_extended_key_usage, @function
mbedtls_oid_get_extended_key_usage:
.LFB20:
	.loc 1 300 99 is_stmt 1
	.cfi_startproc
.LVL32:
	.loc 1 300 101
.LBB28:
.LBB29:
	.loc 1 299 102
	.loc 1 299 159
	.loc 1 299 235
	.loc 1 299 1 is_stmt 0
	bne	a0,zero,.L43
.LBE29:
.LBE28:
	.loc 1 300 9
	li	a0,-46
.LVL33:
	.loc 1 300 69
	ret
.LVL34:
.L41:
	.cfi_def_cfa_register 8
	.cfi_offset 1, -4
	.cfi_offset 8, -8
	.cfi_offset 9, -12
	.cfi_offset 18, -16
	.cfi_offset 19, -20
.LBB34:
.LBB30:
	.loc 1 299 5 is_stmt 1
	.loc 1 299 29 is_stmt 0
	lw	a5,4(s2)
	.loc 1 299 7
	lw	a2,4(s1)
	beq	a2,a5,.L38
.L40:
	.loc 1 299 100 is_stmt 1
	.loc 1 299 101 is_stmt 0
	addi	s1,s1,16
.LVL35:
	.loc 1 299 105 is_stmt 1
.L36:
	.loc 1 299 9
	.loc 1 299 14 is_stmt 0
	lw	a0,0(s1)
	.loc 1 299 9
	bne	a0,zero,.L41
.LBE30:
.LBE34:
	.loc 1 300 9
	li	a0,-46
.LVL36:
.L35:
	.loc 1 300 69
	lw	ra,28(sp)
	.cfi_remember_state
	.cfi_restore 1
	lw	s0,24(sp)
	.cfi_restore 8
	.cfi_def_cfa 2, 32
	lw	s1,20(sp)
	.cfi_restore 9
.LVL37:
	lw	s2,16(sp)
	.cfi_restore 18
.LVL38:
	lw	s3,12(sp)
	.cfi_restore 19
.LVL39:
	addi	sp,sp,32
	.cfi_def_cfa_offset 0
	jr	ra
.LVL40:
.L38:
	.cfi_restore_state
.LBB35:
.LBB31:
	.loc 1 299 38
	lw	a1,8(s2)
	call	memcmp
.LVL41:
	.loc 1 299 35
	bne	a0,zero,.L40
.LVL42:
.LBE31:
.LBE35:
	.loc 1 300 176 is_stmt 1
	.loc 1 300 22
	.loc 1 300 41 is_stmt 0
	lw	a5,12(s1)
	.loc 1 300 35
	sw	a5,0(s3)
	.loc 1 300 56 is_stmt 1
	.loc 1 300 62 is_stmt 0
	j	.L35
.LVL43:
.L43:
	.cfi_def_cfa_register 2
	.cfi_restore 1
	.cfi_restore 8
	.cfi_restore 9
	.cfi_restore 18
	.cfi_restore 19
	.loc 1 300 99
	addi	sp,sp,-32
	.cfi_def_cfa_offset 32
	sw	s0,24(sp)
	sw	s1,20(sp)
	sw	s2,16(sp)
	sw	s3,12(sp)
	sw	ra,28(sp)
	.cfi_offset 8, -8
	.cfi_offset 9, -12
	.cfi_offset 18, -16
	.cfi_offset 19, -20
	.cfi_offset 1, -4
	addi	s0,sp,32
	.cfi_def_cfa 8, 0
.LBB36:
.LBB32:
	.loc 1 299 134
	lui	s1,%hi(.LANCHOR3)
.LBE32:
.LBE36:
	.loc 1 300 99
	mv	s2,a0
	mv	s3,a1
.LBB37:
.LBB33:
	.loc 1 299 134
	addi	s1,s1,%lo(.LANCHOR3)
	j	.L36
.LBE33:
.LBE37:
	.cfi_endproc
.LFE20:
	.size	mbedtls_oid_get_extended_key_usage, .-mbedtls_oid_get_extended_key_usage
	.section	.text.mbedtls_oid_get_certificate_policies,"ax",@progbits
	.align	1
	.globl	mbedtls_oid_get_certificate_policies
	.type	mbedtls_oid_get_certificate_policies, @function
mbedtls_oid_get_certificate_policies:
.LFB22:
	.loc 1 309 101 is_stmt 1
	.cfi_startproc
.LVL44:
	.loc 1 309 103
.LBB40:
.LBB41:
	.loc 1 308 109
	.loc 1 308 173
	.loc 1 308 249
	.loc 1 308 1 is_stmt 0
	bne	a0,zero,.L55
.LBE41:
.LBE40:
	.loc 1 309 9
	li	a0,-46
.LVL45:
	.loc 1 309 69
	ret
.LVL46:
.L53:
	.cfi_def_cfa_register 8
	.cfi_offset 1, -4
	.cfi_offset 8, -8
	.cfi_offset 9, -12
	.cfi_offset 18, -16
	.cfi_offset 19, -20
.LBB46:
.LBB42:
	.loc 1 308 5 is_stmt 1
	.loc 1 308 29 is_stmt 0
	lw	a5,4(s2)
	.loc 1 308 7
	lw	a2,4(s1)
	beq	a2,a5,.L50
.L52:
	.loc 1 308 100 is_stmt 1
	.loc 1 308 101 is_stmt 0
	addi	s1,s1,16
.LVL47:
	.loc 1 308 105 is_stmt 1
.L48:
	.loc 1 308 9
	.loc 1 308 14 is_stmt 0
	lw	a0,0(s1)
	.loc 1 308 9
	bne	a0,zero,.L53
.LBE42:
.LBE46:
	.loc 1 309 9
	li	a0,-46
.LVL48:
.L47:
	.loc 1 309 69
	lw	ra,28(sp)
	.cfi_remember_state
	.cfi_restore 1
	lw	s0,24(sp)
	.cfi_restore 8
	.cfi_def_cfa 2, 32
	lw	s1,20(sp)
	.cfi_restore 9
.LVL49:
	lw	s2,16(sp)
	.cfi_restore 18
.LVL50:
	lw	s3,12(sp)
	.cfi_restore 19
.LVL51:
	addi	sp,sp,32
	.cfi_def_cfa_offset 0
	jr	ra
.LVL52:
.L50:
	.cfi_restore_state
.LBB47:
.LBB43:
	.loc 1 308 38
	lw	a1,8(s2)
	call	memcmp
.LVL53:
	.loc 1 308 35
	bne	a0,zero,.L52
.LVL54:
.LBE43:
.LBE47:
	.loc 1 309 185 is_stmt 1
	.loc 1 309 22
	.loc 1 309 41 is_stmt 0
	lw	a5,12(s1)
	.loc 1 309 35
	sw	a5,0(s3)
	.loc 1 309 56 is_stmt 1
	.loc 1 309 62 is_stmt 0
	j	.L47
.LVL55:
.L55:
	.cfi_def_cfa_register 2
	.cfi_restore 1
	.cfi_restore 8
	.cfi_restore 9
	.cfi_restore 18
	.cfi_restore 19
	.loc 1 309 101
	addi	sp,sp,-32
	.cfi_def_cfa_offset 32
	sw	s0,24(sp)
	sw	s1,20(sp)
	sw	s2,16(sp)
	sw	s3,12(sp)
	sw	ra,28(sp)
	.cfi_offset 8, -8
	.cfi_offset 9, -12
	.cfi_offset 18, -16
	.cfi_offset 19, -20
	.cfi_offset 1, -4
	addi	s0,sp,32
	.cfi_def_cfa 8, 0
.LBB48:
.LBB44:
	.loc 1 308 141
	lui	s1,%hi(.LANCHOR4)
.LBE44:
.LBE48:
	.loc 1 309 101
	mv	s2,a0
	mv	s3,a1
.LBB49:
.LBB45:
	.loc 1 308 141
	addi	s1,s1,%lo(.LANCHOR4)
	j	.L48
.LBE45:
.LBE49:
	.cfi_endproc
.LFE22:
	.size	mbedtls_oid_get_certificate_policies, .-mbedtls_oid_get_certificate_policies
	.section	.text.mbedtls_oid_get_sig_alg_desc,"ax",@progbits
	.align	1
	.globl	mbedtls_oid_get_sig_alg_desc
	.type	mbedtls_oid_get_sig_alg_desc, @function
mbedtls_oid_get_sig_alg_desc:
.LFB24:
	.loc 1 416 93 is_stmt 1
	.cfi_startproc
.LVL56:
	.loc 1 416 95
.LBB52:
.LBB53:
	.loc 1 415 85
	.loc 1 415 125
	.loc 1 415 201
	.loc 1 415 1 is_stmt 0
	bne	a0,zero,.L60
.LBE53:
.LBE52:
	.loc 1 416 9
	li	a0,-46
.LVL57:
	.loc 1 416 80
	ret
.LVL58:
.L62:
	.cfi_def_cfa_register 8
	.cfi_offset 1, -4
	.cfi_offset 8, -8
	.cfi_offset 9, -12
	.loc 1 416 9
	li	a0,-46
.LVL59:
.L59:
	.loc 1 416 80
	lw	ra,12(sp)
	.cfi_restore 1
	lw	s0,8(sp)
	.cfi_restore 8
	.cfi_def_cfa 2, 16
	lw	s1,4(sp)
	.cfi_restore 9
.LVL60:
	addi	sp,sp,16
	.cfi_def_cfa_offset 0
	jr	ra
.LVL61:
.L60:
	.loc 1 416 93
	addi	sp,sp,-16
	.cfi_def_cfa_offset 16
	sw	s0,8(sp)
	sw	s1,4(sp)
	sw	ra,12(sp)
	.cfi_offset 8, -8
	.cfi_offset 9, -12
	.cfi_offset 1, -4
	addi	s0,sp,16
	.cfi_def_cfa 8, 0
	mv	s1,a1
.LBB55:
.LBB54:
	call	oid_sig_alg_from_asn1.part.0
.LVL62:
.LBE54:
.LBE55:
	.loc 1 416 153 is_stmt 1
	.loc 1 416 155 is_stmt 0
	beq	a0,zero,.L62
	.loc 1 416 22 is_stmt 1 discriminator 2
	.loc 1 416 53 is_stmt 0 discriminator 2
	lw	a5,12(a0)
	.loc 1 416 73 discriminator 2
	li	a0,0
.LVL63:
	.loc 1 416 35 discriminator 2
	sw	a5,0(s1)
	.loc 1 416 67 is_stmt 1 discriminator 2
	.loc 1 416 73 is_stmt 0 discriminator 2
	j	.L59
	.cfi_endproc
.LFE24:
	.size	mbedtls_oid_get_sig_alg_desc, .-mbedtls_oid_get_sig_alg_desc
	.section	.text.mbedtls_oid_get_sig_alg,"ax",@progbits
	.align	1
	.globl	mbedtls_oid_get_sig_alg
	.type	mbedtls_oid_get_sig_alg, @function
mbedtls_oid_get_sig_alg:
.LFB25:
	.loc 1 417 116 is_stmt 1
	.cfi_startproc
.LVL64:
	.loc 1 417 118
.LBB58:
.LBB59:
	.loc 1 415 85
	.loc 1 415 125
	.loc 1 415 201
	.loc 1 415 1 is_stmt 0
	bne	a0,zero,.L70
.LBE59:
.LBE58:
	.loc 1 417 9
	li	a0,-46
.LVL65:
	.loc 1 417 87
	ret
.LVL66:
.L72:
	.cfi_def_cfa_register 8
	.cfi_offset 1, -4
	.cfi_offset 8, -8
	.cfi_offset 9, -12
	.cfi_offset 18, -16
	.loc 1 417 9
	li	a0,-46
.LVL67:
.L69:
	.loc 1 417 87
	lw	ra,12(sp)
	.cfi_restore 1
	lw	s0,8(sp)
	.cfi_restore 8
	.cfi_def_cfa 2, 16
	lw	s1,4(sp)
	.cfi_restore 9
.LVL68:
	lw	s2,0(sp)
	.cfi_restore 18
.LVL69:
	addi	sp,sp,16
	.cfi_def_cfa_offset 0
	jr	ra
.LVL70:
.L70:
	.loc 1 417 116
	addi	sp,sp,-16
	.cfi_def_cfa_offset 16
	sw	s0,8(sp)
	sw	s1,4(sp)
	sw	s2,0(sp)
	sw	ra,12(sp)
	.cfi_offset 8, -8
	.cfi_offset 9, -12
	.cfi_offset 18, -16
	.cfi_offset 1, -4
	addi	s0,sp,16
	.cfi_def_cfa 8, 0
	mv	s2,a1
	mv	s1,a2
.LBB61:
.LBB60:
	call	oid_sig_alg_from_asn1.part.0
.LVL71:
.LBE60:
.LBE61:
	.loc 1 417 176 is_stmt 1
	.loc 1 417 178 is_stmt 0
	beq	a0,zero,.L72
	.loc 1 417 22 is_stmt 1 discriminator 2
	.loc 1 417 38 is_stmt 0 discriminator 2
	lw	a5,16(a0)
	.loc 1 417 32 discriminator 2
	sw	a5,0(s2)
	.loc 1 417 48 is_stmt 1 discriminator 2
	.loc 1 417 64 is_stmt 0 discriminator 2
	lw	a5,20(a0)
	.loc 1 417 80 discriminator 2
	li	a0,0
.LVL72:
	.loc 1 417 58 discriminator 2
	sw	a5,0(s1)
	.loc 1 417 74 is_stmt 1 discriminator 2
	.loc 1 417 80 is_stmt 0 discriminator 2
	j	.L69
	.cfi_endproc
.LFE25:
	.size	mbedtls_oid_get_sig_alg, .-mbedtls_oid_get_sig_alg
	.section	.text.mbedtls_oid_get_oid_by_sig_alg,"ax",@progbits
	.align	1
	.globl	mbedtls_oid_get_oid_by_sig_alg
	.type	mbedtls_oid_get_oid_by_sig_alg, @function
mbedtls_oid_get_oid_by_sig_alg:
.LFB26:
	.loc 1 418 123 is_stmt 1
	.cfi_startproc
.LVL73:
	.loc 1 418 125
	.loc 1 418 167
	.loc 1 418 123 is_stmt 0
	addi	sp,sp,-16
	.cfi_def_cfa_offset 16
	sw	s0,12(sp)
	.loc 1 418 146
	lui	a5,%hi(.LANCHOR0)
	.cfi_offset 8, -4
	.loc 1 418 123
	addi	s0,sp,16
	.cfi_def_cfa 8, 0
	.loc 1 418 146
	addi	a5,a5,%lo(.LANCHOR0)
.LVL74:
.L80:
	.loc 1 418 172 is_stmt 1 discriminator 6
	.loc 1 418 189 is_stmt 0 discriminator 6
	lw	a4,0(a5)
	.loc 1 418 172 discriminator 6
	bne	a4,zero,.L83
	.loc 1 418 157
	li	a0,-46
.LVL75:
	j	.L79
.LVL76:
.L83:
	.loc 1 418 5 is_stmt 1 discriminator 7
	.loc 1 418 7 is_stmt 0 discriminator 7
	lw	a6,20(a5)
	bne	a6,a0,.L81
	.loc 1 418 33 discriminator 2
	lw	a6,16(a5)
	bne	a6,a1,.L81
	.loc 1 418 64 is_stmt 1 discriminator 4
	.loc 1 418 69 is_stmt 0 discriminator 4
	sw	a4,0(a2)
	.loc 1 418 93 is_stmt 1 discriminator 4
	.loc 1 418 116 is_stmt 0 discriminator 4
	lw	a5,4(a5)
.LVL77:
	.loc 1 418 133 discriminator 4
	li	a0,0
.LVL78:
	.loc 1 418 99 discriminator 4
	sw	a5,0(a3)
	.loc 1 418 127 is_stmt 1 discriminator 4
.L79:
	.loc 1 418 170 is_stmt 0
	lw	s0,12(sp)
	.cfi_remember_state
	.cfi_restore 8
	.cfi_def_cfa 2, 16
	addi	sp,sp,16
	.cfi_def_cfa_offset 0
	jr	ra
.LVL79:
.L81:
	.cfi_restore_state
	.loc 1 418 142 is_stmt 1 discriminator 5
	.loc 1 418 145 is_stmt 0 discriminator 5
	addi	a5,a5,24
.LVL80:
	j	.L80
	.cfi_endproc
.LFE26:
	.size	mbedtls_oid_get_oid_by_sig_alg, .-mbedtls_oid_get_oid_by_sig_alg
	.section	.text.mbedtls_oid_get_pk_alg,"ax",@progbits
	.align	1
	.globl	mbedtls_oid_get_pk_alg
	.type	mbedtls_oid_get_pk_alg, @function
mbedtls_oid_get_pk_alg:
.LFB28:
	.loc 1 450 87 is_stmt 1
	.cfi_startproc
.LVL81:
	.loc 1 450 89
.LBB64:
.LBB65:
	.loc 1 449 83
	.loc 1 449 121
	.loc 1 449 197
	.loc 1 449 1 is_stmt 0
	bne	a0,zero,.L93
.LBE65:
.LBE64:
	.loc 1 450 9
	li	a0,-46
.LVL82:
	.loc 1 450 59
	ret
.LVL83:
.L91:
	.cfi_def_cfa_register 8
	.cfi_offset 1, -4
	.cfi_offset 8, -8
	.cfi_offset 9, -12
	.cfi_offset 18, -16
	.cfi_offset 19, -20
.LBB70:
.LBB66:
	.loc 1 449 5 is_stmt 1
	.loc 1 449 29 is_stmt 0
	lw	a5,4(s2)
	.loc 1 449 7
	lw	a2,4(s1)
	beq	a2,a5,.L88
.L90:
	.loc 1 449 100 is_stmt 1
	.loc 1 449 101 is_stmt 0
	addi	s1,s1,20
.LVL84:
	.loc 1 449 105 is_stmt 1
.L86:
	.loc 1 449 9
	.loc 1 449 14 is_stmt 0
	lw	a0,0(s1)
	.loc 1 449 9
	bne	a0,zero,.L91
.LBE66:
.LBE70:
	.loc 1 450 9
	li	a0,-46
.LVL85:
.L85:
	.loc 1 450 59
	lw	ra,28(sp)
	.cfi_remember_state
	.cfi_restore 1
	lw	s0,24(sp)
	.cfi_restore 8
	.cfi_def_cfa 2, 32
	lw	s1,20(sp)
	.cfi_restore 9
.LVL86:
	lw	s2,16(sp)
	.cfi_restore 18
.LVL87:
	lw	s3,12(sp)
	.cfi_restore 19
.LVL88:
	addi	sp,sp,32
	.cfi_def_cfa_offset 0
	jr	ra
.LVL89:
.L88:
	.cfi_restore_state
.LBB71:
.LBB67:
	.loc 1 449 38
	lw	a1,8(s2)
	call	memcmp
.LVL90:
	.loc 1 449 35
	bne	a0,zero,.L90
.LVL91:
.LBE67:
.LBE71:
	.loc 1 450 145 is_stmt 1
	.loc 1 450 22
	.loc 1 450 36 is_stmt 0
	lw	a5,16(s1)
	.loc 1 450 30
	sw	a5,0(s3)
	.loc 1 450 46 is_stmt 1
	.loc 1 450 52 is_stmt 0
	j	.L85
.LVL92:
.L93:
	.cfi_def_cfa_register 2
	.cfi_restore 1
	.cfi_restore 8
	.cfi_restore 9
	.cfi_restore 18
	.cfi_restore 19
	.loc 1 450 87
	addi	sp,sp,-32
	.cfi_def_cfa_offset 32
	sw	s0,24(sp)
	sw	s1,20(sp)
	sw	s2,16(sp)
	sw	s3,12(sp)
	sw	ra,28(sp)
	.cfi_offset 8, -8
	.cfi_offset 9, -12
	.cfi_offset 18, -16
	.cfi_offset 19, -20
	.cfi_offset 1, -4
	addi	s0,sp,32
	.cfi_def_cfa 8, 0
.LBB72:
.LBB68:
	.loc 1 449 103
	lui	s1,%hi(.LANCHOR5)
.LBE68:
.LBE72:
	.loc 1 450 87
	mv	s2,a0
	mv	s3,a1
.LBB73:
.LBB69:
	.loc 1 449 103
	addi	s1,s1,%lo(.LANCHOR5)
	j	.L86
.LBE69:
.LBE73:
	.cfi_endproc
.LFE28:
	.size	mbedtls_oid_get_pk_alg, .-mbedtls_oid_get_pk_alg
	.section	.text.mbedtls_oid_get_oid_by_pk_alg,"ax",@progbits
	.align	1
	.globl	mbedtls_oid_get_oid_by_pk_alg
	.type	mbedtls_oid_get_oid_by_pk_alg, @function
mbedtls_oid_get_oid_by_pk_alg:
.LFB29:
	.loc 1 451 95 is_stmt 1
	.cfi_startproc
.LVL93:
	.loc 1 451 97
	.loc 1 451 137
	.loc 1 451 95 is_stmt 0
	addi	sp,sp,-16
	.cfi_def_cfa_offset 16
	sw	s0,12(sp)
	.loc 1 451 117
	lui	a5,%hi(.LANCHOR5)
	.cfi_offset 8, -4
	.loc 1 451 95
	addi	s0,sp,16
	.cfi_def_cfa 8, 0
	.loc 1 451 117
	addi	a5,a5,%lo(.LANCHOR5)
.LVL94:
.L98:
	.loc 1 451 142 is_stmt 1 discriminator 4
	.loc 1 451 159 is_stmt 0 discriminator 4
	lw	a4,0(a5)
	.loc 1 451 142 discriminator 4
	bne	a4,zero,.L101
	.loc 1 451 130
	li	a0,-46
.LVL95:
	j	.L97
.LVL96:
.L101:
	.loc 1 451 5 is_stmt 1 discriminator 5
	.loc 1 451 7 is_stmt 0 discriminator 5
	lw	a3,16(a5)
	bne	a3,a0,.L99
	.loc 1 451 37 is_stmt 1 discriminator 2
	.loc 1 451 42 is_stmt 0 discriminator 2
	sw	a4,0(a1)
	.loc 1 451 66 is_stmt 1 discriminator 2
	.loc 1 451 89 is_stmt 0 discriminator 2
	lw	a5,4(a5)
.LVL97:
	.loc 1 451 106 discriminator 2
	li	a0,0
.LVL98:
	.loc 1 451 72 discriminator 2
	sw	a5,0(a2)
	.loc 1 451 100 is_stmt 1 discriminator 2
.L97:
	.loc 1 451 143 is_stmt 0
	lw	s0,12(sp)
	.cfi_remember_state
	.cfi_restore 8
	.cfi_def_cfa 2, 16
	addi	sp,sp,16
	.cfi_def_cfa_offset 0
	jr	ra
.LVL99:
.L99:
	.cfi_restore_state
	.loc 1 451 115 is_stmt 1 discriminator 3
	.loc 1 451 118 is_stmt 0 discriminator 3
	addi	a5,a5,20
.LVL100:
	j	.L98
	.cfi_endproc
.LFE29:
	.size	mbedtls_oid_get_oid_by_pk_alg, .-mbedtls_oid_get_oid_by_pk_alg
	.section	.text.mbedtls_oid_get_ec_grp,"ax",@progbits
	.align	1
	.globl	mbedtls_oid_get_ec_grp
	.type	mbedtls_oid_get_ec_grp, @function
mbedtls_oid_get_ec_grp:
.LFB31:
	.loc 1 537 90 is_stmt 1
	.cfi_startproc
.LVL101:
	.loc 1 537 92
.LBB76:
.LBB77:
	.loc 1 536 84
	.loc 1 536 124
	.loc 1 536 200
	.loc 1 536 1 is_stmt 0
	bne	a0,zero,.L111
.LBE77:
.LBE76:
	.loc 1 537 9
	li	a0,-46
.LVL102:
	.loc 1 537 59
	ret
.LVL103:
.L109:
	.cfi_def_cfa_register 8
	.cfi_offset 1, -4
	.cfi_offset 8, -8
	.cfi_offset 9, -12
	.cfi_offset 18, -16
	.cfi_offset 19, -20
.LBB82:
.LBB78:
	.loc 1 536 5 is_stmt 1
	.loc 1 536 29 is_stmt 0
	lw	a5,4(s2)
	.loc 1 536 7
	lw	a2,4(s1)
	beq	a2,a5,.L106
.L108:
	.loc 1 536 100 is_stmt 1
	.loc 1 536 101 is_stmt 0
	addi	s1,s1,20
.LVL104:
	.loc 1 536 105 is_stmt 1
.L104:
	.loc 1 536 9
	.loc 1 536 14 is_stmt 0
	lw	a0,0(s1)
	.loc 1 536 9
	bne	a0,zero,.L109
.LBE78:
.LBE82:
	.loc 1 537 9
	li	a0,-46
.LVL105:
.L103:
	.loc 1 537 59
	lw	ra,28(sp)
	.cfi_remember_state
	.cfi_restore 1
	lw	s0,24(sp)
	.cfi_restore 8
	.cfi_def_cfa 2, 32
	lw	s1,20(sp)
	.cfi_restore 9
.LVL106:
	lw	s2,16(sp)
	.cfi_restore 18
.LVL107:
	lw	s3,12(sp)
	.cfi_restore 19
.LVL108:
	addi	sp,sp,32
	.cfi_def_cfa_offset 0
	jr	ra
.LVL109:
.L106:
	.cfi_restore_state
.LBB83:
.LBB79:
	.loc 1 536 38
	lw	a1,8(s2)
	call	memcmp
.LVL110:
	.loc 1 536 35
	bne	a0,zero,.L108
.LVL111:
.LBE79:
.LBE83:
	.loc 1 537 149 is_stmt 1
	.loc 1 537 22
	.loc 1 537 36 is_stmt 0
	lw	a5,16(s1)
	.loc 1 537 30
	sw	a5,0(s3)
	.loc 1 537 46 is_stmt 1
	.loc 1 537 52 is_stmt 0
	j	.L103
.LVL112:
.L111:
	.cfi_def_cfa_register 2
	.cfi_restore 1
	.cfi_restore 8
	.cfi_restore 9
	.cfi_restore 18
	.cfi_restore 19
	.loc 1 537 90
	addi	sp,sp,-32
	.cfi_def_cfa_offset 32
	sw	s0,24(sp)
	sw	s1,20(sp)
	sw	s2,16(sp)
	sw	s3,12(sp)
	sw	ra,28(sp)
	.cfi_offset 8, -8
	.cfi_offset 9, -12
	.cfi_offset 18, -16
	.cfi_offset 19, -20
	.cfi_offset 1, -4
	addi	s0,sp,32
	.cfi_def_cfa 8, 0
.LBB84:
.LBB80:
	.loc 1 536 105
	lui	s1,%hi(.LANCHOR6)
.LBE80:
.LBE84:
	.loc 1 537 90
	mv	s2,a0
	mv	s3,a1
.LBB85:
.LBB81:
	.loc 1 536 105
	addi	s1,s1,%lo(.LANCHOR6)
	j	.L104
.LBE81:
.LBE85:
	.cfi_endproc
.LFE31:
	.size	mbedtls_oid_get_ec_grp, .-mbedtls_oid_get_ec_grp
	.section	.text.mbedtls_oid_get_oid_by_ec_grp,"ax",@progbits
	.align	1
	.globl	mbedtls_oid_get_oid_by_ec_grp
	.type	mbedtls_oid_get_oid_by_ec_grp, @function
mbedtls_oid_get_oid_by_ec_grp:
.LFB32:
	.loc 1 538 98 is_stmt 1
	.cfi_startproc
.LVL113:
	.loc 1 538 100
	.loc 1 538 142
	.loc 1 538 98 is_stmt 0
	addi	sp,sp,-16
	.cfi_def_cfa_offset 16
	sw	s0,12(sp)
	.loc 1 538 121
	lui	a5,%hi(.LANCHOR6)
	.cfi_offset 8, -4
	.loc 1 538 98
	addi	s0,sp,16
	.cfi_def_cfa 8, 0
	.loc 1 538 121
	addi	a5,a5,%lo(.LANCHOR6)
.LVL114:
.L116:
	.loc 1 538 147 is_stmt 1 discriminator 4
	.loc 1 538 164 is_stmt 0 discriminator 4
	lw	a4,0(a5)
	.loc 1 538 147 discriminator 4
	bne	a4,zero,.L119
	.loc 1 538 130
	li	a0,-46
.LVL115:
	j	.L115
.LVL116:
.L119:
	.loc 1 538 5 is_stmt 1 discriminator 5
	.loc 1 538 7 is_stmt 0 discriminator 5
	lw	a3,16(a5)
	bne	a3,a0,.L117
	.loc 1 538 37 is_stmt 1 discriminator 2
	.loc 1 538 42 is_stmt 0 discriminator 2
	sw	a4,0(a1)
	.loc 1 538 66 is_stmt 1 discriminator 2
	.loc 1 538 89 is_stmt 0 discriminator 2
	lw	a5,4(a5)
.LVL117:
	.loc 1 538 106 discriminator 2
	li	a0,0
.LVL118:
	.loc 1 538 72 discriminator 2
	sw	a5,0(a2)
	.loc 1 538 100 is_stmt 1 discriminator 2
.L115:
	.loc 1 538 143 is_stmt 0
	lw	s0,12(sp)
	.cfi_remember_state
	.cfi_restore 8
	.cfi_def_cfa 2, 16
	addi	sp,sp,16
	.cfi_def_cfa_offset 0
	jr	ra
.LVL119:
.L117:
	.cfi_restore_state
	.loc 1 538 115 is_stmt 1 discriminator 3
	.loc 1 538 118 is_stmt 0 discriminator 3
	addi	a5,a5,20
.LVL120:
	j	.L116
	.cfi_endproc
.LFE32:
	.size	mbedtls_oid_get_oid_by_ec_grp, .-mbedtls_oid_get_oid_by_ec_grp
	.section	.text.mbedtls_oid_get_cipher_alg,"ax",@progbits
	.align	1
	.globl	mbedtls_oid_get_cipher_alg
	.type	mbedtls_oid_get_cipher_alg, @function
mbedtls_oid_get_cipher_alg:
.LFB34:
	.loc 1 567 99 is_stmt 1
	.cfi_startproc
.LVL121:
	.loc 1 567 101
.LBB88:
.LBB89:
	.loc 1 566 91
	.loc 1 566 137
	.loc 1 566 213
	.loc 1 566 1 is_stmt 0
	bne	a0,zero,.L129
.LBE89:
.LBE88:
	.loc 1 567 9
	li	a0,-46
.LVL122:
	.loc 1 567 67
	ret
.LVL123:
.L127:
	.cfi_def_cfa_register 8
	.cfi_offset 1, -4
	.cfi_offset 8, -8
	.cfi_offset 9, -12
	.cfi_offset 18, -16
	.cfi_offset 19, -20
.LBB94:
.LBB90:
	.loc 1 566 5 is_stmt 1
	.loc 1 566 29 is_stmt 0
	lw	a5,4(s2)
	.loc 1 566 7
	lw	a2,4(s1)
	beq	a2,a5,.L124
.L126:
	.loc 1 566 100 is_stmt 1
	.loc 1 566 101 is_stmt 0
	addi	s1,s1,20
.LVL124:
	.loc 1 566 105 is_stmt 1
.L122:
	.loc 1 566 9
	.loc 1 566 14 is_stmt 0
	lw	a0,0(s1)
	.loc 1 566 9
	bne	a0,zero,.L127
.LBE90:
.LBE94:
	.loc 1 567 9
	li	a0,-46
.LVL125:
.L121:
	.loc 1 567 67
	lw	ra,28(sp)
	.cfi_remember_state
	.cfi_restore 1
	lw	s0,24(sp)
	.cfi_restore 8
	.cfi_def_cfa 2, 32
	lw	s1,20(sp)
	.cfi_restore 9
.LVL126:
	lw	s2,16(sp)
	.cfi_restore 18
.LVL127:
	lw	s3,12(sp)
	.cfi_restore 19
.LVL128:
	addi	sp,sp,32
	.cfi_def_cfa_offset 0
	jr	ra
.LVL129:
.L124:
	.cfi_restore_state
.LBB95:
.LBB91:
	.loc 1 566 38
	lw	a1,8(s2)
	call	memcmp
.LVL130:
	.loc 1 566 35
	bne	a0,zero,.L126
.LVL131:
.LBE91:
.LBE95:
	.loc 1 567 165 is_stmt 1
	.loc 1 567 22
	.loc 1 567 40 is_stmt 0
	lw	a5,16(s1)
	.loc 1 567 34
	sw	a5,0(s3)
	.loc 1 567 54 is_stmt 1
	.loc 1 567 60 is_stmt 0
	j	.L121
.LVL132:
.L129:
	.cfi_def_cfa_register 2
	.cfi_restore 1
	.cfi_restore 8
	.cfi_restore 9
	.cfi_restore 18
	.cfi_restore 19
	.loc 1 567 99
	addi	sp,sp,-32
	.cfi_def_cfa_offset 32
	sw	s0,24(sp)
	sw	s1,20(sp)
	sw	s2,16(sp)
	sw	s3,12(sp)
	sw	ra,28(sp)
	.cfi_offset 8, -8
	.cfi_offset 9, -12
	.cfi_offset 18, -16
	.cfi_offset 19, -20
	.cfi_offset 1, -4
	addi	s0,sp,32
	.cfi_def_cfa 8, 0
.LBB96:
.LBB92:
	.loc 1 566 115
	lui	s1,%hi(.LANCHOR7)
.LBE92:
.LBE96:
	.loc 1 567 99
	mv	s2,a0
	mv	s3,a1
.LBB97:
.LBB93:
	.loc 1 566 115
	addi	s1,s1,%lo(.LANCHOR7)
	j	.L122
.LBE93:
.LBE97:
	.cfi_endproc
.LFE34:
	.size	mbedtls_oid_get_cipher_alg, .-mbedtls_oid_get_cipher_alg
	.section	.text.mbedtls_oid_get_md_alg,"ax",@progbits
	.align	1
	.globl	mbedtls_oid_get_md_alg
	.type	mbedtls_oid_get_md_alg, @function
mbedtls_oid_get_md_alg:
.LFB36:
	.loc 1 638 87 is_stmt 1
	.cfi_startproc
.LVL133:
	.loc 1 638 89
.LBB100:
.LBB101:
	.loc 1 637 83
	.loc 1 637 121
	.loc 1 637 197
	.loc 1 637 1 is_stmt 0
	bne	a0,zero,.L141
.LBE101:
.LBE100:
	.loc 1 638 9
	li	a0,-46
.LVL134:
	.loc 1 638 59
	ret
.LVL135:
.L139:
	.cfi_def_cfa_register 8
	.cfi_offset 1, -4
	.cfi_offset 8, -8
	.cfi_offset 9, -12
	.cfi_offset 18, -16
	.cfi_offset 19, -20
.LBB106:
.LBB102:
	.loc 1 637 5 is_stmt 1
	.loc 1 637 29 is_stmt 0
	lw	a5,4(s2)
	.loc 1 637 7
	lw	a2,4(s1)
	beq	a2,a5,.L136
.L138:
	.loc 1 637 100 is_stmt 1
	.loc 1 637 101 is_stmt 0
	addi	s1,s1,20
.LVL136:
	.loc 1 637 105 is_stmt 1
.L134:
	.loc 1 637 9
	.loc 1 637 14 is_stmt 0
	lw	a0,0(s1)
	.loc 1 637 9
	bne	a0,zero,.L139
.LBE102:
.LBE106:
	.loc 1 638 9
	li	a0,-46
.LVL137:
.L133:
	.loc 1 638 59
	lw	ra,28(sp)
	.cfi_remember_state
	.cfi_restore 1
	lw	s0,24(sp)
	.cfi_restore 8
	.cfi_def_cfa 2, 32
	lw	s1,20(sp)
	.cfi_restore 9
.LVL138:
	lw	s2,16(sp)
	.cfi_restore 18
.LVL139:
	lw	s3,12(sp)
	.cfi_restore 19
.LVL140:
	addi	sp,sp,32
	.cfi_def_cfa_offset 0
	jr	ra
.LVL141:
.L136:
	.cfi_restore_state
.LBB107:
.LBB103:
	.loc 1 637 38
	lw	a1,8(s2)
	call	memcmp
.LVL142:
	.loc 1 637 35
	bne	a0,zero,.L138
.LVL143:
.LBE103:
.LBE107:
	.loc 1 638 145 is_stmt 1
	.loc 1 638 22
	.loc 1 638 36 is_stmt 0
	lw	a5,16(s1)
	.loc 1 638 30
	sw	a5,0(s3)
	.loc 1 638 46 is_stmt 1
	.loc 1 638 52 is_stmt 0
	j	.L133
.LVL144:
.L141:
	.cfi_def_cfa_register 2
	.cfi_restore 1
	.cfi_restore 8
	.cfi_restore 9
	.cfi_restore 18
	.cfi_restore 19
	.loc 1 638 87
	addi	sp,sp,-32
	.cfi_def_cfa_offset 32
	sw	s0,24(sp)
	sw	s1,20(sp)
	sw	s2,16(sp)
	sw	s3,12(sp)
	sw	ra,28(sp)
	.cfi_offset 8, -8
	.cfi_offset 9, -12
	.cfi_offset 18, -16
	.cfi_offset 19, -20
	.cfi_offset 1, -4
	addi	s0,sp,32
	.cfi_def_cfa 8, 0
.LBB108:
.LBB104:
	.loc 1 637 103
	lui	s1,%hi(.LANCHOR8)
.LBE104:
.LBE108:
	.loc 1 638 87
	mv	s2,a0
	mv	s3,a1
.LBB109:
.LBB105:
	.loc 1 637 103
	addi	s1,s1,%lo(.LANCHOR8)
	j	.L134
.LBE105:
.LBE109:
	.cfi_endproc
.LFE36:
	.size	mbedtls_oid_get_md_alg, .-mbedtls_oid_get_md_alg
	.section	.text.mbedtls_oid_get_oid_by_md,"ax",@progbits
	.align	1
	.globl	mbedtls_oid_get_oid_by_md
	.type	mbedtls_oid_get_oid_by_md, @function
mbedtls_oid_get_oid_by_md:
.LFB37:
	.loc 1 639 91 is_stmt 1
	.cfi_startproc
.LVL145:
	.loc 1 639 93
	.loc 1 639 133
	.loc 1 639 91 is_stmt 0
	addi	sp,sp,-16
	.cfi_def_cfa_offset 16
	sw	s0,12(sp)
	.loc 1 639 113
	lui	a5,%hi(.LANCHOR8)
	.cfi_offset 8, -4
	.loc 1 639 91
	addi	s0,sp,16
	.cfi_def_cfa 8, 0
	.loc 1 639 113
	addi	a5,a5,%lo(.LANCHOR8)
.LVL146:
.L146:
	.loc 1 639 138 is_stmt 1 discriminator 4
	.loc 1 639 155 is_stmt 0 discriminator 4
	lw	a4,0(a5)
	.loc 1 639 138 discriminator 4
	bne	a4,zero,.L149
	.loc 1 639 130
	li	a0,-46
.LVL147:
	j	.L145
.LVL148:
.L149:
	.loc 1 639 5 is_stmt 1 discriminator 5
	.loc 1 639 7 is_stmt 0 discriminator 5
	lw	a3,16(a5)
	bne	a3,a0,.L147
	.loc 1 639 37 is_stmt 1 discriminator 2
	.loc 1 639 42 is_stmt 0 discriminator 2
	sw	a4,0(a1)
	.loc 1 639 66 is_stmt 1 discriminator 2
	.loc 1 639 89 is_stmt 0 discriminator 2
	lw	a5,4(a5)
.LVL149:
	.loc 1 639 106 discriminator 2
	li	a0,0
.LVL150:
	.loc 1 639 72 discriminator 2
	sw	a5,0(a2)
	.loc 1 639 100 is_stmt 1 discriminator 2
.L145:
	.loc 1 639 143 is_stmt 0
	lw	s0,12(sp)
	.cfi_remember_state
	.cfi_restore 8
	.cfi_def_cfa 2, 16
	addi	sp,sp,16
	.cfi_def_cfa_offset 0
	jr	ra
.LVL151:
.L147:
	.cfi_restore_state
	.loc 1 639 115 is_stmt 1 discriminator 3
	.loc 1 639 118 is_stmt 0 discriminator 3
	addi	a5,a5,20
.LVL152:
	j	.L146
	.cfi_endproc
.LFE37:
	.size	mbedtls_oid_get_oid_by_md, .-mbedtls_oid_get_oid_by_md
	.section	.text.mbedtls_oid_get_md_hmac,"ax",@progbits
	.align	1
	.globl	mbedtls_oid_get_md_hmac
	.type	mbedtls_oid_get_md_hmac, @function
mbedtls_oid_get_md_hmac:
.LFB39:
	.loc 1 684 89 is_stmt 1
	.cfi_startproc
.LVL153:
	.loc 1 684 91
.LBB112:
.LBB113:
	.loc 1 683 85
	.loc 1 683 125
	.loc 1 683 201
	.loc 1 683 1 is_stmt 0
	bne	a0,zero,.L159
.LBE113:
.LBE112:
	.loc 1 684 9
	li	a0,-46
.LVL154:
	.loc 1 684 61
	ret
.LVL155:
.L157:
	.cfi_def_cfa_register 8
	.cfi_offset 1, -4
	.cfi_offset 8, -8
	.cfi_offset 9, -12
	.cfi_offset 18, -16
	.cfi_offset 19, -20
.LBB118:
.LBB114:
	.loc 1 683 5 is_stmt 1
	.loc 1 683 29 is_stmt 0
	lw	a5,4(s2)
	.loc 1 683 7
	lw	a2,4(s1)
	beq	a2,a5,.L154
.L156:
	.loc 1 683 100 is_stmt 1
	.loc 1 683 101 is_stmt 0
	addi	s1,s1,20
.LVL156:
	.loc 1 683 105 is_stmt 1
.L152:
	.loc 1 683 9
	.loc 1 683 14 is_stmt 0
	lw	a0,0(s1)
	.loc 1 683 9
	bne	a0,zero,.L157
.LBE114:
.LBE118:
	.loc 1 684 9
	li	a0,-46
.LVL157:
.L151:
	.loc 1 684 61
	lw	ra,28(sp)
	.cfi_remember_state
	.cfi_restore 1
	lw	s0,24(sp)
	.cfi_restore 8
	.cfi_def_cfa 2, 32
	lw	s1,20(sp)
	.cfi_restore 9
.LVL158:
	lw	s2,16(sp)
	.cfi_restore 18
.LVL159:
	lw	s3,12(sp)
	.cfi_restore 19
.LVL160:
	addi	sp,sp,32
	.cfi_def_cfa_offset 0
	jr	ra
.LVL161:
.L154:
	.cfi_restore_state
.LBB119:
.LBB115:
	.loc 1 683 38
	lw	a1,8(s2)
	call	memcmp
.LVL162:
	.loc 1 683 35
	bne	a0,zero,.L156
.LVL163:
.LBE115:
.LBE119:
	.loc 1 684 149 is_stmt 1
	.loc 1 684 22
	.loc 1 684 37 is_stmt 0
	lw	a5,16(s1)
	.loc 1 684 31
	sw	a5,0(s3)
	.loc 1 684 48 is_stmt 1
	.loc 1 684 54 is_stmt 0
	j	.L151
.LVL164:
.L159:
	.cfi_def_cfa_register 2
	.cfi_restore 1
	.cfi_restore 8
	.cfi_restore 9
	.cfi_restore 18
	.cfi_restore 19
	.loc 1 684 89
	addi	sp,sp,-32
	.cfi_def_cfa_offset 32
	sw	s0,24(sp)
	sw	s1,20(sp)
	sw	s2,16(sp)
	sw	s3,12(sp)
	sw	ra,28(sp)
	.cfi_offset 8, -8
	.cfi_offset 9, -12
	.cfi_offset 18, -16
	.cfi_offset 19, -20
	.cfi_offset 1, -4
	addi	s0,sp,32
	.cfi_def_cfa 8, 0
.LBB120:
.LBB116:
	.loc 1 683 106
	lui	s1,%hi(.LANCHOR9)
.LBE116:
.LBE120:
	.loc 1 684 89
	mv	s2,a0
	mv	s3,a1
.LBB121:
.LBB117:
	.loc 1 683 106
	addi	s1,s1,%lo(.LANCHOR9)
	j	.L152
.LBE117:
.LBE121:
	.cfi_endproc
.LFE39:
	.size	mbedtls_oid_get_md_hmac, .-mbedtls_oid_get_md_hmac
	.section	.rodata.mbedtls_oid_get_numeric_string.str1.4,"aMS",@progbits,1
	.align	2
.LC0:
	.string	"%d.%d"
	.align	2
.LC1:
	.string	".%u"
	.section	.text.mbedtls_oid_get_numeric_string,"ax",@progbits
	.align	1
	.globl	mbedtls_oid_get_numeric_string
	.type	mbedtls_oid_get_numeric_string, @function
mbedtls_oid_get_numeric_string:
.LFB40:
	.loc 1 729 1 is_stmt 1
	.cfi_startproc
.LVL165:
	.loc 1 730 5
	.loc 1 731 5
	.loc 1 732 5
	.loc 1 733 5
	.loc 1 735 5
	.loc 1 736 5
	.loc 1 739 5
	.loc 1 729 1 is_stmt 0
	addi	sp,sp,-48
	.cfi_def_cfa_offset 48
	sw	s0,40(sp)
	sw	s1,36(sp)
	sw	s2,32(sp)
	sw	s3,28(sp)
	sw	s4,24(sp)
	sw	ra,44(sp)
	sw	s5,20(sp)
	sw	s6,16(sp)
	sw	s7,12(sp)
	.cfi_offset 8, -8
	.cfi_offset 9, -12
	.cfi_offset 18, -16
	.cfi_offset 19, -20
	.cfi_offset 20, -24
	.cfi_offset 1, -4
	.cfi_offset 21, -28
	.cfi_offset 22, -32
	.cfi_offset 23, -36
	addi	s0,sp,48
	.cfi_def_cfa 8, 0
	.loc 1 739 7
	lw	a5,4(a2)
	.loc 1 729 1
	mv	s2,a0
	mv	s1,a1
	mv	s4,a2
	mv	s3,a1
	.loc 1 739 7
	beq	a5,zero,.L164
	.loc 1 741 9 is_stmt 1
	.loc 1 741 46 is_stmt 0
	lw	a5,8(a2)
	.loc 1 741 15
	lui	a2,%hi(.LC0)
.LVL166:
	addi	a2,a2,%lo(.LC0)
	.loc 1 741 46
	lbu	a3,0(a5)
	.loc 1 741 15
	li	a5,40
	remu	a4,a3,a5
	divu	a3,a3,a5
	call	snprintf
.LVL167:
	.loc 1 742 9 is_stmt 1
	.loc 1 742 14
	.loc 1 742 16 is_stmt 0
	bge	a0,zero,.L165
.LVL168:
.L167:
	.loc 1 742 55
	li	a0,-11
.L163:
	.loc 1 765 1
	lw	ra,44(sp)
	.cfi_remember_state
	.cfi_restore 1
	lw	s0,40(sp)
	.cfi_restore 8
	.cfi_def_cfa 2, 48
	lw	s1,36(sp)
	.cfi_restore 9
.LVL169:
	lw	s2,32(sp)
	.cfi_restore 18
.LVL170:
	lw	s3,28(sp)
	.cfi_restore 19
.LVL171:
	lw	s4,24(sp)
	.cfi_restore 20
.LVL172:
	lw	s5,20(sp)
	.cfi_restore 21
	lw	s6,16(sp)
	.cfi_restore 22
	lw	s7,12(sp)
	.cfi_restore 23
	addi	sp,sp,48
	.cfi_def_cfa_offset 0
	jr	ra
.LVL173:
.L165:
	.cfi_restore_state
	.loc 1 742 26 discriminator 2
	bgeu	a0,s1,.L167
	.loc 1 742 68 is_stmt 1 discriminator 4
	.loc 1 742 70 is_stmt 0 discriminator 4
	sub	s3,s1,a0
.LVL174:
	.loc 1 742 87 is_stmt 1 discriminator 4
	.loc 1 742 89 is_stmt 0 discriminator 4
	add	s2,s2,a0
.LVL175:
.L164:
	.loc 1 749 30 discriminator 1
	li	s6,33554432
	.loc 1 760 19 discriminator 1
	li	a3,0
	li	s5,1
	.loc 1 749 30 discriminator 1
	addi	s6,s6,-1
	.loc 1 758 19 discriminator 1
	lui	s7,%hi(.LC1)
.L168:
.LVL176:
	.loc 1 746 17 is_stmt 1 discriminator 1
	.loc 1 746 5 is_stmt 0 discriminator 1
	lw	a5,4(s4)
	bgtu	a5,s5,.L170
	.loc 1 764 5 is_stmt 1
	.loc 1 764 26 is_stmt 0
	sub	a0,s1,s3
	.loc 1 764 13
	j	.L163
.L170:
	.loc 1 749 9 is_stmt 1
	.loc 1 749 30 is_stmt 0
	and	a5,a3,s6
	.loc 1 749 11
	bne	a5,a3,.L167
	.loc 1 752 9 is_stmt 1
	.loc 1 753 24 is_stmt 0
	lw	a5,8(s4)
	.loc 1 752 15
	slli	a3,a3,7
.LVL177:
	.loc 1 753 9 is_stmt 1
	.loc 1 753 24 is_stmt 0
	add	a5,a5,s5
	lbu	a5,0(a5)
	.loc 1 753 28
	andi	a4,a5,127
	.loc 1 755 11
	slli	a5,a5,24
	srai	a5,a5,24
	.loc 1 753 15
	add	a3,a4,a3
.LVL178:
	.loc 1 755 9 is_stmt 1
	.loc 1 755 11 is_stmt 0
	blt	a5,zero,.L169
	.loc 1 758 13 is_stmt 1
	.loc 1 758 19 is_stmt 0
	addi	a2,s7,%lo(.LC1)
	mv	a1,s3
	mv	a0,s2
	call	snprintf
.LVL179:
	.loc 1 759 13 is_stmt 1
	.loc 1 759 18
	.loc 1 759 20 is_stmt 0
	blt	a0,zero,.L167
	.loc 1 759 30 discriminator 2
	bgeu	a0,s3,.L167
	.loc 1 759 72 is_stmt 1 discriminator 4
	.loc 1 759 74 is_stmt 0 discriminator 4
	sub	s3,s3,a0
.LVL180:
	.loc 1 759 91 is_stmt 1 discriminator 4
	.loc 1 759 93 is_stmt 0 discriminator 4
	add	s2,s2,a0
.LVL181:
	.loc 1 759 117 is_stmt 1 discriminator 4
	.loc 1 760 13 discriminator 4
	.loc 1 760 19 is_stmt 0 discriminator 4
	li	a3,0
.LVL182:
.L169:
	.loc 1 746 31 is_stmt 1 discriminator 2
	.loc 1 746 32 is_stmt 0 discriminator 2
	addi	s5,s5,1
.LVL183:
	j	.L168
	.cfi_endproc
.LFE40:
	.size	mbedtls_oid_get_numeric_string, .-mbedtls_oid_get_numeric_string
	.section	.rodata.str1.4,"aMS",@progbits,1
	.align	2
.LC2:
	.string	"*\206H\206\367\r\002\007"
	.align	2
.LC3:
	.string	"hmacSHA1"
	.align	2
.LC4:
	.string	"HMAC-SHA-1"
	.align	2
.LC5:
	.string	"*\206H\206\367\r\002\b"
	.align	2
.LC6:
	.string	"hmacSHA224"
	.align	2
.LC7:
	.string	"HMAC-SHA-224"
	.align	2
.LC8:
	.string	"*\206H\206\367\r\002\t"
	.align	2
.LC9:
	.string	"hmacSHA256"
	.align	2
.LC10:
	.string	"HMAC-SHA-256"
	.align	2
.LC11:
	.string	"*\206H\206\367\r\002\n"
	.align	2
.LC12:
	.string	"hmacSHA384"
	.align	2
.LC13:
	.string	"HMAC-SHA-384"
	.align	2
.LC14:
	.string	"*\206H\206\367\r\002\013"
	.align	2
.LC15:
	.string	"hmacSHA512"
	.align	2
.LC16:
	.string	"HMAC-SHA-512"
	.align	2
.LC17:
	.string	"*\206H\206\367\r\002\005"
	.align	2
.LC18:
	.string	"id-md5"
	.align	2
.LC19:
	.string	"MD5"
	.align	2
.LC20:
	.string	"+\016\003\002\032"
	.align	2
.LC21:
	.string	"id-sha1"
	.align	2
.LC22:
	.string	"SHA-1"
	.align	2
.LC23:
	.string	"`\206H\001e\003\004\002\004"
	.align	2
.LC24:
	.string	"id-sha224"
	.align	2
.LC25:
	.string	"SHA-224"
	.align	2
.LC26:
	.string	"`\206H\001e\003\004\002\001"
	.align	2
.LC27:
	.string	"id-sha256"
	.align	2
.LC28:
	.string	"SHA-256"
	.align	2
.LC29:
	.string	"`\206H\001e\003\004\002\002"
	.align	2
.LC30:
	.string	"id-sha384"
	.align	2
.LC31:
	.string	"SHA-384"
	.align	2
.LC32:
	.string	"`\206H\001e\003\004\002\003"
	.align	2
.LC33:
	.string	"id-sha512"
	.align	2
.LC34:
	.string	"SHA-512"
	.align	2
.LC35:
	.string	"+\016\003\002\007"
	.align	2
.LC36:
	.string	"desCBC"
	.align	2
.LC37:
	.string	"DES-CBC"
	.align	2
.LC38:
	.string	"*\206H\206\367\r\003\007"
	.align	2
.LC39:
	.string	"des-ede3-cbc"
	.align	2
.LC40:
	.string	"DES-EDE3-CBC"
	.align	2
.LC41:
	.string	"*\206H\316=\003\001\007"
	.align	2
.LC42:
	.string	"secp256r1"
	.align	2
.LC43:
	.string	"*\206H\206\367\r\001\001\001"
	.align	2
.LC44:
	.string	"rsaEncryption"
	.align	2
.LC45:
	.string	"RSA"
	.align	2
.LC46:
	.string	"*\206H\316=\002\001"
	.align	2
.LC47:
	.string	"id-ecPublicKey"
	.align	2
.LC48:
	.string	"Generic EC key"
	.align	2
.LC49:
	.string	"+\201\004\001\f"
	.align	2
.LC50:
	.string	"id-ecDH"
	.align	2
.LC51:
	.string	"EC key for ECDH"
	.align	2
.LC52:
	.string	"*\206H\206\367\r\001\001\004"
	.align	2
.LC53:
	.string	"md5WithRSAEncryption"
	.align	2
.LC54:
	.string	"RSA with MD5"
	.align	2
.LC55:
	.string	"*\206H\206\367\r\001\001\005"
	.align	2
.LC56:
	.string	"sha-1WithRSAEncryption"
	.align	2
.LC57:
	.string	"RSA with SHA1"
	.align	2
.LC58:
	.string	"*\206H\206\367\r\001\001\016"
	.align	2
.LC59:
	.string	"sha224WithRSAEncryption"
	.align	2
.LC60:
	.string	"RSA with SHA-224"
	.align	2
.LC61:
	.string	"*\206H\206\367\r\001\001\013"
	.align	2
.LC62:
	.string	"sha256WithRSAEncryption"
	.align	2
.LC63:
	.string	"RSA with SHA-256"
	.align	2
.LC64:
	.string	"*\206H\206\367\r\001\001\f"
	.align	2
.LC65:
	.string	"sha384WithRSAEncryption"
	.align	2
.LC66:
	.string	"RSA with SHA-384"
	.align	2
.LC67:
	.string	"*\206H\206\367\r\001\001\r"
	.align	2
.LC68:
	.string	"sha512WithRSAEncryption"
	.align	2
.LC69:
	.string	"RSA with SHA-512"
	.align	2
.LC70:
	.string	"+\016\003\002\035"
	.align	2
.LC71:
	.string	"*\206H\316=\004\001"
	.align	2
.LC72:
	.string	"ecdsa-with-SHA1"
	.align	2
.LC73:
	.string	"ECDSA with SHA1"
	.align	2
.LC74:
	.string	"*\206H\316=\004\003\001"
	.align	2
.LC75:
	.string	"ecdsa-with-SHA224"
	.align	2
.LC76:
	.string	"ECDSA with SHA224"
	.align	2
.LC77:
	.string	"*\206H\316=\004\003\002"
	.align	2
.LC78:
	.string	"ecdsa-with-SHA256"
	.align	2
.LC79:
	.string	"ECDSA with SHA256"
	.align	2
.LC80:
	.string	"*\206H\316=\004\003\003"
	.align	2
.LC81:
	.string	"ecdsa-with-SHA384"
	.align	2
.LC82:
	.string	"ECDSA with SHA384"
	.align	2
.LC83:
	.string	"*\206H\316=\004\003\004"
	.align	2
.LC84:
	.string	"ecdsa-with-SHA512"
	.align	2
.LC85:
	.string	"ECDSA with SHA512"
	.align	2
.LC86:
	.string	"*\206H\206\367\r\001\001\n"
	.align	2
.LC87:
	.string	"RSASSA-PSS"
	.align	2
.LC89:
	.string	"anyPolicy"
	.align	2
.LC90:
	.string	"Any Policy"
	.align	2
.LC91:
	.string	"+\006\001\005\005\007\003\001"
	.align	2
.LC92:
	.string	"id-kp-serverAuth"
	.align	2
.LC93:
	.string	"TLS Web Server Authentication"
	.align	2
.LC94:
	.string	"+\006\001\005\005\007\003\002"
	.align	2
.LC95:
	.string	"id-kp-clientAuth"
	.align	2
.LC96:
	.string	"TLS Web Client Authentication"
	.align	2
.LC97:
	.string	"+\006\001\005\005\007\003\003"
	.align	2
.LC98:
	.string	"id-kp-codeSigning"
	.align	2
.LC99:
	.string	"Code Signing"
	.align	2
.LC100:
	.string	"+\006\001\005\005\007\003\004"
	.align	2
.LC101:
	.string	"id-kp-emailProtection"
	.align	2
.LC102:
	.string	"E-mail Protection"
	.align	2
.LC103:
	.string	"+\006\001\005\005\007\003\b"
	.align	2
.LC104:
	.string	"id-kp-timeStamping"
	.align	2
.LC105:
	.string	"Time Stamping"
	.align	2
.LC106:
	.string	"+\006\001\005\005\007\003\t"
	.align	2
.LC107:
	.string	"id-kp-OCSPSigning"
	.align	2
.LC108:
	.string	"OCSP Signing"
	.align	2
.LC109:
	.string	"+\006\001\004\001\202\344%\001"
	.align	2
.LC110:
	.string	"id-kp-wisun-fan-device"
	.align	2
.LC111:
	.string	"Wi-SUN Alliance Field Area Network (FAN)"
	.align	2
.LC112:
	.string	"U\035\023"
	.align	2
.LC113:
	.string	"id-ce-basicConstraints"
	.align	2
.LC114:
	.string	"Basic Constraints"
	.align	2
.LC115:
	.string	"U\035\017"
	.align	2
.LC116:
	.string	"id-ce-keyUsage"
	.align	2
.LC117:
	.string	"Key Usage"
	.align	2
.LC118:
	.string	"U\035%"
	.align	2
.LC119:
	.string	"id-ce-extKeyUsage"
	.align	2
.LC120:
	.string	"Extended Key Usage"
	.align	2
.LC121:
	.string	"U\035\021"
	.align	2
.LC122:
	.string	"id-ce-subjectAltName"
	.align	2
.LC123:
	.string	"Subject Alt Name"
	.align	2
.LC124:
	.string	"`\206H\001\206\370B\001\001"
	.align	2
.LC125:
	.string	"id-netscape-certtype"
	.align	2
.LC126:
	.string	"Netscape Certificate Type"
	.align	2
.LC127:
	.string	"U\035 "
	.align	2
.LC128:
	.string	"id-ce-certificatePolicies"
	.align	2
.LC129:
	.string	"Certificate Policies"
	.align	2
.LC130:
	.string	"U\004\003"
	.align	2
.LC131:
	.string	"id-at-commonName"
	.align	2
.LC132:
	.string	"Common Name"
	.align	2
.LC133:
	.string	"CN"
	.align	2
.LC134:
	.string	"U\004\006"
	.align	2
.LC135:
	.string	"id-at-countryName"
	.align	2
.LC136:
	.string	"Country"
	.align	2
.LC137:
	.string	"C"
	.align	2
.LC138:
	.string	"U\004\007"
	.align	2
.LC139:
	.string	"id-at-locality"
	.align	2
.LC140:
	.string	"Locality"
	.align	2
.LC141:
	.string	"L"
	.align	2
.LC142:
	.string	"U\004\b"
	.align	2
.LC143:
	.string	"id-at-state"
	.align	2
.LC144:
	.string	"State"
	.align	2
.LC145:
	.string	"ST"
	.align	2
.LC146:
	.string	"U\004\n"
	.align	2
.LC147:
	.string	"id-at-organizationName"
	.align	2
.LC148:
	.string	"Organization"
	.align	2
.LC149:
	.string	"O"
	.align	2
.LC150:
	.string	"U\004\013"
	.align	2
.LC151:
	.string	"id-at-organizationalUnitName"
	.align	2
.LC152:
	.string	"Org Unit"
	.align	2
.LC153:
	.string	"OU"
	.align	2
.LC154:
	.string	"*\206H\206\367\r\001\t\001"
	.align	2
.LC155:
	.string	"emailAddress"
	.align	2
.LC156:
	.string	"E-mail address"
	.align	2
.LC157:
	.string	"U\004\005"
	.align	2
.LC158:
	.string	"id-at-serialNumber"
	.align	2
.LC159:
	.string	"Serial number"
	.align	2
.LC160:
	.string	"serialNumber"
	.align	2
.LC161:
	.string	"U\004\020"
	.align	2
.LC162:
	.string	"id-at-postalAddress"
	.align	2
.LC163:
	.string	"Postal address"
	.align	2
.LC164:
	.string	"postalAddress"
	.align	2
.LC165:
	.string	"U\004\021"
	.align	2
.LC166:
	.string	"id-at-postalCode"
	.align	2
.LC167:
	.string	"Postal code"
	.align	2
.LC168:
	.string	"postalCode"
	.align	2
.LC169:
	.string	"U\004\004"
	.align	2
.LC170:
	.string	"id-at-surName"
	.align	2
.LC171:
	.string	"Surname"
	.align	2
.LC172:
	.string	"SN"
	.align	2
.LC173:
	.string	"U\004*"
	.align	2
.LC174:
	.string	"id-at-givenName"
	.align	2
.LC175:
	.string	"Given name"
	.align	2
.LC176:
	.string	"GN"
	.align	2
.LC177:
	.string	"U\004+"
	.align	2
.LC178:
	.string	"id-at-initials"
	.align	2
.LC179:
	.string	"Initials"
	.align	2
.LC180:
	.string	"initials"
	.align	2
.LC181:
	.string	"U\004,"
	.align	2
.LC182:
	.string	"id-at-generationQualifier"
	.align	2
.LC183:
	.string	"Generation qualifier"
	.align	2
.LC184:
	.string	"generationQualifier"
	.align	2
.LC185:
	.string	"U\004\f"
	.align	2
.LC186:
	.string	"id-at-title"
	.align	2
.LC187:
	.string	"Title"
	.align	2
.LC188:
	.string	"title"
	.align	2
.LC189:
	.string	"U\004."
	.align	2
.LC190:
	.string	"id-at-dnQualifier"
	.align	2
.LC191:
	.string	"Distinguished Name qualifier"
	.align	2
.LC192:
	.string	"dnQualifier"
	.align	2
.LC193:
	.string	"U\004A"
	.align	2
.LC194:
	.string	"id-at-pseudonym"
	.align	2
.LC195:
	.string	"Pseudonym"
	.align	2
.LC196:
	.string	"pseudonym"
	.align	2
.LC197:
	.string	"\t\222&\211\223\362,d\001\031"
	.align	2
.LC198:
	.string	"id-domainComponent"
	.align	2
.LC199:
	.string	"Domain component"
	.align	2
.LC200:
	.string	"DC"
	.align	2
.LC201:
	.string	"U\004-"
	.align	2
.LC202:
	.string	"id-at-uniqueIdentifier"
	.align	2
.LC203:
	.string	"Unique Identifier"
	.align	2
.LC204:
	.string	"uniqueIdentifier"
	.section	.rodata
	.align	2
.LC88:
	.string	"U\035 "
	.string	""
	.section	.rodata.oid_certificate_policies,"a"
	.align	2
	.set	.LANCHOR4,. + 0
	.type	oid_certificate_policies, @object
	.size	oid_certificate_policies, 32
oid_certificate_policies:
	.word	.LC88
	.word	4
	.word	.LC89
	.word	.LC90
	.word	0
	.word	0
	.word	0
	.word	0
	.section	.rodata.oid_cipher_alg,"a"
	.align	2
	.set	.LANCHOR7,. + 0
	.type	oid_cipher_alg, @object
	.size	oid_cipher_alg, 60
oid_cipher_alg:
	.word	.LC35
	.word	5
	.word	.LC36
	.word	.LC37
	.word	33
	.word	.LC38
	.word	8
	.word	.LC39
	.word	.LC40
	.word	37
	.word	0
	.word	0
	.word	0
	.word	0
	.word	0
	.section	.rodata.oid_ecp_grp,"a"
	.align	2
	.set	.LANCHOR6,. + 0
	.type	oid_ecp_grp, @object
	.size	oid_ecp_grp, 40
oid_ecp_grp:
	.word	.LC41
	.word	8
	.word	.LC42
	.word	.LC42
	.word	3
	.word	0
	.word	0
	.word	0
	.word	0
	.word	0
	.section	.rodata.oid_ext_key_usage,"a"
	.align	2
	.set	.LANCHOR3,. + 0
	.type	oid_ext_key_usage, @object
	.size	oid_ext_key_usage, 128
oid_ext_key_usage:
	.word	.LC91
	.word	8
	.word	.LC92
	.word	.LC93
	.word	.LC94
	.word	8
	.word	.LC95
	.word	.LC96
	.word	.LC97
	.word	8
	.word	.LC98
	.word	.LC99
	.word	.LC100
	.word	8
	.word	.LC101
	.word	.LC102
	.word	.LC103
	.word	8
	.word	.LC104
	.word	.LC105
	.word	.LC106
	.word	8
	.word	.LC107
	.word	.LC108
	.word	.LC109
	.word	9
	.word	.LC110
	.word	.LC111
	.word	0
	.word	0
	.word	0
	.word	0
	.section	.rodata.oid_md_alg,"a"
	.align	2
	.set	.LANCHOR8,. + 0
	.type	oid_md_alg, @object
	.size	oid_md_alg, 140
oid_md_alg:
	.word	.LC17
	.word	8
	.word	.LC18
	.word	.LC19
	.word	3
	.word	.LC20
	.word	5
	.word	.LC21
	.word	.LC22
	.word	4
	.word	.LC23
	.word	9
	.word	.LC24
	.word	.LC25
	.word	5
	.word	.LC26
	.word	9
	.word	.LC27
	.word	.LC28
	.word	6
	.word	.LC29
	.word	9
	.word	.LC30
	.word	.LC31
	.word	7
	.word	.LC32
	.word	9
	.word	.LC33
	.word	.LC34
	.word	8
	.word	0
	.word	0
	.word	0
	.word	0
	.word	0
	.section	.rodata.oid_md_hmac,"a"
	.align	2
	.set	.LANCHOR9,. + 0
	.type	oid_md_hmac, @object
	.size	oid_md_hmac, 120
oid_md_hmac:
	.word	.LC2
	.word	8
	.word	.LC3
	.word	.LC4
	.word	4
	.word	.LC5
	.word	8
	.word	.LC6
	.word	.LC7
	.word	5
	.word	.LC8
	.word	8
	.word	.LC9
	.word	.LC10
	.word	6
	.word	.LC11
	.word	8
	.word	.LC12
	.word	.LC13
	.word	7
	.word	.LC14
	.word	8
	.word	.LC15
	.word	.LC16
	.word	8
	.word	0
	.word	0
	.word	0
	.word	0
	.word	0
	.section	.rodata.oid_pk_alg,"a"
	.align	2
	.set	.LANCHOR5,. + 0
	.type	oid_pk_alg, @object
	.size	oid_pk_alg, 80
oid_pk_alg:
	.word	.LC43
	.word	9
	.word	.LC44
	.word	.LC45
	.word	1
	.word	.LC46
	.word	7
	.word	.LC47
	.word	.LC48
	.word	2
	.word	.LC49
	.word	5
	.word	.LC50
	.word	.LC51
	.word	3
	.word	0
	.word	0
	.word	0
	.word	0
	.word	0
	.section	.rodata.oid_sig_alg,"a"
	.align	2
	.set	.LANCHOR0,. + 0
	.type	oid_sig_alg, @object
	.size	oid_sig_alg, 336
oid_sig_alg:
	.word	.LC52
	.word	9
	.word	.LC53
	.word	.LC54
	.word	3
	.word	1
	.word	.LC55
	.word	9
	.word	.LC56
	.word	.LC57
	.word	4
	.word	1
	.word	.LC58
	.word	9
	.word	.LC59
	.word	.LC60
	.word	5
	.word	1
	.word	.LC61
	.word	9
	.word	.LC62
	.word	.LC63
	.word	6
	.word	1
	.word	.LC64
	.word	9
	.word	.LC65
	.word	.LC66
	.word	7
	.word	1
	.word	.LC67
	.word	9
	.word	.LC68
	.word	.LC69
	.word	8
	.word	1
	.word	.LC70
	.word	5
	.word	.LC56
	.word	.LC57
	.word	4
	.word	1
	.word	.LC71
	.word	7
	.word	.LC72
	.word	.LC73
	.word	4
	.word	4
	.word	.LC74
	.word	8
	.word	.LC75
	.word	.LC76
	.word	5
	.word	4
	.word	.LC77
	.word	8
	.word	.LC78
	.word	.LC79
	.word	6
	.word	4
	.word	.LC80
	.word	8
	.word	.LC81
	.word	.LC82
	.word	7
	.word	4
	.word	.LC83
	.word	8
	.word	.LC84
	.word	.LC85
	.word	8
	.word	4
	.word	.LC86
	.word	9
	.word	.LC87
	.word	.LC87
	.word	0
	.word	6
	.word	0
	.word	0
	.word	0
	.word	0
	.word	0
	.word	0
	.section	.rodata.oid_x509_ext,"a"
	.align	2
	.set	.LANCHOR2,. + 0
	.type	oid_x509_ext, @object
	.size	oid_x509_ext, 140
oid_x509_ext:
	.word	.LC112
	.word	3
	.word	.LC113
	.word	.LC114
	.word	256
	.word	.LC115
	.word	3
	.word	.LC116
	.word	.LC117
	.word	4
	.word	.LC118
	.word	3
	.word	.LC119
	.word	.LC120
	.word	2048
	.word	.LC121
	.word	3
	.word	.LC122
	.word	.LC123
	.word	32
	.word	.LC124
	.word	9
	.word	.LC125
	.word	.LC126
	.word	65536
	.word	.LC127
	.word	3
	.word	.LC128
	.word	.LC129
	.word	8
	.word	0
	.word	0
	.word	0
	.word	0
	.word	0
	.section	.rodata.oid_x520_attr_type,"a"
	.align	2
	.set	.LANCHOR1,. + 0
	.type	oid_x520_attr_type, @object
	.size	oid_x520_attr_type, 400
oid_x520_attr_type:
	.word	.LC130
	.word	3
	.word	.LC131
	.word	.LC132
	.word	.LC133
	.word	.LC134
	.word	3
	.word	.LC135
	.word	.LC136
	.word	.LC137
	.word	.LC138
	.word	3
	.word	.LC139
	.word	.LC140
	.word	.LC141
	.word	.LC142
	.word	3
	.word	.LC143
	.word	.LC144
	.word	.LC145
	.word	.LC146
	.word	3
	.word	.LC147
	.word	.LC148
	.word	.LC149
	.word	.LC150
	.word	3
	.word	.LC151
	.word	.LC152
	.word	.LC153
	.word	.LC154
	.word	9
	.word	.LC155
	.word	.LC156
	.word	.LC155
	.word	.LC157
	.word	3
	.word	.LC158
	.word	.LC159
	.word	.LC160
	.word	.LC161
	.word	3
	.word	.LC162
	.word	.LC163
	.word	.LC164
	.word	.LC165
	.word	3
	.word	.LC166
	.word	.LC167
	.word	.LC168
	.word	.LC169
	.word	3
	.word	.LC170
	.word	.LC171
	.word	.LC172
	.word	.LC173
	.word	3
	.word	.LC174
	.word	.LC175
	.word	.LC176
	.word	.LC177
	.word	3
	.word	.LC178
	.word	.LC179
	.word	.LC180
	.word	.LC181
	.word	3
	.word	.LC182
	.word	.LC183
	.word	.LC184
	.word	.LC185
	.word	3
	.word	.LC186
	.word	.LC187
	.word	.LC188
	.word	.LC189
	.word	3
	.word	.LC190
	.word	.LC191
	.word	.LC192
	.word	.LC193
	.word	3
	.word	.LC194
	.word	.LC195
	.word	.LC196
	.word	.LC197
	.word	10
	.word	.LC198
	.word	.LC199
	.word	.LC200
	.word	.LC201
	.word	3
	.word	.LC202
	.word	.LC203
	.word	.LC204
	.word	0
	.word	0
	.word	0
	.word	0
	.word	0
	.text
.Letext0:
	.file 2 "/home/quanghaictu/intern/Ai-Thinker-WB2/components/security/mbedtls_lts/mbedtls/include/mbedtls/asn1.h"
	.file 3 "/home/quanghaictu/intern/Ai-Thinker-WB2/toolchain/riscv/Linux/lib/gcc/riscv64-unknown-elf/10.2.0/include/stddef.h"
	.file 4 "/home/quanghaictu/intern/Ai-Thinker-WB2/components/security/mbedtls_lts/mbedtls/include/mbedtls/md.h"
	.file 5 "/home/quanghaictu/intern/Ai-Thinker-WB2/components/security/mbedtls_lts/mbedtls/include/mbedtls/ecp.h"
	.file 6 "/home/quanghaictu/intern/Ai-Thinker-WB2/components/security/mbedtls_lts/mbedtls/include/mbedtls/pk.h"
	.file 7 "/home/quanghaictu/intern/Ai-Thinker-WB2/components/security/mbedtls_lts/mbedtls/include/mbedtls/cipher.h"
	.file 8 "/home/quanghaictu/intern/Ai-Thinker-WB2/components/security/mbedtls_lts/mbedtls/include/mbedtls/oid.h"
	.file 9 "/home/quanghaictu/intern/Ai-Thinker-WB2/toolchain/riscv/Linux/riscv64-unknown-elf/include/stdio.h"
	.file 10 "/home/quanghaictu/intern/Ai-Thinker-WB2/toolchain/riscv/Linux/riscv64-unknown-elf/include/string.h"