	.file	"pem.c"
	.option nopic
	.attribute arch, "rv32i2p0_m2p0_f2p0_c2p0"
	.attribute unaligned_access, 0
	.attribute stack_align, 16
	.text
.Ltext0:
	.cfi_sections	.debug_frame
	.section	.text.pem_aes_decrypt,"ax",@progbits
	.align	1
	.type	pem_aes_decrypt, @function
pem_aes_decrypt:
.LFB15:
	.file 1 "/home/dinhquangha/Ai-Thinker-WB2/components/security/mbedtls_lts/mbedtls/library/pem.c"
	.loc 1 199 1
	.cfi_startproc
.LVL0:
	.loc 1 200 5
	.loc 1 201 5
	.loc 1 202 5
	.loc 1 204 5
	.loc 1 199 1 is_stmt 0
	addi	sp,sp,-256
	.cfi_def_cfa_offset 256
	sw	ra,252(sp)
	sw	s0,248(sp)
	sw	s1,244(sp)
	.cfi_offset 1, -4
	.cfi_offset 8, -8
	.cfi_offset 9, -12
	addi	s0,sp,256
	.cfi_def_cfa 8, 0
	sw	s2,240(sp)
	sw	s3,236(sp)
	sw	s4,232(sp)
	sw	s5,228(sp)
	sw	s6,224(sp)
	sw	s7,220(sp)
	.cfi_offset 18, -16
	.cfi_offset 19, -20
	.cfi_offset 20, -24
	.cfi_offset 21, -28
	.cfi_offset 22, -32
	.cfi_offset 23, -36
	.loc 1 199 1
	mv	s3,a0
	.loc 1 204 5
	addi	a0,s0,-196
.LVL1:
	.loc 1 199 1
	mv	s2,a1
	mv	s5,a2
	mv	s4,a3
	mv	s6,a4
	mv	s7,a5
	.loc 1 204 5
	call	mbedtls_aes_init
.LVL2:
	.loc 1 206 5 is_stmt 1
.LBB8:
.LBB9:
	.loc 1 80 5
	.loc 1 81 5
	.loc 1 82 5
	.loc 1 83 5
	.loc 1 85 5
	addi	a0,s0,-136
	call	mbedtls_md5_init
.LVL3:
	.loc 1 90 5
	.loc 1 90 17 is_stmt 0
	addi	a0,s0,-136
	call	mbedtls_md5_starts_ret
.LVL4:
	mv	s1,a0
.LVL5:
	.loc 1 90 7
	bne	a0,zero,.L2
	.loc 1 92 5 is_stmt 1
	.loc 1 92 17 is_stmt 0
	mv	a2,s7
	mv	a1,s6
	addi	a0,s0,-136
	call	mbedtls_md5_update_ret
.LVL6:
	mv	s1,a0
.LVL7:
	.loc 1 92 7
	bne	a0,zero,.L2
	.loc 1 94 5 is_stmt 1
	.loc 1 94 17 is_stmt 0
	li	a2,8
	mv	a1,s3
	addi	a0,s0,-136
	call	mbedtls_md5_update_ret
.LVL8:
	mv	s1,a0
.LVL9:
	.loc 1 94 7
	bne	a0,zero,.L2
	.loc 1 96 5 is_stmt 1
	.loc 1 96 17 is_stmt 0
	addi	a1,s0,-244
	addi	a0,s0,-136
	call	mbedtls_md5_finish_ret
.LVL10:
	mv	s1,a0
.LVL11:
	.loc 1 96 7
	bne	a0,zero,.L2
	.loc 1 99 5 is_stmt 1
	.loc 1 99 7 is_stmt 0
	li	a5,16
	.loc 1 101 9
	li	a2,16
	addi	a1,s0,-244
	addi	a0,s0,-228
.LVL12:
	.loc 1 99 7
	bne	s2,a5,.L3
.LVL13:
.L8:
	.loc 1 125 5
	call	memcpy
.LVL14:
.L2:
	.loc 1 128 5 is_stmt 1
	addi	a0,s0,-136
	call	mbedtls_md5_free
.LVL15:
	.loc 1 129 5
	li	a1,16
	addi	a0,s0,-244
	call	mbedtls_platform_zeroize
.LVL16:
	.loc 1 131 5
.LBE9:
.LBE8:
	.loc 1 206 7 is_stmt 0
	bne	s1,zero,.L5
.LVL17:
	.loc 1 209 5 is_stmt 1
	.loc 1 209 17 is_stmt 0
	slli	a2,s2,3
	addi	a1,s0,-228
	addi	a0,s0,-196
	call	mbedtls_aes_setkey_dec
.LVL18:
	mv	s1,a0
.LVL19:
	.loc 1 209 7
	bne	a0,zero,.L5
	.loc 1 211 5 is_stmt 1
	.loc 1 211 11 is_stmt 0
	mv	a5,s5
	mv	a4,s5
	mv	a3,s3
	mv	a2,s4
	li	a1,0
	addi	a0,s0,-196
	call	mbedtls_aes_crypt_cbc
.LVL20:
	mv	s1,a0
.LVL21:
.L5:
	.loc 1 215 5 is_stmt 1
	addi	a0,s0,-196
	call	mbedtls_aes_free
.LVL22:
	.loc 1 216 5
	addi	a0,s0,-228
	mv	a1,s2
	call	mbedtls_platform_zeroize
.LVL23:
	.loc 1 218 5
	.loc 1 219 1 is_stmt 0
	lw	ra,252(sp)
	.cfi_remember_state
	.cfi_restore 1
	lw	s0,248(sp)
	.cfi_restore 8
	.cfi_def_cfa 2, 256
	lw	s2,240(sp)
	.cfi_restore 18
.LVL24:
	lw	s3,236(sp)
	.cfi_restore 19
.LVL25:
	lw	s4,232(sp)
	.cfi_restore 20
.LVL26:
	lw	s5,228(sp)
	.cfi_restore 21
.LVL27:
	lw	s6,224(sp)
	.cfi_restore 22
.LVL28:
	lw	s7,220(sp)
	.cfi_restore 23
.LVL29:
	mv	a0,s1
	lw	s1,244(sp)
	.cfi_restore 9
.LVL30:
	addi	sp,sp,256
	.cfi_def_cfa_offset 0
	jr	ra
.LVL31:
.L3:
	.cfi_restore_state
.LBB11:
.LBB10:
	.loc 1 105 5 is_stmt 1
	call	memcpy
.LVL32:
	.loc 1 110 5
	.loc 1 110 17 is_stmt 0
	addi	a0,s0,-136
	call	mbedtls_md5_starts_ret
.LVL33:
	mv	s1,a0
.LVL34:
	.loc 1 110 7
	bne	a0,zero,.L2
	.loc 1 112 5 is_stmt 1
	.loc 1 112 17 is_stmt 0
	li	a2,16
	addi	a1,s0,-244
	addi	a0,s0,-136
	call	mbedtls_md5_update_ret
.LVL35:
	mv	s1,a0
.LVL36:
	.loc 1 112 7
	bne	a0,zero,.L2
	.loc 1 114 5 is_stmt 1
	.loc 1 114 17 is_stmt 0
	mv	a2,s7
	mv	a1,s6
	addi	a0,s0,-136
	call	mbedtls_md5_update_ret
.LVL37:
	mv	s1,a0
.LVL38:
	.loc 1 114 7
	bne	a0,zero,.L2
	.loc 1 116 5 is_stmt 1
	.loc 1 116 17 is_stmt 0
	li	a2,8
	mv	a1,s3
	addi	a0,s0,-136
	call	mbedtls_md5_update_ret
.LVL39:
	mv	s1,a0
.LVL40:
	.loc 1 116 7
	bne	a0,zero,.L2
	.loc 1 118 5 is_stmt 1
	.loc 1 118 17 is_stmt 0
	addi	a1,s0,-244
	addi	a0,s0,-136
	call	mbedtls_md5_finish_ret
.LVL41:
	mv	s1,a0
.LVL42:
	.loc 1 118 7
	bne	a0,zero,.L2
	.loc 1 121 5 is_stmt 1
.LVL43:
	.loc 1 122 5
	.loc 1 122 7 is_stmt 0
	li	a5,32
	.loc 1 121 13
	li	a2,16
	.loc 1 122 7
	beq	s2,a5,.L4
	.loc 1 123 9 is_stmt 1
	.loc 1 123 17 is_stmt 0
	addi	a2,s2,-16
.LVL44:
.L4:
	.loc 1 125 5 is_stmt 1
	addi	a1,s0,-244
	addi	a0,s0,-212
	j	.L8
.LBE10:
.LBE11:
	.cfi_endproc
.LFE15:
	.size	pem_aes_decrypt, .-pem_aes_decrypt
	.section	.text.mbedtls_pem_init,"ax",@progbits
	.align	1
	.globl	mbedtls_pem_init
	.type	mbedtls_pem_init, @function
mbedtls_pem_init:
.LFB12:
	.loc 1 45 1
	.cfi_startproc
.LVL45:
	.loc 1 46 5
	.loc 1 45 1 is_stmt 0
	addi	sp,sp,-16
	.cfi_def_cfa_offset 16
	sw	s0,12(sp)
	.cfi_offset 8, -4
	addi	s0,sp,16
	.cfi_def_cfa 8, 0
	.loc 1 47 1
	lw	s0,12(sp)
	.cfi_restore 8
	.cfi_def_cfa 2, 16
	.loc 1 46 5
	li	a2,12
	li	a1,0
	.loc 1 47 1
	addi	sp,sp,16
	.cfi_def_cfa_offset 0
	.loc 1 46 5
	tail	memset
.LVL46:
	.cfi_endproc
.LFE12:
	.size	mbedtls_pem_init, .-mbedtls_pem_init
	.section	.rodata.mbedtls_pem_read_buffer.str1.4,"aMS",@progbits,1
	.align	2
.LC0:
	.string	"Proc-Type: 4,ENCRYPTED"
	.align	2
.LC1:
	.string	"DEK-Info: AES-"
	.align	2
.LC2:
	.string	"DEK-Info: AES-128-CBC,"
	.align	2
.LC3:
	.string	"DEK-Info: AES-192-CBC,"
	.align	2
.LC4:
	.string	"DEK-Info: AES-256-CBC,"
	.section	.text.mbedtls_pem_read_buffer,"ax",@progbits
	.align	1
	.globl	mbedtls_pem_read_buffer
	.type	mbedtls_pem_read_buffer, @function
mbedtls_pem_read_buffer:
.LFB16:
	.loc 1 228 1 is_stmt 1
	.cfi_startproc
.LVL47:
	.loc 1 229 5
	.loc 1 230 5
	.loc 1 231 5
	.loc 1 232 5
	.loc 1 235 5
	.loc 1 236 5
	.loc 1 243 5
	.loc 1 228 1 is_stmt 0
	addi	sp,sp,-80
	.cfi_def_cfa_offset 80
	sw	s0,72(sp)
	sw	ra,76(sp)
	sw	s1,68(sp)
	sw	s2,64(sp)
	sw	s3,60(sp)
	sw	s4,56(sp)
	sw	s5,52(sp)
	sw	s6,48(sp)
	sw	s7,44(sp)
	sw	s8,40(sp)
	sw	s9,36(sp)
	.cfi_offset 8, -8
	.cfi_offset 1, -4
	.cfi_offset 9, -12
	.cfi_offset 18, -16
	.cfi_offset 19, -20
	.cfi_offset 20, -24
	.cfi_offset 21, -28
	.cfi_offset 22, -32
	.cfi_offset 23, -36
	.cfi_offset 24, -40
	.cfi_offset 25, -44
	addi	s0,sp,80
	.cfi_def_cfa 8, 0
	.loc 1 243 7
	beq	a0,zero,.L46
	mv	s2,a0
	.loc 1 246 28
	mv	a0,a3
.LVL48:
	mv	s8,a1
	mv	s9,a2
	mv	s7,a3
	mv	s4,a4
	mv	s5,a5
	mv	s6,a6
	.loc 1 246 5 is_stmt 1
	.loc 1 246 28 is_stmt 0
	call	strstr
.LVL49:
	mv	s1,a0
.LVL50:
	.loc 1 248 5 is_stmt 1
	.loc 1 248 7 is_stmt 0
	bne	a0,zero,.L13
.L14:
	.loc 1 249 15
	li	s1,-4096
.LVL51:
	addi	s1,s1,-128
.LVL52:
.L11:
	.loc 1 417 1
	lw	ra,76(sp)
	.cfi_remember_state
	.cfi_restore 1
	lw	s0,72(sp)
	.cfi_restore 8
	.cfi_def_cfa 2, 80
	lw	s2,64(sp)
	.cfi_restore 18
	lw	s3,60(sp)
	.cfi_restore 19
	lw	s4,56(sp)
	.cfi_restore 20
	lw	s5,52(sp)
	.cfi_restore 21
	lw	s6,48(sp)
	.cfi_restore 22
	lw	s7,44(sp)
	.cfi_restore 23
	lw	s8,40(sp)
	.cfi_restore 24
	lw	s9,36(sp)
	.cfi_restore 25
	mv	a0,s1
	lw	s1,68(sp)
	.cfi_restore 9
	addi	sp,sp,80
	.cfi_def_cfa_offset 0
	jr	ra
.LVL53:
.L13:
	.cfi_restore_state
	.loc 1 251 5 is_stmt 1
	.loc 1 251 28 is_stmt 0
	mv	a1,s9
	mv	a0,s7
	call	strstr
.LVL54:
	mv	s3,a0
.LVL55:
	.loc 1 253 5 is_stmt 1
	.loc 1 253 7 is_stmt 0
	beq	a0,zero,.L14
	.loc 1 253 19 discriminator 1
	bgeu	s1,a0,.L14
	.loc 1 256 5 is_stmt 1
	.loc 1 256 11 is_stmt 0
	mv	a0,s8
.LVL56:
	call	strlen
.LVL57:
	.loc 1 256 8
	add	s1,s1,a0
.LVL58:
	.loc 1 257 5 is_stmt 1
	.loc 1 257 7 is_stmt 0
	lbu	a4,0(s1)
	li	a5,32
	bne	a4,a5,.L15
	.loc 1 257 22 is_stmt 1 discriminator 1
	.loc 1 257 24 is_stmt 0 discriminator 1
	addi	s1,s1,1
.LVL59:
.L15:
	.loc 1 258 5 is_stmt 1
	.loc 1 258 7 is_stmt 0
	lbu	a4,0(s1)
	li	a5,13
	bne	a4,a5,.L16
	.loc 1 258 23 is_stmt 1 discriminator 1
	.loc 1 258 25 is_stmt 0 discriminator 1
	addi	s1,s1,1
.LVL60:
.L16:
	.loc 1 259 5 is_stmt 1
	.loc 1 259 7 is_stmt 0
	lbu	a4,0(s1)
	li	a5,10
	bne	a4,a5,.L14
	.loc 1 259 23 is_stmt 1 discriminator 1
	.loc 1 263 12 is_stmt 0 discriminator 1
	mv	a0,s9
	call	strlen
.LVL61:
	.loc 1 263 9 discriminator 1
	add	a2,s3,a0
	.loc 1 264 7 discriminator 1
	lbu	a4,0(a2)
	li	a5,32
	.loc 1 259 25 discriminator 1
	addi	s8,s1,1
.LVL62:
	.loc 1 262 5 is_stmt 1 discriminator 1
	.loc 1 263 5 discriminator 1
	.loc 1 264 5 discriminator 1
	.loc 1 264 7 is_stmt 0 discriminator 1
	bne	a4,a5,.L17
	.loc 1 264 23 is_stmt 1 discriminator 1
	.loc 1 264 26 is_stmt 0 discriminator 1
	addi	a2,a2,1
.LVL63:
.L17:
	.loc 1 265 5 is_stmt 1
	.loc 1 265 7 is_stmt 0
	lbu	a4,0(a2)
	li	a5,13
	bne	a4,a5,.L18
	.loc 1 265 24 is_stmt 1 discriminator 1
	.loc 1 265 27 is_stmt 0 discriminator 1
	addi	a2,a2,1
.LVL64:
.L18:
	.loc 1 266 5 is_stmt 1
	.loc 1 266 7 is_stmt 0
	lbu	a4,0(a2)
	li	a5,10
	bne	a4,a5,.L19
	.loc 1 266 24 is_stmt 1 discriminator 1
	.loc 1 266 27 is_stmt 0 discriminator 1
	addi	a2,a2,1
.LVL65:
.L19:
	.loc 1 267 5 is_stmt 1
	.loc 1 267 20 is_stmt 0
	sub	a2,a2,s7
.LVL66:
	.loc 1 267 14
	sw	a2,0(s6)
	.loc 1 269 5 is_stmt 1
.LVL67:
	.loc 1 271 5
	.loc 1 271 12 is_stmt 0
	sub	a5,s3,s8
	.loc 1 271 7
	li	a4,21
	ble	a5,a4,.L48
	.loc 1 271 26 discriminator 1
	lui	a1,%hi(.LC0)
	li	a2,22
	addi	a1,a1,%lo(.LC0)
	mv	a0,s8
	call	memcmp
.LVL68:
	.loc 1 271 23 discriminator 1
	bne	a0,zero,.L48
	.loc 1 275 9 is_stmt 1
.LVL69:
	.loc 1 277 9
	.loc 1 278 9
	.loc 1 278 13 is_stmt 0
	lbu	a5,23(s1)
	.loc 1 278 11
	li	a4,13
	.loc 1 277 12
	addi	s6,s1,23
.LVL70:
	.loc 1 278 11
	bne	a5,a4,.L22
	.loc 1 278 27 is_stmt 1 discriminator 1
	.loc 1 278 29 is_stmt 0 discriminator 1
	lbu	a5,24(s1)
	addi	s6,s1,24
.LVL71:
.L22:
	.loc 1 279 9 is_stmt 1
	.loc 1 279 11 is_stmt 0
	li	a4,10
	beq	a5,a4,.L23
.LVL72:
.L35:
	.loc 1 280 20
	li	s1,-4096
	addi	s1,s1,-256
	j	.L11
.LVL73:
.L23:
	.loc 1 279 27 is_stmt 1 discriminator 1
	.loc 1 279 29 is_stmt 0 discriminator 1
	addi	s1,s6,1
.LVL74:
	.loc 1 307 9 is_stmt 1 discriminator 1
	.loc 1 307 16 is_stmt 0 discriminator 1
	sub	s7,s3,s1
.LVL75:
	.loc 1 307 11 discriminator 1
	li	a5,13
	bgt	s7,a5,.L24
.L25:
	.loc 1 329 19
	li	s1,-4096
.LVL76:
	addi	s1,s1,-640
	j	.L11
.LVL77:
.L24:
	.loc 1 307 30 discriminator 1
	lui	a1,%hi(.LC1)
	li	a2,14
	addi	a1,a1,%lo(.LC1)
	mv	a0,s1
	call	memcmp
.LVL78:
	.loc 1 307 27 discriminator 1
	bne	a0,zero,.L25
	.loc 1 309 13 is_stmt 1
	.loc 1 309 15 is_stmt 0
	li	a5,21
	ble	s7,a5,.L25
	.loc 1 311 18 is_stmt 1
	.loc 1 311 22 is_stmt 0
	lui	a1,%hi(.LC2)
	li	a2,22
	addi	a1,a1,%lo(.LC2)
	mv	a0,s1
	call	memcmp
.LVL79:
	.loc 1 312 25
	li	s7,5
	.loc 1 311 20
	beq	a0,zero,.L26
	.loc 1 313 18 is_stmt 1
	.loc 1 313 22 is_stmt 0
	lui	a1,%hi(.LC3)
	li	a2,22
	addi	a1,a1,%lo(.LC3)
	mv	a0,s1
	call	memcmp
.LVL80:
	.loc 1 314 25
	li	s7,6
	.loc 1 313 20
	beq	a0,zero,.L26
	.loc 1 315 18 is_stmt 1
	.loc 1 315 22 is_stmt 0
	lui	a1,%hi(.LC4)
	li	a2,22
	addi	a1,a1,%lo(.LC4)
	mv	a0,s1
	call	memcmp
.LVL81:
	.loc 1 315 20
	bne	a0,zero,.L25
	.loc 1 316 25
	li	s7,7
.L26:
.LVL82:
	.loc 1 320 13 is_stmt 1
	.loc 1 321 13
	.loc 1 320 16 is_stmt 0
	addi	a5,s6,23
.LVL83:
	.loc 1 321 20
	sub	a5,s3,a5
.LVL84:
	.loc 1 321 15
	li	a4,31
	bgt	a5,a4,.L27
.L31:
	.loc 1 322 23
	li	s1,-4096
	addi	s1,s1,-512
	j	.L11
.L27:
.LVL85:
.LBB16:
.LBB17:
	.loc 1 57 5 is_stmt 1
	.loc 1 59 5
	li	a2,16
	li	a1,0
	addi	a0,s0,-64
.LVL86:
	call	memset
.LVL87:
	.loc 1 61 5
	.loc 1 61 17
	.loc 1 61 12 is_stmt 0
	li	a4,0
	.loc 1 63 11
	li	a6,9
	.loc 1 64 11
	li	a2,5
	.loc 1 61 5
	li	a1,32
.LVL88:
.L33:
	.loc 1 63 9 is_stmt 1
	.loc 1 63 13 is_stmt 0
	add	a5,s6,a4
	lbu	a3,23(a5)
	.loc 1 63 23
	addi	a5,a3,-48
	.loc 1 63 11
	andi	a0,a5,0xff
	bleu	a0,a6,.L29
	.loc 1 64 9 is_stmt 1
	.loc 1 64 23 is_stmt 0
	addi	a5,a3,-65
	.loc 1 64 11
	andi	a5,a5,0xff
	bgtu	a5,a2,.L30
	.loc 1 64 38 is_stmt 1
	.loc 1 64 45 is_stmt 0
	addi	a5,a3,-55
.LVL89:
.L29:
	.loc 1 68 9 is_stmt 1
	.loc 1 68 19 is_stmt 0
	andi	a3,a4,1
	.loc 1 68 36
	bne	a3,zero,.L32
	slli	a5,a5,4
.LVL90:
.L32:
	.loc 1 70 9 is_stmt 1
	.loc 1 70 44 is_stmt 0
	srli	a3,a4,1
	.loc 1 70 41
	addi	a0,s0,-64
.LVL91:
	add	a3,a0,a3
	.loc 1 70 22
	lbu	a0,0(a3)
.LVL92:
	.loc 1 61 34
	addi	a4,a4,1
.LVL93:
	.loc 1 70 22
	or	a5,a5,a0
.LVL94:
	.loc 1 70 20
	sb	a5,0(a3)
	.loc 1 61 33 is_stmt 1
.LVL95:
	.loc 1 61 17
	.loc 1 61 5 is_stmt 0
	bne	a4,a1,.L33
.LVL96:
.LBE17:
.LBE16:
	.loc 1 324 13 is_stmt 1
	.loc 1 328 9
	.loc 1 331 9
	.loc 1 331 11 is_stmt 0
	lbu	a4,55(s6)
	li	a5,13
	.loc 1 331 29
	addi	a3,s6,56
	.loc 1 331 11
	beq	a4,a5,.L45
	.loc 1 324 16
	addi	a3,s6,55
.LVL97:
.L45:
	.loc 1 332 9 is_stmt 1
	.loc 1 332 11 is_stmt 0
	lbu	a4,0(a3)
	li	a5,10
	bne	a4,a5,.L35
	.loc 1 332 27 is_stmt 1 discriminator 1
	.loc 1 332 29 is_stmt 0 discriminator 1
	addi	s8,a3,1
.LVL98:
	.loc 1 275 12 discriminator 1
	li	s9,1
.LVL99:
.L20:
	.loc 1 340 5 is_stmt 1
	.loc 1 340 7 is_stmt 0
	bgeu	s8,s3,.L35
	.loc 1 343 5 is_stmt 1
	.loc 1 343 55 is_stmt 0
	sub	s3,s3,s8
.LVL100:
	.loc 1 343 11
	mv	a4,s3
	mv	a3,s8
	addi	a2,s0,-68
	li	a1,0
	li	a0,0
	call	mbedtls_base64_decode
.LVL101:
	.loc 1 345 5 is_stmt 1
	.loc 1 345 7 is_stmt 0
	li	a5,-44
	beq	a0,a5,.L51
	.loc 1 348 5 is_stmt 1
	.loc 1 348 17 is_stmt 0
	lw	a1,-68(s0)
	li	a0,1
.LVL102:
	call	mbedtls_calloc
.LVL103:
	mv	s6,a0
.LVL104:
	.loc 1 348 7
	beq	a0,zero,.L52
	.loc 1 351 5 is_stmt 1
	.loc 1 351 17 is_stmt 0
	lw	a1,-68(s0)
	mv	a3,s8
	mv	a4,s3
	addi	a2,s0,-68
	call	mbedtls_base64_decode
.LVL105:
	lw	a3,-68(s0)
	mv	s1,a0
.LVL106:
	.loc 1 351 7
	beq	a0,zero,.L36
	.loc 1 353 9 is_stmt 1
	mv	a1,a3
	mv	a0,s6
	call	mbedtls_platform_zeroize
.LVL107:
	.loc 1 354 9
	mv	a0,s6
	call	mbedtls_free
.LVL108:
	.loc 1 355 9
.LBB19:
.LBB20:
	.file 2 "/home/dinhquangha/Ai-Thinker-WB2/components/security/mbedtls_lts/mbedtls/include/mbedtls/error.h"
	.loc 2 166 5
	.loc 2 167 5
	.loc 2 169 5
	.loc 2 169 18 is_stmt 0
	li	a0,-4096
	addi	a0,a0,-256
	add	s1,s1,a0
.LVL109:
.LBE20:
.LBE19:
	.loc 1 355 17
	j	.L11
.LVL110:
.L30:
.LBB21:
.LBB18:
	.loc 1 65 9 is_stmt 1
	.loc 1 65 23 is_stmt 0
	addi	a5,a3,-97
	.loc 1 65 11
	andi	a5,a5,0xff
	bgtu	a5,a2,.L31
	.loc 1 65 38 is_stmt 1
	.loc 1 65 45 is_stmt 0
	addi	a5,a3,-87
.LVL111:
	j	.L29
.LVL112:
.L48:
.LBE18:
.LBE21:
	.loc 1 236 27
	li	s7,0
.LVL113:
	.loc 1 269 9
	li	s9,0
.LVL114:
	j	.L20
.LVL115:
.L36:
	.loc 1 358 5 is_stmt 1
	.loc 1 358 7 is_stmt 0
	beq	s9,zero,.L37
	.loc 1 362 9 is_stmt 1
	.loc 1 362 11 is_stmt 0
	bne	s4,zero,.L38
	.loc 1 364 13 is_stmt 1
	mv	a1,a3
	mv	a0,s6
	call	mbedtls_platform_zeroize
.LVL116:
	.loc 1 365 13
	mv	a0,s6
	.loc 1 366 19 is_stmt 0
	li	s1,-4096
.LVL117:
	.loc 1 365 13
	call	mbedtls_free
.LVL118:
	.loc 1 366 13 is_stmt 1
	.loc 1 366 19 is_stmt 0
	addi	s1,s1,-768
	j	.L11
.LVL119:
.L38:
	.loc 1 369 9 is_stmt 1
	.loc 1 379 9
	.loc 1 379 11 is_stmt 0
	li	a5,5
	bne	s7,a5,.L39
	.loc 1 380 13 is_stmt 1
	.loc 1 380 19 is_stmt 0
	mv	a5,s5
	mv	a4,s4
	mv	a2,s6
	li	a1,16
.LVL120:
.L67:
	.loc 1 384 19
	addi	a0,s0,-64
	call	pem_aes_decrypt
.LVL121:
	mv	s1,a0
.LVL122:
	.loc 1 387 9 is_stmt 1
	.loc 1 387 11 is_stmt 0
	beq	a0,zero,.L42
	.loc 1 389 13 is_stmt 1
	mv	a0,s6
	call	mbedtls_free
.LVL123:
	.loc 1 390 13
	.loc 1 390 19 is_stmt 0
	j	.L11
.LVL124:
.L39:
	.loc 1 381 14 is_stmt 1
	.loc 1 381 16 is_stmt 0
	li	a5,6
	bne	s7,a5,.L41
	.loc 1 382 13 is_stmt 1
	.loc 1 382 19 is_stmt 0
	mv	a5,s5
	mv	a4,s4
	mv	a2,s6
	li	a1,24
	j	.L67
.L41:
	.loc 1 383 14 is_stmt 1
	.loc 1 383 16 is_stmt 0
	li	a5,7
	bne	s7,a5,.L42
	.loc 1 384 13 is_stmt 1
	.loc 1 384 19 is_stmt 0
	mv	a5,s5
	mv	a4,s4
	mv	a2,s6
	li	a1,32
	j	.L67
.LVL125:
.L42:
	.loc 1 399 9 is_stmt 1
	.loc 1 399 17 is_stmt 0
	lw	a1,-68(s0)
	.loc 1 399 11
	li	a5,2
	bleu	a1,a5,.L43
	.loc 1 399 22 discriminator 1
	lbu	a4,0(s6)
	li	a5,48
	bne	a4,a5,.L43
	.loc 1 399 40 discriminator 2
	lbu	a4,1(s6)
	li	a5,131
	bleu	a4,a5,.L37
.L43:
	.loc 1 401 13 is_stmt 1
	mv	a0,s6
	call	mbedtls_platform_zeroize
.LVL126:
	.loc 1 402 13
	mv	a0,s6
	.loc 1 403 19 is_stmt 0
	li	s1,-4096
	.loc 1 402 13
	call	mbedtls_free
.LVL127:
	.loc 1 403 13 is_stmt 1
	.loc 1 403 19 is_stmt 0
	addi	s1,s1,-896
	j	.L11
.L37:
	.loc 1 413 5 is_stmt 1
	.loc 1 414 17 is_stmt 0
	lw	a5,-68(s0)
	.loc 1 413 14
	sw	s6,0(s2)
	.loc 1 414 5 is_stmt 1
	.loc 1 416 11 is_stmt 0
	li	s1,0
	.loc 1 414 17
	sw	a5,4(s2)
	.loc 1 416 5 is_stmt 1
	.loc 1 416 11 is_stmt 0
	j	.L11
.LVL128:
.L46:
	.loc 1 244 15
	li	s1,-4096
	addi	s1,s1,-1152
	j	.L11
.LVL129:
.L51:
	.loc 1 346 17
	li	s1,-4096
	addi	s1,s1,-300
	j	.L11
.LVL130:
.L52:
	.loc 1 349 15
	li	s1,-4096
	addi	s1,s1,-384
.LVL131:
	j	.L11
	.cfi_endproc
.LFE16:
	.size	mbedtls_pem_read_buffer, .-mbedtls_pem_read_buffer
	.section	.text.mbedtls_pem_free,"ax",@progbits
	.align	1
	.globl	mbedtls_pem_free
	.type	mbedtls_pem_free, @function
mbedtls_pem_free:
.LFB17:
	.loc 1 420 1 is_stmt 1
	.cfi_startproc
.LVL132:
	.loc 1 421 5
	.loc 1 420 1 is_stmt 0
	addi	sp,sp,-16
	.cfi_def_cfa_offset 16
	sw	s0,8(sp)
	sw	s1,4(sp)
	sw	ra,12(sp)
	.cfi_offset 8, -8
	.cfi_offset 9, -12
	.cfi_offset 1, -4
	addi	s0,sp,16
	.cfi_def_cfa 8, 0
	.loc 1 420 1
	mv	s1,a0
	.loc 1 421 13
	lw	a0,0(a0)
.LVL133:
	.loc 1 421 8
	beq	a0,zero,.L69
	.loc 1 423 9 is_stmt 1
	lw	a1,4(s1)
	call	mbedtls_platform_zeroize
.LVL134:
	.loc 1 424 9
	lw	a0,0(s1)
	call	mbedtls_free
.LVL135:
.L69:
	.loc 1 426 5
	lw	a0,8(s1)
	call	mbedtls_free
.LVL136:
	.loc 1 428 5
	.loc 1 429 1 is_stmt 0
	lw	s0,8(sp)
	.cfi_restore 8
	.cfi_def_cfa 2, 16
	lw	ra,12(sp)
	.cfi_restore 1
	.loc 1 428 5
	mv	a0,s1
	.loc 1 429 1
	lw	s1,4(sp)
	.cfi_restore 9
.LVL137:
	.loc 1 428 5
	li	a1,12
	.loc 1 429 1
	addi	sp,sp,16
	.cfi_def_cfa_offset 0
	.loc 1 428 5
	tail	mbedtls_platform_zeroize
.LVL138:
	.cfi_endproc
.LFE17:
	.size	mbedtls_pem_free, .-mbedtls_pem_free
	.text
.Letext0:
	.file 3 "/home/dinhquangha/Ai-Thinker-WB2/toolchain/riscv/Linux/lib/gcc/riscv64-unknown-elf/10.2.0/include/stddef.h"
	.file 4 "/home/dinhquangha/Ai-Thinker-WB2/toolchain/riscv/Linux/lib/gcc/riscv64-unknown-elf/10.2.0/include/stdint-gcc.h"
	.file 5 "/home/dinhquangha/Ai-Thinker-WB2/components/security/mbedtls_lts/mbedtls/include/mbedtls/pem.h"
	.file 6 "/home/dinhquangha/Ai-Thinker-WB2/components/platform/hosal/sec_common/bl_sec_aes.h"
	.file 7 "/home/dinhquangha/Ai-Thinker-WB2/components/security/mbedtls_lts/port/aes_alt.h"
	.file 8 "/home/dinhquangha/Ai-Thinker-WB2/components/security/mbedtls_lts/mbedtls/include/mbedtls/md5.h"
	.file 9 "/home/dinhquangha/Ai-Thinker-WB2/components/security/mbedtls_lts/mbedtls/include/mbedtls/cipher.h"
	.file 10 "/home/dinhquangha/Ai-Thinker-WB2/components/security/mbedtls_lts/mbedtls/include/mbedtls/platform_util.h"
	.file 11 "/home/dinhquangha/Ai-Thinker-WB2/components/security/mbedtls_lts/mbedtls/include/mbedtls/platform.h"
	.file 12 "/home/dinhquangha/Ai-Thinker-WB2/toolchain/riscv/Linux/riscv64-unknown-elf/include/string.h"
	.file 13 "/home/dinhquangha/Ai-Thinker-WB2/components/security/mbedtls_lts/mbedtls/include/mbedtls/base64.h"
	.file 14 "/home/dinhquangha/Ai-Thinker-WB2/components/security/mbedtls_lts/mbedtls/include/mbedtls/aes.h"