	.file	"pk_wrap.c"
	.option nopic
	.attribute arch, "rv32i2p0_m2p0_f2p0_c2p0"
	.attribute unaligned_access, 0
	.attribute stack_align, 16
	.text
.Ltext0:
	.cfi_sections	.debug_frame
	.section	.text.rsa_can_do,"ax",@progbits
	.align	1
	.type	rsa_can_do, @function
rsa_can_do:
.LFB8:
	.file 1 "/home/dinhquangha/Ai-Thinker-WB2/components/security/mbedtls_lts/mbedtls/library/pk_wrap.c"
	.loc 1 66 1
	.cfi_startproc
.LVL0:
	.loc 1 67 5
	.loc 1 66 1 is_stmt 0
	addi	sp,sp,-16
	.cfi_def_cfa_offset 16
	sw	s0,12(sp)
	.cfi_offset 8, -4
	addi	s0,sp,16
	.cfi_def_cfa 8, 0
	.loc 1 67 36
	li	a5,1
	beq	a0,a5,.L3
	.loc 1 67 36 discriminator 2
	addi	a0,a0,-6
.LVL1:
	seqz	a0,a0
.LVL2:
.L1:
	.loc 1 69 1
	lw	s0,12(sp)
	.cfi_remember_state
	.cfi_restore 8
	.cfi_def_cfa 2, 16
	addi	sp,sp,16
	.cfi_def_cfa_offset 0
	jr	ra
.LVL3:
.L3:
	.cfi_restore_state
	.loc 1 67 36
	li	a0,1
.LVL4:
	j	.L1
	.cfi_endproc
.LFE8:
	.size	rsa_can_do, .-rsa_can_do
	.section	.rodata.rsa_debug.str1.4,"aMS",@progbits,1
	.align	2
.LC0:
	.string	"rsa.N"
	.align	2
.LC1:
	.string	"rsa.E"
	.section	.text.rsa_debug,"ax",@progbits
	.align	1
	.type	rsa_debug, @function
rsa_debug:
.LFB17:
	.loc 1 179 1 is_stmt 1
	.cfi_startproc
.LVL5:
	.loc 1 180 5
	.loc 1 179 1 is_stmt 0
	addi	sp,sp,-16
	.cfi_def_cfa_offset 16
	sw	s0,12(sp)
	.loc 1 181 17
	lui	a5,%hi(.LC0)
	.cfi_offset 8, -4
	.loc 1 179 1
	addi	s0,sp,16
	.cfi_def_cfa 8, 0
	.loc 1 181 17
	addi	a5,a5,%lo(.LC0)
	sw	a5,4(a1)
	.loc 1 182 20
	addi	a5,a0,8
	.loc 1 189 1
	lw	s0,12(sp)
	.cfi_restore 8
	.cfi_def_cfa 2, 16
	.loc 1 182 18
	sw	a5,8(a1)
	.loc 1 187 17
	lui	a5,%hi(.LC1)
	.loc 1 180 17
	li	a4,1
	.loc 1 187 17
	addi	a5,a5,%lo(.LC1)
	.loc 1 188 20
	addi	a0,a0,20
.LVL6:
	.loc 1 180 17
	sw	a4,0(a1)
	.loc 1 181 5 is_stmt 1
	.loc 1 182 5
	.loc 1 184 5
.LVL7:
	.loc 1 186 5
	.loc 1 186 17 is_stmt 0
	sw	a4,12(a1)
	.loc 1 187 5 is_stmt 1
	.loc 1 187 17 is_stmt 0
	sw	a5,16(a1)
	.loc 1 188 5 is_stmt 1
	.loc 1 188 18 is_stmt 0
	sw	a0,20(a1)
	.loc 1 189 1
	addi	sp,sp,16
	.cfi_def_cfa_offset 0
	jr	ra
	.cfi_endproc
.LFE17:
	.size	rsa_debug, .-rsa_debug
	.section	.text.eckey_can_do,"ax",@progbits
	.align	1
	.type	eckey_can_do, @function
eckey_can_do:
.LFB18:
	.loc 1 220 1 is_stmt 1
	.cfi_startproc
.LVL8:
	.loc 1 221 5
	.loc 1 220 1 is_stmt 0
	addi	sp,sp,-16
	.cfi_def_cfa_offset 16
	sw	s0,12(sp)
	.cfi_offset 8, -4
	addi	s0,sp,16
	.cfi_def_cfa 8, 0
	.loc 1 224 1
	lw	s0,12(sp)
	.cfi_restore 8
	.cfi_def_cfa 2, 16
	.loc 1 222 41
	addi	a0,a0,-2
.LVL9:
	.loc 1 224 1
	sltiu	a0,a0,3
.LVL10:
	addi	sp,sp,16
	.cfi_def_cfa_offset 0
	jr	ra
	.cfi_endproc
.LFE18:
	.size	eckey_can_do, .-eckey_can_do
	.section	.text.eckey_get_bitlen,"ax",@progbits
	.align	1
	.type	eckey_get_bitlen, @function
eckey_get_bitlen:
.LFB19:
	.loc 1 227 1 is_stmt 1
	.cfi_startproc
.LVL11:
	.loc 1 228 5
	.loc 1 227 1 is_stmt 0
	addi	sp,sp,-16
	.cfi_def_cfa_offset 16
	sw	s0,12(sp)
	.cfi_offset 8, -4
	addi	s0,sp,16
	.cfi_def_cfa 8, 0
	.loc 1 229 1
	lw	s0,12(sp)
	.cfi_restore 8
	.cfi_def_cfa 2, 16
	lw	a0,88(a0)
.LVL12:
	addi	sp,sp,16
	.cfi_def_cfa_offset 0
	jr	ra
	.cfi_endproc
.LFE19:
	.size	eckey_get_bitlen, .-eckey_get_bitlen
	.section	.rodata.eckey_debug.str1.4,"aMS",@progbits,1
	.align	2
.LC2:
	.string	"eckey.Q"
	.section	.text.eckey_debug,"ax",@progbits
	.align	1
	.type	eckey_debug, @function
eckey_debug:
.LFB25:
	.loc 1 407 1 is_stmt 1
	.cfi_startproc
.LVL13:
	.loc 1 408 5
	.loc 1 407 1 is_stmt 0
	addi	sp,sp,-16
	.cfi_def_cfa_offset 16
	sw	s0,12(sp)
	.cfi_offset 8, -4
	addi	s0,sp,16
	.cfi_def_cfa 8, 0
	.loc 1 408 17
	li	a5,2
	.loc 1 411 1
	lw	s0,12(sp)
	.cfi_restore 8
	.cfi_def_cfa 2, 16
	.loc 1 408 17
	sw	a5,0(a1)
	.loc 1 409 5 is_stmt 1
	.loc 1 409 17 is_stmt 0
	lui	a5,%hi(.LC2)
	addi	a5,a5,%lo(.LC2)
	.loc 1 410 20
	addi	a0,a0,120
.LVL14:
	.loc 1 409 17
	sw	a5,4(a1)
	.loc 1 410 5 is_stmt 1
	.loc 1 410 18 is_stmt 0
	sw	a0,8(a1)
	.loc 1 411 1
	addi	sp,sp,16
	.cfi_def_cfa_offset 0
	jr	ra
	.cfi_endproc
.LFE25:
	.size	eckey_debug, .-eckey_debug
	.section	.text.eckeydh_can_do,"ax",@progbits
	.align	1
	.type	eckeydh_can_do, @function
eckeydh_can_do:
.LFB26:
	.loc 1 445 1 is_stmt 1
	.cfi_startproc
.LVL15:
	.loc 1 446 5
	.loc 1 445 1 is_stmt 0
	addi	sp,sp,-16
	.cfi_def_cfa_offset 16
	sw	s0,12(sp)
	.cfi_offset 8, -4
	addi	s0,sp,16
	.cfi_def_cfa 8, 0
	.loc 1 448 1
	lw	s0,12(sp)
	.cfi_restore 8
	.cfi_def_cfa 2, 16
	.loc 1 446 38
	addi	a0,a0,-2
.LVL16:
	.loc 1 448 1
	sltiu	a0,a0,2
.LVL17:
	addi	sp,sp,16
	.cfi_def_cfa_offset 0
	jr	ra
	.cfi_endproc
.LFE26:
	.size	eckeydh_can_do, .-eckeydh_can_do
	.section	.text.ecdsa_can_do,"ax",@progbits
	.align	1
	.type	ecdsa_can_do, @function
ecdsa_can_do:
.LFB27:
	.loc 1 476 1 is_stmt 1
	.cfi_startproc
.LVL18:
	.loc 1 477 5
	.loc 1 476 1 is_stmt 0
	addi	sp,sp,-16
	.cfi_def_cfa_offset 16
	sw	s0,12(sp)
	.cfi_offset 8, -4
	addi	s0,sp,16
	.cfi_def_cfa 8, 0
	.loc 1 478 1
	lw	s0,12(sp)
	.cfi_restore 8
	.cfi_def_cfa 2, 16
	.loc 1 477 18
	addi	a0,a0,-4
.LVL19:
	.loc 1 478 1
	seqz	a0,a0
.LVL20:
	addi	sp,sp,16
	.cfi_def_cfa_offset 0
	jr	ra
	.cfi_endproc
.LFE27:
	.size	ecdsa_can_do, .-ecdsa_can_do
	.section	.text.rsa_free_wrap,"ax",@progbits
	.align	1
	.type	rsa_free_wrap, @function
rsa_free_wrap:
.LFB16:
	.loc 1 173 1 is_stmt 1
	.cfi_startproc
.LVL21:
	.loc 1 174 5
	.loc 1 173 1 is_stmt 0
	addi	sp,sp,-16
	.cfi_def_cfa_offset 16
	sw	s0,8(sp)
	sw	s1,4(sp)
	sw	ra,12(sp)
	.cfi_offset 8, -8
	.cfi_offset 9, -12
	.cfi_offset 1, -4
	addi	s0,sp,16
	.cfi_def_cfa 8, 0
	.loc 1 173 1
	mv	s1,a0
	.loc 1 174 5
	call	mbedtls_rsa_free
.LVL22:
	.loc 1 175 5 is_stmt 1
	.loc 1 176 1 is_stmt 0
	lw	s0,8(sp)
	.cfi_restore 8
	.cfi_def_cfa 2, 16
	lw	ra,12(sp)
	.cfi_restore 1
	.loc 1 175 5
	mv	a0,s1
	.loc 1 176 1
	lw	s1,4(sp)
	.cfi_restore 9
.LVL23:
	addi	sp,sp,16
	.cfi_def_cfa_offset 0
	.loc 1 175 5
	tail	mbedtls_free
.LVL24:
	.cfi_endproc
.LFE16:
	.size	rsa_free_wrap, .-rsa_free_wrap
	.section	.text.rsa_alloc_wrap,"ax",@progbits
	.align	1
	.type	rsa_alloc_wrap, @function
rsa_alloc_wrap:
.LFB15:
	.loc 1 163 1 is_stmt 1
	.cfi_startproc
	.loc 1 164 5
	.loc 1 163 1 is_stmt 0
	addi	sp,sp,-16
	.cfi_def_cfa_offset 16
	sw	s0,8(sp)
	sw	s1,4(sp)
	sw	ra,12(sp)
	.cfi_offset 8, -8
	.cfi_offset 9, -12
	.cfi_offset 1, -4
	addi	s0,sp,16
	.cfi_def_cfa 8, 0
	.loc 1 164 17
	li	a1,172
	li	a0,1
	call	mbedtls_calloc
.LVL25:
	mv	s1,a0
.LVL26:
	.loc 1 166 5 is_stmt 1
	.loc 1 166 7 is_stmt 0
	beq	a0,zero,.L19
	.loc 1 167 9 is_stmt 1
	li	a2,0
	li	a1,0
	call	mbedtls_rsa_init
.LVL27:
	.loc 1 169 5
.L19:
	.loc 1 170 1 is_stmt 0
	lw	ra,12(sp)
	.cfi_restore 1
	lw	s0,8(sp)
	.cfi_restore 8
	.cfi_def_cfa 2, 16
	mv	a0,s1
	lw	s1,4(sp)
	.cfi_restore 9
.LVL28:
	addi	sp,sp,16
	.cfi_def_cfa_offset 0
	jr	ra
	.cfi_endproc
.LFE15:
	.size	rsa_alloc_wrap, .-rsa_alloc_wrap
	.section	.text.rsa_check_pair_wrap,"ax",@progbits
	.align	1
	.type	rsa_check_pair_wrap, @function
rsa_check_pair_wrap:
.LFB14:
	.loc 1 157 1 is_stmt 1
	.cfi_startproc
.LVL29:
	.loc 1 158 5
	.loc 1 157 1 is_stmt 0
	addi	sp,sp,-16
	.cfi_def_cfa_offset 16
	sw	s0,12(sp)
	.cfi_offset 8, -4
	addi	s0,sp,16
	.cfi_def_cfa 8, 0
	.loc 1 160 1
	lw	s0,12(sp)
	.cfi_restore 8
	.cfi_def_cfa 2, 16
	addi	sp,sp,16
	.cfi_def_cfa_offset 0
	.loc 1 158 13
	tail	mbedtls_rsa_check_pub_priv
.LVL30:
	.cfi_endproc
.LFE14:
	.size	rsa_check_pair_wrap, .-rsa_check_pair_wrap
	.section	.text.rsa_get_bitlen,"ax",@progbits
	.align	1
	.type	rsa_get_bitlen, @function
rsa_get_bitlen:
.LFB9:
	.loc 1 72 1 is_stmt 1
	.cfi_startproc
.LVL31:
	.loc 1 73 5
	.loc 1 74 5
	.loc 1 72 1 is_stmt 0
	addi	sp,sp,-16
	.cfi_def_cfa_offset 16
	sw	s0,8(sp)
	sw	ra,12(sp)
	.cfi_offset 8, -8
	.cfi_offset 1, -4
	addi	s0,sp,16
	.cfi_def_cfa 8, 0
	.loc 1 74 17
	call	mbedtls_rsa_get_len
.LVL32:
	.loc 1 75 1
	lw	ra,12(sp)
	.cfi_restore 1
	lw	s0,8(sp)
	.cfi_restore 8
	.cfi_def_cfa 2, 16
	slli	a0,a0,3
	addi	sp,sp,16
	.cfi_def_cfa_offset 0
	jr	ra
	.cfi_endproc
.LFE9:
	.size	rsa_get_bitlen, .-rsa_get_bitlen
	.section	.text.rsa_encrypt_wrap,"ax",@progbits
	.align	1
	.type	rsa_encrypt_wrap, @function
rsa_encrypt_wrap:
.LFB13:
	.loc 1 145 1 is_stmt 1
	.cfi_startproc
.LVL33:
	.loc 1 146 5
	.loc 1 145 1 is_stmt 0
	addi	sp,sp,-48
	.cfi_def_cfa_offset 48
	sw	s0,40(sp)
	sw	s1,36(sp)
	sw	s2,32(sp)
	sw	s3,28(sp)
	sw	s4,24(sp)
	sw	s5,20(sp)
	sw	s6,16(sp)
	sw	s7,12(sp)
	sw	s8,8(sp)
	sw	ra,44(sp)
	.cfi_offset 8, -8
	.cfi_offset 9, -12
	.cfi_offset 18, -16
	.cfi_offset 19, -20
	.cfi_offset 20, -24
	.cfi_offset 21, -28
	.cfi_offset 22, -32
	.cfi_offset 23, -36
	.cfi_offset 24, -40
	.cfi_offset 1, -4
	addi	s0,sp,48
	.cfi_def_cfa 8, 0
	.loc 1 145 1
	mv	s8,a4
	mv	s1,a0
.LVL34:
	.loc 1 147 5 is_stmt 1
	.loc 1 145 1 is_stmt 0
	mv	s5,a1
	mv	s4,a2
	mv	s6,a3
	mv	s7,a5
	mv	s2,a6
	mv	s3,a7
	.loc 1 147 13
	call	mbedtls_rsa_get_len
.LVL35:
	.loc 1 147 11
	sw	a0,0(s8)
	.loc 1 149 5 is_stmt 1
	.loc 1 149 7 is_stmt 0
	bgtu	a0,s7,.L30
	.loc 1 152 5 is_stmt 1
	.loc 1 154 1 is_stmt 0
	lw	s0,40(sp)
	.cfi_remember_state
	.cfi_restore 8
	.cfi_def_cfa 2, 48
	lw	ra,44(sp)
	.cfi_restore 1
	lw	s7,12(sp)
	.cfi_restore 23
.LVL36:
	lw	s8,8(sp)
	.cfi_restore 24
.LVL37:
	.loc 1 152 13
	mv	a6,s6
	mv	a5,s5
	.loc 1 154 1
	lw	s6,16(sp)
	.cfi_restore 22
.LVL38:
	lw	s5,20(sp)
	.cfi_restore 21
.LVL39:
	.loc 1 152 13
	mv	a4,s4
	mv	a2,s3
	.loc 1 154 1
	lw	s4,24(sp)
	.cfi_restore 20
.LVL40:
	lw	s3,28(sp)
	.cfi_restore 19
.LVL41:
	.loc 1 152 13
	mv	a1,s2
	mv	a0,s1
	.loc 1 154 1
	lw	s2,32(sp)
	.cfi_restore 18
.LVL42:
	lw	s1,36(sp)
	.cfi_restore 9
.LVL43:
	.loc 1 152 13
	li	a3,0
	.loc 1 154 1
	addi	sp,sp,48
	.cfi_def_cfa_offset 0
	.loc 1 152 13
	tail	mbedtls_rsa_pkcs1_encrypt
.LVL44:
.L30:
	.cfi_restore_state
	.loc 1 154 1
	lw	ra,44(sp)
	.cfi_restore 1
	lw	s0,40(sp)
	.cfi_restore 8
	.cfi_def_cfa 2, 48
	li	a0,-16384
	lw	s1,36(sp)
	.cfi_restore 9
.LVL45:
	lw	s2,32(sp)
	.cfi_restore 18
.LVL46:
	lw	s3,28(sp)
	.cfi_restore 19
.LVL47:
	lw	s4,24(sp)
	.cfi_restore 20
.LVL48:
	lw	s5,20(sp)
	.cfi_restore 21
.LVL49:
	lw	s6,16(sp)
	.cfi_restore 22
.LVL50:
	lw	s7,12(sp)
	.cfi_restore 23
.LVL51:
	lw	s8,8(sp)
	.cfi_restore 24
.LVL52:
	addi	a0,a0,-1024
	addi	sp,sp,48
	.cfi_def_cfa_offset 0
	jr	ra
	.cfi_endproc
.LFE13:
	.size	rsa_encrypt_wrap, .-rsa_encrypt_wrap
	.section	.text.rsa_decrypt_wrap,"ax",@progbits
	.align	1
	.type	rsa_decrypt_wrap, @function
rsa_decrypt_wrap:
.LFB12:
	.loc 1 131 1 is_stmt 1
	.cfi_startproc
.LVL53:
	.loc 1 132 5
	.loc 1 131 1 is_stmt 0
	addi	sp,sp,-64
	.cfi_def_cfa_offset 64
	sw	s0,56(sp)
	sw	s1,52(sp)
	sw	s2,48(sp)
	sw	s3,44(sp)
	sw	s4,40(sp)
	sw	s5,36(sp)
	sw	s6,32(sp)
	sw	s7,28(sp)
	.cfi_offset 8, -8
	.cfi_offset 9, -12
	.cfi_offset 18, -16
	.cfi_offset 19, -20
	.cfi_offset 20, -24
	.cfi_offset 21, -28
	.cfi_offset 22, -32
	.cfi_offset 23, -36
	addi	s0,sp,64
	.cfi_def_cfa 8, 0
	sw	ra,60(sp)
	.cfi_offset 1, -4
	.loc 1 131 1
	mv	s7,a2
	mv	s1,a0
.LVL54:
	.loc 1 134 5 is_stmt 1
	.loc 1 131 1 is_stmt 0
	mv	s4,a1
	mv	s5,a3
	sw	a4,-52(s0)
	mv	s6,a5
	mv	s2,a6
	mv	s3,a7
	.loc 1 134 17
	call	mbedtls_rsa_get_len
.LVL55:
	.loc 1 134 7
	bne	a0,s7,.L33
	.loc 1 137 5 is_stmt 1
	.loc 1 137 13 is_stmt 0
	lw	a4,-52(s0)
	.loc 1 139 1
	lw	s0,56(sp)
	.cfi_remember_state
	.cfi_restore 8
	.cfi_def_cfa 2, 64
.LVL56:
	lw	ra,60(sp)
	.cfi_restore 1
	lw	s7,28(sp)
	.cfi_restore 23
.LVL57:
	.loc 1 137 13
	mv	a7,s6
	mv	a6,s5
	.loc 1 139 1
	lw	s6,32(sp)
	.cfi_restore 22
.LVL58:
	lw	s5,36(sp)
	.cfi_restore 21
.LVL59:
	.loc 1 137 13
	mv	a5,s4
	mv	a2,s3
	.loc 1 139 1
	lw	s4,40(sp)
	.cfi_restore 20
.LVL60:
	lw	s3,44(sp)
	.cfi_restore 19
.LVL61:
	.loc 1 137 13
	mv	a1,s2
	mv	a0,s1
	.loc 1 139 1
	lw	s2,48(sp)
	.cfi_restore 18
.LVL62:
	lw	s1,52(sp)
	.cfi_restore 9
.LVL63:
	.loc 1 137 13
	li	a3,1
	.loc 1 139 1
	addi	sp,sp,64
	.cfi_def_cfa_offset 0
	.loc 1 137 13
	tail	mbedtls_rsa_pkcs1_decrypt
.LVL64:
.L33:
	.cfi_restore_state
	.loc 1 139 1
	lw	ra,60(sp)
	.cfi_restore 1
	lw	s0,56(sp)
	.cfi_restore 8
	.cfi_def_cfa 2, 64
	li	a0,-16384
	lw	s1,52(sp)
	.cfi_restore 9
.LVL65:
	lw	s2,48(sp)
	.cfi_restore 18
.LVL66:
	lw	s3,44(sp)
	.cfi_restore 19
.LVL67:
	lw	s4,40(sp)
	.cfi_restore 20
.LVL68:
	lw	s5,36(sp)
	.cfi_restore 21
.LVL69:
	lw	s6,32(sp)
	.cfi_restore 22
.LVL70:
	lw	s7,28(sp)
	.cfi_restore 23
.LVL71:
	addi	a0,a0,-128
	addi	sp,sp,64
	.cfi_def_cfa_offset 0
	jr	ra
	.cfi_endproc
.LFE12:
	.size	rsa_decrypt_wrap, .-rsa_decrypt_wrap
	.section	.text.rsa_sign_wrap,"ax",@progbits
	.align	1
	.type	rsa_sign_wrap, @function
rsa_sign_wrap:
.LFB11:
	.loc 1 113 1 is_stmt 1
	.cfi_startproc
.LVL72:
	.loc 1 114 5
	.loc 1 113 1 is_stmt 0
	addi	sp,sp,-48
	.cfi_def_cfa_offset 48
	sw	s0,40(sp)
	sw	s1,36(sp)
	sw	s2,32(sp)
	sw	s3,28(sp)
	sw	s4,24(sp)
	sw	s5,20(sp)
	sw	s6,16(sp)
	sw	s7,12(sp)
	sw	s8,8(sp)
	sw	ra,44(sp)
	.cfi_offset 8, -8
	.cfi_offset 9, -12
	.cfi_offset 18, -16
	.cfi_offset 19, -20
	.cfi_offset 20, -24
	.cfi_offset 21, -28
	.cfi_offset 22, -32
	.cfi_offset 23, -36
	.cfi_offset 24, -40
	.cfi_offset 1, -4
	addi	s0,sp,48
	.cfi_def_cfa 8, 0
	.loc 1 113 1
	mv	s4,a1
	mv	s6,a2
	mv	s5,a3
	mv	s7,a4
	mv	s8,a5
	mv	s2,a6
	mv	s3,a7
	mv	s1,a0
.LVL73:
	.loc 1 121 5 is_stmt 1
	.loc 1 121 16 is_stmt 0
	call	mbedtls_rsa_get_len
.LVL74:
	.loc 1 125 1
	lw	s0,40(sp)
	.cfi_restore 8
	.cfi_def_cfa 2, 48
	.loc 1 121 14
	sw	a0,0(s8)
	.loc 1 123 5 is_stmt 1
	.loc 1 125 1 is_stmt 0
	lw	ra,44(sp)
	.cfi_restore 1
	lw	s8,8(sp)
	.cfi_restore 24
.LVL75:
	.loc 1 123 13
	mv	a7,s7
	mv	a6,s6
	.loc 1 125 1
	lw	s7,12(sp)
	.cfi_restore 23
.LVL76:
	lw	s6,16(sp)
	.cfi_restore 22
.LVL77:
	.loc 1 123 13
	mv	a5,s5
	mv	a4,s4
	.loc 1 125 1
	lw	s5,20(sp)
	.cfi_restore 21
.LVL78:
	lw	s4,24(sp)
	.cfi_restore 20
.LVL79:
	.loc 1 123 13
	mv	a2,s3
	mv	a1,s2
	.loc 1 125 1
	lw	s3,28(sp)
	.cfi_restore 19
.LVL80:
	lw	s2,32(sp)
	.cfi_restore 18
.LVL81:
	.loc 1 123 13
	mv	a0,s1
	.loc 1 125 1
	lw	s1,36(sp)
	.cfi_restore 9
.LVL82:
	.loc 1 123 13
	li	a3,1
	.loc 1 125 1
	addi	sp,sp,48
	.cfi_def_cfa_offset 0
	.loc 1 123 13
	tail	mbedtls_rsa_pkcs1_sign
.LVL83:
	.cfi_endproc
.LFE11:
	.size	rsa_sign_wrap, .-rsa_sign_wrap
	.section	.text.rsa_verify_wrap,"ax",@progbits
	.align	1
	.type	rsa_verify_wrap, @function
rsa_verify_wrap:
.LFB10:
	.loc 1 80 1 is_stmt 1
	.cfi_startproc
.LVL84:
	.loc 1 81 5
	.loc 1 82 5
	.loc 1 80 1 is_stmt 0
	addi	sp,sp,-48
	.cfi_def_cfa_offset 48
	sw	s0,40(sp)
	sw	s1,36(sp)
	.cfi_offset 8, -8
	.cfi_offset 9, -12
	addi	s0,sp,48
	.cfi_def_cfa 8, 0
	sw	s3,28(sp)
	sw	s4,24(sp)
	sw	s5,20(sp)
	sw	ra,44(sp)
	sw	s2,32(sp)
	.cfi_offset 19, -20
	.cfi_offset 20, -24
	.cfi_offset 21, -28
	.cfi_offset 1, -4
	.cfi_offset 18, -16
	.loc 1 80 1
	mv	s1,a5
	mv	s3,a0
.LVL85:
	.loc 1 83 5 is_stmt 1
	.loc 1 80 1 is_stmt 0
	mv	s4,a1
	sw	a2,-40(s0)
	mv	s5,a3
	sw	a4,-36(s0)
	.loc 1 83 22
	call	mbedtls_rsa_get_len
.LVL86:
	.loc 1 90 5 is_stmt 1
	.loc 1 90 7 is_stmt 0
	bgtu	a0,s1,.L39
	.loc 1 93 17
	lw	a7,-36(s0)
	lw	a6,-40(s0)
	mv	s2,a0
	.loc 1 93 5 is_stmt 1
	.loc 1 93 17 is_stmt 0
	mv	a5,s5
	mv	a4,s4
	li	a3,0
	li	a2,0
	li	a1,0
	mv	a0,s3
.LVL87:
	call	mbedtls_rsa_pkcs1_verify
.LVL88:
	.loc 1 93 7
	bne	a0,zero,.L37
	.loc 1 103 5 is_stmt 1
	.loc 1 103 7 is_stmt 0
	bgeu	s2,s1,.L37
	.loc 1 104 15
	li	a0,-16384
.LVL89:
	addi	a0,a0,1792
.LVL90:
.L37:
	.loc 1 107 1
	lw	ra,44(sp)
	.cfi_remember_state
	.cfi_restore 1
	lw	s0,40(sp)
	.cfi_restore 8
	.cfi_def_cfa 2, 48
.LVL91:
	lw	s1,36(sp)
	.cfi_restore 9
.LVL92:
	lw	s2,32(sp)
	.cfi_restore 18
	lw	s3,28(sp)
	.cfi_restore 19
.LVL93:
	lw	s4,24(sp)
	.cfi_restore 20
.LVL94:
	lw	s5,20(sp)
	.cfi_restore 21
.LVL95:
	addi	sp,sp,48
	.cfi_def_cfa_offset 0
	jr	ra
.LVL96:
.L39:
	.cfi_restore_state
	.loc 1 91 15
	li	a0,-16384
.LVL97:
	addi	a0,a0,-896
	j	.L37
	.cfi_endproc
.LFE10:
	.size	rsa_verify_wrap, .-rsa_verify_wrap
	.section	.text.eckey_free_wrap,"ax",@progbits
	.align	1
	.type	eckey_free_wrap, @function
eckey_free_wrap:
.LFB24:
	.loc 1 401 1 is_stmt 1
	.cfi_startproc
.LVL98:
	.loc 1 402 5
	.loc 1 401 1 is_stmt 0
	addi	sp,sp,-16
	.cfi_def_cfa_offset 16
	sw	s0,8(sp)
	sw	s1,4(sp)
	sw	ra,12(sp)
	.cfi_offset 8, -8
	.cfi_offset 9, -12
	.cfi_offset 1, -4
	addi	s0,sp,16
	.cfi_def_cfa 8, 0
	.loc 1 401 1
	mv	s1,a0
	.loc 1 402 5
	call	mbedtls_ecp_keypair_free
.LVL99:
	.loc 1 403 5 is_stmt 1
	.loc 1 404 1 is_stmt 0
	lw	s0,8(sp)
	.cfi_restore 8
	.cfi_def_cfa 2, 16
	lw	ra,12(sp)
	.cfi_restore 1
	.loc 1 403 5
	mv	a0,s1
	.loc 1 404 1
	lw	s1,4(sp)
	.cfi_restore 9
.LVL100:
	addi	sp,sp,16
	.cfi_def_cfa_offset 0
	.loc 1 403 5
	tail	mbedtls_free
.LVL101:
	.cfi_endproc
.LFE24:
	.size	eckey_free_wrap, .-eckey_free_wrap
	.section	.text.eckey_alloc_wrap,"ax",@progbits
	.align	1
	.type	eckey_alloc_wrap, @function
eckey_alloc_wrap:
.LFB23:
	.loc 1 391 1 is_stmt 1
	.cfi_startproc
	.loc 1 392 5
	.loc 1 391 1 is_stmt 0
	addi	sp,sp,-16
	.cfi_def_cfa_offset 16
	sw	s0,8(sp)
	sw	s1,4(sp)
	sw	ra,12(sp)
	.cfi_offset 8, -8
	.cfi_offset 9, -12
	.cfi_offset 1, -4
	addi	s0,sp,16
	.cfi_def_cfa 8, 0
	.loc 1 392 17
	li	a1,156
	li	a0,1
	call	mbedtls_calloc
.LVL102:
	mv	s1,a0
.LVL103:
	.loc 1 394 5 is_stmt 1
	.loc 1 394 7 is_stmt 0
	beq	a0,zero,.L43
	.loc 1 395 9 is_stmt 1
	call	mbedtls_ecp_keypair_init
.LVL104:
	.loc 1 397 5
.L43:
	.loc 1 398 1 is_stmt 0
	lw	ra,12(sp)
	.cfi_restore 1
	lw	s0,8(sp)
	.cfi_restore 8
	.cfi_def_cfa 2, 16
	mv	a0,s1
	lw	s1,4(sp)
	.cfi_restore 9
.LVL105:
	addi	sp,sp,16
	.cfi_def_cfa_offset 0
	jr	ra
	.cfi_endproc
.LFE23:
	.size	eckey_alloc_wrap, .-eckey_alloc_wrap
	.section	.text.eckey_check_pair,"ax",@progbits
	.align	1
	.type	eckey_check_pair, @function
eckey_check_pair:
.LFB22:
	.loc 1 385 1 is_stmt 1
	.cfi_startproc
.LVL106:
	.loc 1 386 5
	.loc 1 385 1 is_stmt 0
	addi	sp,sp,-16
	.cfi_def_cfa_offset 16
	sw	s0,12(sp)
	.cfi_offset 8, -4
	addi	s0,sp,16
	.cfi_def_cfa 8, 0
	.loc 1 388 1
	lw	s0,12(sp)
	.cfi_restore 8
	.cfi_def_cfa 2, 16
	addi	sp,sp,16
	.cfi_def_cfa_offset 0
	.loc 1 386 13
	tail	mbedtls_ecp_check_pub_priv
.LVL107:
	.cfi_endproc
.LFE22:
	.size	eckey_check_pair, .-eckey_check_pair
	.section	.text.ecdsa_alloc_wrap,"ax",@progbits
	.align	1
	.type	ecdsa_alloc_wrap, @function
ecdsa_alloc_wrap:
.LFB30:
	.loc 1 683 1 is_stmt 1
	.cfi_startproc
	.loc 1 684 5
	.loc 1 683 1 is_stmt 0
	addi	sp,sp,-16
	.cfi_def_cfa_offset 16
	sw	s0,8(sp)
	sw	s1,4(sp)
	sw	ra,12(sp)
	.cfi_offset 8, -8
	.cfi_offset 9, -12
	.cfi_offset 1, -4
	addi	s0,sp,16
	.cfi_def_cfa 8, 0
	.loc 1 684 17
	li	a1,156
	li	a0,1
	call	mbedtls_calloc
.LVL108:
	mv	s1,a0
.LVL109:
	.loc 1 686 5 is_stmt 1
	.loc 1 686 7 is_stmt 0
	beq	a0,zero,.L51
	.loc 1 687 9 is_stmt 1
	call	mbedtls_ecdsa_init
.LVL110:
	.loc 1 689 5
.L51:
	.loc 1 690 1 is_stmt 0
	lw	ra,12(sp)
	.cfi_restore 1
	lw	s0,8(sp)
	.cfi_restore 8
	.cfi_def_cfa 2, 16
	mv	a0,s1
	lw	s1,4(sp)
	.cfi_restore 9
.LVL111:
	addi	sp,sp,16
	.cfi_def_cfa_offset 0
	jr	ra
	.cfi_endproc
.LFE30:
	.size	ecdsa_alloc_wrap, .-ecdsa_alloc_wrap
	.section	.text.ecdsa_free_wrap,"ax",@progbits
	.align	1
	.type	ecdsa_free_wrap, @function
ecdsa_free_wrap:
.LFB31:
	.loc 1 693 1 is_stmt 1
	.cfi_startproc
.LVL112:
	.loc 1 694 5
	.loc 1 693 1 is_stmt 0
	addi	sp,sp,-16
	.cfi_def_cfa_offset 16
	sw	s0,8(sp)
	sw	s1,4(sp)
	sw	ra,12(sp)
	.cfi_offset 8, -8
	.cfi_offset 9, -12
	.cfi_offset 1, -4
	addi	s0,sp,16
	.cfi_def_cfa 8, 0
	.loc 1 693 1
	mv	s1,a0
	.loc 1 694 5
	call	mbedtls_ecdsa_free
.LVL113:
	.loc 1 695 5 is_stmt 1
	.loc 1 696 1 is_stmt 0
	lw	s0,8(sp)
	.cfi_restore 8
	.cfi_def_cfa 2, 16
	lw	ra,12(sp)
	.cfi_restore 1
	.loc 1 695 5
	mv	a0,s1
	.loc 1 696 1
	lw	s1,4(sp)
	.cfi_restore 9
.LVL114:
	addi	sp,sp,16
	.cfi_def_cfa_offset 0
	.loc 1 695 5
	tail	mbedtls_free
.LVL115:
	.cfi_endproc
.LFE31:
	.size	ecdsa_free_wrap, .-ecdsa_free_wrap
	.section	.text.ecdsa_sign_wrap,"ax",@progbits
	.align	1
	.type	ecdsa_sign_wrap, @function
ecdsa_sign_wrap:
.LFB29:
	.loc 1 643 1 is_stmt 1
	.cfi_startproc
.LVL116:
	.loc 1 644 5
	.loc 1 643 1 is_stmt 0
	addi	sp,sp,-16
	.cfi_def_cfa_offset 16
	sw	s0,12(sp)
	.cfi_offset 8, -4
	addi	s0,sp,16
	.cfi_def_cfa 8, 0
	.loc 1 646 1
	lw	s0,12(sp)
	.cfi_restore 8
	.cfi_def_cfa 2, 16
	addi	sp,sp,16
	.cfi_def_cfa_offset 0
	.loc 1 644 13
	tail	mbedtls_ecdsa_write_signature
.LVL117:
	.cfi_endproc
.LFE29:
	.size	ecdsa_sign_wrap, .-ecdsa_sign_wrap
	.section	.text.eckey_sign_wrap,"ax",@progbits
	.align	1
	.type	eckey_sign_wrap, @function
eckey_sign_wrap:
.LFB21:
	.loc 1 263 1 is_stmt 1
	.cfi_startproc
.LVL118:
	.loc 1 264 5
	.loc 1 265 5
	.loc 1 267 5
	.loc 1 263 1 is_stmt 0
	addi	sp,sp,-208
	.cfi_def_cfa_offset 208
	sw	ra,204(sp)
	sw	s0,200(sp)
	sw	s1,196(sp)
	.cfi_offset 1, -4
	.cfi_offset 8, -8
	.cfi_offset 9, -12
	addi	s0,sp,208
	.cfi_def_cfa 8, 0
	sw	s2,192(sp)
	.cfi_offset 18, -16
	.loc 1 263 1
	mv	s1,a0
	.loc 1 267 5
	addi	a0,s0,-172
.LVL119:
	.loc 1 263 1
	sw	a2,-200(s0)
	sw	a3,-196(s0)
	sw	a4,-192(s0)
	sw	a5,-188(s0)
	sw	a6,-184(s0)
	sw	a7,-180(s0)
	mv	s2,a1
	.loc 1 267 5
	call	mbedtls_ecdsa_init
.LVL120:
	.loc 1 269 5 is_stmt 1
	.loc 1 269 17 is_stmt 0
	mv	a1,s1
	addi	a0,s0,-172
	call	mbedtls_ecdsa_from_keypair
.LVL121:
	.loc 1 269 7
	lw	a7,-180(s0)
	lw	a6,-184(s0)
	lw	a5,-188(s0)
	lw	a4,-192(s0)
	lw	a3,-196(s0)
	lw	a2,-200(s0)
	bne	a0,zero,.L63
	.loc 1 270 9 is_stmt 1
.LVL122:
.LBB4:
.LBB5:
	.loc 1 644 5
	.loc 1 644 13 is_stmt 0
	mv	a1,s2
	addi	a0,s0,-172
.LVL123:
	call	mbedtls_ecdsa_write_signature
.LVL124:
.L63:
	mv	s1,a0
.LVL125:
.LBE5:
.LBE4:
	.loc 1 273 5 is_stmt 1
	addi	a0,s0,-172
	call	mbedtls_ecdsa_free
.LVL126:
	.loc 1 275 5
	.loc 1 276 1 is_stmt 0
	lw	ra,204(sp)
	.cfi_restore 1
	lw	s0,200(sp)
	.cfi_restore 8
	.cfi_def_cfa 2, 208
.LVL127:
	lw	s2,192(sp)
	.cfi_restore 18
.LVL128:
	mv	a0,s1
	lw	s1,196(sp)
	.cfi_restore 9
.LVL129:
	addi	sp,sp,208
	.cfi_def_cfa_offset 0
	jr	ra
	.cfi_endproc
.LFE21:
	.size	eckey_sign_wrap, .-eckey_sign_wrap
	.section	.text.ecdsa_verify_wrap,"ax",@progbits
	.align	1
	.type	ecdsa_verify_wrap, @function
ecdsa_verify_wrap:
.LFB28:
	.loc 1 625 1 is_stmt 1
	.cfi_startproc
.LVL130:
	.loc 1 626 5
	.loc 1 627 5
	.loc 1 629 5
	.loc 1 625 1 is_stmt 0
	addi	sp,sp,-16
	.cfi_def_cfa_offset 16
	sw	s0,8(sp)
	sw	ra,12(sp)
	.cfi_offset 8, -8
	.cfi_offset 1, -4
	addi	s0,sp,16
	.cfi_def_cfa 8, 0
	mv	a1,a2
.LVL131:
	.loc 1 625 1
	mv	a2,a3
.LVL132:
	mv	a3,a4
.LVL133:
	.loc 1 629 11
	mv	a4,a5
.LVL134:
	call	mbedtls_ecdsa_read_signature
.LVL135:
	.loc 1 632 5 is_stmt 1
	.loc 1 632 7 is_stmt 0
	li	a5,-20480
	addi	a5,a5,1024
	bne	a0,a5,.L65
	.loc 1 633 15
	li	a0,-16384
.LVL136:
	addi	a0,a0,1792
.L65:
	.loc 1 636 1
	lw	ra,12(sp)
	.cfi_restore 1
	lw	s0,8(sp)
	.cfi_restore 8
	.cfi_def_cfa 2, 16
	addi	sp,sp,16
	.cfi_def_cfa_offset 0
	jr	ra
	.cfi_endproc
.LFE28:
	.size	ecdsa_verify_wrap, .-ecdsa_verify_wrap
	.section	.text.eckey_verify_wrap,"ax",@progbits
	.align	1
	.type	eckey_verify_wrap, @function
eckey_verify_wrap:
.LFB20:
	.loc 1 245 1 is_stmt 1
	.cfi_startproc
.LVL137:
	.loc 1 246 5
	.loc 1 247 5
	.loc 1 249 5
	.loc 1 245 1 is_stmt 0
	addi	sp,sp,-192
	.cfi_def_cfa_offset 192
	sw	ra,188(sp)
	sw	s0,184(sp)
	sw	s1,180(sp)
	.cfi_offset 1, -4
	.cfi_offset 8, -8
	.cfi_offset 9, -12
	addi	s0,sp,192
	.cfi_def_cfa 8, 0
	sw	s2,176(sp)
	.cfi_offset 18, -16
	.loc 1 245 1
	mv	s1,a0
	.loc 1 249 5
	addi	a0,s0,-172
.LVL138:
	.loc 1 245 1
	sw	a2,-192(s0)
	sw	a3,-188(s0)
	sw	a4,-184(s0)
	sw	a5,-180(s0)
	mv	s2,a1
	.loc 1 249 5
	call	mbedtls_ecdsa_init
.LVL139:
	.loc 1 251 5 is_stmt 1
	.loc 1 251 17 is_stmt 0
	mv	a1,s1
	addi	a0,s0,-172
	call	mbedtls_ecdsa_from_keypair
.LVL140:
	.loc 1 251 7
	lw	a5,-180(s0)
	lw	a4,-184(s0)
	lw	a3,-188(s0)
	lw	a2,-192(s0)
	bne	a0,zero,.L70
	.loc 1 252 9 is_stmt 1
	.loc 1 252 15 is_stmt 0
	mv	a1,s2
	addi	a0,s0,-172
.LVL141:
	call	ecdsa_verify_wrap
.LVL142:
.L70:
	mv	s1,a0
.LVL143:
	.loc 1 254 5 is_stmt 1
	addi	a0,s0,-172
	call	mbedtls_ecdsa_free
.LVL144:
	.loc 1 256 5
	.loc 1 257 1 is_stmt 0
	lw	ra,188(sp)
	.cfi_restore 1
	lw	s0,184(sp)
	.cfi_restore 8
	.cfi_def_cfa 2, 192
.LVL145:
	lw	s2,176(sp)
	.cfi_restore 18
.LVL146:
	mv	a0,s1
	lw	s1,180(sp)
	.cfi_restore 9
.LVL147:
	addi	sp,sp,192
	.cfi_def_cfa_offset 0
	jr	ra
	.cfi_endproc
.LFE20:
	.size	eckey_verify_wrap, .-eckey_verify_wrap
	.globl	mbedtls_ecdsa_info
	.section	.rodata.str1.4,"aMS",@progbits,1
	.align	2
.LC3:
	.string	"ECDSA"
	.globl	mbedtls_eckeydh_info
	.align	2
.LC4:
	.string	"EC_DH"
	.globl	mbedtls_eckey_info
	.align	2
.LC5:
	.string	"EC"
	.globl	mbedtls_rsa_info
	.align	2
.LC6:
	.string	"RSA"
	.section	.rodata.mbedtls_ecdsa_info,"a"
	.align	2
	.type	mbedtls_ecdsa_info, @object
	.size	mbedtls_ecdsa_info, 48
mbedtls_ecdsa_info:
	.word	4
	.word	.LC3
	.word	eckey_get_bitlen
	.word	ecdsa_can_do
	.word	ecdsa_verify_wrap
	.word	ecdsa_sign_wrap
	.word	0
	.word	0
	.word	eckey_check_pair
	.word	ecdsa_alloc_wrap
	.word	ecdsa_free_wrap
	.word	eckey_debug
	.section	.rodata.mbedtls_eckey_info,"a"
	.align	2
	.type	mbedtls_eckey_info, @object
	.size	mbedtls_eckey_info, 48
mbedtls_eckey_info:
	.word	2
	.word	.LC5
	.word	eckey_get_bitlen
	.word	eckey_can_do
	.word	eckey_verify_wrap
	.word	eckey_sign_wrap
	.word	0
	.word	0
	.word	eckey_check_pair
	.word	eckey_alloc_wrap
	.word	eckey_free_wrap
	.word	eckey_debug
	.section	.rodata.mbedtls_eckeydh_info,"a"
	.align	2
	.type	mbedtls_eckeydh_info, @object
	.size	mbedtls_eckeydh_info, 48
mbedtls_eckeydh_info:
	.word	3
	.word	.LC4
	.word	eckey_get_bitlen
	.word	eckeydh_can_do
	.word	0
	.word	0
	.word	0
	.word	0
	.word	eckey_check_pair
	.word	eckey_alloc_wrap
	.word	eckey_free_wrap
	.word	eckey_debug
	.section	.rodata.mbedtls_rsa_info,"a"
	.align	2
	.type	mbedtls_rsa_info, @object
	.size	mbedtls_rsa_info, 48
mbedtls_rsa_info:
	.word	1
	.word	.LC6
	.word	rsa_get_bitlen
	.word	rsa_can_do
	.word	rsa_verify_wrap
	.word	rsa_sign_wrap
	.word	rsa_decrypt_wrap
	.word	rsa_encrypt_wrap
	.word	rsa_check_pair_wrap
	.word	rsa_alloc_wrap
	.word	rsa_free_wrap
	.word	rsa_debug
	.text
.Letext0:
	.file 2 "/home/dinhquangha/Ai-Thinker-WB2/toolchain/riscv/Linux/lib/gcc/riscv64-unknown-elf/10.2.0/include/stddef.h"
	.file 3 "/home/dinhquangha/Ai-Thinker-WB2/toolchain/riscv/Linux/lib/gcc/riscv64-unknown-elf/10.2.0/include/stdint-gcc.h"
	.file 4 "/home/dinhquangha/Ai-Thinker-WB2/components/security/mbedtls_lts/mbedtls/include/mbedtls/md.h"
	.file 5 "/home/dinhquangha/Ai-Thinker-WB2/components/security/mbedtls_lts/mbedtls/include/mbedtls/bignum.h"
	.file 6 "/home/dinhquangha/Ai-Thinker-WB2/components/security/mbedtls_lts/mbedtls/include/mbedtls/rsa.h"
	.file 7 "/home/dinhquangha/Ai-Thinker-WB2/components/security/mbedtls_lts/mbedtls/include/mbedtls/ecp.h"
	.file 8 "/home/dinhquangha/Ai-Thinker-WB2/components/security/mbedtls_lts/port/ecp_alt.h"
	.file 9 "/home/dinhquangha/Ai-Thinker-WB2/components/security/mbedtls_lts/mbedtls/include/mbedtls/ecdsa.h"
	.file 10 "/home/dinhquangha/Ai-Thinker-WB2/components/security/mbedtls_lts/mbedtls/include/mbedtls/pk.h"
	.file 11 "/home/dinhquangha/Ai-Thinker-WB2/components/security/mbedtls_lts/mbedtls/include/mbedtls/pk_internal.h"
	.file 12 "/home/dinhquangha/Ai-Thinker-WB2/components/security/mbedtls_lts/mbedtls/include/mbedtls/platform.h"