	.file	"rsa_internal.c"
	.option nopic
	.attribute arch, "rv32i2p0_m2p0_f2p0_c2p0"
	.attribute unaligned_access, 0
	.attribute stack_align, 16
	.text
.Ltext0:
	.cfi_sections	.debug_frame
	.section	.rodata.mbedtls_rsa_deduce_primes.str1.4,"aMS",@progbits,1
	.align	2
.LC0:
	.string	"\002\003\005\007\013\r\021\023\027\035\037%)+/5;=CGIOSYaegkmq\177\203\211\213\225\227\235\243\247\255\263\265\277\301\305\307\323\337\343\345\351\357\361\373"
	.section	.text.mbedtls_rsa_deduce_primes,"ax",@progbits
	.align	1
	.globl	mbedtls_rsa_deduce_primes
	.type	mbedtls_rsa_deduce_primes, @function
mbedtls_rsa_deduce_primes:
.LFB3:
	.file 1 "/home/quanghaictu/intern/Ai-Thinker-WB2/components/security/mbedtls_lts/mbedtls/library/rsa_internal.c"
	.loc 1 65 1
	.cfi_startproc
.LVL0:
	.loc 1 66 5
	.loc 1 68 5
	.loc 1 69 5
	.loc 1 71 5
	.loc 1 73 5
	.loc 1 74 5
	.loc 1 76 5
	.loc 1 65 1 is_stmt 0
	addi	sp,sp,-128
	.cfi_def_cfa_offset 128
	sw	s0,120(sp)
	sw	s1,116(sp)
	sw	s2,112(sp)
	sw	s3,108(sp)
	sw	s4,104(sp)
	sw	s5,100(sp)
	.cfi_offset 8, -8
	.cfi_offset 9, -12
	.cfi_offset 18, -16
	.cfi_offset 19, -20
	.cfi_offset 20, -24
	.cfi_offset 21, -28
	addi	s0,sp,128
	.cfi_def_cfa 8, 0
	sw	ra,124(sp)
	sw	s6,96(sp)
	sw	s7,92(sp)
	sw	s8,88(sp)
	sw	s9,84(sp)
	mv	s3,a1
	.loc 1 76 25
	lui	a1,%hi(.LC0)
.LVL1:
	.loc 1 65 1
	mv	s2,a0
	mv	s1,a2
	mv	s4,a3
	.cfi_offset 1, -4
	.cfi_offset 22, -32
	.cfi_offset 23, -36
	.cfi_offset 24, -40
	.cfi_offset 25, -44
	.loc 1 76 25
	li	a2,54
.LVL2:
	addi	a1,a1,%lo(.LC0)
	addi	a0,s0,-104
.LVL3:
	.loc 1 65 1
	mv	s5,a4
	.loc 1 76 25
	call	memcpy
.LVL4:
	.loc 1 86 5 is_stmt 1
	.loc 1 88 5
	.loc 1 88 7 is_stmt 0
	bne	s4,zero,.L2
.L4:
	.loc 1 89 15
	li	s1,-4
.LVL5:
.L1:
	.loc 1 191 1
	lw	ra,124(sp)
	.cfi_remember_state
	.cfi_restore 1
	lw	s0,120(sp)
	.cfi_restore 8
	.cfi_def_cfa 2, 128
	lw	s2,112(sp)
	.cfi_restore 18
.LVL6:
	lw	s3,108(sp)
	.cfi_restore 19
	lw	s4,104(sp)
	.cfi_restore 20
.LVL7:
	lw	s5,100(sp)
	.cfi_restore 21
.LVL8:
	lw	s6,96(sp)
	.cfi_restore 22
	lw	s7,92(sp)
	.cfi_restore 23
	lw	s8,88(sp)
	.cfi_restore 24
	lw	s9,84(sp)
	.cfi_restore 25
	mv	a0,s1
	lw	s1,116(sp)
	.cfi_restore 9
	addi	sp,sp,128
	.cfi_def_cfa_offset 0
	jr	ra
.LVL9:
.L2:
	.cfi_restore_state
	.loc 1 88 18 discriminator 1
	beq	s5,zero,.L4
	.loc 1 88 31 discriminator 2
	lw	a5,8(s4)
	bne	a5,zero,.L4
	.loc 1 88 47 discriminator 3
	lw	a5,8(s5)
	bne	a5,zero,.L4
	.loc 1 91 5 is_stmt 1
	.loc 1 91 9 is_stmt 0
	li	a1,0
	mv	a0,s2
	call	mbedtls_mpi_cmp_int
.LVL10:
	.loc 1 91 7
	ble	a0,zero,.L4
	.loc 1 92 9 discriminator 1
	li	a1,1
	mv	a0,s1
	call	mbedtls_mpi_cmp_int
.LVL11:
	.loc 1 91 42 discriminator 1
	ble	a0,zero,.L4
	.loc 1 93 9
	mv	a1,s2
	mv	a0,s1
	call	mbedtls_mpi_cmp_mpi
.LVL12:
	.loc 1 92 42
	bge	a0,zero,.L4
	.loc 1 94 9
	li	a1,1
	mv	a0,s3
	call	mbedtls_mpi_cmp_int
.LVL13:
	.loc 1 93 42
	ble	a0,zero,.L4
	.loc 1 95 9
	mv	a1,s2
	mv	a0,s3
	call	mbedtls_mpi_cmp_mpi
.LVL14:
	.loc 1 94 42
	bge	a0,zero,.L4
	.loc 1 104 5 is_stmt 1
	addi	a0,s0,-116
	call	mbedtls_mpi_init
.LVL15:
	.loc 1 105 5
	addi	a0,s0,-128
	call	mbedtls_mpi_init
.LVL16:
	.loc 1 108 5
	.loc 1 108 10
	.loc 1 108 23 is_stmt 0
	mv	a1,s1
	mv	a2,s3
	addi	a0,s0,-128
	call	mbedtls_mpi_mul_mpi
.LVL17:
	mv	s1,a0
.LVL18:
	.loc 1 108 12
	bne	a0,zero,.L5
	.loc 1 108 86 is_stmt 1 discriminator 2
	.loc 1 109 5 discriminator 2
	.loc 1 109 10 discriminator 2
	.loc 1 109 23 is_stmt 0 discriminator 2
	addi	a1,s0,-128
	li	a2,1
	mv	a0,a1
	call	mbedtls_mpi_sub_int
.LVL19:
	mv	s1,a0
.LVL20:
	.loc 1 109 12 discriminator 2
	bne	a0,zero,.L5
	.loc 1 109 87 is_stmt 1 discriminator 2
	.loc 1 111 5 discriminator 2
	.loc 1 111 30 is_stmt 0 discriminator 2
	addi	a0,s0,-128
	call	mbedtls_mpi_lsb
.LVL21:
	.loc 1 111 17 discriminator 2
	slli	s7,a0,16
	srli	s7,s7,16
.LVL22:
	.loc 1 111 7 discriminator 2
	bne	s7,zero,.L6
.LVL23:
.L9:
	.loc 1 113 13
	li	s1,-4
.LVL24:
.L5:
	.loc 1 188 5 is_stmt 1
	addi	a0,s0,-116
	call	mbedtls_mpi_free
.LVL25:
	.loc 1 189 5
	addi	a0,s0,-128
	call	mbedtls_mpi_free
.LVL26:
	.loc 1 190 5
	.loc 1 190 11 is_stmt 0
	j	.L1
.LVL27:
.L6:
	.loc 1 118 5 is_stmt 1
	.loc 1 118 10
	.loc 1 118 23 is_stmt 0
	slli	a1,a0,16
	srli	a1,a1,16
	addi	a0,s0,-128
	call	mbedtls_mpi_shift_r
.LVL28:
	mv	s1,a0
.LVL29:
	.loc 1 118 12
	bne	a0,zero,.L5
	.loc 1 118 87 is_stmt 1 discriminator 2
	.loc 1 125 5 discriminator 2
.LVL30:
	.loc 1 126 5 discriminator 2
	.loc 1 126 13 is_stmt 0 discriminator 2
	lw	a5,8(s2)
	.loc 1 154 50 discriminator 2
	li	s8,-1
	.loc 1 129 5 discriminator 2
	li	s9,53
	.loc 1 126 17 discriminator 2
	lw	s3,0(a5)
.LVL31:
	andi	s3,s3,7
	.loc 1 126 7 discriminator 2
	addi	s3,s3,-1
	seqz	s3,s3
.LVL32:
.L8:
	.loc 1 131 9 is_stmt 1
	.loc 1 131 37 is_stmt 0
	addi	a5,s0,-104
	add	a5,a5,s3
	.loc 1 131 9
	lbu	a1,0(a5)
	addi	a0,s0,-116
	call	mbedtls_mpi_lset
.LVL33:
	.loc 1 134 9 is_stmt 1
	.loc 1 134 14
	.loc 1 134 27 is_stmt 0
	mv	a2,s2
	addi	a1,s0,-116
	mv	a0,s4
	call	mbedtls_mpi_gcd
.LVL34:
	mv	s1,a0
.LVL35:
	.loc 1 134 16
	bne	a0,zero,.L5
	.loc 1 134 86 is_stmt 1 discriminator 2
	.loc 1 135 9 discriminator 2
	.loc 1 135 13 is_stmt 0 discriminator 2
	li	a1,1
	mv	a0,s4
	call	mbedtls_mpi_cmp_int
.LVL36:
	.loc 1 135 11 discriminator 2
	beq	a0,zero,.L7
.L13:
	.loc 1 129 34 is_stmt 1
.LVL37:
	.loc 1 129 12
	.loc 1 129 5 is_stmt 0
	addi	s3,s3,1
.LVL38:
	slli	a5,s3,16
	srli	a5,a5,16
	bleu	a5,s9,.L8
	j	.L9
.LVL39:
.L7:
	.loc 1 140 9 is_stmt 1
	.loc 1 140 14
	.loc 1 140 27 is_stmt 0
	addi	a1,s0,-116
	mv	a4,s5
	mv	a3,s2
	addi	a2,s0,-128
	mv	a0,a1
	call	mbedtls_mpi_exp_mod
.LVL40:
	mv	s1,a0
.LVL41:
	.loc 1 140 16
	bne	a0,zero,.L5
	.loc 1 144 19
	li	s6,1
.L12:
.LVL42:
	.loc 1 148 13 is_stmt 1
	.loc 1 148 17 is_stmt 0
	li	a1,1
	addi	a0,s0,-116
	call	mbedtls_mpi_cmp_int
.LVL43:
	.loc 1 148 15
	beq	a0,zero,.L10
	.loc 1 151 13 is_stmt 1
	.loc 1 151 18
	.loc 1 151 31 is_stmt 0
	addi	a1,s0,-116
	li	a2,1
	mv	a0,a1
	call	mbedtls_mpi_add_int
.LVL44:
	mv	s1,a0
.LVL45:
	.loc 1 151 20
	bne	a0,zero,.L5
	.loc 1 151 95 is_stmt 1 discriminator 2
	.loc 1 152 13 discriminator 2
	.loc 1 152 18 discriminator 2
	.loc 1 152 31 is_stmt 0 discriminator 2
	mv	a2,s2
	addi	a1,s0,-116
	mv	a0,s4
	call	mbedtls_mpi_gcd
.LVL46:
	mv	s1,a0
.LVL47:
	.loc 1 152 20 discriminator 2
	bne	a0,zero,.L5
	.loc 1 152 90 is_stmt 1 discriminator 2
	.loc 1 154 13 discriminator 2
	.loc 1 154 17 is_stmt 0 discriminator 2
	li	a1,1
	mv	a0,s4
	call	mbedtls_mpi_cmp_int
.LVL48:
	.loc 1 154 15 discriminator 2
	li	a5,1
	bne	a0,a5,.L11
	.loc 1 155 17 discriminator 1
	mv	a1,s2
	mv	a0,s4
	call	mbedtls_mpi_cmp_mpi
.LVL49:
	.loc 1 154 50 discriminator 1
	bne	a0,s8,.L11
	.loc 1 162 17 is_stmt 1
	.loc 1 162 22
	.loc 1 162 35 is_stmt 0
	mv	a3,s4
	mv	a2,s2
	li	a1,0
	mv	a0,s5
	call	mbedtls_mpi_div_mpi
.LVL50:
	mv	s1,a0
.LVL51:
	j	.L5
.L11:
	.loc 1 166 13 is_stmt 1
	.loc 1 166 18
	.loc 1 166 31 is_stmt 0
	addi	a1,s0,-116
	li	a2,1
	mv	a0,a1
	call	mbedtls_mpi_sub_int
.LVL52:
	mv	s1,a0
.LVL53:
	.loc 1 166 20
	bne	a0,zero,.L5
	.loc 1 166 95 is_stmt 1 discriminator 2
	.loc 1 167 13 discriminator 2
	.loc 1 167 18 discriminator 2
	.loc 1 167 31 is_stmt 0 discriminator 2
	addi	a2,s0,-116
	mv	a1,a2
	mv	a0,a2
	call	mbedtls_mpi_mul_mpi
.LVL54:
	mv	s1,a0
.LVL55:
	.loc 1 167 20 discriminator 2
	bne	a0,zero,.L5
	.loc 1 167 96 is_stmt 1 discriminator 2
	.loc 1 168 13 discriminator 2
	.loc 1 168 18 discriminator 2
	.loc 1 168 31 is_stmt 0 discriminator 2
	addi	a1,s0,-116
	mv	a2,s2
	mv	a0,a1
	call	mbedtls_mpi_mod_mpi
.LVL56:
	mv	s1,a0
.LVL57:
	.loc 1 168 20 discriminator 2
	bne	a0,zero,.L5
	.loc 1 168 95 is_stmt 1 discriminator 2
	.loc 1 144 39 discriminator 2
	addi	s6,s6,1
.LVL58:
	slli	s6,s6,16
	srli	s6,s6,16
.LVL59:
	.loc 1 144 24 discriminator 2
	.loc 1 144 9 is_stmt 0 discriminator 2
	bgeu	s7,s6,.L12
.L10:
	.loc 1 178 9 is_stmt 1
	.loc 1 178 13 is_stmt 0
	li	a1,1
	addi	a0,s0,-116
	call	mbedtls_mpi_cmp_int
.LVL60:
	.loc 1 178 11
	beq	a0,zero,.L13
	j	.L9
	.cfi_endproc
.LFE3:
	.size	mbedtls_rsa_deduce_primes, .-mbedtls_rsa_deduce_primes
	.section	.text.mbedtls_rsa_deduce_private_exponent,"ax",@progbits
	.align	1
	.globl	mbedtls_rsa_deduce_private_exponent
	.type	mbedtls_rsa_deduce_private_exponent, @function
mbedtls_rsa_deduce_private_exponent:
.LFB4:
	.loc 1 201 1 is_stmt 1
	.cfi_startproc
.LVL61:
	.loc 1 202 5
	.loc 1 203 5
	.loc 1 205 5
	.loc 1 201 1 is_stmt 0
	addi	sp,sp,-64
	.cfi_def_cfa_offset 64
	sw	s0,56(sp)
	sw	ra,60(sp)
	sw	s1,52(sp)
	sw	s2,48(sp)
	sw	s3,44(sp)
	sw	s4,40(sp)
	.cfi_offset 8, -8
	.cfi_offset 1, -4
	.cfi_offset 9, -12
	.cfi_offset 18, -16
	.cfi_offset 19, -20
	.cfi_offset 20, -24
	addi	s0,sp,64
	.cfi_def_cfa 8, 0
	.loc 1 205 7
	bne	a3,zero,.L24
.LVL62:
.L26:
	.loc 1 206 15
	li	s1,-4
.LVL63:
.L23:
	.loc 1 238 1
	lw	ra,60(sp)
	.cfi_remember_state
	.cfi_restore 1
	lw	s0,56(sp)
	.cfi_restore 8
	.cfi_def_cfa 2, 64
	lw	s2,48(sp)
	.cfi_restore 18
	lw	s3,44(sp)
	.cfi_restore 19
	lw	s4,40(sp)
	.cfi_restore 20
	mv	a0,s1
	lw	s1,52(sp)
	.cfi_restore 9
	addi	sp,sp,64
	.cfi_def_cfa_offset 0
	jr	ra
.LVL64:
.L24:
	.cfi_restore_state
	mv	s1,a0
	mv	s4,a1
	.loc 1 205 21 discriminator 1
	mv	a0,a3
.LVL65:
	li	a1,0
.LVL66:
	mv	s3,a2
	mv	s2,a3
	call	mbedtls_mpi_cmp_int
.LVL67:
	.loc 1 205 18 discriminator 1
	bne	a0,zero,.L26
	.loc 1 208 5 is_stmt 1
	.loc 1 208 9 is_stmt 0
	li	a1,1
	mv	a0,s1
	call	mbedtls_mpi_cmp_int
.LVL68:
	.loc 1 208 7
	ble	a0,zero,.L26
	.loc 1 209 9 discriminator 1
	li	a1,1
	mv	a0,s4
	call	mbedtls_mpi_cmp_int
.LVL69:
	.loc 1 208 42 discriminator 1
	ble	a0,zero,.L26
	.loc 1 210 9
	li	a1,0
	mv	a0,s3
	call	mbedtls_mpi_cmp_int
.LVL70:
	.loc 1 209 42
	beq	a0,zero,.L26
	.loc 1 215 5 is_stmt 1
	addi	a0,s0,-56
	call	mbedtls_mpi_init
.LVL71:
	.loc 1 216 5
	addi	a0,s0,-44
	call	mbedtls_mpi_init
.LVL72:
	.loc 1 219 5
	.loc 1 219 10
	.loc 1 219 23 is_stmt 0
	mv	a1,s1
	li	a2,1
	addi	a0,s0,-56
	call	mbedtls_mpi_sub_int
.LVL73:
	mv	s1,a0
.LVL74:
	.loc 1 219 12
	bne	a0,zero,.L27
	.loc 1 219 86 is_stmt 1 discriminator 2
	.loc 1 220 5 discriminator 2
	.loc 1 220 10 discriminator 2
	.loc 1 220 23 is_stmt 0 discriminator 2
	li	a2,1
	mv	a1,s4
	addi	a0,s0,-44
	call	mbedtls_mpi_sub_int
.LVL75:
	mv	s1,a0
.LVL76:
	.loc 1 220 12 discriminator 2
	bne	a0,zero,.L27
	.loc 1 220 86 is_stmt 1 discriminator 2
	.loc 1 223 5 discriminator 2
	.loc 1 223 10 discriminator 2
	.loc 1 223 23 is_stmt 0 discriminator 2
	addi	a2,s0,-44
	addi	a1,s0,-56
	mv	a0,s2
	call	mbedtls_mpi_gcd
.LVL77:
	mv	s1,a0
.LVL78:
	.loc 1 223 12 discriminator 2
	bne	a0,zero,.L27
	.loc 1 223 83 is_stmt 1 discriminator 2
	.loc 1 226 5 discriminator 2
	.loc 1 226 10 discriminator 2
	.loc 1 226 23 is_stmt 0 discriminator 2
	addi	a1,s0,-56
	addi	a2,s0,-44
	mv	a0,a1
	call	mbedtls_mpi_mul_mpi
.LVL79:
	mv	s1,a0
.LVL80:
	.loc 1 226 12 discriminator 2
	bne	a0,zero,.L27
	.loc 1 226 88 is_stmt 1 discriminator 2
	.loc 1 227 5 discriminator 2
	.loc 1 227 10 discriminator 2
	.loc 1 227 23 is_stmt 0 discriminator 2
	addi	a2,s0,-56
	mv	a3,s2
	li	a1,0
	mv	a0,a2
	call	mbedtls_mpi_div_mpi
.LVL81:
	mv	s1,a0
.LVL82:
	.loc 1 227 12 discriminator 2
	bne	a0,zero,.L27
	.loc 1 227 45 is_stmt 1 discriminator 2
	.loc 1 230 5 discriminator 2
	.loc 1 230 10 discriminator 2
	.loc 1 230 23 is_stmt 0 discriminator 2
	addi	a2,s0,-56
	mv	a1,s3
	mv	a0,s2
	call	mbedtls_mpi_inv_mod
.LVL83:
	mv	s1,a0
.LVL84:
.L27:
	.loc 1 230 86 is_stmt 1 discriminator 3
	.loc 1 234 5 discriminator 3
	addi	a0,s0,-56
	call	mbedtls_mpi_free
.LVL85:
	.loc 1 235 5 discriminator 3
	addi	a0,s0,-44
	call	mbedtls_mpi_free
.LVL86:
	.loc 1 237 5 discriminator 3
	.loc 1 237 11 is_stmt 0 discriminator 3
	j	.L23
	.cfi_endproc
.LFE4:
	.size	mbedtls_rsa_deduce_private_exponent, .-mbedtls_rsa_deduce_private_exponent
	.section	.text.mbedtls_rsa_validate_crt,"ax",@progbits
	.align	1
	.globl	mbedtls_rsa_validate_crt
	.type	mbedtls_rsa_validate_crt, @function
mbedtls_rsa_validate_crt:
.LFB5:
	.loc 1 246 1 is_stmt 1
	.cfi_startproc
.LVL87:
	.loc 1 247 5
	.loc 1 249 5
	.loc 1 250 5
	.loc 1 246 1 is_stmt 0
	addi	sp,sp,-64
	.cfi_def_cfa_offset 64
	sw	s0,56(sp)
	sw	s1,52(sp)
	.cfi_offset 8, -8
	.cfi_offset 9, -12
	addi	s0,sp,64
	.cfi_def_cfa 8, 0
	sw	s2,48(sp)
	sw	s3,44(sp)
	sw	s4,40(sp)
	sw	s5,36(sp)
	sw	s6,32(sp)
	sw	ra,60(sp)
	.cfi_offset 18, -16
	.cfi_offset 19, -20
	.cfi_offset 20, -24
	.cfi_offset 21, -28
	.cfi_offset 22, -32
	.cfi_offset 1, -4
	.loc 1 246 1
	mv	s1,a0
	.loc 1 250 5
	addi	a0,s0,-56
.LVL88:
	.loc 1 246 1
	mv	s6,a3
	mv	s2,a1
	mv	s5,a2
	mv	s4,a4
	mv	s3,a5
	.loc 1 250 5
	call	mbedtls_mpi_init
.LVL89:
	.loc 1 251 5 is_stmt 1
	addi	a0,s0,-44
	call	mbedtls_mpi_init
.LVL90:
	.loc 1 254 5
	.loc 1 254 7 is_stmt 0
	bne	s6,zero,.L33
.LVL91:
.L39:
	.loc 1 274 5 is_stmt 1
	.loc 1 274 7 is_stmt 0
	bne	s4,zero,.L34
.LVL92:
.L35:
	.loc 1 294 5 is_stmt 1
	.loc 1 294 7 is_stmt 0
	bne	s3,zero,.L40
.LVL93:
.L41:
	.loc 1 315 5 is_stmt 1
	.loc 1 304 27 is_stmt 0
	li	s1,0
.LVL94:
	j	.L37
.LVL95:
.L33:
	.loc 1 256 9 is_stmt 1
	.loc 1 256 11 is_stmt 0
	bne	s1,zero,.L36
.LVL96:
.L42:
	.loc 1 268 17
	li	a0,-16384
	addi	s1,a0,-128
.L37:
.LVL97:
	.loc 1 322 5 is_stmt 1
	addi	a0,s0,-56
	call	mbedtls_mpi_free
.LVL98:
	.loc 1 323 5
	addi	a0,s0,-44
	call	mbedtls_mpi_free
.LVL99:
	.loc 1 325 5
	.loc 1 326 1 is_stmt 0
	lw	ra,60(sp)
	.cfi_remember_state
	.cfi_restore 1
	lw	s0,56(sp)
	.cfi_restore 8
	.cfi_def_cfa 2, 64
	lw	s2,48(sp)
	.cfi_restore 18
.LVL100:
	lw	s3,44(sp)
	.cfi_restore 19
.LVL101:
	lw	s4,40(sp)
	.cfi_restore 20
.LVL102:
	lw	s5,36(sp)
	.cfi_restore 21
.LVL103:
	lw	s6,32(sp)
	.cfi_restore 22
.LVL104:
	mv	a0,s1
	lw	s1,52(sp)
	.cfi_restore 9
.LVL105:
	addi	sp,sp,64
	.cfi_def_cfa_offset 0
	jr	ra
.LVL106:
.L36:
	.cfi_restore_state
	.loc 1 262 9 is_stmt 1
	.loc 1 262 14
	.loc 1 262 27 is_stmt 0
	li	a2,1
	mv	a1,s1
	addi	a0,s0,-56
	call	mbedtls_mpi_sub_int
.LVL107:
	.loc 1 262 16
	bne	a0,zero,.L38
	.loc 1 262 90 is_stmt 1 discriminator 2
	.loc 1 263 9 discriminator 2
	.loc 1 263 14 discriminator 2
	.loc 1 263 27 is_stmt 0 discriminator 2
	mv	a2,s5
	mv	a1,s6
	addi	a0,s0,-44
.LVL108:
	call	mbedtls_mpi_sub_mpi
.LVL109:
	.loc 1 263 16 discriminator 2
	bne	a0,zero,.L38
	.loc 1 263 91 is_stmt 1 discriminator 2
	.loc 1 264 9 discriminator 2
	.loc 1 264 14 discriminator 2
	.loc 1 264 27 is_stmt 0 discriminator 2
	addi	a1,s0,-44
	addi	a2,s0,-56
	mv	a0,a1
.LVL110:
	call	mbedtls_mpi_mod_mpi
.LVL111:
	.loc 1 264 16 discriminator 2
	bne	a0,zero,.L38
	.loc 1 264 92 is_stmt 1 discriminator 2
	.loc 1 266 9 discriminator 2
	.loc 1 266 13 is_stmt 0 discriminator 2
	li	a1,0
	addi	a0,s0,-44
.LVL112:
	call	mbedtls_mpi_cmp_int
.LVL113:
	.loc 1 266 11 discriminator 2
	beq	a0,zero,.L39
.LVL114:
.L43:
	.loc 1 268 17
	li	a0,-16384
	addi	s1,a0,-512
	j	.L37
.LVL115:
.L34:
	.loc 1 276 9 is_stmt 1
	.loc 1 276 11 is_stmt 0
	beq	s2,zero,.L42
	.loc 1 282 9 is_stmt 1
	.loc 1 282 14
	.loc 1 282 27 is_stmt 0
	li	a2,1
	mv	a1,s2
	addi	a0,s0,-56
	call	mbedtls_mpi_sub_int
.LVL116:
	.loc 1 282 16
	bne	a0,zero,.L38
	.loc 1 282 90 is_stmt 1 discriminator 2
	.loc 1 283 9 discriminator 2
	.loc 1 283 14 discriminator 2
	.loc 1 283 27 is_stmt 0 discriminator 2
	mv	a2,s5
	mv	a1,s4
	addi	a0,s0,-44
.LVL117:
	call	mbedtls_mpi_sub_mpi
.LVL118:
	.loc 1 283 16 discriminator 2
	bne	a0,zero,.L38
	.loc 1 283 91 is_stmt 1 discriminator 2
	.loc 1 284 9 discriminator 2
	.loc 1 284 14 discriminator 2
	.loc 1 284 27 is_stmt 0 discriminator 2
	addi	a1,s0,-44
	addi	a2,s0,-56
	mv	a0,a1
.LVL119:
	call	mbedtls_mpi_mod_mpi
.LVL120:
	.loc 1 284 16 discriminator 2
	bne	a0,zero,.L38
	.loc 1 284 92 is_stmt 1 discriminator 2
	.loc 1 286 9 discriminator 2
	.loc 1 286 13 is_stmt 0 discriminator 2
	li	a1,0
	addi	a0,s0,-44
.LVL121:
	call	mbedtls_mpi_cmp_int
.LVL122:
	.loc 1 286 11 discriminator 2
	beq	a0,zero,.L35
	j	.L43
.LVL123:
.L40:
	.loc 1 296 9 is_stmt 1
	.loc 1 296 11 is_stmt 0
	beq	s1,zero,.L42
	.loc 1 296 22 discriminator 1
	beq	s2,zero,.L42
	.loc 1 302 9 is_stmt 1
	.loc 1 302 14
	.loc 1 302 27 is_stmt 0
	mv	a2,s2
	mv	a1,s3
	addi	a0,s0,-56
	call	mbedtls_mpi_mul_mpi
.LVL124:
	.loc 1 302 16
	bne	a0,zero,.L38
	.loc 1 302 91 is_stmt 1 discriminator 2
	.loc 1 303 9 discriminator 2
	.loc 1 303 14 discriminator 2
	.loc 1 303 27 is_stmt 0 discriminator 2
	addi	a1,s0,-56
	li	a2,1
	mv	a0,a1
.LVL125:
	call	mbedtls_mpi_sub_int
.LVL126:
	.loc 1 303 16 discriminator 2
	bne	a0,zero,.L38
	.loc 1 303 91 is_stmt 1 discriminator 2
	.loc 1 304 9 discriminator 2
	.loc 1 304 14 discriminator 2
	.loc 1 304 27 is_stmt 0 discriminator 2
	addi	a1,s0,-56
	mv	a2,s1
	mv	a0,a1
.LVL127:
	call	mbedtls_mpi_mod_mpi
.LVL128:
	.loc 1 304 16 discriminator 2
	bne	a0,zero,.L38
	.loc 1 304 91 is_stmt 1 discriminator 2
	.loc 1 305 9 discriminator 2
	.loc 1 305 13 is_stmt 0 discriminator 2
	li	a1,0
	addi	a0,s0,-56
.LVL129:
	call	mbedtls_mpi_cmp_int
.LVL130:
	.loc 1 305 11 discriminator 2
	beq	a0,zero,.L41
	j	.L43
.LVL131:
.L38:
	.loc 1 315 5 is_stmt 1
	.loc 1 315 18 is_stmt 0
	li	a5,-16384
	addi	s1,a5,-512
.LVL132:
	beq	a0,s1,.L43
	.loc 1 316 24
	addi	a5,a5,-128
	.loc 1 319 13
	add	s1,a0,s1
	.loc 1 316 24
	bne	a0,a5,.L37
	j	.L42
	.cfi_endproc
.LFE5:
	.size	mbedtls_rsa_validate_crt, .-mbedtls_rsa_validate_crt
	.section	.text.mbedtls_rsa_validate_params,"ax",@progbits
	.align	1
	.globl	mbedtls_rsa_validate_params
	.type	mbedtls_rsa_validate_params, @function
mbedtls_rsa_validate_params:
.LFB6:
	.loc 1 336 1 is_stmt 1
	.cfi_startproc
.LVL133:
	.loc 1 337 5
	.loc 1 338 5
	.loc 1 340 5
	.loc 1 336 1 is_stmt 0
	addi	sp,sp,-80
	.cfi_def_cfa_offset 80
	sw	s0,72(sp)
	sw	s1,68(sp)
	.cfi_offset 8, -8
	.cfi_offset 9, -12
	addi	s0,sp,80
	.cfi_def_cfa 8, 0
	sw	s2,64(sp)
	sw	s3,60(sp)
	sw	s4,56(sp)
	sw	s5,52(sp)
	sw	s6,48(sp)
	sw	s7,44(sp)
	sw	ra,76(sp)
	.cfi_offset 18, -16
	.cfi_offset 19, -20
	.cfi_offset 20, -24
	.cfi_offset 21, -28
	.cfi_offset 22, -32
	.cfi_offset 23, -36
	.cfi_offset 1, -4
	.loc 1 336 1
	mv	s2,a0
	.loc 1 340 5
	addi	a0,s0,-72
.LVL134:
	.loc 1 336 1
	mv	s1,a5
	mv	s3,a1
	mv	s4,a2
	mv	s5,a3
	mv	s6,a4
	mv	s7,a6
	.loc 1 340 5
	call	mbedtls_mpi_init
.LVL135:
	.loc 1 341 5 is_stmt 1
	addi	a0,s0,-60
	call	mbedtls_mpi_init
.LVL136:
	.loc 1 353 5
	.loc 1 353 7 is_stmt 0
	beq	s1,zero,.L60
	.loc 1 353 22 discriminator 1
	beq	s3,zero,.L61
	.loc 1 354 17 discriminator 2
	mv	a3,s7
	mv	a2,s1
	li	a1,50
	mv	a0,s3
	call	mbedtls_mpi_is_prime_ext
.LVL137:
	.loc 1 353 35 discriminator 2
	beq	a0,zero,.L61
.LVL138:
.L64:
	.loc 1 356 13
	li	a0,-16384
	addi	s1,a0,-512
.L63:
.LVL139:
	.loc 1 440 5 is_stmt 1
	addi	a0,s0,-72
	call	mbedtls_mpi_free
.LVL140:
	.loc 1 441 5
	addi	a0,s0,-60
	call	mbedtls_mpi_free
.LVL141:
	.loc 1 444 5
	.loc 1 444 7 is_stmt 0
	beq	s1,zero,.L59
	.loc 1 444 18 discriminator 1
	li	a5,-16384
	addi	a5,a5,-512
	beq	s1,a5,.L59
	.loc 1 446 9 is_stmt 1
	.loc 1 446 13 is_stmt 0
	add	s1,s1,a5
.LVL142:
	.loc 1 449 5 is_stmt 1
.L59:
	.loc 1 450 1 is_stmt 0
	lw	ra,76(sp)
	.cfi_remember_state
	.cfi_restore 1
	lw	s0,72(sp)
	.cfi_restore 8
	.cfi_def_cfa 2, 80
	lw	s2,64(sp)
	.cfi_restore 18
.LVL143:
	lw	s3,60(sp)
	.cfi_restore 19
.LVL144:
	lw	s4,56(sp)
	.cfi_restore 20
.LVL145:
	lw	s5,52(sp)
	.cfi_restore 21
.LVL146:
	lw	s6,48(sp)
	.cfi_restore 22
.LVL147:
	lw	s7,44(sp)
	.cfi_restore 23
.LVL148:
	mv	a0,s1
	lw	s1,68(sp)
	.cfi_restore 9
.LVL149:
	addi	sp,sp,80
	.cfi_def_cfa_offset 0
	jr	ra
.LVL150:
.L78:
	.cfi_restore_state
	.loc 1 377 9 is_stmt 1
	.loc 1 377 14
	.loc 1 377 27 is_stmt 0
	mv	a2,s4
	mv	a1,s3
	addi	a0,s0,-72
	call	mbedtls_mpi_mul_mpi
.LVL151:
	mv	s1,a0
.LVL152:
	.loc 1 377 16
	bne	a0,zero,.L63
	.loc 1 377 90 is_stmt 1 discriminator 2
	.loc 1 378 9 discriminator 2
	.loc 1 378 13 is_stmt 0 discriminator 2
	li	a1,1
	mv	a0,s2
	call	mbedtls_mpi_cmp_int
.LVL153:
	.loc 1 378 11 discriminator 2
	ble	a0,zero,.L64
	.loc 1 379 13 discriminator 1
	mv	a1,s2
	addi	a0,s0,-72
	call	mbedtls_mpi_cmp_mpi
.LVL154:
	.loc 1 378 46 discriminator 1
	bne	a0,zero,.L64
.LVL155:
.L66:
	.loc 1 390 18
	bne	s5,zero,.L69
.L70:
.LVL156:
	.loc 1 406 5 is_stmt 1
	.loc 1 406 7 is_stmt 0
	bne	s3,zero,.L67
.L68:
	.loc 1 430 27
	li	s1,0
	j	.L63
.LVL157:
.L69:
	.loc 1 390 31 discriminator 2
	beq	s6,zero,.L70
	.loc 1 392 9 is_stmt 1
	.loc 1 392 14 is_stmt 0
	li	a1,1
	mv	a0,s5
	call	mbedtls_mpi_cmp_int
.LVL158:
	.loc 1 392 12
	ble	a0,zero,.L64
	.loc 1 393 14 discriminator 1
	li	a1,1
	mv	a0,s6
	call	mbedtls_mpi_cmp_int
.LVL159:
	.loc 1 392 47 discriminator 1
	ble	a0,zero,.L64
	.loc 1 394 14
	mv	a1,s2
	mv	a0,s5
	call	mbedtls_mpi_cmp_mpi
.LVL160:
	.loc 1 393 47
	bge	a0,zero,.L64
	.loc 1 395 14
	mv	a1,s2
	mv	a0,s6
	call	mbedtls_mpi_cmp_mpi
.LVL161:
	.loc 1 394 47
	blt	a0,zero,.L70
	j	.L64
.LVL162:
.L60:
	.loc 1 360 5 is_stmt 1
	.loc 1 375 5
	.loc 1 375 7 is_stmt 0
	beq	s3,zero,.L92
	.loc 1 375 18 discriminator 1
	bne	s4,zero,.L71
.L92:
	.loc 1 390 5 is_stmt 1
	.loc 1 390 7 is_stmt 0
	bne	s2,zero,.L66
	j	.L68
.LVL163:
.L61:
	.loc 1 360 5 is_stmt 1
	.loc 1 360 22 is_stmt 0
	beq	s4,zero,.L92
	.loc 1 361 17
	mv	a3,s7
	mv	a2,s1
	li	a1,50
	mv	a0,s4
	call	mbedtls_mpi_is_prime_ext
.LVL164:
	.loc 1 360 35
	bne	a0,zero,.L64
.LVL165:
	.loc 1 375 5 is_stmt 1
	.loc 1 375 7 is_stmt 0
	beq	s3,zero,.L92
.L71:
.LVL166:
	.loc 1 375 31
	bne	s2,zero,.L78
.LVL167:
.L67:
	.loc 1 406 18
	beq	s4,zero,.L68
	.loc 1 406 31 discriminator 2
	beq	s5,zero,.L68
	.loc 1 406 44 discriminator 3
	beq	s6,zero,.L68
	.loc 1 408 9 is_stmt 1
	.loc 1 408 13 is_stmt 0
	li	a1,1
	mv	a0,s3
	call	mbedtls_mpi_cmp_int
.LVL168:
	.loc 1 408 11
	ble	a0,zero,.L64
	.loc 1 409 13 discriminator 1
	li	a1,1
	mv	a0,s4
	call	mbedtls_mpi_cmp_int
.LVL169:
	.loc 1 408 46 discriminator 1
	ble	a0,zero,.L64
	.loc 1 416 9 is_stmt 1
	.loc 1 416 14
	.loc 1 416 27 is_stmt 0
	mv	a2,s6
	mv	a1,s5
	addi	a0,s0,-72
	call	mbedtls_mpi_mul_mpi
.LVL170:
	mv	s1,a0
.LVL171:
	.loc 1 416 16
	bne	a0,zero,.L63
	.loc 1 416 90 is_stmt 1 discriminator 2
	.loc 1 417 9 discriminator 2
	.loc 1 417 14 discriminator 2
	.loc 1 417 27 is_stmt 0 discriminator 2
	addi	a1,s0,-72
	li	a2,1
	mv	a0,a1
	call	mbedtls_mpi_sub_int
.LVL172:
	mv	s1,a0
.LVL173:
	.loc 1 417 16 discriminator 2
	bne	a0,zero,.L63
	.loc 1 417 91 is_stmt 1 discriminator 2
	.loc 1 418 9 discriminator 2
	.loc 1 418 14 discriminator 2
	.loc 1 418 27 is_stmt 0 discriminator 2
	li	a2,1
	mv	a1,s3
	addi	a0,s0,-60
	call	mbedtls_mpi_sub_int
.LVL174:
	mv	s1,a0
.LVL175:
	.loc 1 418 16 discriminator 2
	bne	a0,zero,.L63
	.loc 1 418 90 is_stmt 1 discriminator 2
	.loc 1 419 9 discriminator 2
	.loc 1 419 14 discriminator 2
	.loc 1 419 27 is_stmt 0 discriminator 2
	addi	a1,s0,-72
	addi	a2,s0,-60
	mv	a0,a1
	call	mbedtls_mpi_mod_mpi
.LVL176:
	mv	s1,a0
.LVL177:
	.loc 1 419 16 discriminator 2
	bne	a0,zero,.L63
	.loc 1 419 92 is_stmt 1 discriminator 2
	.loc 1 420 9 discriminator 2
	.loc 1 420 13 is_stmt 0 discriminator 2
	li	a1,0
	addi	a0,s0,-72
	call	mbedtls_mpi_cmp_int
.LVL178:
	.loc 1 420 11 discriminator 2
	bne	a0,zero,.L64
	.loc 1 427 9 is_stmt 1
	.loc 1 427 14
	.loc 1 427 27 is_stmt 0
	mv	a2,s6
	mv	a1,s5
	addi	a0,s0,-72
	call	mbedtls_mpi_mul_mpi
.LVL179:
	mv	s1,a0
.LVL180:
	.loc 1 427 16
	bne	a0,zero,.L63
	.loc 1 427 90 is_stmt 1 discriminator 2
	.loc 1 428 9 discriminator 2
	.loc 1 428 14 discriminator 2
	.loc 1 428 27 is_stmt 0 discriminator 2
	addi	a1,s0,-72
	li	a2,1
	mv	a0,a1
	call	mbedtls_mpi_sub_int
.LVL181:
	mv	s1,a0
.LVL182:
	.loc 1 428 16 discriminator 2
	bne	a0,zero,.L63
	.loc 1 428 91 is_stmt 1 discriminator 2
	.loc 1 429 9 discriminator 2
	.loc 1 429 14 discriminator 2
	.loc 1 429 27 is_stmt 0 discriminator 2
	li	a2,1
	mv	a1,s4
	addi	a0,s0,-60
	call	mbedtls_mpi_sub_int
.LVL183:
	mv	s1,a0
.LVL184:
	.loc 1 429 16 discriminator 2
	bne	a0,zero,.L63
	.loc 1 429 90 is_stmt 1 discriminator 2
	.loc 1 430 9 discriminator 2
	.loc 1 430 14 discriminator 2
	.loc 1 430 27 is_stmt 0 discriminator 2
	addi	a1,s0,-72
	addi	a2,s0,-60
	mv	a0,a1
	call	mbedtls_mpi_mod_mpi
.LVL185:
	mv	s1,a0
.LVL186:
	.loc 1 430 16 discriminator 2
	bne	a0,zero,.L63
	.loc 1 430 92 is_stmt 1 discriminator 2
	.loc 1 431 9 discriminator 2
	.loc 1 431 13 is_stmt 0 discriminator 2
	li	a1,0
	addi	a0,s0,-72
	call	mbedtls_mpi_cmp_int
.LVL187:
	.loc 1 431 11 discriminator 2
	beq	a0,zero,.L68
	j	.L64
	.cfi_endproc
.LFE6:
	.size	mbedtls_rsa_validate_params, .-mbedtls_rsa_validate_params
	.section	.text.mbedtls_rsa_deduce_crt,"ax",@progbits
	.align	1
	.globl	mbedtls_rsa_deduce_crt
	.type	mbedtls_rsa_deduce_crt, @function
mbedtls_rsa_deduce_crt:
.LFB7:
	.loc 1 455 1 is_stmt 1
	.cfi_startproc
.LVL188:
	.loc 1 456 5
	.loc 1 457 5
	.loc 1 458 5
	.loc 1 455 1 is_stmt 0
	addi	sp,sp,-64
	.cfi_def_cfa_offset 64
	sw	s0,56(sp)
	sw	s2,48(sp)
	sw	s3,44(sp)
	sw	s4,40(sp)
	sw	s5,36(sp)
	sw	s6,32(sp)
	sw	s7,28(sp)
	.cfi_offset 8, -8
	.cfi_offset 18, -16
	.cfi_offset 19, -20
	.cfi_offset 20, -24
	.cfi_offset 21, -28
	.cfi_offset 22, -32
	.cfi_offset 23, -36
	addi	s0,sp,64
	.cfi_def_cfa 8, 0
	sw	ra,60(sp)
	sw	s1,52(sp)
	mv	s4,a0
	mv	s7,a3
	.cfi_offset 1, -4
	.cfi_offset 9, -12
	.loc 1 458 5
	addi	a0,s0,-60
.LVL189:
	.loc 1 455 1
	mv	s3,a1
	mv	s6,a2
	mv	s5,a4
	mv	s2,a5
	.loc 1 458 5
	call	mbedtls_mpi_init
.LVL190:
	.loc 1 461 5 is_stmt 1
	.loc 1 461 7 is_stmt 0
	bne	s7,zero,.L96
.LVL191:
.L100:
	.loc 1 464 91 is_stmt 1
	.loc 1 468 5
	.loc 1 468 7 is_stmt 0
	bne	s5,zero,.L97
.LVL192:
.L98:
	.loc 1 471 91 is_stmt 1
	.loc 1 475 5
	.loc 1 480 1 is_stmt 0
	li	s1,0
	.loc 1 475 7
	beq	s2,zero,.L99
	.loc 1 477 9 is_stmt 1
	.loc 1 477 14
	.loc 1 477 27 is_stmt 0
	mv	a2,s4
	mv	a1,s3
	mv	a0,s2
	call	mbedtls_mpi_inv_mod
.LVL193:
	mv	s1,a0
.LVL194:
	.loc 1 480 1
	j	.L99
.LVL195:
.L96:
	.loc 1 463 9 is_stmt 1
	.loc 1 463 14
	.loc 1 463 27 is_stmt 0
	li	a2,1
	mv	a1,s4
	addi	a0,s0,-60
	call	mbedtls_mpi_sub_int
.LVL196:
	mv	s1,a0
.LVL197:
	.loc 1 463 16
	bne	a0,zero,.L99
	.loc 1 463 90 is_stmt 1 discriminator 2
	.loc 1 464 9 discriminator 2
	.loc 1 464 14 discriminator 2
	.loc 1 464 27 is_stmt 0 discriminator 2
	addi	a2,s0,-60
	mv	a1,s6
	mv	a0,s7
	call	mbedtls_mpi_mod_mpi
.LVL198:
	mv	s1,a0
.LVL199:
	.loc 1 464 16 discriminator 2
	beq	a0,zero,.L100
.LVL200:
.L99:
	.loc 1 477 90 is_stmt 1 discriminator 3
	.loc 1 481 5 discriminator 3
	addi	a0,s0,-60
	call	mbedtls_mpi_free
.LVL201:
	.loc 1 483 5 discriminator 3
	.loc 1 484 1 is_stmt 0 discriminator 3
	lw	ra,60(sp)
	.cfi_remember_state
	.cfi_restore 1
	lw	s0,56(sp)
	.cfi_restore 8
	.cfi_def_cfa 2, 64
	lw	s2,48(sp)
	.cfi_restore 18
.LVL202:
	lw	s3,44(sp)
	.cfi_restore 19
.LVL203:
	lw	s4,40(sp)
	.cfi_restore 20
.LVL204:
	lw	s5,36(sp)
	.cfi_restore 21
.LVL205:
	lw	s6,32(sp)
	.cfi_restore 22
.LVL206:
	lw	s7,28(sp)
	.cfi_restore 23
.LVL207:
	mv	a0,s1
	lw	s1,52(sp)
	.cfi_restore 9
.LVL208:
	addi	sp,sp,64
	.cfi_def_cfa_offset 0
	jr	ra
.LVL209:
.L97:
	.cfi_restore_state
	.loc 1 470 9 is_stmt 1
	.loc 1 470 14
	.loc 1 470 27 is_stmt 0
	li	a2,1
	mv	a1,s3
	addi	a0,s0,-60
	call	mbedtls_mpi_sub_int
.LVL210:
	mv	s1,a0
.LVL211:
	.loc 1 470 16
	bne	a0,zero,.L99
	.loc 1 470 90 is_stmt 1 discriminator 2
	.loc 1 471 9 discriminator 2
	.loc 1 471 14 discriminator 2
	.loc 1 471 27 is_stmt 0 discriminator 2
	addi	a2,s0,-60
	mv	a1,s6
	mv	a0,s5
	call	mbedtls_mpi_mod_mpi
.LVL212:
	mv	s1,a0
.LVL213:
	.loc 1 471 16 discriminator 2
	beq	a0,zero,.L98
	j	.L99
	.cfi_endproc
.LFE7:
	.size	mbedtls_rsa_deduce_crt, .-mbedtls_rsa_deduce_crt
	.text
.Letext0:
	.file 2 "/home/quanghaictu/intern/Ai-Thinker-WB2/toolchain/riscv/Linux/lib/gcc/riscv64-unknown-elf/10.2.0/include/stddef.h"
	.file 3 "/home/quanghaictu/intern/Ai-Thinker-WB2/toolchain/riscv/Linux/lib/gcc/riscv64-unknown-elf/10.2.0/include/stdint-gcc.h"
	.file 4 "/home/quanghaictu/intern/Ai-Thinker-WB2/components/security/mbedtls_lts/mbedtls/include/mbedtls/bignum.h"
	.file 5 "<built-in>"