	.file	"sha1.c"
	.option nopic
	.attribute arch, "rv32i2p0_m2p0_f2p0_c2p0"
	.attribute unaligned_access, 0
	.attribute stack_align, 16
	.text
.Ltext0:
	.cfi_sections	.debug_frame
	.section	.text.mbedtls_sha1_ret,"ax",@progbits
	.align	1
	.globl	mbedtls_sha1_ret
	.type	mbedtls_sha1_ret, @function
mbedtls_sha1_ret:
.LFB2:
	.file 1 "/home/dinhquangha/Ai-Thinker-WB2/components/security/mbedtls_lts/mbedtls/library/sha1.c"
	.loc 1 422 1
	.cfi_startproc
.LVL0:
	.loc 1 423 5
	.loc 1 424 5
	.loc 1 426 5
	.loc 1 426 10
	.loc 1 426 17
	.loc 1 427 5
	.loc 1 427 10
	.loc 1 427 17
	.loc 1 429 5
	.loc 1 422 1 is_stmt 0
	addi	sp,sp,-224
	.cfi_def_cfa_offset 224
	sw	ra,220(sp)
	sw	s0,216(sp)
	sw	s1,212(sp)
	.cfi_offset 1, -4
	.cfi_offset 8, -8
	.cfi_offset 9, -12
	addi	s0,sp,224
	.cfi_def_cfa 8, 0
	sw	s2,208(sp)
	sw	s3,204(sp)
	sw	s4,200(sp)
	.cfi_offset 18, -16
	.cfi_offset 19, -20
	.cfi_offset 20, -24
	.loc 1 422 1
	mv	s3,a0
	.loc 1 429 5
	addi	a0,s0,-224
.LVL1:
	.loc 1 422 1
	mv	s4,a1
	mv	s2,a2
	.loc 1 429 5
	call	mbedtls_sha1_init
.LVL2:
	.loc 1 431 5 is_stmt 1
	.loc 1 431 17 is_stmt 0
	addi	a0,s0,-224
	call	mbedtls_sha1_starts_ret
.LVL3:
	mv	s1,a0
.LVL4:
	.loc 1 431 7
	bne	a0,zero,.L2
	.loc 1 434 5 is_stmt 1
	.loc 1 434 17 is_stmt 0
	mv	a2,s4
	mv	a1,s3
	addi	a0,s0,-224
	call	mbedtls_sha1_update_ret
.LVL5:
	mv	s1,a0
.LVL6:
	.loc 1 434 7
	bne	a0,zero,.L2
	.loc 1 437 5 is_stmt 1
	.loc 1 437 17 is_stmt 0
	mv	a1,s2
	addi	a0,s0,-224
	call	mbedtls_sha1_finish_ret
.LVL7:
	mv	s1,a0
.LVL8:
.L2:
	.loc 1 441 5 is_stmt 1
	addi	a0,s0,-224
	call	mbedtls_sha1_free
.LVL9:
	.loc 1 443 5
	.loc 1 444 1 is_stmt 0
	lw	ra,220(sp)
	.cfi_restore 1
	lw	s0,216(sp)
	.cfi_restore 8
	.cfi_def_cfa 2, 224
	lw	s2,208(sp)
	.cfi_restore 18
.LVL10:
	lw	s3,204(sp)
	.cfi_restore 19
.LVL11:
	lw	s4,200(sp)
	.cfi_restore 20
.LVL12:
	mv	a0,s1
	lw	s1,212(sp)
	.cfi_restore 9
.LVL13:
	addi	sp,sp,224
	.cfi_def_cfa_offset 0
	jr	ra
	.cfi_endproc
.LFE2:
	.size	mbedtls_sha1_ret, .-mbedtls_sha1_ret
	.section	.text.mbedtls_sha1,"ax",@progbits
	.align	1
	.globl	mbedtls_sha1
	.type	mbedtls_sha1, @function
mbedtls_sha1:
.LFB3:
	.loc 1 450 1 is_stmt 1
	.cfi_startproc
.LVL14:
	.loc 1 451 5
	.loc 1 450 1 is_stmt 0
	addi	sp,sp,-16
	.cfi_def_cfa_offset 16
	sw	s0,12(sp)
	.cfi_offset 8, -4
	addi	s0,sp,16
	.cfi_def_cfa 8, 0
	.loc 1 452 1
	lw	s0,12(sp)
	.cfi_restore 8
	.cfi_def_cfa 2, 16
	addi	sp,sp,16
	.cfi_def_cfa_offset 0
	.loc 1 451 5
	tail	mbedtls_sha1_ret
.LVL15:
	.cfi_endproc
.LFE3:
	.size	mbedtls_sha1, .-mbedtls_sha1
	.text
.Letext0:
	.file 2 "/home/dinhquangha/Ai-Thinker-WB2/toolchain/riscv/Linux/lib/gcc/riscv64-unknown-elf/10.2.0/include/stddef.h"
	.file 3 "/home/dinhquangha/Ai-Thinker-WB2/toolchain/riscv/Linux/lib/gcc/riscv64-unknown-elf/10.2.0/include/stdint-gcc.h"
	.file 4 "/home/dinhquangha/Ai-Thinker-WB2/components/platform/hosal/sec_common/bl_sec_common.h"
	.file 5 "/home/dinhquangha/Ai-Thinker-WB2/components/security/mbedtls_lts/port/sha1_alt.h"
	.file 6 "/home/dinhquangha/Ai-Thinker-WB2/components/security/mbedtls_lts/mbedtls/include/mbedtls/sha1.h"