	.file	"ssl_tls.c"
	.option nopic
	.attribute arch, "rv32i2p0_m2p0_f2p0_c2p0"
	.attribute unaligned_access, 0
	.attribute stack_align, 16
	.text
.Ltext0:
	.cfi_sections	.debug_frame
	.section	.text.mbedtls_ssl_own_cert,"ax",@progbits
	.align	1
	.type	mbedtls_ssl_own_cert, @function
mbedtls_ssl_own_cert:
.LFB27:
	.file 1 "/home/dinhquangha/intern/Ai-Thinker-WB2/components/security/mbedtls_lts/mbedtls/include/mbedtls/ssl_internal.h"
	.loc 1 1176 1
	.cfi_startproc
.LVL0:
	.loc 1 1177 5
	.loc 1 1179 5
	.loc 1 1176 1 is_stmt 0
	addi	sp,sp,-16
	.cfi_def_cfa_offset 16
	sw	s0,12(sp)
	.cfi_offset 8, -4
	addi	s0,sp,16
	.cfi_def_cfa 8, 0
	.loc 1 1179 12
	lw	a4,56(a0)
	.loc 1 1176 1
	mv	a5,a0
	.loc 1 1179 7
	beq	a4,zero,.L2
	.loc 1 1179 48 discriminator 1
	lw	a0,392(a4)
.LVL1:
	.loc 1 1179 31 discriminator 1
	bne	a0,zero,.L3
.L2:
	.loc 1 1182 9 is_stmt 1
	.loc 1 1182 18 is_stmt 0
	lw	a5,0(a5)
.LVL2:
	lw	a0,104(a5)
.LVL3:
	.loc 1 1184 5 is_stmt 1
	.loc 1 1184 36 is_stmt 0
	beq	a0,zero,.L1
.LVL4:
.L3:
	.loc 1 1184 36 discriminator 1
	lw	a0,0(a0)
.LVL5:
.L1:
	.loc 1 1185 1
	lw	s0,12(sp)
	.cfi_restore 8
	.cfi_def_cfa 2, 16
	addi	sp,sp,16
	.cfi_def_cfa_offset 0
	jr	ra
	.cfi_endproc
.LFE27:
	.size	mbedtls_ssl_own_cert, .-mbedtls_ssl_own_cert
	.section	.text.ssl_mfl_code_to_length,"ax",@progbits
	.align	1
	.type	ssl_mfl_code_to_length, @function
ssl_mfl_code_to_length:
.LFB33:
	.file 2 "/home/dinhquangha/intern/Ai-Thinker-WB2/components/security/mbedtls_lts/mbedtls/library/ssl_tls.c"
	.loc 2 166 1 is_stmt 1
	.cfi_startproc
.LVL6:
	.loc 2 167 5
	.loc 2 166 1 is_stmt 0
	addi	sp,sp,-16
	.cfi_def_cfa_offset 16
	sw	s0,12(sp)
	.cfi_offset 8, -4
	addi	s0,sp,16
	.cfi_def_cfa 8, 0
	addi	a0,a0,-1
.LVL7:
	li	a5,3
	bgtu	a0,a5,.L14
	lui	a5,%hi(.LANCHOR0)
	slli	a0,a0,1
.LVL8:
	addi	a5,a5,%lo(.LANCHOR0)
	add	a0,a5,a0
	lhu	a0,0(a0)
.L12:
	.loc 2 182 1
	lw	s0,12(sp)
	.cfi_remember_state
	.cfi_restore 8
	.cfi_def_cfa 2, 16
	addi	sp,sp,16
	.cfi_def_cfa_offset 0
	jr	ra
.L14:
	.cfi_restore_state
	.loc 2 167 5
	li	a0,16384
	j	.L12
	.cfi_endproc
.LFE33:
	.size	ssl_mfl_code_to_length, .-ssl_mfl_code_to_length
	.section	.text.ssl_append_key_cert,"ax",@progbits
	.align	1
	.type	ssl_append_key_cert, @function
ssl_append_key_cert:
.LFB88:
	.loc 2 4336 1 is_stmt 1
	.cfi_startproc
.LVL9:
	.loc 2 4337 5
	.loc 2 4339 5
	.loc 2 4336 1 is_stmt 0
	addi	sp,sp,-32
	.cfi_def_cfa_offset 32
	sw	s0,24(sp)
	sw	s1,20(sp)
	sw	s2,16(sp)
	sw	s3,12(sp)
	sw	ra,28(sp)
	.cfi_offset 8, -8
	.cfi_offset 9, -12
	.cfi_offset 18, -16
	.cfi_offset 19, -20
	.cfi_offset 1, -4
	addi	s0,sp,32
	.cfi_def_cfa 8, 0
	mv	s1,a0
	mv	s3,a1
	.loc 2 4339 16
	li	a1,12
.LVL10:
	li	a0,1
.LVL11:
	.loc 2 4336 1
	mv	s2,a2
	.loc 2 4339 16
	call	mbedtls_calloc
.LVL12:
	.loc 2 4340 5 is_stmt 1
	.loc 2 4340 7 is_stmt 0
	beq	a0,zero,.L19
	.loc 2 4343 5 is_stmt 1
	.loc 2 4343 20 is_stmt 0
	sw	s3,0(a0)
	.loc 2 4344 5 is_stmt 1
	.loc 2 4344 19 is_stmt 0
	sw	s2,4(a0)
	.loc 2 4345 5 is_stmt 1
	.loc 2 4345 20 is_stmt 0
	sw	zero,8(a0)
	.loc 2 4348 5 is_stmt 1
	.loc 2 4348 9 is_stmt 0
	lw	a5,0(s1)
	.loc 2 4348 7
	bne	a5,zero,.L18
	.loc 2 4350 9 is_stmt 1
	.loc 2 4350 15 is_stmt 0
	sw	a0,0(s1)
.L23:
	.loc 2 4360 11
	li	a0,0
.LVL13:
.L16:
	.loc 2 4361 1
	lw	ra,28(sp)
	.cfi_remember_state
	.cfi_restore 1
	lw	s0,24(sp)
	.cfi_restore 8
	.cfi_def_cfa 2, 32
	lw	s1,20(sp)
	.cfi_restore 9
.LVL14:
	lw	s2,16(sp)
	.cfi_restore 18
.LVL15:
	lw	s3,12(sp)
	.cfi_restore 19
.LVL16:
	addi	sp,sp,32
	.cfi_def_cfa_offset 0
	jr	ra
.LVL17:
.L18:
	.cfi_restore_state
.LBB31:
	.loc 2 4355 14 is_stmt 1
	mv	a4,a5
	.loc 2 4355 19 is_stmt 0
	lw	a5,8(a5)
.LVL18:
	.loc 2 4355 14
	bne	a5,zero,.L18
	.loc 2 4357 9 is_stmt 1
	.loc 2 4357 19 is_stmt 0
	sw	a0,8(a4)
	j	.L23
.LVL19:
.L19:
.LBE31:
	.loc 2 4341 15
	li	a0,-32768
.LVL20:
	addi	a0,a0,256
	j	.L16
	.cfi_endproc
.LFE88:
	.size	ssl_append_key_cert, .-ssl_append_key_cert
	.section	.text.tls_prf_generic,"ax",@progbits
	.align	1
	.type	tls_prf_generic, @function
tls_prf_generic:
.LFB35:
	.loc 2 692 1 is_stmt 1
	.cfi_startproc
.LVL21:
	.loc 2 693 5
	.loc 2 694 5
	.loc 2 695 5
	.loc 2 696 5
	.loc 2 697 5
	.loc 2 698 5
	.loc 2 699 5
	.loc 2 700 5
	.loc 2 702 5
	.loc 2 692 1 is_stmt 0
	addi	sp,sp,-160
	.cfi_def_cfa_offset 160
	sw	s0,152(sp)
	sw	s1,148(sp)
	.cfi_offset 8, -8
	.cfi_offset 9, -12
	addi	s0,sp,160
	.cfi_def_cfa 8, 0
	sw	s3,140(sp)
	sw	s6,128(sp)
	sw	s8,120(sp)
	sw	s9,116(sp)
	sw	s10,112(sp)
	sw	ra,156(sp)
	sw	s2,144(sp)
	sw	s4,136(sp)
	sw	s5,132(sp)
	sw	s7,124(sp)
	sw	s11,108(sp)
	.cfi_offset 19, -20
	.cfi_offset 22, -32
	.cfi_offset 24, -40
	.cfi_offset 25, -44
	.cfi_offset 26, -48
	.cfi_offset 1, -4
	.cfi_offset 18, -16
	.cfi_offset 20, -24
	.cfi_offset 21, -28
	.cfi_offset 23, -36
	.cfi_offset 27, -52
	.loc 2 692 1
	mv	s1,a0
	.loc 2 702 5
	addi	a0,s0,-140
.LVL22:
	.loc 2 692 1
	sw	a1,-148(s0)
	mv	s9,a2
	mv	s6,a3
	mv	s10,a4
	mv	s3,a5
	sw	a6,-152(s0)
	mv	s8,a7
	.loc 2 702 5
	call	mbedtls_md_init
.LVL23:
	.loc 2 704 5 is_stmt 1
	.loc 2 704 21 is_stmt 0
	mv	a0,s1
	call	mbedtls_md_info_from_type
.LVL24:
	.loc 2 704 7
	beq	a0,zero,.L32
	mv	s7,a0
	.loc 2 707 5 is_stmt 1
	.loc 2 707 14 is_stmt 0
	call	mbedtls_md_get_size
.LVL25:
	mv	s2,a0
.LVL26:
	.loc 2 709 5 is_stmt 1
	.loc 2 709 24 is_stmt 0
	mv	a0,s6
.LVL27:
	call	strlen
.LVL28:
	.loc 2 709 13
	add	s4,a0,s3
	add	s4,s4,s2
.LVL29:
	.loc 2 710 5 is_stmt 1
	.loc 2 710 11 is_stmt 0
	mv	a1,s4
	li	a0,1
	call	mbedtls_calloc
.LVL30:
	mv	s1,a0
.LVL31:
	.loc 2 711 5 is_stmt 1
	.loc 2 711 7 is_stmt 0
	beq	a0,zero,.L33
	.loc 2 717 5 is_stmt 1
	.loc 2 717 10 is_stmt 0
	mv	a0,s6
	call	strlen
.LVL32:
	.loc 2 718 17
	add	s11,s1,s2
	.loc 2 718 5
	mv	a2,a0
	mv	a1,s6
	.loc 2 717 10
	mv	s5,a0
.LVL33:
	.loc 2 718 5 is_stmt 1
	mv	a0,s11
.LVL34:
	call	memcpy
.LVL35:
	.loc 2 719 5
	.loc 2 719 26 is_stmt 0
	add	a0,s2,s5
	.loc 2 719 5
	mv	a2,s3
	mv	a1,s10
	add	a0,s1,a0
	call	memcpy
.LVL36:
	.loc 2 720 5 is_stmt 1
	.loc 2 725 5
	.loc 2 725 18 is_stmt 0
	li	a2,1
	mv	a1,s7
	addi	a0,s0,-140
	call	mbedtls_md_setup
.LVL37:
	mv	s6,a0
.LVL38:
	.loc 2 725 8
	bne	a0,zero,.L26
	.loc 2 728 5 is_stmt 1
	.loc 2 728 11 is_stmt 0
	lw	a1,-148(s0)
	mv	a2,s9
	addi	a0,s0,-140
.LVL39:
	call	mbedtls_md_hmac_starts
.LVL40:
	mv	s6,a0
.LVL41:
	.loc 2 729 5 is_stmt 1
	.loc 2 729 7 is_stmt 0
	bne	a0,zero,.L26
	.loc 2 720 8
	add	s3,s3,s5
.LVL42:
	.loc 2 731 5 is_stmt 1
	.loc 2 731 11 is_stmt 0
	mv	a2,s3
	mv	a1,s11
	addi	a0,s0,-140
.LVL43:
	call	mbedtls_md_hmac_update
.LVL44:
	mv	s6,a0
.LVL45:
	.loc 2 732 5 is_stmt 1
	.loc 2 732 7 is_stmt 0
	bne	a0,zero,.L26
	.loc 2 734 5 is_stmt 1
	.loc 2 734 11 is_stmt 0
	mv	a1,s1
	addi	a0,s0,-140
.LVL46:
	call	mbedtls_md_hmac_finish
.LVL47:
	mv	s6,a0
.LVL48:
	.loc 2 735 5 is_stmt 1
	.loc 2 735 7 is_stmt 0
	bne	a0,zero,.L26
	.loc 2 738 12
	li	s5,0
	.loc 2 743 15
	add	s3,s2,s3
.LVL49:
.L27:
	.loc 2 738 17 is_stmt 1 discriminator 1
	.loc 2 738 5 is_stmt 0 discriminator 1
	bltu	s5,s8,.L31
.LVL50:
.L26:
	.loc 2 767 5 is_stmt 1
	addi	a0,s0,-140
	call	mbedtls_md_free
.LVL51:
	.loc 2 769 5
	mv	a1,s4
	mv	a0,s1
	call	mbedtls_platform_zeroize
.LVL52:
	.loc 2 770 5
	addi	a0,s0,-128
	li	a1,64
	call	mbedtls_platform_zeroize
.LVL53:
	.loc 2 772 5
	mv	a0,s1
	call	mbedtls_free
.LVL54:
	.loc 2 774 5
.L24:
	.loc 2 775 1 is_stmt 0
	lw	ra,156(sp)
	.cfi_remember_state
	.cfi_restore 1
	lw	s0,152(sp)
	.cfi_restore 8
	.cfi_def_cfa 2, 160
.LVL55:
	lw	s1,148(sp)
	.cfi_restore 9
	lw	s2,144(sp)
	.cfi_restore 18
	lw	s3,140(sp)
	.cfi_restore 19
	lw	s4,136(sp)
	.cfi_restore 20
	lw	s5,132(sp)
	.cfi_restore 21
	lw	s7,124(sp)
	.cfi_restore 23
	lw	s8,120(sp)
	.cfi_restore 24
.LVL56:
	lw	s9,116(sp)
	.cfi_restore 25
.LVL57:
	lw	s10,112(sp)
	.cfi_restore 26
.LVL58:
	lw	s11,108(sp)
	.cfi_restore 27
	mv	a0,s6
	lw	s6,128(sp)
	.cfi_restore 22
	addi	sp,sp,160
	.cfi_def_cfa_offset 0
	jr	ra
.LVL59:
.L31:
	.cfi_restore_state
	.loc 2 740 9 is_stmt 1
	.loc 2 740 15 is_stmt 0
	addi	a0,s0,-140
	call	mbedtls_md_hmac_reset
.LVL60:
	.loc 2 741 9 is_stmt 1
	.loc 2 741 11 is_stmt 0
	bne	a0,zero,.L39
	.loc 2 743 9 is_stmt 1
	.loc 2 743 15 is_stmt 0
	mv	a2,s3
	mv	a1,s1
	addi	a0,s0,-140
.LVL61:
	call	mbedtls_md_hmac_update
.LVL62:
	.loc 2 744 9 is_stmt 1
	.loc 2 744 11 is_stmt 0
	bne	a0,zero,.L39
	.loc 2 746 9 is_stmt 1
	.loc 2 746 15 is_stmt 0
	addi	a1,s0,-128
	addi	a0,s0,-140
.LVL63:
	call	mbedtls_md_hmac_finish
.LVL64:
	.loc 2 747 9 is_stmt 1
	.loc 2 747 11 is_stmt 0
	bne	a0,zero,.L39
	.loc 2 750 9 is_stmt 1
	.loc 2 750 15 is_stmt 0
	addi	a0,s0,-140
.LVL65:
	call	mbedtls_md_hmac_reset
.LVL66:
	.loc 2 751 9 is_stmt 1
	.loc 2 751 11 is_stmt 0
	bne	a0,zero,.L39
	.loc 2 753 9 is_stmt 1
	.loc 2 753 15 is_stmt 0
	mv	a2,s2
	mv	a1,s1
	addi	a0,s0,-140
.LVL67:
	call	mbedtls_md_hmac_update
.LVL68:
	.loc 2 754 9 is_stmt 1
	.loc 2 754 11 is_stmt 0
	bne	a0,zero,.L39
	.loc 2 756 9 is_stmt 1
	.loc 2 756 15 is_stmt 0
	mv	a1,s1
	addi	a0,s0,-140
.LVL69:
	call	mbedtls_md_hmac_finish
.LVL70:
	.loc 2 757 9 is_stmt 1
	.loc 2 757 11 is_stmt 0
	bne	a0,zero,.L39
	.loc 2 760 9 is_stmt 1
	.loc 2 760 17 is_stmt 0
	add	a4,s5,s2
	.loc 2 760 51
	mv	a3,s2
	bleu	a4,s8,.L28
.LVL71:
	.loc 2 760 51 discriminator 1
	remu	a3,s8,s2
.LVL72:
.L28:
	.loc 2 762 9 is_stmt 1 discriminator 4
	.loc 2 763 27 is_stmt 0 discriminator 4
	lw	a2,-152(s0)
	.loc 2 762 16 discriminator 4
	li	a5,0
	.loc 2 763 27 discriminator 4
	add	s5,a2,s5
.LVL73:
.L29:
	.loc 2 762 21 is_stmt 1 discriminator 1
	.loc 2 762 9 is_stmt 0 discriminator 1
	bne	a5,a3,.L30
	.loc 2 760 17
	mv	s5,a4
	j	.L27
.L30:
	.loc 2 763 13 is_stmt 1 discriminator 3
	.loc 2 763 32 is_stmt 0 discriminator 3
	addi	a1,s0,-128
	add	a1,a1,a5
	.loc 2 763 27 discriminator 3
	lbu	a1,0(a1)
	add	a2,s5,a5
	.loc 2 762 29 discriminator 3
	addi	a5,a5,1
.LVL74:
	.loc 2 763 27 discriminator 3
	sb	a1,0(a2)
	.loc 2 762 28 is_stmt 1 discriminator 3
.LVL75:
	j	.L29
.LVL76:
.L33:
	.loc 2 713 13 is_stmt 0
	li	a0,-32768
	addi	s6,a0,256
.LVL77:
	j	.L26
.LVL78:
.L39:
	mv	s6,a0
	j	.L26
.LVL79:
.L32:
	.loc 2 705 15
	li	a0,-28672
.LVL80:
	addi	s6,a0,1024
.LVL81:
	j	.L24
	.cfi_endproc
.LFE35:
	.size	tls_prf_generic, .-tls_prf_generic
	.section	.text.tls_prf_sha256,"ax",@progbits
	.align	1
	.type	tls_prf_sha256, @function
tls_prf_sha256:
.LFB36:
	.loc 2 783 1 is_stmt 1
	.cfi_startproc
.LVL82:
	.loc 2 784 5
	.loc 2 783 1 is_stmt 0
	addi	sp,sp,-16
	.cfi_def_cfa_offset 16
	sw	s0,12(sp)
	.cfi_offset 8, -4
	addi	s0,sp,16
	.cfi_def_cfa 8, 0
	.loc 2 786 1
	lw	s0,12(sp)
	.cfi_restore 8
	.cfi_def_cfa 2, 16
	.loc 2 784 13
	mv	a7,a6
	mv	a6,a5
.LVL83:
	.loc 2 786 1
	.loc 2 784 13
	mv	a5,a4
.LVL84:
	.loc 2 786 1
	addi	sp,sp,16
	.cfi_def_cfa_offset 0
	.loc 2 784 13
	mv	a4,a3
.LVL85:
	mv	a3,a2
.LVL86:
	mv	a2,a1
.LVL87:
	mv	a1,a0
.LVL88:
	li	a0,6
.LVL89:
	tail	tls_prf_generic
.LVL90:
	.cfi_endproc
.LFE36:
	.size	tls_prf_sha256, .-tls_prf_sha256
	.section	.text.tls_prf_sha384,"ax",@progbits
	.align	1
	.type	tls_prf_sha384, @function
tls_prf_sha384:
.LFB37:
	.loc 2 795 1 is_stmt 1
	.cfi_startproc
.LVL91:
	.loc 2 796 5
	.loc 2 795 1 is_stmt 0
	addi	sp,sp,-16
	.cfi_def_cfa_offset 16
	sw	s0,12(sp)
	.cfi_offset 8, -4
	addi	s0,sp,16
	.cfi_def_cfa 8, 0
	.loc 2 798 1
	lw	s0,12(sp)
	.cfi_restore 8
	.cfi_def_cfa 2, 16
	.loc 2 796 13
	mv	a7,a6
	mv	a6,a5
.LVL92:
	.loc 2 798 1
	.loc 2 796 13
	mv	a5,a4
.LVL93:
	.loc 2 798 1
	addi	sp,sp,16
	.cfi_def_cfa_offset 0
	.loc 2 796 13
	mv	a4,a3
.LVL94:
	mv	a3,a2
.LVL95:
	mv	a2,a1
.LVL96:
	mv	a1,a0
.LVL97:
	li	a0,7
.LVL98:
	tail	tls_prf_generic
.LVL99:
	.cfi_endproc
.LFE37:
	.size	tls_prf_sha384, .-tls_prf_sha384
	.section	.text.ssl_conf_remove_psk,"ax",@progbits
	.align	1
	.type	ssl_conf_remove_psk, @function
ssl_conf_remove_psk:
.LFB95:
	.loc 2 4464 1 is_stmt 1
	.cfi_startproc
.LVL100:
	.loc 2 4479 5
	.loc 2 4464 1 is_stmt 0
	addi	sp,sp,-16
	.cfi_def_cfa_offset 16
	sw	s0,8(sp)
	sw	s1,4(sp)
	sw	ra,12(sp)
	.cfi_offset 8, -8
	.cfi_offset 9, -12
	.cfi_offset 1, -4
	addi	s0,sp,16
	.cfi_def_cfa 8, 0
	.loc 2 4464 1
	mv	s1,a0
	.loc 2 4479 13
	lw	a0,148(a0)
.LVL101:
	.loc 2 4479 7
	beq	a0,zero,.L47
	.loc 2 4481 9 is_stmt 1
	lw	a1,152(s1)
	call	mbedtls_platform_zeroize
.LVL102:
	.loc 2 4483 9
	lw	a0,148(s1)
	call	mbedtls_free
.LVL103:
	.loc 2 4484 9
	.loc 2 4484 19 is_stmt 0
	sw	zero,148(s1)
	.loc 2 4485 9 is_stmt 1
	.loc 2 4485 23 is_stmt 0
	sw	zero,152(s1)
.L47:
	.loc 2 4489 5 is_stmt 1
	.loc 2 4489 13 is_stmt 0
	lw	a0,156(s1)
	.loc 2 4489 7
	beq	a0,zero,.L46
	.loc 2 4491 9 is_stmt 1
	call	mbedtls_free
.LVL104:
	.loc 2 4492 9
	.loc 2 4492 28 is_stmt 0
	sw	zero,156(s1)
	.loc 2 4493 9 is_stmt 1
	.loc 2 4493 32 is_stmt 0
	sw	zero,160(s1)
.L46:
	.loc 2 4495 1
	lw	ra,12(sp)
	.cfi_restore 1
	lw	s0,8(sp)
	.cfi_restore 8
	.cfi_def_cfa 2, 16
	lw	s1,4(sp)
	.cfi_restore 9
.LVL105:
	addi	sp,sp,16
	.cfi_def_cfa_offset 0
	jr	ra
	.cfi_endproc
.LFE95:
	.size	ssl_conf_remove_psk, .-ssl_conf_remove_psk
	.section	.rodata.ssl_calc_finished_tls_sha256.str1.4,"aMS",@progbits,1
	.align	2
.LC0:
	.string	"client finished"
	.align	2
.LC1:
	.string	"server finished"
	.align	2
.LC2:
	.string	"=> calc  finished tls sha256"
	.align	2
.LC3:
	.string	"/home/dinhquangha/intern/Ai-Thinker-WB2/components/security/mbedtls_lts/mbedtls/library/ssl_tls.c"
	.align	2
.LC4:
	.string	"calc finished result"
	.align	2
.LC5:
	.string	"<= calc  finished"
	.section	.text.ssl_calc_finished_tls_sha256,"ax",@progbits
	.align	1
	.type	ssl_calc_finished_tls_sha256, @function
ssl_calc_finished_tls_sha256:
.LFB60:
	.loc 2 3280 1 is_stmt 1
	.cfi_startproc
.LVL106:
	.loc 2 3281 5
	.loc 2 3282 5
	.loc 2 3283 5
	.loc 2 3289 5
	.loc 2 3292 5
	.loc 2 3280 1 is_stmt 0
	addi	sp,sp,-256
	.cfi_def_cfa_offset 256
	sw	s0,248(sp)
	sw	s1,244(sp)
	sw	s3,236(sp)
	sw	ra,252(sp)
	sw	s2,240(sp)
	sw	s4,232(sp)
	sw	s5,228(sp)
	sw	s6,224(sp)
	.cfi_offset 8, -8
	.cfi_offset 9, -12
	.cfi_offset 19, -20
	.cfi_offset 1, -4
	.cfi_offset 18, -16
	.cfi_offset 20, -24
	.cfi_offset 21, -28
	.cfi_offset 22, -32
	addi	s0,sp,256
	.cfi_def_cfa 8, 0
	.loc 2 3292 26
	lw	s6,52(a0)
.LVL107:
	.loc 2 3293 5 is_stmt 1
	.loc 2 3280 1 is_stmt 0
	mv	s1,a0
	mv	s3,a1
	.loc 2 3293 7
	bne	s6,zero,.L57
	.loc 2 3294 9 is_stmt 1
	.loc 2 3294 17 is_stmt 0
	lw	s6,48(a0)
.LVL108:
.L57:
	.loc 2 3296 5 is_stmt 1
	.loc 2 3296 12 is_stmt 0
	beq	a2,zero,.L59
	lui	s2,%hi(.LC1)
	addi	s2,s2,%lo(.LC1)
.L58:
.LVL109:
	.loc 2 3321 5 is_stmt 1 discriminator 4
	addi	a0,s0,-224
.LVL110:
	call	mbedtls_sha256_init
.LVL111:
	.loc 2 3323 5 discriminator 4
	li	s5,4096
	lui	s4,%hi(.LC3)
	lui	a4,%hi(.LC2)
	addi	a3,s5,-773
	addi	a2,s4,%lo(.LC3)
	addi	a4,a4,%lo(.LC2)
	mv	a0,s1
	li	a1,2
	call	mbedtls_debug_print_msg
.LVL112:
	.loc 2 3325 5 discriminator 4
	.loc 2 3325 36 is_stmt 0 discriminator 4
	lw	a1,56(s1)
	.loc 2 3325 5 discriminator 4
	addi	a0,s0,-224
	addi	a1,a1,416
	call	mbedtls_sha256_clone
.LVL113:
	.loc 2 3338 5 is_stmt 1 discriminator 4
	addi	a1,s0,-256
	addi	a0,s0,-224
	call	mbedtls_sha256_finish_ret
.LVL114:
	.loc 2 3339 5 discriminator 4
	addi	a0,s0,-224
	call	mbedtls_sha256_free
.LVL115:
	.loc 2 3342 5 discriminator 4
	.loc 2 3342 19 is_stmt 0 discriminator 4
	lw	a5,56(s1)
	.loc 2 3342 5 discriminator 4
	addi	a3,s0,-256
	mv	a2,s2
	lw	a7,36(a5)
	li	a6,12
	mv	a5,s3
	li	a4,32
	li	a1,48
	addi	a0,s6,48
	jalr	a7
.LVL116:
	.loc 2 3345 5 is_stmt 1 discriminator 4
	lui	a4,%hi(.LC4)
	mv	a5,s3
	addi	a3,s5,-751
	addi	a2,s4,%lo(.LC3)
	li	a6,12
	addi	a4,a4,%lo(.LC4)
	mv	a0,s1
	li	a1,3
	call	mbedtls_debug_print_buf
.LVL117:
	.loc 2 3347 5 discriminator 4
	addi	a0,s0,-256
	li	a1,32
	call	mbedtls_platform_zeroize
.LVL118:
	.loc 2 3349 5 discriminator 4
	lui	a4,%hi(.LC5)
	addi	a3,s5,-747
	addi	a2,s4,%lo(.LC3)
	mv	a0,s1
	addi	a4,a4,%lo(.LC5)
	li	a1,2
	call	mbedtls_debug_print_msg
.LVL119:
	.loc 2 3350 1 is_stmt 0 discriminator 4
	lw	ra,252(sp)
	.cfi_remember_state
	.cfi_restore 1
	lw	s0,248(sp)
	.cfi_restore 8
	.cfi_def_cfa 2, 256
	lw	s1,244(sp)
	.cfi_restore 9
.LVL120:
	lw	s2,240(sp)
	.cfi_restore 18
.LVL121:
	lw	s3,236(sp)
	.cfi_restore 19
.LVL122:
	lw	s4,232(sp)
	.cfi_restore 20
	lw	s5,228(sp)
	.cfi_restore 21
	lw	s6,224(sp)
	.cfi_restore 22
.LVL123:
	addi	sp,sp,256
	.cfi_def_cfa_offset 0
	jr	ra
.LVL124:
.L59:
	.cfi_restore_state
	.loc 2 3296 12
	lui	s2,%hi(.LC0)
	addi	s2,s2,%lo(.LC0)
	j	.L58
	.cfi_endproc
.LFE60:
	.size	ssl_calc_finished_tls_sha256, .-ssl_calc_finished_tls_sha256
	.section	.rodata.ssl_calc_verify_tls_sha256.str1.4,"aMS",@progbits,1
	.align	2
.LC6:
	.string	"=> calc verify sha256"
	.align	2
.LC7:
	.string	"calculated verify result"
	.align	2
.LC8:
	.string	"<= calc verify"
	.section	.text.ssl_calc_verify_tls_sha256,"ax",@progbits
	.align	1
	.type	ssl_calc_verify_tls_sha256, @function
ssl_calc_verify_tls_sha256:
.LFB43:
	.loc 2 1901 1 is_stmt 1
	.cfi_startproc
.LVL125:
	.loc 2 1926 5
	.loc 2 1928 5
	.loc 2 1901 1 is_stmt 0
	addi	sp,sp,-224
	.cfi_def_cfa_offset 224
	sw	ra,220(sp)
	sw	s0,216(sp)
	sw	s1,212(sp)
	.cfi_offset 1, -4
	.cfi_offset 8, -8
	.cfi_offset 9, -12
	addi	s0,sp,224
	.cfi_def_cfa 8, 0
	sw	s2,208(sp)
	sw	s3,204(sp)
	sw	s4,200(sp)
	.cfi_offset 18, -16
	.cfi_offset 19, -20
	.cfi_offset 20, -24
	.loc 2 1901 1
	mv	s1,a0
	.loc 2 1928 5
	addi	a0,s0,-224
.LVL126:
	.loc 2 1901 1
	mv	s2,a1
	mv	s4,a2
	.loc 2 1928 5
	call	mbedtls_sha256_init
.LVL127:
	.loc 2 1930 5 is_stmt 1
	lui	s3,%hi(.LC3)
	lui	a4,%hi(.LC6)
	addi	a2,s3,%lo(.LC3)
	addi	a4,a4,%lo(.LC6)
	li	a3,1930
	mv	a0,s1
	li	a1,2
	call	mbedtls_debug_print_msg
.LVL128:
	.loc 2 1932 5
	.loc 2 1932 36 is_stmt 0
	lw	a1,56(s1)
	.loc 2 1932 5
	addi	a0,s0,-224
	addi	a1,a1,416
	call	mbedtls_sha256_clone
.LVL129:
	.loc 2 1933 5 is_stmt 1
	mv	a1,s2
	addi	a0,s0,-224
	call	mbedtls_sha256_finish_ret
.LVL130:
	.loc 2 1935 5
	.loc 2 1935 11 is_stmt 0
	li	a5,32
	.loc 2 1937 5
	lui	a4,%hi(.LC7)
	.loc 2 1935 11
	sw	a5,0(s4)
	.loc 2 1937 5 is_stmt 1
	li	a6,32
	mv	a5,s2
	addi	a2,s3,%lo(.LC3)
	mv	a0,s1
	addi	a4,a4,%lo(.LC7)
	li	a3,1937
	li	a1,3
	call	mbedtls_debug_print_buf
.LVL131:
	.loc 2 1938 5
	lui	a4,%hi(.LC8)
	addi	a2,s3,%lo(.LC3)
	mv	a0,s1
	addi	a4,a4,%lo(.LC8)
	li	a3,1938
	li	a1,2
	call	mbedtls_debug_print_msg
.LVL132:
	.loc 2 1940 5
	addi	a0,s0,-224
	call	mbedtls_sha256_free
.LVL133:
	.loc 2 1942 5
	.loc 2 1943 1 is_stmt 0
	lw	ra,220(sp)
	.cfi_restore 1
	lw	s0,216(sp)
	.cfi_restore 8
	.cfi_def_cfa 2, 224
	lw	s1,212(sp)
	.cfi_restore 9
.LVL134:
	lw	s2,208(sp)
	.cfi_restore 18
.LVL135:
	lw	s3,204(sp)
	.cfi_restore 19
	lw	s4,200(sp)
	.cfi_restore 20
.LVL136:
	addi	sp,sp,224
	.cfi_def_cfa_offset 0
	jr	ra
	.cfi_endproc
.LFE43:
	.size	ssl_calc_verify_tls_sha256, .-ssl_calc_verify_tls_sha256
	.section	.rodata.ssl_calc_finished_tls_sha384.str1.4,"aMS",@progbits,1
	.align	2
.LC9:
	.string	"=> calc  finished tls sha384"
	.align	2
.LC10:
	.string	"finished sha512 state"
	.section	.text.ssl_calc_finished_tls_sha384,"ax",@progbits
	.align	1
	.type	ssl_calc_finished_tls_sha384, @function
ssl_calc_finished_tls_sha384:
.LFB61:
	.loc 2 3357 1 is_stmt 1
	.cfi_startproc
.LVL137:
	.loc 2 3358 5
	.loc 2 3359 5
	.loc 2 3360 5
	.loc 2 3366 5
	.loc 2 3369 5
	.loc 2 3357 1 is_stmt 0
	addi	sp,sp,-304
	.cfi_def_cfa_offset 304
	sw	s0,296(sp)
	sw	s1,292(sp)
	sw	s5,276(sp)
	sw	ra,300(sp)
	sw	s2,288(sp)
	sw	s3,284(sp)
	sw	s4,280(sp)
	sw	s6,272(sp)
	.cfi_offset 8, -8
	.cfi_offset 9, -12
	.cfi_offset 21, -28
	.cfi_offset 1, -4
	.cfi_offset 18, -16
	.cfi_offset 19, -20
	.cfi_offset 20, -24
	.cfi_offset 22, -32
	addi	s0,sp,304
	.cfi_def_cfa 8, 0
	.loc 2 3369 26
	lw	s6,52(a0)
.LVL138:
	.loc 2 3370 5 is_stmt 1
	.loc 2 3357 1 is_stmt 0
	mv	s1,a0
	mv	s5,a1
	.loc 2 3370 7
	bne	s6,zero,.L64
	.loc 2 3371 9 is_stmt 1
	.loc 2 3371 17 is_stmt 0
	lw	s6,48(a0)
.LVL139:
.L64:
	.loc 2 3373 5 is_stmt 1
	.loc 2 3373 12 is_stmt 0
	beq	a2,zero,.L66
	lui	s2,%hi(.LC1)
	addi	s2,s2,%lo(.LC1)
.L65:
.LVL140:
	.loc 2 3397 5 is_stmt 1 discriminator 4
	addi	a0,s0,-248
.LVL141:
	call	mbedtls_sha512_init
.LVL142:
	.loc 2 3399 5 discriminator 4
	li	s4,4096
	lui	s3,%hi(.LC3)
	lui	a4,%hi(.LC9)
	addi	a3,s4,-697
	addi	a2,s3,%lo(.LC3)
	addi	a4,a4,%lo(.LC9)
	mv	a0,s1
	li	a1,2
	call	mbedtls_debug_print_msg
.LVL143:
	.loc 2 3401 5 discriminator 4
	.loc 2 3401 36 is_stmt 0 discriminator 4
	lw	a1,56(s1)
	.loc 2 3401 5 discriminator 4
	addi	a0,s0,-248
	addi	a1,a1,608
	call	mbedtls_sha512_clone
.LVL144:
	.loc 2 3410 5 is_stmt 1 discriminator 4
	lui	a4,%hi(.LC10)
	addi	a5,s0,-232
	addi	a3,s4,-686
	addi	a2,s3,%lo(.LC3)
	li	a6,64
	addi	a4,a4,%lo(.LC10)
	mv	a0,s1
	li	a1,4
	call	mbedtls_debug_print_buf
.LVL145:
	.loc 2 3422 5 discriminator 4
	addi	a1,s0,-296
	addi	a0,s0,-248
	call	mbedtls_sha512_finish_ret
.LVL146:
	.loc 2 3427 5 discriminator 4
	addi	a0,s0,-248
	call	mbedtls_sha512_free
.LVL147:
	.loc 2 3430 5 discriminator 4
	.loc 2 3430 19 is_stmt 0 discriminator 4
	lw	a5,56(s1)
	.loc 2 3430 5 discriminator 4
	addi	a3,s0,-296
	mv	a2,s2
	lw	a7,36(a5)
	li	a6,12
	mv	a5,s5
	li	a4,48
	li	a1,48
	addi	a0,s6,48
	jalr	a7
.LVL148:
	.loc 2 3433 5 is_stmt 1 discriminator 4
	lui	a4,%hi(.LC4)
	mv	a5,s5
	addi	a3,s4,-663
	addi	a2,s3,%lo(.LC3)
	li	a6,12
	addi	a4,a4,%lo(.LC4)
	mv	a0,s1
	li	a1,3
	call	mbedtls_debug_print_buf
.LVL149:
	.loc 2 3435 5 discriminator 4
	addi	a0,s0,-296
	li	a1,48
	call	mbedtls_platform_zeroize
.LVL150:
	.loc 2 3437 5 discriminator 4
	lui	a4,%hi(.LC5)
	addi	a3,s4,-659
	addi	a2,s3,%lo(.LC3)
	mv	a0,s1
	addi	a4,a4,%lo(.LC5)
	li	a1,2
	call	mbedtls_debug_print_msg
.LVL151:
	.loc 2 3438 1 is_stmt 0 discriminator 4
	lw	ra,300(sp)
	.cfi_remember_state
	.cfi_restore 1
	lw	s0,296(sp)
	.cfi_restore 8
	.cfi_def_cfa 2, 304
	lw	s1,292(sp)
	.cfi_restore 9
.LVL152:
	lw	s2,288(sp)
	.cfi_restore 18
.LVL153:
	lw	s3,284(sp)
	.cfi_restore 19
	lw	s4,280(sp)
	.cfi_restore 20
	lw	s5,276(sp)
	.cfi_restore 21
.LVL154:
	lw	s6,272(sp)
	.cfi_restore 22
.LVL155:
	addi	sp,sp,304
	.cfi_def_cfa_offset 0
	jr	ra
.LVL156:
.L66:
	.cfi_restore_state
	.loc 2 3373 12
	lui	s2,%hi(.LC0)
	addi	s2,s2,%lo(.LC0)
	j	.L65
	.cfi_endproc
.LFE61:
	.size	ssl_calc_finished_tls_sha384, .-ssl_calc_finished_tls_sha384
	.section	.rodata.ssl_calc_verify_tls_sha384.str1.4,"aMS",@progbits,1
	.align	2
.LC11:
	.string	"=> calc verify sha384"
	.section	.text.ssl_calc_verify_tls_sha384,"ax",@progbits
	.align	1
	.type	ssl_calc_verify_tls_sha384, @function
ssl_calc_verify_tls_sha384:
.LFB44:
	.loc 2 1950 1 is_stmt 1
	.cfi_startproc
.LVL157:
	.loc 2 1975 5
	.loc 2 1977 5
	.loc 2 1950 1 is_stmt 0
	addi	sp,sp,-256
	.cfi_def_cfa_offset 256
	sw	ra,252(sp)
	sw	s0,248(sp)
	sw	s1,244(sp)
	.cfi_offset 1, -4
	.cfi_offset 8, -8
	.cfi_offset 9, -12
	addi	s0,sp,256
	.cfi_def_cfa 8, 0
	sw	s2,240(sp)
	sw	s3,236(sp)
	sw	s4,232(sp)
	.cfi_offset 18, -16
	.cfi_offset 19, -20
	.cfi_offset 20, -24
	.loc 2 1950 1
	mv	s1,a0
	.loc 2 1977 5
	addi	a0,s0,-248
.LVL158:
	.loc 2 1950 1
	mv	s2,a1
	mv	s4,a2
	.loc 2 1977 5
	call	mbedtls_sha512_init
.LVL159:
	.loc 2 1979 5 is_stmt 1
	lui	s3,%hi(.LC3)
	lui	a4,%hi(.LC11)
	addi	a2,s3,%lo(.LC3)
	addi	a4,a4,%lo(.LC11)
	li	a3,1979
	mv	a0,s1
	li	a1,2
	call	mbedtls_debug_print_msg
.LVL160:
	.loc 2 1981 5
	.loc 2 1981 36 is_stmt 0
	lw	a1,56(s1)
	.loc 2 1981 5
	addi	a0,s0,-248
	addi	a1,a1,608
	call	mbedtls_sha512_clone
.LVL161:
	.loc 2 1982 5 is_stmt 1
	mv	a1,s2
	addi	a0,s0,-248
	call	mbedtls_sha512_finish_ret
.LVL162:
	.loc 2 1984 5
	.loc 2 1984 11 is_stmt 0
	li	a5,48
	.loc 2 1986 5
	lui	a4,%hi(.LC7)
	.loc 2 1984 11
	sw	a5,0(s4)
	.loc 2 1986 5 is_stmt 1
	li	a6,48
	mv	a5,s2
	addi	a2,s3,%lo(.LC3)
	mv	a0,s1
	addi	a4,a4,%lo(.LC7)
	li	a3,1986
	li	a1,3
	call	mbedtls_debug_print_buf
.LVL163:
	.loc 2 1987 5
	lui	a4,%hi(.LC8)
	addi	a2,s3,%lo(.LC3)
	mv	a0,s1
	addi	a4,a4,%lo(.LC8)
	li	a3,1987
	li	a1,2
	call	mbedtls_debug_print_msg
.LVL164:
	.loc 2 1989 5
	addi	a0,s0,-248
	call	mbedtls_sha512_free
.LVL165:
	.loc 2 1991 5
	.loc 2 1992 1 is_stmt 0
	lw	ra,252(sp)
	.cfi_restore 1
	lw	s0,248(sp)
	.cfi_restore 8
	.cfi_def_cfa 2, 256
	lw	s1,244(sp)
	.cfi_restore 9
.LVL166:
	lw	s2,240(sp)
	.cfi_restore 18
.LVL167:
	lw	s3,236(sp)
	.cfi_restore 19
	lw	s4,232(sp)
	.cfi_restore 20
.LVL168:
	addi	sp,sp,256
	.cfi_def_cfa_offset 0
	jr	ra
	.cfi_endproc
.LFE44:
	.size	ssl_calc_verify_tls_sha384, .-ssl_calc_verify_tls_sha384
	.section	.text.ssl_update_checksum_sha256,"ax",@progbits
	.align	1
	.type	ssl_update_checksum_sha256, @function
ssl_update_checksum_sha256:
.LFB58:
	.loc 2 3110 1 is_stmt 1
	.cfi_startproc
.LVL169:
	.loc 2 3114 5
	.loc 2 3110 1 is_stmt 0
	addi	sp,sp,-16
	.cfi_def_cfa_offset 16
	sw	s0,12(sp)
	.cfi_offset 8, -4
	addi	s0,sp,16
	.cfi_def_cfa 8, 0
	.loc 2 3114 5
	lw	a0,56(a0)
.LVL170:
	.loc 2 3116 1
	lw	s0,12(sp)
	.cfi_restore 8
	.cfi_def_cfa 2, 16
	.loc 2 3114 5
	addi	a0,a0,416
	.loc 2 3116 1
	addi	sp,sp,16
	.cfi_def_cfa_offset 0
	.loc 2 3114 5
	tail	mbedtls_sha256_update_ret
.LVL171:
	.cfi_endproc
.LFE58:
	.size	ssl_update_checksum_sha256, .-ssl_update_checksum_sha256
	.section	.text.ssl_update_checksum_sha384,"ax",@progbits
	.align	1
	.type	ssl_update_checksum_sha384, @function
ssl_update_checksum_sha384:
.LFB59:
	.loc 2 3122 1 is_stmt 1
	.cfi_startproc
.LVL172:
	.loc 2 3126 5
	.loc 2 3122 1 is_stmt 0
	addi	sp,sp,-16
	.cfi_def_cfa_offset 16
	sw	s0,12(sp)
	.cfi_offset 8, -4
	addi	s0,sp,16
	.cfi_def_cfa 8, 0
	.loc 2 3126 5
	lw	a0,56(a0)
.LVL173:
	.loc 2 3128 1
	lw	s0,12(sp)
	.cfi_restore 8
	.cfi_def_cfa 2, 16
	.loc 2 3126 5
	addi	a0,a0,608
	.loc 2 3128 1
	addi	sp,sp,16
	.cfi_def_cfa_offset 0
	.loc 2 3126 5
	tail	mbedtls_sha512_update_ret
.LVL174:
	.cfi_endproc
.LFE59:
	.size	ssl_update_checksum_sha384, .-ssl_update_checksum_sha384
	.section	.text.ssl_update_checksum_start,"ax",@progbits
	.align	1
	.type	ssl_update_checksum_start, @function
ssl_update_checksum_start:
.LFB57:
	.loc 2 3072 1 is_stmt 1
	.cfi_startproc
.LVL175:
	.loc 2 3083 5
	.loc 2 3072 1 is_stmt 0
	addi	sp,sp,-32
	.cfi_def_cfa_offset 32
	sw	s0,24(sp)
	sw	s1,20(sp)
	sw	s2,16(sp)
	sw	s3,12(sp)
	sw	ra,28(sp)
	.cfi_offset 8, -8
	.cfi_offset 9, -12
	.cfi_offset 18, -16
	.cfi_offset 19, -20
	.cfi_offset 1, -4
	addi	s0,sp,32
	.cfi_def_cfa 8, 0
	.loc 2 3072 1
	mv	s1,a0
	.loc 2 3083 5
	lw	a0,56(a0)
.LVL176:
	.loc 2 3072 1
	mv	s2,a1
	mv	s3,a2
	.loc 2 3083 5
	addi	a0,a0,416
	call	mbedtls_sha256_update_ret
.LVL177:
	.loc 2 3090 5 is_stmt 1
	lw	a0,56(s1)
	.loc 2 3094 1 is_stmt 0
	lw	s0,24(sp)
	.cfi_restore 8
	.cfi_def_cfa 2, 32
	lw	ra,28(sp)
	.cfi_restore 1
	lw	s1,20(sp)
	.cfi_restore 9
.LVL178:
	.loc 2 3090 5
	mv	a2,s3
	mv	a1,s2
	.loc 2 3094 1
	lw	s3,12(sp)
	.cfi_restore 19
.LVL179:
	lw	s2,16(sp)
	.cfi_restore 18
.LVL180:
	.loc 2 3090 5
	addi	a0,a0,608
	.loc 2 3094 1
	addi	sp,sp,32
	.cfi_def_cfa_offset 0
	.loc 2 3090 5
	tail	mbedtls_sha512_update_ret
.LVL181:
	.cfi_endproc
.LFE57:
	.size	ssl_update_checksum_start, .-ssl_update_checksum_start
	.section	.text.mbedtls_ssl_tls_prf,"ax",@progbits
	.align	1
	.globl	mbedtls_ssl_tls_prf
	.type	mbedtls_ssl_tls_prf, @function
mbedtls_ssl_tls_prf:
.LFB38:
	.loc 2 898 1 is_stmt 1
	.cfi_startproc
.LVL182:
	.loc 2 899 5
	.loc 2 901 5
	.loc 2 898 1 is_stmt 0
	addi	sp,sp,-16
	.cfi_def_cfa_offset 16
	sw	s0,12(sp)
	.cfi_offset 8, -4
	addi	s0,sp,16
	.cfi_def_cfa 8, 0
	mv	t1,a0
	.loc 2 898 1
	mv	a0,a1
.LVL183:
	mv	a1,a2
.LVL184:
	mv	a2,a3
.LVL185:
	mv	a3,a4
.LVL186:
	mv	a4,a5
.LVL187:
	mv	a5,a6
.LVL188:
	mv	a6,a7
.LVL189:
	.loc 2 901 5
	li	a7,3
.LVL190:
	beq	t1,a7,.L79
	li	a7,4
	bne	t1,a7,.L78
	lui	t1,%hi(tls_prf_sha256)
.LVL191:
	addi	t1,t1,%lo(tls_prf_sha256)
.L77:
.LVL192:
	.loc 2 930 5 is_stmt 1
	.loc 2 931 1 is_stmt 0
	lw	s0,12(sp)
	.cfi_remember_state
	.cfi_restore 8
	.cfi_def_cfa 2, 16
	addi	sp,sp,16
	.cfi_def_cfa_offset 0
	.loc 2 930 13
	jr	t1
.LVL193:
.L79:
	.cfi_restore_state
	.loc 2 917 21
	lui	t1,%hi(tls_prf_sha384)
.LVL194:
	addi	t1,t1,%lo(tls_prf_sha384)
	j	.L77
.LVL195:
.L78:
	.loc 2 931 1
	lw	s0,12(sp)
	.cfi_restore 8
	.cfi_def_cfa 2, 16
	li	a0,-28672
.LVL196:
	addi	a0,a0,-128
	addi	sp,sp,16
	.cfi_def_cfa_offset 0
	jr	ra
	.cfi_endproc
.LFE38:
	.size	mbedtls_ssl_tls_prf, .-mbedtls_ssl_tls_prf
	.section	.rodata.mbedtls_ssl_derive_keys.str1.4,"aMS",@progbits,1
	.align	2
.LC12:
	.string	"=> derive keys"
	.align	2
.LC13:
	.string	"ssl_set_handshake_prfs"
	.align	2
.LC14:
	.string	"no premaster (session resumed)"
	.align	2
.LC15:
	.string	"master secret"
	.align	2
.LC16:
	.string	"prf"
	.align	2
.LC17:
	.string	"ssl_compute_master"
	.align	2
.LC18:
	.string	"premaster secret"
	.align	2
.LC19:
	.string	"ciphersuite info for %d not found"
	.align	2
.LC20:
	.string	"cipher info for %u not found"
	.align	2
.LC21:
	.string	"mbedtls_md info for %u not found"
	.align	2
.LC22:
	.string	"key expansion"
	.align	2
.LC23:
	.string	"ciphersuite = %s"
	.align	2
.LC24:
	.string	"random bytes"
	.align	2
.LC25:
	.string	"key block"
	.align	2
.LC26:
	.string	"mbedtls_md_setup"
	.align	2
.LC27:
	.string	"should never happen"
	.align	2
.LC28:
	.string	"keylen: %u, minlen: %u, ivlen: %u, maclen: %u"
	.align	2
.LC29:
	.string	"mbedtls_cipher_setup"
	.align	2
.LC30:
	.string	"mbedtls_cipher_setkey"
	.align	2
.LC31:
	.string	"mbedtls_cipher_set_padding_mode"
	.align	2
.LC32:
	.string	"ssl_populate_transform"
	.align	2
.LC33:
	.string	"<= derive keys"
	.section	.text.mbedtls_ssl_derive_keys,"ax",@progbits
	.align	1
	.globl	mbedtls_ssl_derive_keys
	.type	mbedtls_ssl_derive_keys, @function
mbedtls_ssl_derive_keys:
.LFB42:
	.loc 2 1723 1 is_stmt 1
	.cfi_startproc
.LVL197:
	.loc 2 1724 5
	.loc 2 1725 5
	.loc 2 1723 1 is_stmt 0
	addi	sp,sp,-352
	.cfi_def_cfa_offset 352
	sw	s0,344(sp)
	sw	s1,340(sp)
	sw	s2,336(sp)
	sw	ra,348(sp)
	sw	s3,332(sp)
	sw	s4,328(sp)
	sw	s5,324(sp)
	sw	s6,320(sp)
	sw	s7,316(sp)
	sw	s8,312(sp)
	sw	s9,308(sp)
	sw	s10,304(sp)
	sw	s11,300(sp)
	.cfi_offset 8, -8
	.cfi_offset 9, -12
	.cfi_offset 18, -16
	.cfi_offset 1, -4
	.cfi_offset 19, -20
	.cfi_offset 20, -24
	.cfi_offset 21, -28
	.cfi_offset 22, -32
	.cfi_offset 23, -36
	.cfi_offset 24, -40
	.cfi_offset 25, -44
	.cfi_offset 26, -48
	.cfi_offset 27, -52
	addi	s0,sp,352
	.cfi_def_cfa 8, 0
	.loc 2 1725 45
	lw	a5,56(a0)
	.loc 2 1728 5
	lui	a4,%hi(.LC12)
	lui	s2,%hi(.LC3)
	addi	a4,a4,%lo(.LC12)
	li	a3,1728
	addi	a2,s2,%lo(.LC3)
	li	a1,2
	.loc 2 1725 45
	lw	s4,20(a5)
.LVL198:
	.loc 2 1728 5 is_stmt 1
	.loc 2 1723 1 is_stmt 0
	mv	s1,a0
	.loc 2 1728 5
	call	mbedtls_debug_print_msg
.LVL199:
	.loc 2 1731 5 is_stmt 1
.LBB40:
.LBB41:
	.loc 2 1554 5
	.loc 2 1554 7 is_stmt 0
	lw	a4,12(s1)
	li	a5,3
	bne	a4,a5,.L82
	.loc 2 1554 24
	lw	a3,12(s4)
	li	a4,7
.LBE41:
.LBE40:
	.loc 2 1731 11
	lw	a5,56(s1)
	mv	s3,s2
.LBB45:
.LBB42:
	.loc 2 1554 24
	bne	a3,a4,.L83
	.loc 2 1557 9 is_stmt 1
	.loc 2 1557 28 is_stmt 0
	lui	a4,%hi(tls_prf_sha384)
	addi	a4,a4,%lo(tls_prf_sha384)
	sw	a4,36(a5)
.LVL200:
	.loc 2 1558 9 is_stmt 1
	.loc 2 1558 32 is_stmt 0
	lui	a4,%hi(ssl_calc_verify_tls_sha384)
	addi	a4,a4,%lo(ssl_calc_verify_tls_sha384)
	sw	a4,28(a5)
	.loc 2 1559 9 is_stmt 1
	.loc 2 1559 34 is_stmt 0
	lui	a4,%hi(ssl_calc_finished_tls_sha384)
	addi	a4,a4,%lo(ssl_calc_finished_tls_sha384)
.L128:
	.loc 2 1568 34
	sw	a4,32(a5)
.LVL201:
.LBE42:
.LBE45:
	.loc 2 1734 5 is_stmt 1
	.loc 2 1741 5
	.loc 2 1741 11 is_stmt 0
	lw	s2,56(s1)
	.loc 2 1742 53
	lw	a5,52(s1)
.LBB46:
.LBB47:
	.loc 2 1633 7
	lbu	a4,2(s2)
.LBE47:
.LBE46:
	.loc 2 1742 53
	addi	a5,a5,48
.LVL202:
.LBB51:
.LBB48:
	.loc 2 1599 5 is_stmt 1
	.loc 2 1603 5
	.loc 2 1613 5
	.loc 2 1622 5
	.loc 2 1622 26 is_stmt 0
	addi	a3,s2,824
.LVL203:
	.loc 2 1623 5 is_stmt 1
	.loc 2 1633 5
	.loc 2 1633 7 is_stmt 0
	beq	a4,zero,.L86
	.loc 2 1635 9 is_stmt 1
	lui	a4,%hi(.LC14)
	addi	a4,a4,%lo(.LC14)
	li	a3,1635
.LVL204:
	addi	a2,s3,%lo(.LC3)
	li	a1,3
	mv	a0,s1
	call	mbedtls_debug_print_msg
.LVL205:
	.loc 2 1636 9
.LBE48:
.LBE51:
	.loc 2 1744 5
.L87:
.LBB52:
	.loc 2 1754 9
	.loc 2 1755 9
	.loc 2 1755 36 is_stmt 0
	lw	a1,56(s1)
	.loc 2 1755 9
	li	a2,64
	addi	a0,s0,-320
	addi	a1,a1,824
	call	memcpy
.LVL206:
	.loc 2 1756 9 is_stmt 1
	.loc 2 1756 31 is_stmt 0
	lw	a0,56(s1)
	.loc 2 1756 9
	li	a2,32
	addi	a1,s0,-288
	addi	a0,a0,824
	call	memcpy
.LVL207:
	.loc 2 1757 9 is_stmt 1
	lw	a0,56(s1)
	li	a2,32
	addi	a1,s0,-320
	addi	a0,a0,856
	call	memcpy
.LVL208:
	.loc 2 1758 9
	li	a1,64
	addi	a0,s0,-320
	call	mbedtls_platform_zeroize
.LVL209:
.LBE52:
	.loc 2 1762 5
	.loc 2 1763 38 is_stmt 0
	lw	s8,52(s1)
	.loc 2 1779 44
	lw	a5,0(s1)
	.loc 2 1776 38
	lw	s7,56(s1)
	.loc 2 1762 11
	lw	s10,4(s8)
	lw	s2,72(s1)
	lw	s9,12(s1)
	.loc 2 1779 44
	lbu	a5,4(a5)
	.loc 2 1776 49
	lw	s11,36(s7)
.LBB53:
.LBB54:
	.loc 2 1024 24
	mv	a0,s10
	.loc 2 1015 26
	sw	s9,204(s2)
.LBE54:
.LBE53:
	.loc 2 1779 44
	sw	a5,-324(s0)
.LVL210:
.LBB63:
.LBB56:
	.loc 2 1024 24
	call	mbedtls_ssl_ciphersuite_from_id
.LVL211:
.LBE56:
.LBE63:
	.loc 2 1764 57
	addi	s8,s8,48
.LVL212:
	.loc 2 1777 49
	addi	s7,s7,824
.LVL213:
.LBB64:
.LBB57:
	.loc 2 984 5 is_stmt 1
	.loc 2 988 5
	.loc 2 989 5
	.loc 2 990 5
	.loc 2 991 5
	.loc 2 992 5
	.loc 2 993 5
	.loc 2 994 5
	.loc 2 995 5
	.loc 2 996 5
	.loc 2 997 5
	.loc 2 998 5
	.loc 2 1015 5
	.loc 2 1024 5
	.loc 2 1024 24 is_stmt 0
	mv	s5,a0
.LVL214:
	.loc 2 1025 5 is_stmt 1
	.loc 2 1025 7 is_stmt 0
	bne	a0,zero,.L89
	.loc 2 1027 9 is_stmt 1
	lui	a4,%hi(.LC19)
	mv	a5,s10
	addi	a4,a4,%lo(.LC19)
	li	a3,1027
.LVL215:
.L131:
	.loc 2 1043 9 is_stmt 0
	mv	a0,s1
	addi	a2,s3,%lo(.LC3)
	li	a1,1
	call	mbedtls_debug_print_msg
.LVL216:
	.loc 2 1045 9 is_stmt 1
.LBE57:
.LBE64:
	.loc 2 1781 5
.LBB65:
.LBB58:
	.loc 2 1045 15 is_stmt 0
	li	a0,-28672
	addi	s11,a0,-256
.LVL217:
.L90:
.LBE58:
.LBE65:
	.loc 2 1783 9 is_stmt 1
	lui	a4,%hi(.LC32)
	mv	a5,s11
	addi	a4,a4,%lo(.LC32)
	li	a3,1783
	j	.L132
.LVL218:
.L83:
.LBB66:
.LBB43:
	.loc 2 1564 5
	.loc 2 1566 9
	.loc 2 1566 28 is_stmt 0
	lui	a4,%hi(tls_prf_sha256)
	addi	a4,a4,%lo(tls_prf_sha256)
	sw	a4,36(a5)
.LVL219:
	.loc 2 1567 9 is_stmt 1
	.loc 2 1567 32 is_stmt 0
	lui	a4,%hi(ssl_calc_verify_tls_sha256)
	addi	a4,a4,%lo(ssl_calc_verify_tls_sha256)
	sw	a4,28(a5)
	.loc 2 1568 9 is_stmt 1
	.loc 2 1568 34 is_stmt 0
	lui	a4,%hi(ssl_calc_finished_tls_sha256)
	addi	a4,a4,%lo(ssl_calc_finished_tls_sha256)
	j	.L128
.LVL220:
.L82:
	.loc 2 1564 5 is_stmt 1
.LBE43:
.LBE66:
	.loc 2 1734 5
	.loc 2 1736 9
	li	s11,-28672
	lui	a4,%hi(.LC13)
	addi	a5,s11,1024
	addi	a4,a4,%lo(.LC13)
	li	a3,1736
	addi	a2,s2,%lo(.LC3)
	li	a1,1
	mv	a0,s1
	call	mbedtls_debug_print_ret
.LVL221:
	.loc 2 1737 9
.LBB67:
.LBB44:
	.loc 2 1574 15 is_stmt 0
	addi	s11,s11,1024
.LVL222:
.L81:
.LBE44:
.LBE67:
	.loc 2 1810 1
	lw	ra,348(sp)
	.cfi_remember_state
	.cfi_restore 1
	lw	s0,344(sp)
	.cfi_restore 8
	.cfi_def_cfa 2, 352
	lw	s1,340(sp)
	.cfi_restore 9
.LVL223:
	lw	s2,336(sp)
	.cfi_restore 18
	lw	s3,332(sp)
	.cfi_restore 19
	lw	s4,328(sp)
	.cfi_restore 20
	lw	s5,324(sp)
	.cfi_restore 21
	lw	s6,320(sp)
	.cfi_restore 22
	lw	s7,316(sp)
	.cfi_restore 23
	lw	s8,312(sp)
	.cfi_restore 24
	lw	s9,308(sp)
	.cfi_restore 25
	lw	s10,304(sp)
	.cfi_restore 26
	mv	a0,s11
	lw	s11,300(sp)
	.cfi_restore 27
	addi	sp,sp,352
	.cfi_def_cfa_offset 0
	jr	ra
.LVL224:
.L86:
	.cfi_restore_state
.LBB68:
.LBB49:
	.loc 2 1701 9 is_stmt 1
	.loc 2 1701 15 is_stmt 0
	lw	a7,36(s2)
	lw	a1,16(s2)
	.loc 2 1701 44
	addi	s4,s2,888
.LVL225:
	.loc 2 1701 15
	lui	a2,%hi(.LC15)
	li	a6,48
	li	a4,64
	addi	a2,a2,%lo(.LC15)
	mv	a0,s4
	jalr	a7
.LVL226:
	mv	s11,a0
.LVL227:
	.loc 2 1705 9 is_stmt 1
	.loc 2 1705 11 is_stmt 0
	beq	a0,zero,.L88
	.loc 2 1707 13 is_stmt 1
	lui	a4,%hi(.LC16)
	mv	a5,a0
	addi	a4,a4,%lo(.LC16)
	li	a3,1707
	addi	a2,s3,%lo(.LC3)
	li	a1,1
	mv	a0,s1
.LVL228:
	call	mbedtls_debug_print_ret
.LVL229:
	.loc 2 1708 13
.LBE49:
.LBE68:
	.loc 2 1744 5
	.loc 2 1746 9
	lui	a4,%hi(.LC17)
	mv	a5,s11
	addi	a4,a4,%lo(.LC17)
	li	a3,1746
.LVL230:
.L132:
	.loc 2 1783 9 is_stmt 0
	addi	a2,s3,%lo(.LC3)
	li	a1,1
	mv	a0,s1
	call	mbedtls_debug_print_ret
.LVL231:
	.loc 2 1784 9 is_stmt 1
	.loc 2 1784 15 is_stmt 0
	j	.L81
.LVL232:
.L88:
.LBB69:
.LBB50:
	.loc 2 1711 9 is_stmt 1
	lw	a6,16(s2)
	lui	a4,%hi(.LC18)
	mv	a0,s1
.LVL233:
	mv	a5,s4
	addi	a4,a4,%lo(.LC18)
	li	a3,1711
	addi	a2,s3,%lo(.LC3)
	li	a1,3
	call	mbedtls_debug_print_buf
.LVL234:
	.loc 2 1715 9
	li	a1,1024
	mv	a0,s4
	call	mbedtls_platform_zeroize
.LVL235:
	.loc 2 1719 5
.LBE50:
.LBE69:
	.loc 2 1744 5
	j	.L87
.LVL236:
.L89:
.LBB70:
.LBB59:
	.loc 2 1032 5
	.loc 2 1032 19 is_stmt 0
	lw	a0,8(a0)
.LVL237:
	call	mbedtls_cipher_info_from_type
.LVL238:
	mv	s4,a0
.LVL239:
	.loc 2 1033 5 is_stmt 1
	.loc 2 1033 7 is_stmt 0
	bne	a0,zero,.L91
	.loc 2 1035 9 is_stmt 1
	lui	a4,%hi(.LC20)
	lw	a5,8(s5)
	addi	a4,a4,%lo(.LC20)
	li	a3,1035
	j	.L131
.L91:
	.loc 2 1040 5
	.loc 2 1040 15 is_stmt 0
	lw	a0,12(s5)
.LVL240:
	call	mbedtls_md_info_from_type
.LVL241:
	mv	s6,a0
.LVL242:
	.loc 2 1041 5 is_stmt 1
	.loc 2 1041 7 is_stmt 0
	bne	a0,zero,.L92
	.loc 2 1043 9 is_stmt 1
	lui	a4,%hi(.LC21)
	lw	a5,12(s5)
	addi	a4,a4,%lo(.LC21)
	li	a3,1043
	j	.L131
.L92:
	.loc 2 1071 5
	.loc 2 1071 11 is_stmt 0
	lui	a2,%hi(.LC22)
	li	a6,256
	addi	a5,s0,-320
	li	a4,64
	mv	a3,s7
	addi	a2,a2,%lo(.LC22)
	li	a1,48
	mv	a0,s8
.LVL243:
	jalr	s11
.LVL244:
	mv	s11,a0
.LVL245:
	.loc 2 1072 5 is_stmt 1
	.loc 2 1072 7 is_stmt 0
	beq	a0,zero,.L93
	.loc 2 1074 9 is_stmt 1
	lui	a4,%hi(.LC16)
	mv	a5,a0
	addi	a4,a4,%lo(.LC16)
	li	a3,1074
	addi	a2,s3,%lo(.LC3)
	li	a1,1
	mv	a0,s1
.LVL246:
	call	mbedtls_debug_print_ret
.LVL247:
	.loc 2 1075 9
.LBE59:
.LBE70:
	.loc 2 1781 5
	j	.L90
.LVL248:
.L93:
.LBB71:
.LBB60:
	.loc 2 1078 5
	mv	a0,s10
.LVL249:
	call	mbedtls_ssl_get_ciphersuite_name
.LVL250:
	lui	a4,%hi(.LC23)
	mv	a5,a0
	addi	a4,a4,%lo(.LC23)
	li	a3,1078
	addi	a2,s3,%lo(.LC3)
	li	a1,3
	mv	a0,s1
	call	mbedtls_debug_print_msg
.LVL251:
	.loc 2 1080 5
	lui	a4,%hi(.LC15)
	li	a6,48
	mv	a5,s8
	addi	a4,a4,%lo(.LC15)
	li	a3,1080
	addi	a2,s3,%lo(.LC3)
	li	a1,3
	mv	a0,s1
	call	mbedtls_debug_print_buf
.LVL252:
	.loc 2 1081 5
	lui	a4,%hi(.LC24)
	mv	a5,s7
	li	a6,64
	addi	a4,a4,%lo(.LC24)
	li	a3,1081
	addi	a2,s3,%lo(.LC3)
	li	a1,4
	mv	a0,s1
	call	mbedtls_debug_print_buf
.LVL253:
	.loc 2 1082 5
	lui	a4,%hi(.LC25)
	addi	a5,s0,-320
	addi	a4,a4,%lo(.LC25)
	li	a6,256
	li	a3,1082
	addi	a2,s3,%lo(.LC3)
	li	a1,4
	mv	a0,s1
	call	mbedtls_debug_print_buf
.LVL254:
	.loc 2 1088 5
	.loc 2 1093 20 is_stmt 0
	lw	a5,4(s4)
	.loc 2 1088 12
	lw	s7,8(s4)
.LVL255:
	.loc 2 1093 7
	li	a4,6
	.loc 2 1088 12
	srli	s7,s7,3
.LVL256:
	.loc 2 1093 5 is_stmt 1
	.loc 2 1093 7 is_stmt 0
	beq	a5,a4,.L94
	.loc 2 1093 47
	andi	a4,a5,-3
	li	a3,8
	bne	a4,a3,.L95
.L94:
.LBB55:
	.loc 2 1097 9 is_stmt 1
	.loc 2 1099 9
	.loc 2 1099 27 is_stmt 0
	sw	zero,12(s2)
	.loc 2 1100 9 is_stmt 1
	.loc 2 1101 9
	.loc 2 1102 48 is_stmt 0
	lbu	a4,36(s5)
	li	a5,8
	andi	a4,a4,2
	bne	a4,zero,.L96
	li	a5,16
.L96:
	.loc 2 1112 26
	li	a4,12
	.loc 2 1101 27
	sw	a5,16(s2)
	.loc 2 1112 9 is_stmt 1
	.loc 2 1112 26 is_stmt 0
	sw	a4,4(s2)
	.loc 2 1121 13 is_stmt 1
	.loc 2 1121 15 is_stmt 0
	lw	a2,4(s4)
	li	a3,10
	beq	a2,a3,.L97
	.loc 2 1124 40
	li	a4,4
.L97:
	.loc 2 1129 44
	addi	a5,a5,12
	sub	a5,a5,a4
	sw	a4,8(s2)
	.loc 2 1128 9 is_stmt 1
.LVL257:
	.loc 2 1129 9
	.loc 2 1129 27 is_stmt 0
	sw	a5,0(s2)
	.loc 2 1100 21
	li	s5,0
.LVL258:
.L98:
.LBE55:
	.loc 2 1224 5 is_stmt 1
	lw	a5,12(s2)
	lw	a7,4(s2)
	lw	a6,0(s2)
	lui	a4,%hi(.LC28)
	sw	a5,0(sp)
	addi	a4,a4,%lo(.LC28)
	mv	a5,s7
	li	a3,1224
	addi	a2,s3,%lo(.LC3)
	li	a1,3
	mv	a0,s1
	call	mbedtls_debug_print_msg
.LVL259:
	.loc 2 1234 5
	.loc 2 1234 7 is_stmt 0
	lw	a5,-324(s0)
	bne	a5,zero,.L106
	.loc 2 1236 9 is_stmt 1
	.loc 2 1245 34 is_stmt 0
	lw	a2,8(s2)
	.loc 2 1236 14
	addi	a5,s0,-320
	.loc 2 1236 37
	slli	s6,s5,1
.LVL260:
	.loc 2 1236 14
	add	s8,a5,s6
.LVL261:
	.loc 2 1237 9 is_stmt 1
	.loc 2 1237 41 is_stmt 0
	add	s6,s7,s6
	.loc 2 1237 14
	add	s6,a5,s6
.LVL262:
	.loc 2 1239 9 is_stmt 1
	.loc 2 1240 9
	.loc 2 1240 17 is_stmt 0
	add	s10,a5,s5
.LVL263:
	.loc 2 1245 9 is_stmt 1
	.loc 2 1246 52 is_stmt 0
	bne	a2,zero,.L107
	lw	a2,4(s2)
.L107:
.LVL264:
	.loc 2 1247 9 is_stmt 1
	add	a1,s6,s7
	addi	a0,s2,20
	sw	a2,-324(s0)
	call	memcpy
.LVL265:
	.loc 2 1248 9
	.loc 2 1248 50 is_stmt 0
	lw	a2,-324(s0)
	.loc 2 1248 9
	addi	a0,s2,36
	.loc 2 1239 17
	addi	s11,s0,-320
.LVL266:
	.loc 2 1248 50
	add	a1,s7,a2
	.loc 2 1248 9
	add	a1,s6,a1
	call	memcpy
.LVL267:
.L108:
	.loc 2 1297 5 is_stmt 1
	.loc 2 1297 7 is_stmt 0
	ble	s9,zero,.L111
	.loc 2 1301 9 is_stmt 1
	.loc 2 1301 11 is_stmt 0
	beq	s5,zero,.L112
	.loc 2 1303 13 is_stmt 1
	.loc 2 1303 19 is_stmt 0
	mv	a1,s11
	mv	a2,s5
	addi	a0,s2,52
	call	mbedtls_md_hmac_starts
.LVL268:
	mv	s11,a0
.LVL269:
	.loc 2 1305 13 is_stmt 1
	.loc 2 1305 15 is_stmt 0
	bne	a0,zero,.L103
	.loc 2 1307 13 is_stmt 1
	.loc 2 1307 19 is_stmt 0
	mv	a2,s5
	mv	a1,s10
	addi	a0,s2,64
.LVL270:
	call	mbedtls_md_hmac_starts
.LVL271:
	mv	s11,a0
.LVL272:
	.loc 2 1309 13 is_stmt 1
	.loc 2 1309 15 is_stmt 0
	bne	a0,zero,.L103
.LVL273:
.L112:
	.loc 2 1341 5 is_stmt 1
	.loc 2 1342 5
	.loc 2 1403 5
	.loc 2 1403 17 is_stmt 0
	addi	s5,s2,76
.LVL274:
	mv	a1,s4
	mv	a0,s5
	call	mbedtls_cipher_setup
.LVL275:
	mv	s11,a0
.LVL276:
	.loc 2 1403 7
	beq	a0,zero,.L113
	.loc 2 1406 9 is_stmt 1
	lui	a4,%hi(.LC29)
	mv	a5,a0
	addi	a4,a4,%lo(.LC29)
	li	a3,1406
	j	.L129
.LVL277:
.L95:
	.loc 2 1134 5
	.loc 2 1134 7 is_stmt 0
	li	a4,7
	beq	a5,a4,.L99
	.loc 2 1134 50
	li	a4,2
	bne	a5,a4,.L100
.L99:
	.loc 2 1138 9 is_stmt 1
	.loc 2 1138 21 is_stmt 0
	li	a2,1
	mv	a1,s6
	addi	a0,s2,52
	call	mbedtls_md_setup
.LVL278:
	mv	s11,a0
.LVL279:
	.loc 2 1138 11
	bne	a0,zero,.L101
	.loc 2 1139 21
	li	a2,1
	mv	a1,s6
	addi	a0,s2,64
.LVL280:
	call	mbedtls_md_setup
.LVL281:
	mv	s11,a0
.LVL282:
	.loc 2 1138 83
	beq	a0,zero,.L102
.L101:
	.loc 2 1141 13 is_stmt 1
	lui	a4,%hi(.LC26)
	mv	a5,s11
	addi	a4,a4,%lo(.LC26)
	li	a3,1141
.LVL283:
.L129:
	.loc 2 1482 13 is_stmt 0
	addi	a2,s3,%lo(.LC3)
	li	a1,1
	mv	a0,s1
.LVL284:
	call	mbedtls_debug_print_ret
.LVL285:
	.loc 2 1483 13 is_stmt 1
	j	.L103
.LVL286:
.L102:
	.loc 2 1146 9
	.loc 2 1146 23 is_stmt 0
	mv	a0,s6
.LVL287:
	call	mbedtls_md_get_size
.LVL288:
	.loc 2 1147 27
	sw	a0,12(s2)
	.loc 2 1169 39
	lw	a5,16(s4)
	.loc 2 1172 11
	li	a4,7
	.loc 2 1146 23
	mv	s5,a0
.LVL289:
	.loc 2 1147 9 is_stmt 1
	.loc 2 1169 9
	.loc 2 1169 26 is_stmt 0
	sw	a5,4(s2)
	.loc 2 1172 9 is_stmt 1
	.loc 2 1172 11 is_stmt 0
	lw	a3,4(s4)
	bne	a3,a4,.L104
	.loc 2 1173 13 is_stmt 1
	.loc 2 1173 31 is_stmt 0
	sw	a0,0(s2)
	j	.L98
.L104:
	.loc 2 1191 17 is_stmt 1
	.loc 2 1192 48 is_stmt 0
	lw	a3,24(s4)
	.loc 2 1203 15
	li	a2,1
	.loc 2 1192 35
	add	a4,a0,a3
	.loc 2 1193 55
	remu	a3,a0,a3
	.loc 2 1193 35
	sub	a4,a4,a3
	.loc 2 1191 35
	sw	a4,0(s2)
	.loc 2 1203 13 is_stmt 1
	.loc 2 1203 32 is_stmt 0
	addi	a3,s9,-2
	.loc 2 1203 15
	bgtu	a3,a2,.L105
	.loc 2 1206 17 is_stmt 1
	.loc 2 1206 35 is_stmt 0
	add	a5,a5,a4
	sw	a5,0(s2)
	j	.L98
.L105:
	.loc 2 1211 17 is_stmt 1
	lui	a4,%hi(.LC27)
	addi	a4,a4,%lo(.LC27)
	li	a3,1211
.LVL290:
.L130:
	.loc 2 1274 9 is_stmt 0
	mv	a0,s1
	addi	a2,s3,%lo(.LC3)
	li	a1,1
	call	mbedtls_debug_print_msg
.LVL291:
	.loc 2 1275 9 is_stmt 1
	.loc 2 1276 9
	.loc 2 1275 13 is_stmt 0
	li	a0,-28672
	addi	s11,a0,1024
.LVL292:
.L103:
	.loc 2 1510 5 is_stmt 1
	li	a1,256
	addi	a0,s0,-320
	call	mbedtls_platform_zeroize
.LVL293:
	.loc 2 1511 5
.LBE60:
.LBE71:
	.loc 2 1781 5
	.loc 2 1781 7 is_stmt 0
	bne	s11,zero,.L90
.LVL294:
	.loc 2 1788 5 is_stmt 1
	.loc 2 1788 45 is_stmt 0
	lw	a0,56(s1)
	.loc 2 1788 5
	li	a1,64
	addi	a0,a0,824
	call	mbedtls_platform_zeroize
.LVL295:
	.loc 2 1807 5 is_stmt 1
	lui	a4,%hi(.LC33)
	addi	a4,a4,%lo(.LC33)
	li	a3,1807
	addi	a2,s3,%lo(.LC3)
	li	a1,2
	mv	a0,s1
	call	mbedtls_debug_print_msg
.LVL296:
	.loc 2 1809 5
	.loc 2 1809 11 is_stmt 0
	j	.L81
.LVL297:
.L100:
.LBB72:
.LBB61:
	.loc 2 1220 9 is_stmt 1
	lui	a4,%hi(.LC27)
	mv	a0,s1
	addi	a4,a4,%lo(.LC27)
	li	a3,1220
	addi	a2,s3,%lo(.LC3)
	li	a1,1
	call	mbedtls_debug_print_msg
.LVL298:
	.loc 2 1221 9
.LBE61:
.LBE72:
	.loc 2 1781 5
.LBB73:
.LBB62:
	.loc 2 1221 15 is_stmt 0
	li	a0,-28672
	addi	s11,a0,1024
	j	.L90
.LVL299:
.L106:
	.loc 2 1254 5 is_stmt 1
	.loc 2 1254 7 is_stmt 0
	lw	a4,-324(s0)
	li	a5,1
	bne	a4,a5,.L109
	.loc 2 1256 9 is_stmt 1
	.loc 2 1265 34 is_stmt 0
	lw	a2,8(s2)
	.loc 2 1256 37
	slli	s6,s5,1
.LVL300:
	.loc 2 1256 14
	addi	a5,s0,-320
	.loc 2 1256 41
	add	s8,s7,s6
.LVL301:
	.loc 2 1256 14
	add	s8,a5,s8
.LVL302:
	.loc 2 1257 9 is_stmt 1
	.loc 2 1257 14 is_stmt 0
	add	s6,a5,s6
.LVL303:
	.loc 2 1259 9 is_stmt 1
	.loc 2 1259 17 is_stmt 0
	add	s11,a5,s5
.LVL304:
	.loc 2 1260 9 is_stmt 1
	.loc 2 1265 9
	.loc 2 1266 52 is_stmt 0
	bne	a2,zero,.L110
	lw	a2,4(s2)
.L110:
.LVL305:
	.loc 2 1267 9 is_stmt 1
	add	a1,s8,s7
	addi	a0,s2,36
	sw	a2,-324(s0)
	call	memcpy
.LVL306:
	.loc 2 1268 9
	.loc 2 1268 50 is_stmt 0
	lw	a2,-324(s0)
	.loc 2 1268 9
	addi	a0,s2,20
	.loc 2 1260 17
	addi	s10,s0,-320
.LVL307:
	.loc 2 1268 50
	add	a1,s7,a2
	.loc 2 1268 9
	add	a1,s8,a1
	call	memcpy
.LVL308:
	j	.L108
.LVL309:
.L109:
	.loc 2 1274 9 is_stmt 1
	lui	a4,%hi(.LC27)
	addi	a4,a4,%lo(.LC27)
	li	a3,1274
	j	.L130
.LVL310:
.L111:
	.loc 2 1316 9
	lui	a4,%hi(.LC27)
	addi	a4,a4,%lo(.LC27)
	li	a3,1316
	j	.L130
.LVL311:
.L113:
	.loc 2 1446 5
	.loc 2 1446 17 is_stmt 0
	addi	s2,s2,140
.LVL312:
	mv	a1,s4
	mv	a0,s2
.LVL313:
	call	mbedtls_cipher_setup
.LVL314:
	mv	s11,a0
.LVL315:
	.loc 2 1446 7
	beq	a0,zero,.L114
	.loc 2 1449 9 is_stmt 1
	lui	a4,%hi(.LC29)
	mv	a5,a0
	addi	a4,a4,%lo(.LC29)
	li	a3,1449
	j	.L129
.L114:
	.loc 2 1453 5
	.loc 2 1453 17 is_stmt 0
	lw	a2,8(s4)
	li	a3,1
	mv	a1,s8
	mv	a0,s5
.LVL316:
	call	mbedtls_cipher_setkey
.LVL317:
	mv	s11,a0
.LVL318:
	.loc 2 1453 7
	beq	a0,zero,.L115
	.loc 2 1457 9 is_stmt 1
	lui	a4,%hi(.LC30)
	mv	a5,a0
	addi	a4,a4,%lo(.LC30)
	li	a3,1457
	j	.L129
.L115:
	.loc 2 1461 5
	.loc 2 1461 17 is_stmt 0
	lw	a2,8(s4)
	li	a3,0
	mv	a1,s6
	mv	a0,s2
.LVL319:
	call	mbedtls_cipher_setkey
.LVL320:
	mv	s11,a0
.LVL321:
	.loc 2 1461 7
	beq	a0,zero,.L116
	.loc 2 1465 9 is_stmt 1
	lui	a4,%hi(.LC30)
	mv	a5,a0
	addi	a4,a4,%lo(.LC30)
	li	a3,1465
	j	.L129
.L116:
	.loc 2 1470 5
	.loc 2 1470 7 is_stmt 0
	lw	a3,4(s4)
	li	a4,2
	bne	a3,a4,.L103
	.loc 2 1472 9 is_stmt 1
	.loc 2 1472 21 is_stmt 0
	li	a1,4
	mv	a0,s5
.LVL322:
	call	mbedtls_cipher_set_padding_mode
.LVL323:
	mv	s11,a0
.LVL324:
	.loc 2 1472 11
	beq	a0,zero,.L117
	.loc 2 1475 13 is_stmt 1
	lui	a4,%hi(.LC31)
	mv	a5,a0
	addi	a4,a4,%lo(.LC31)
	li	a3,1475
	j	.L129
.L117:
	.loc 2 1479 9
	.loc 2 1479 21 is_stmt 0
	li	a1,4
	mv	a0,s2
.LVL325:
	call	mbedtls_cipher_set_padding_mode
.LVL326:
	mv	s11,a0
.LVL327:
	.loc 2 1479 11
	beq	a0,zero,.L103
	.loc 2 1482 13 is_stmt 1
	lui	a4,%hi(.LC31)
	mv	a5,a0
	addi	a4,a4,%lo(.LC31)
	li	a3,1482
	j	.L129
.LBE62:
.LBE73:
	.cfi_endproc
.LFE42:
	.size	mbedtls_ssl_derive_keys, .-mbedtls_ssl_derive_keys
	.section	.text.mbedtls_ssl_psk_derive_premaster,"ax",@progbits
	.align	1
	.globl	mbedtls_ssl_psk_derive_premaster
	.type	mbedtls_ssl_psk_derive_premaster, @function
mbedtls_ssl_psk_derive_premaster:
.LFB45:
	.loc 2 1998 1
	.cfi_startproc
.LVL328:
	.loc 2 1999 5
	.loc 2 1998 1 is_stmt 0
	addi	sp,sp,-48
	.cfi_def_cfa_offset 48
	sw	s0,40(sp)
	sw	s3,28(sp)
	sw	s4,24(sp)
	sw	ra,44(sp)
	sw	s1,36(sp)
	sw	s2,32(sp)
	sw	s5,20(sp)
	sw	s6,16(sp)
	sw	s7,12(sp)
	.cfi_offset 8, -8
	.cfi_offset 19, -20
	.cfi_offset 20, -24
	.cfi_offset 1, -4
	.cfi_offset 9, -12
	.cfi_offset 18, -16
	.cfi_offset 21, -28
	.cfi_offset 22, -32
	.cfi_offset 23, -36
	addi	s0,sp,48
	.cfi_def_cfa 8, 0
	.loc 2 1999 27
	lw	a5,56(a0)
.LVL329:
	.loc 2 2000 5 is_stmt 1
	.loc 2 1998 1 is_stmt 0
	mv	s3,a0
.LBB76:
.LBB77:
	.loc 1 1076 23
	lw	s5,384(a5)
.LBE77:
.LBE76:
	.loc 2 2000 20
	addi	s4,a5,1912
.LVL330:
	.loc 2 2001 5 is_stmt 1
	.loc 2 2002 5
	.loc 2 2004 5
.LBB79:
.LBB78:
	.loc 1 1076 5
	.loc 1 1076 7 is_stmt 0
	beq	s5,zero,.L134
	.loc 1 1076 53
	lw	s2,388(a5)
	.loc 1 1076 36
	bne	s2,zero,.L135
.L134:
	.loc 1 1082 10 is_stmt 1
	.loc 1 1082 17 is_stmt 0
	lw	a4,0(s3)
	.loc 1 1082 23
	lw	s5,148(a4)
	.loc 1 1082 12
	beq	s5,zero,.L136
	.loc 1 1082 48
	lw	s2,152(a4)
	.loc 1 1082 36
	bne	s2,zero,.L135
.L136:
.LVL331:
.LBE78:
.LBE79:
	.loc 2 2011 9 is_stmt 1
	lui	a4,%hi(.LC27)
	addi	a4,a4,%lo(.LC27)
	li	a3,2011
	j	.L152
.LVL332:
.L141:
	.loc 2 2025 9
	.loc 2 2028 11
	.loc 2 2028 55 is_stmt 0
	srli	s6,s2,8
	.loc 2 2028 29
	andi	s6,s6,0xff
	.loc 2 2028 95
	andi	s7,s2,0xff
	.loc 2 2028 25
	sb	s6,888(a5)
	.loc 2 2028 74 is_stmt 1
	.loc 2 2028 91 is_stmt 0
	sb	s7,889(a5)
	.loc 2 2028 132 is_stmt 1
	.loc 2 2029 9
	.loc 2 2029 11 is_stmt 0
	addi	s1,a5,890
.LVL333:
	.loc 2 2031 9 is_stmt 1
	.loc 2 2031 21 is_stmt 0
	li	a5,1022
	bleu	s2,a5,.L137
.LVL334:
.L139:
	.loc 2 2032 19
	li	a0,-28672
	addi	a0,a0,-256
.LVL335:
.L133:
	.loc 2 2119 1
	lw	ra,44(sp)
	.cfi_remember_state
	.cfi_restore 1
	lw	s0,40(sp)
	.cfi_restore 8
	.cfi_def_cfa 2, 48
	lw	s1,36(sp)
	.cfi_restore 9
	lw	s2,32(sp)
	.cfi_restore 18
	lw	s3,28(sp)
	.cfi_restore 19
.LVL336:
	lw	s4,24(sp)
	.cfi_restore 20
	lw	s5,20(sp)
	.cfi_restore 21
	lw	s6,16(sp)
	.cfi_restore 22
	lw	s7,12(sp)
	.cfi_restore 23
	addi	sp,sp,48
	.cfi_def_cfa_offset 0
	jr	ra
.LVL337:
.L137:
	.cfi_restore_state
	.loc 2 2034 9 is_stmt 1
	mv	a0,s1
.LVL338:
	mv	a2,s2
	li	a1,0
.LVL339:
	call	memset
.LVL340:
	.loc 2 2035 9
	.loc 2 2035 11 is_stmt 0
	add	s1,s1,s2
.LVL341:
	.loc 2 2104 5 is_stmt 1
	.loc 2 2104 13 is_stmt 0
	sub	a4,s4,s1
	.loc 2 2104 7
	li	a5,1
	ble	a4,a5,.L139
	.loc 2 2107 7 is_stmt 1
	.loc 2 2107 21 is_stmt 0
	sb	s6,0(s1)
	.loc 2 2107 70 is_stmt 1
	.loc 2 2107 87 is_stmt 0
	sb	s7,1(s1)
	.loc 2 2107 128 is_stmt 1
	.loc 2 2108 5
	.loc 2 2108 7 is_stmt 0
	addi	s1,s1,2
.LVL342:
	.loc 2 2110 5 is_stmt 1
	.loc 2 2110 7 is_stmt 0
	bltu	s4,s1,.L139
	.loc 2 2110 34 discriminator 1
	sub	s4,s4,s1
.LVL343:
	.loc 2 2110 17 discriminator 1
	bltu	s4,s2,.L139
	.loc 2 2113 5 is_stmt 1
	mv	a2,s2
	mv	a0,s1
	mv	a1,s5
	call	memcpy
.LVL344:
	.loc 2 2114 5
	.loc 2 2116 5
	.loc 2 2116 37 is_stmt 0
	lw	a5,56(s3)
	.loc 2 2114 7
	add	s1,s1,s2
.LVL345:
	.loc 2 2118 11
	li	a0,0
	.loc 2 2116 32
	addi	a2,a5,888
	sub	s1,s1,a2
.LVL346:
	.loc 2 2116 28
	sw	s1,16(a5)
	.loc 2 2118 5 is_stmt 1
.LVL347:
	.loc 2 2118 11 is_stmt 0
	j	.L133
.LVL348:
.L135:
	.loc 2 2023 5 is_stmt 1
	.loc 2 2023 7 is_stmt 0
	li	a4,5
	beq	a1,a4,.L141
	.loc 2 2099 9 is_stmt 1
	lui	a4,%hi(.LC27)
	li	a3,4096
	addi	a4,a4,%lo(.LC27)
	addi	a3,a3,-1997
.LVL349:
.L152:
	.loc 2 2011 9 is_stmt 0
	lui	a2,%hi(.LC3)
	mv	a0,s3
.LVL350:
	addi	a2,a2,%lo(.LC3)
	li	a1,1
.LVL351:
	call	mbedtls_debug_print_msg
.LVL352:
	.loc 2 2012 9 is_stmt 1
	.loc 2 2012 15 is_stmt 0
	li	a0,-28672
	addi	a0,a0,1024
	j	.L133
	.cfi_endproc
.LFE45:
	.size	mbedtls_ssl_psk_derive_premaster, .-mbedtls_ssl_psk_derive_premaster
	.section	.rodata.mbedtls_ssl_write_certificate.str1.4,"aMS",@progbits,1
	.align	2
.LC34:
	.string	"=> write certificate"
	.align	2
.LC35:
	.string	"<= skip write certificate"
	.align	2
.LC36:
	.string	"got no certificate to send"
	.align	2
.LC37:
	.string	"own certificate"
	.align	2
.LC38:
	.string	"certificate too large, %zu > %zu"
	.align	2
.LC39:
	.string	"mbedtls_ssl_write_handshake_msg"
	.align	2
.LC40:
	.string	"<= write certificate"
	.section	.text.mbedtls_ssl_write_certificate,"ax",@progbits
	.align	1
	.globl	mbedtls_ssl_write_certificate
	.type	mbedtls_ssl_write_certificate, @function
mbedtls_ssl_write_certificate:
.LFB47:
	.loc 2 2222 1 is_stmt 1
	.cfi_startproc
.LVL353:
	.loc 2 2223 5
	.loc 2 2224 5
	.loc 2 2225 5
	.loc 2 2226 5
	.loc 2 2222 1 is_stmt 0
	addi	sp,sp,-48
	.cfi_def_cfa_offset 48
	sw	s0,40(sp)
	sw	s1,36(sp)
	sw	s3,28(sp)
	sw	s4,24(sp)
	sw	s5,20(sp)
	sw	ra,44(sp)
	sw	s2,32(sp)
	sw	s6,16(sp)
	.cfi_offset 8, -8
	.cfi_offset 9, -12
	.cfi_offset 19, -20
	.cfi_offset 20, -24
	.cfi_offset 21, -28
	.cfi_offset 1, -4
	.cfi_offset 18, -16
	.cfi_offset 22, -32
	addi	s0,sp,48
	.cfi_def_cfa 8, 0
	.loc 2 2226 38
	lw	a5,56(a0)
	.loc 2 2229 5
	lui	s4,%hi(.LC3)
	lui	a4,%hi(.LC34)
	.loc 2 2226 38
	lw	s2,20(a5)
.LVL354:
	.loc 2 2229 5 is_stmt 1
	li	s5,4096
	addi	a4,a4,%lo(.LC34)
	addi	a3,s5,-1867
	addi	a2,s4,%lo(.LC3)
	li	a1,2
	.loc 2 2222 1 is_stmt 0
	mv	s1,a0
	.loc 2 2229 5
	call	mbedtls_debug_print_msg
.LVL355:
	.loc 2 2231 5 is_stmt 1
.LBB82:
.LBB83:
	.file 3 "/home/dinhquangha/intern/Ai-Thinker-WB2/components/security/mbedtls_lts/mbedtls/include/mbedtls/ssl_ciphersuites.h"
	.loc 3 489 5
	.loc 3 489 17 is_stmt 0
	lw	a5,16(s2)
	li	a4,10
	mv	s3,s4
	bgtu	a5,a4,.L154
	li	s2,1
.LVL356:
	sll	a5,s2,a5
	andi	a5,a5,1694
	beq	a5,zero,.L154
.LBE83:
.LBE82:
	.loc 2 2239 5 is_stmt 1
	.loc 2 2239 18 is_stmt 0
	lw	a5,0(s1)
	lbu	s6,4(a5)
	.loc 2 2239 7
	beq	s6,zero,.L155
	.loc 2 2268 5 is_stmt 1
	.loc 2 2270 13 is_stmt 0
	mv	a0,s1
	call	mbedtls_ssl_own_cert
.LVL357:
	.loc 2 2268 7
	bne	s6,s2,.L158
	.loc 2 2270 9 is_stmt 1
	.loc 2 2270 11 is_stmt 0
	bne	a0,zero,.L158
	.loc 2 2272 13 is_stmt 1
	lui	a4,%hi(.LC36)
	addi	a4,a4,%lo(.LC36)
	addi	a3,s5,-1824
	addi	a2,s4,%lo(.LC3)
	li	a1,1
	mv	a0,s1
	.loc 2 2273 19 is_stmt 0
	li	s2,-28672
	.loc 2 2272 13
	call	mbedtls_debug_print_msg
.LVL358:
	.loc 2 2273 13 is_stmt 1
	.loc 2 2273 19 is_stmt 0
	addi	s2,s2,-1408
	j	.L153
.L154:
.LBB85:
.LBB84:
	.loc 3 501 13 is_stmt 1
.LBE84:
.LBE85:
	.loc 2 2233 9
	lui	a4,%hi(.LC35)
	li	a3,4096
	addi	a4,a4,%lo(.LC35)
	addi	a3,a3,-1863
	addi	a2,s3,%lo(.LC3)
	li	a1,2
	mv	a0,s1
	call	mbedtls_debug_print_msg
.LVL359:
	.loc 2 2234 9
	.loc 2 2234 19 is_stmt 0
	lw	a5,4(s1)
	.loc 2 2235 15
	li	s2,0
	.loc 2 2234 19
	addi	a5,a5,1
	sw	a5,4(s1)
	.loc 2 2235 9 is_stmt 1
.LVL360:
.L153:
	.loc 2 2334 1 is_stmt 0
	lw	ra,44(sp)
	.cfi_remember_state
	.cfi_restore 1
	lw	s0,40(sp)
	.cfi_restore 8
	.cfi_def_cfa 2, 48
	lw	s1,36(sp)
	.cfi_restore 9
.LVL361:
	lw	s3,28(sp)
	.cfi_restore 19
	lw	s4,24(sp)
	.cfi_restore 20
	lw	s5,20(sp)
	.cfi_restore 21
	lw	s6,16(sp)
	.cfi_restore 22
	mv	a0,s2
	lw	s2,32(sp)
	.cfi_restore 18
	addi	sp,sp,48
	.cfi_def_cfa_offset 0
	jr	ra
.LVL362:
.L155:
	.cfi_restore_state
	.loc 2 2241 9 is_stmt 1
	.loc 2 2241 16 is_stmt 0
	lw	s2,184(s1)
	.loc 2 2241 11
	bne	s2,zero,.L158
	.loc 2 2243 13 is_stmt 1
	lui	a4,%hi(.LC35)
	addi	a4,a4,%lo(.LC35)
	addi	a3,s5,-1853
	addi	a2,s4,%lo(.LC3)
	li	a1,2
	mv	a0,s1
	call	mbedtls_debug_print_msg
.LVL363:
	.loc 2 2244 13
	.loc 2 2244 23 is_stmt 0
	lw	a5,4(s1)
	addi	a5,a5,1
	sw	a5,4(s1)
	.loc 2 2245 13 is_stmt 1
	.loc 2 2245 19 is_stmt 0
	j	.L153
.L158:
	.loc 2 2278 5 is_stmt 1
	.loc 2 2278 164 is_stmt 0
	mv	a0,s1
	call	mbedtls_ssl_own_cert
.LVL364:
	.loc 2 2278 5
	lui	a4,%hi(.LC37)
	li	a3,4096
	.loc 2 2278 164
	mv	a5,a0
	.loc 2 2278 5
	addi	a4,a4,%lo(.LC37)
	addi	a3,a3,-1818
	addi	a2,s3,%lo(.LC3)
	li	a1,3
	mv	a0,s1
	call	mbedtls_debug_print_crt
.LVL365:
	.loc 2 2289 5 is_stmt 1
	.loc 2 2290 5
	.loc 2 2290 11 is_stmt 0
	mv	a0,s1
	call	mbedtls_ssl_own_cert
.LVL366:
	.loc 2 2295 27
	li	s4,16384
	.loc 2 2290 11
	mv	s2,a0
.LVL367:
	.loc 2 2292 5 is_stmt 1
	.loc 2 2289 7 is_stmt 0
	li	a4,7
	.loc 2 2295 27
	addi	s4,s4,-3
.LVL368:
.L159:
	.loc 2 2292 10 is_stmt 1
	bne	s2,zero,.L161
	.loc 2 2311 5
	.loc 2 2311 8 is_stmt 0
	addi	a5,s1,128
	lw	a2,32(a5)
	.loc 2 2311 43
	addi	a3,a4,-7
	.loc 2 2311 49
	srli	a1,a3,16
	.loc 2 2311 25
	sb	a1,4(a2)
	.loc 2 2312 5 is_stmt 1
	.loc 2 2312 8 is_stmt 0
	lw	a2,32(a5)
	.loc 2 2312 49
	srli	a1,a3,8
	.loc 2 2325 17
	mv	a0,s1
	.loc 2 2312 25
	sb	a1,5(a2)
	.loc 2 2313 5 is_stmt 1
	.loc 2 2313 8 is_stmt 0
	lw	a2,32(a5)
	.loc 2 2313 21
	sb	a3,6(a2)
	.loc 2 2315 5 is_stmt 1
	.loc 2 2315 21 is_stmt 0
	sw	a4,40(a5)
	.loc 2 2316 5 is_stmt 1
	.loc 2 2316 22 is_stmt 0
	li	a4,22
	sw	a4,36(a5)
	.loc 2 2317 5 is_stmt 1
	.loc 2 2317 8 is_stmt 0
	lw	a5,32(a5)
	.loc 2 2317 21
	li	a4,11
	sb	a4,0(a5)
	.loc 2 2323 5 is_stmt 1
	.loc 2 2323 15 is_stmt 0
	lw	a5,4(s1)
	addi	a5,a5,1
	sw	a5,4(s1)
	.loc 2 2325 5 is_stmt 1
	.loc 2 2325 17 is_stmt 0
	call	mbedtls_ssl_write_handshake_msg
.LVL369:
	mv	s2,a0
.LVL370:
	.loc 2 2325 7
	beq	a0,zero,.L162
	.loc 2 2327 9 is_stmt 1
	lui	a4,%hi(.LC39)
	li	a3,4096
	mv	a5,a0
	addi	a4,a4,%lo(.LC39)
	addi	a3,a3,-1769
	addi	a2,s3,%lo(.LC3)
	li	a1,1
	mv	a0,s1
.LVL371:
	call	mbedtls_debug_print_ret
.LVL372:
	.loc 2 2328 9
	.loc 2 2328 15 is_stmt 0
	j	.L153
.LVL373:
.L161:
	.loc 2 2294 9 is_stmt 1
	.loc 2 2294 11 is_stmt 0
	lw	a2,8(s2)
.LVL374:
	.loc 2 2295 9 is_stmt 1
	addi	a0,a4,3
	.loc 2 2295 27 is_stmt 0
	sub	a3,s4,a4
	.loc 2 2297 13
	add	a5,a2,a0
	.loc 2 2295 11
	bgeu	a3,a2,.L160
	.loc 2 2297 13 is_stmt 1
	lui	a4,%hi(.LC38)
	li	a3,4096
	li	a6,16384
	addi	a4,a4,%lo(.LC38)
	addi	a3,a3,-1799
	addi	a2,s3,%lo(.LC3)
.LVL375:
	li	a1,1
	mv	a0,s1
	.loc 2 2300 19 is_stmt 0
	li	s2,-28672
.LVL376:
	.loc 2 2297 13
	call	mbedtls_debug_print_msg
.LVL377:
	.loc 2 2300 13 is_stmt 1
	.loc 2 2300 19 is_stmt 0
	addi	s2,s2,-1280
	j	.L153
.LVL378:
.L160:
	.loc 2 2303 26
	addi	a3,s1,128
	lw	a1,32(a3)
	.loc 2 2303 50
	srli	a6,a2,16
	sw	a5,-36(s0)
	.loc 2 2303 9 is_stmt 1
	.loc 2 2303 26 is_stmt 0
	add	a1,a1,a4
	.loc 2 2303 30
	sb	a6,0(a1)
	.loc 2 2304 9 is_stmt 1
	.loc 2 2304 29 is_stmt 0
	lw	a1,32(a3)
	.loc 2 2304 53
	srli	a6,a2,8
	.loc 2 2304 29
	add	a1,a1,a4
	.loc 2 2304 33
	sb	a6,1(a1)
	.loc 2 2305 9 is_stmt 1
	.loc 2 2305 29 is_stmt 0
	lw	a1,32(a3)
	add	a4,a1,a4
	.loc 2 2305 33
	sb	a2,2(a4)
	.loc 2 2307 9 is_stmt 1
	.loc 2 2307 17
	.loc 2 2307 38 is_stmt 0
	lw	a4,32(a3)
	.loc 2 2307 17
	lw	a1,12(s2)
	add	a0,a4,a0
	call	memcpy
.LVL379:
	.loc 2 2308 9 is_stmt 1
	.loc 2 2308 17
	.loc 2 2297 13 is_stmt 0
	lw	a5,-36(s0)
	.loc 2 2308 21
	lw	s2,340(s2)
.LVL380:
	.loc 2 2297 13
	mv	a4,a5
	j	.L159
.LVL381:
.L162:
	.loc 2 2331 5 is_stmt 1
	lui	a4,%hi(.LC40)
	li	a3,4096
	addi	a4,a4,%lo(.LC40)
	addi	a3,a3,-1765
	addi	a2,s3,%lo(.LC3)
	li	a1,2
	mv	a0,s1
.LVL382:
	call	mbedtls_debug_print_msg
.LVL383:
	.loc 2 2333 5
	.loc 2 2333 11 is_stmt 0
	j	.L153
	.cfi_endproc
.LFE47:
	.size	mbedtls_ssl_write_certificate, .-mbedtls_ssl_write_certificate
	.section	.text.mbedtls_ssl_optimize_checksum,"ax",@progbits
	.align	1
	.globl	mbedtls_ssl_optimize_checksum
	.type	mbedtls_ssl_optimize_checksum, @function
mbedtls_ssl_optimize_checksum:
.LFB55:
	.loc 2 3016 1 is_stmt 1
	.cfi_startproc
.LVL384:
	.loc 2 3017 5
	.loc 2 3027 5
	.loc 2 3016 1 is_stmt 0
	addi	sp,sp,-16
	.cfi_def_cfa_offset 16
	sw	s0,12(sp)
	.cfi_offset 8, -4
	addi	s0,sp,16
	.cfi_def_cfa 8, 0
	.loc 2 3027 7
	lw	a3,12(a1)
	li	a5,7
	.loc 2 3028 12
	lw	a4,56(a0)
	.loc 2 3027 7
	bne	a3,a5,.L169
	.loc 2 3028 9 is_stmt 1
	.loc 2 3028 41 is_stmt 0
	lui	a5,%hi(ssl_update_checksum_sha384)
	addi	a5,a5,%lo(ssl_update_checksum_sha384)
.L172:
	.loc 2 3033 41
	sw	a5,24(a4)
	.loc 2 3041 1
	lw	s0,12(sp)
	.cfi_remember_state
	.cfi_restore 8
	.cfi_def_cfa 2, 16
	addi	sp,sp,16
	.cfi_def_cfa_offset 0
	jr	ra
.L169:
	.cfi_restore_state
	.loc 2 3032 5 is_stmt 1
	.loc 2 3033 9
	.loc 2 3033 41 is_stmt 0
	lui	a5,%hi(ssl_update_checksum_sha256)
	addi	a5,a5,%lo(ssl_update_checksum_sha256)
	j	.L172
	.cfi_endproc
.LFE55:
	.size	mbedtls_ssl_optimize_checksum, .-mbedtls_ssl_optimize_checksum
	.section	.text.mbedtls_ssl_reset_checksum,"ax",@progbits
	.align	1
	.globl	mbedtls_ssl_reset_checksum
	.type	mbedtls_ssl_reset_checksum, @function
mbedtls_ssl_reset_checksum:
.LFB56:
	.loc 2 3044 1 is_stmt 1
	.cfi_startproc
.LVL385:
	.loc 2 3056 5
	.loc 2 3044 1 is_stmt 0
	addi	sp,sp,-16
	.cfi_def_cfa_offset 16
	sw	s0,8(sp)
	sw	s1,4(sp)
	sw	ra,12(sp)
	.cfi_offset 8, -8
	.cfi_offset 9, -12
	.cfi_offset 1, -4
	addi	s0,sp,16
	.cfi_def_cfa 8, 0
	.loc 2 3044 1
	mv	s1,a0
	.loc 2 3056 5
	lw	a0,56(a0)
.LVL386:
	li	a1,0
	addi	a0,a0,416
	call	mbedtls_sha256_starts_ret
.LVL387:
	.loc 2 3064 5 is_stmt 1
	lw	a0,56(s1)
	.loc 2 3068 1 is_stmt 0
	lw	s0,8(sp)
	.cfi_restore 8
	.cfi_def_cfa 2, 16
	lw	ra,12(sp)
	.cfi_restore 1
	lw	s1,4(sp)
	.cfi_restore 9
.LVL388:
	.loc 2 3064 5
	li	a1,1
	.loc 2 3068 1
	.loc 2 3064 5
	addi	a0,a0,608
	.loc 2 3068 1
	addi	sp,sp,16
	.cfi_def_cfa_offset 0
	.loc 2 3064 5
	tail	mbedtls_sha512_starts_ret
.LVL389:
	.cfi_endproc
.LFE56:
	.size	mbedtls_ssl_reset_checksum, .-mbedtls_ssl_reset_checksum
	.section	.rodata.mbedtls_ssl_write_finished.str1.4,"aMS",@progbits,1
	.align	2
.LC41:
	.string	"=> write finished"
	.align	2
.LC42:
	.string	"switching to new transform spec for outbound data"
	.align	2
.LC43:
	.string	"<= write finished"
	.section	.text.mbedtls_ssl_write_finished,"ax",@progbits
	.align	1
	.globl	mbedtls_ssl_write_finished
	.type	mbedtls_ssl_write_finished, @function
mbedtls_ssl_write_finished:
.LFB64:
	.loc 2 3530 1 is_stmt 1
	.cfi_startproc
.LVL390:
	.loc 2 3531 5
	.loc 2 3533 5
	.loc 2 3530 1 is_stmt 0
	addi	sp,sp,-32
	.cfi_def_cfa_offset 32
	sw	ra,28(sp)
	sw	s0,24(sp)
	sw	s1,20(sp)
	.cfi_offset 1, -4
	.cfi_offset 8, -8
	.cfi_offset 9, -12
	addi	s0,sp,32
	.cfi_def_cfa 8, 0
	sw	s2,16(sp)
	sw	s3,12(sp)
	sw	s4,8(sp)
	.loc 2 3533 5
	lui	a4,%hi(.LC41)
	li	a3,4096
	.cfi_offset 18, -16
	.cfi_offset 19, -20
	.cfi_offset 20, -24
	lui	s2,%hi(.LC3)
	addi	a4,a4,%lo(.LC41)
	addi	a3,a3,-563
	addi	a2,s2,%lo(.LC3)
	li	a1,2
	.loc 2 3530 1
	.loc 2 3530 1
	mv	s1,a0
	.loc 2 3533 5
	call	mbedtls_debug_print_msg
.LVL391:
	.loc 2 3535 5 is_stmt 1
	lw	a1,72(s1)
	mv	a0,s1
	call	mbedtls_ssl_update_out_pointers
.LVL392:
	.loc 2 3537 5
	.loc 2 3537 68 is_stmt 0
	lw	a4,0(s1)
	.loc 2 3537 19
	lw	a5,56(s1)
	.loc 2 3537 5
	lw	a1,160(s1)
	lbu	a2,4(a4)
	lw	a5,32(a5)
	addi	a1,a1,4
	mv	a0,s1
	jalr	a5
.LVL393:
	.loc 2 3545 5 is_stmt 1
	.loc 2 3545 45 is_stmt 0
	lw	a4,12(s1)
	li	a5,12
	bne	a4,zero,.L176
	li	a5,36
.L176:
.LVL394:
	.loc 2 3552 5 is_stmt 1 discriminator 4
	.loc 2 3552 21 is_stmt 0 discriminator 4
	addi	a4,s1,128
	.loc 2 3552 25 discriminator 4
	addi	a5,a5,4
.LVL395:
	.loc 2 3552 21 discriminator 4
	sw	a5,40(a4)
	.loc 2 3553 5 is_stmt 1 discriminator 4
	.loc 2 3553 22 is_stmt 0 discriminator 4
	li	a5,22
.LVL396:
	sw	a5,36(a4)
	.loc 2 3554 5 is_stmt 1 discriminator 4
	.loc 2 3554 8 is_stmt 0 discriminator 4
	lw	a5,32(a4)
	.loc 2 3554 21 discriminator 4
	li	a4,20
.LVL397:
	sb	a4,0(a5)
.LVL398:
	.loc 2 3560 5 is_stmt 1 discriminator 4
	.loc 2 3560 23 is_stmt 0 discriminator 4
	lw	a5,56(s1)
	.loc 2 3560 7 discriminator 4
	lbu	a5,2(a5)
	beq	a5,zero,.L177
	.loc 2 3563 9 is_stmt 1
	.loc 2 3563 16 is_stmt 0
	lw	a5,0(s1)
	.loc 2 3563 11
	lbu	a4,4(a5)
	bne	a4,zero,.L178
	.loc 2 3564 13 is_stmt 1
	.loc 2 3564 24 is_stmt 0
	li	a4,15
	sw	a4,4(s1)
.L178:
	.loc 2 3567 9 is_stmt 1
	.loc 2 3567 11 is_stmt 0
	lbu	a4,4(a5)
	li	a5,1
	bne	a4,a5,.L179
	.loc 2 3568 13 is_stmt 1
	.loc 2 3568 24 is_stmt 0
	li	a5,10
.L186:
	.loc 2 3572 19
	sw	a5,4(s1)
.L179:
	.loc 2 3578 5 is_stmt 1
	lui	a4,%hi(.LC42)
	li	s4,4096
	addi	a4,a4,%lo(.LC42)
	addi	a3,s4,-518
	addi	a2,s2,%lo(.LC3)
	li	a1,3
	mv	a0,s1
	call	mbedtls_debug_print_msg
.LVL399:
	.loc 2 3606 5
	li	a2,8
	li	a1,0
	addi	a0,s1,176
	call	memset
.LVL400:
	.loc 2 3608 5
	.loc 2 3608 24 is_stmt 0
	lw	a5,72(s1)
	.loc 2 3627 17
	mv	a0,s1
	.loc 2 3608 24
	sw	a5,64(s1)
	.loc 2 3609 5 is_stmt 1
	.loc 2 3609 22 is_stmt 0
	lw	a5,52(s1)
	sw	a5,44(s1)
	.loc 2 3627 5 is_stmt 1
	.loc 2 3627 17 is_stmt 0
	call	mbedtls_ssl_write_handshake_msg
.LVL401:
	mv	s3,a0
.LVL402:
	.loc 2 3627 7
	beq	a0,zero,.L180
	.loc 2 3629 9 is_stmt 1
	lui	a4,%hi(.LC39)
	mv	a5,a0
	addi	a4,a4,%lo(.LC39)
	addi	a3,s4,-467
	addi	a2,s2,%lo(.LC3)
	li	a1,1
	mv	a0,s1
.LVL403:
	call	mbedtls_debug_print_ret
.LVL404:
	.loc 2 3630 9
.L175:
	.loc 2 3645 1 is_stmt 0
	lw	ra,28(sp)
	.cfi_remember_state
	.cfi_restore 1
	lw	s0,24(sp)
	.cfi_restore 8
	.cfi_def_cfa 2, 32
	lw	s1,20(sp)
	.cfi_restore 9
.LVL405:
	lw	s2,16(sp)
	.cfi_restore 18
	lw	s4,8(sp)
	.cfi_restore 20
	mv	a0,s3
	lw	s3,12(sp)
	.cfi_restore 19
.LVL406:
	addi	sp,sp,32
	.cfi_def_cfa_offset 0
	jr	ra
.LVL407:
.L177:
	.cfi_restore_state
	.loc 2 3572 9 is_stmt 1
	.loc 2 3572 19 is_stmt 0
	lw	a5,4(s1)
	addi	a5,a5,1
	j	.L186
.LVL408:
.L180:
	.loc 2 3642 5 is_stmt 1
	lui	a4,%hi(.LC43)
	addi	a4,a4,%lo(.LC43)
	addi	a3,s4,-454
	addi	a2,s2,%lo(.LC3)
	li	a1,2
	mv	a0,s1
.LVL409:
	call	mbedtls_debug_print_msg
.LVL410:
	.loc 2 3644 5
	.loc 2 3644 11 is_stmt 0
	j	.L175
	.cfi_endproc
.LFE64:
	.size	mbedtls_ssl_write_finished, .-mbedtls_ssl_write_finished
	.section	.rodata.mbedtls_ssl_parse_finished.str1.4,"aMS",@progbits,1
	.align	2
.LC44:
	.string	"=> parse finished"
	.align	2
.LC45:
	.string	"mbedtls_ssl_read_record"
	.align	2
.LC46:
	.string	"bad finished message"
	.align	2
.LC47:
	.string	"<= parse finished"
	.section	.text.mbedtls_ssl_parse_finished,"ax",@progbits
	.align	1
	.globl	mbedtls_ssl_parse_finished
	.type	mbedtls_ssl_parse_finished, @function
mbedtls_ssl_parse_finished:
.LFB65:
	.loc 2 3654 1 is_stmt 1
	.cfi_startproc
.LVL411:
	.loc 2 3655 5
	.loc 2 3656 5
	.loc 2 3657 5
	.loc 2 3659 5
	.loc 2 3654 1 is_stmt 0
	addi	sp,sp,-48
	.cfi_def_cfa_offset 48
	sw	ra,44(sp)
	sw	s0,40(sp)
	sw	s1,36(sp)
	.cfi_offset 1, -4
	.cfi_offset 8, -8
	.cfi_offset 9, -12
	addi	s0,sp,48
	.cfi_def_cfa 8, 0
	sw	s3,28(sp)
	sw	s4,24(sp)
	sw	s2,32(sp)
	sw	s5,20(sp)
	.loc 2 3659 5
	lui	a4,%hi(.LC44)
	.cfi_offset 19, -20
	.cfi_offset 20, -24
	.cfi_offset 18, -16
	.cfi_offset 21, -28
	li	s4,4096
	lui	s3,%hi(.LC3)
	addi	a4,a4,%lo(.LC44)
	addi	a3,s4,-437
	addi	a2,s3,%lo(.LC3)
	li	a1,2
	.loc 2 3654 1
	.loc 2 3654 1
	mv	s1,a0
	.loc 2 3659 5
	call	mbedtls_debug_print_msg
.LVL412:
	.loc 2 3667 9 is_stmt 1
	.loc 2 3669 5
	.loc 2 3669 55 is_stmt 0
	lw	a5,0(s1)
	.loc 2 3669 5
	addi	a1,s0,-44
	mv	a0,s1
	lbu	a2,4(a5)
	.loc 2 3669 19
	lw	a5,56(s1)
	.loc 2 3669 5
	xori	a2,a2,1
	lw	a5,32(a5)
	jalr	a5
.LVL413:
	.loc 2 3671 5 is_stmt 1
	.loc 2 3671 17 is_stmt 0
	li	a1,1
	mv	a0,s1
	call	mbedtls_ssl_read_record
.LVL414:
	.loc 2 3671 7
	beq	a0,zero,.L188
	.loc 2 3673 9
	lui	a4,%hi(.LC45)
	mv	s2,a0
	.loc 2 3673 9 is_stmt 1
	mv	a5,a0
	addi	a4,a4,%lo(.LC45)
	addi	a3,s4,-423
	addi	a2,s3,%lo(.LC3)
	li	a1,1
	mv	a0,s1
.LVL415:
	call	mbedtls_debug_print_ret
.LVL416:
	.loc 2 3674 9
.L189:
	.loc 2 3733 5
	addi	a0,s0,-44
	li	a1,12
	call	mbedtls_platform_zeroize
.LVL417:
	.loc 2 3734 5
	.loc 2 3735 1 is_stmt 0
	lw	ra,44(sp)
	.cfi_remember_state
	.cfi_restore 1
	lw	s0,40(sp)
	.cfi_restore 8
	.cfi_def_cfa 2, 48
	lw	s1,36(sp)
	.cfi_restore 9
.LVL418:
	lw	s3,28(sp)
	.cfi_restore 19
	lw	s4,24(sp)
	.cfi_restore 20
	lw	s5,20(sp)
	.cfi_restore 21
	mv	a0,s2
	lw	s2,32(sp)
	.cfi_restore 18
.LVL419:
	addi	sp,sp,48
	.cfi_def_cfa_offset 0
	jr	ra
.LVL420:
.L188:
	.cfi_restore_state
	.loc 2 3677 5 is_stmt 1
	.loc 2 3677 7 is_stmt 0
	lw	a4,116(s1)
	li	a5,22
	beq	a4,a5,.L190
	.loc 2 3679 9 is_stmt 1
	lui	a4,%hi(.LC46)
	addi	a4,a4,%lo(.LC46)
	addi	a3,s4,-417
	addi	a2,s3,%lo(.LC3)
	li	a1,1
	mv	a0,s1
.LVL421:
	call	mbedtls_debug_print_msg
.LVL422:
	.loc 2 3680 9
	li	a2,10
	li	a1,2
	mv	a0,s1
	.loc 2 3682 13 is_stmt 0
	li	s2,-28672
	.loc 2 3680 9
	call	mbedtls_ssl_send_alert_message
.LVL423:
	.loc 2 3682 9 is_stmt 1
	.loc 2 3683 9
	.loc 2 3682 13 is_stmt 0
	addi	s2,s2,-1792
	.loc 2 3683 9
	j	.L189
.LVL424:
.L190:
	.loc 2 3686 12
	lw	a0,108(s1)
.LVL425:
	.loc 2 3686 7
	li	a5,20
	mv	s5,s3
	.loc 2 3686 5 is_stmt 1
	.loc 2 3686 7 is_stmt 0
	lbu	a4,0(a0)
	bne	a4,a5,.L191
.LVL426:
	.loc 1 1237 5 is_stmt 1 discriminator 1
	.loc 1 1239 5 discriminator 1
	.loc 2 3686 30 is_stmt 0 discriminator 1
	lw	a4,128(s1)
	li	a5,16
	beq	a4,a5,.L192
.L191:
	.loc 2 3689 9 is_stmt 1
	lui	a4,%hi(.LC46)
	li	a3,4096
	addi	a2,s5,%lo(.LC3)
	addi	a4,a4,%lo(.LC46)
	addi	a3,a3,-407
	li	a1,1
	mv	a0,s1
	call	mbedtls_debug_print_msg
.LVL427:
	.loc 2 3690 9
	li	a2,50
.L199:
	.loc 2 3700 9 is_stmt 0
	li	a1,2
	mv	a0,s1
	.loc 2 3702 13
	li	s2,-32768
	.loc 2 3700 9
	call	mbedtls_ssl_send_alert_message
.LVL428:
	.loc 2 3702 9 is_stmt 1
	.loc 2 3703 9
	.loc 2 3702 13 is_stmt 0
	addi	s2,s2,384
	.loc 2 3703 9
	j	.L189
.LVL429:
.L192:
	.loc 2 3696 5 is_stmt 1
	.loc 1 1237 5
	.loc 1 1239 5
	.loc 2 3696 9 is_stmt 0
	li	a2,12
	addi	a1,s0,-44
	addi	a0,a0,4
	call	mbedtls_ct_memcmp
.LVL430:
	mv	s2,a0
	.loc 2 3696 7
	beq	a0,zero,.L193
	.loc 2 3699 9 is_stmt 1
	lui	a4,%hi(.LC46)
	addi	a2,s3,%lo(.LC3)
	addi	a4,a4,%lo(.LC46)
	addi	a3,s4,-397
	li	a1,1
	mv	a0,s1
	call	mbedtls_debug_print_msg
.LVL431:
	.loc 2 3700 9
	li	a2,51
	j	.L199
.L193:
	.loc 2 3711 5
	.loc 2 3711 23 is_stmt 0
	lw	a5,56(s1)
	.loc 2 3711 7
	lbu	a5,2(a5)
	beq	a5,zero,.L194
	.loc 2 3714 9 is_stmt 1
	.loc 2 3714 16 is_stmt 0
	lw	a5,0(s1)
	.loc 2 3714 11
	lbu	a4,4(a5)
	bne	a4,zero,.L195
	.loc 2 3715 13 is_stmt 1
	.loc 2 3715 24 is_stmt 0
	li	a4,10
	sw	a4,4(s1)
.L195:
	.loc 2 3718 9 is_stmt 1
	.loc 2 3718 11 is_stmt 0
	lbu	a4,4(a5)
	li	a5,1
	bne	a4,a5,.L196
	.loc 2 3719 13 is_stmt 1
	.loc 2 3719 24 is_stmt 0
	li	a5,15
.L198:
	.loc 2 3723 19
	sw	a5,4(s1)
.L196:
	.loc 2 3730 5 is_stmt 1
	lui	a4,%hi(.LC47)
	li	a3,4096
	addi	a4,a4,%lo(.LC47)
	addi	a3,a3,-366
	addi	a2,s5,%lo(.LC3)
	li	a1,2
	mv	a0,s1
	call	mbedtls_debug_print_msg
.LVL432:
	j	.L189
.L194:
	.loc 2 3723 9
	.loc 2 3723 19 is_stmt 0
	lw	a5,4(s1)
	addi	a5,a5,1
	j	.L198
	.cfi_endproc
.LFE65:
	.size	mbedtls_ssl_parse_finished, .-mbedtls_ssl_parse_finished
	.section	.text.mbedtls_ssl_transform_init,"ax",@progbits
	.align	1
	.globl	mbedtls_ssl_transform_init
	.type	mbedtls_ssl_transform_init, @function
mbedtls_ssl_transform_init:
.LFB67:
	.loc 2 3805 1 is_stmt 1
	.cfi_startproc
.LVL433:
	.loc 2 3806 5
	.loc 2 3805 1 is_stmt 0
	addi	sp,sp,-16
	.cfi_def_cfa_offset 16
	sw	ra,12(sp)
	sw	s0,8(sp)
	sw	s1,4(sp)
	.cfi_offset 1, -4
	.cfi_offset 8, -8
	.cfi_offset 9, -12
	addi	s0,sp,16
	.cfi_def_cfa 8, 0
	.loc 2 3806 5
	li	a2,208
	li	a1,0
	.loc 2 3805 1
	mv	s1,a0
	.loc 2 3806 5
	call	memset
.LVL434:
	.loc 2 3808 5 is_stmt 1
	addi	a0,s1,76
	call	mbedtls_cipher_init
.LVL435:
	.loc 2 3809 5
	addi	a0,s1,140
	call	mbedtls_cipher_init
.LVL436:
	.loc 2 3812 5
	addi	a0,s1,52
	call	mbedtls_md_init
.LVL437:
	.loc 2 3813 5
	.loc 2 3815 1 is_stmt 0
	lw	s0,8(sp)
	.cfi_restore 8
	.cfi_def_cfa 2, 16
	lw	ra,12(sp)
	.cfi_restore 1
	.loc 2 3813 5
	addi	a0,s1,64
	.loc 2 3815 1
	lw	s1,4(sp)
	.cfi_restore 9
.LVL438:
	addi	sp,sp,16
	.cfi_def_cfa_offset 0
	.loc 2 3813 5
	tail	mbedtls_md_init
.LVL439:
	.cfi_endproc
.LFE67:
	.size	mbedtls_ssl_transform_init, .-mbedtls_ssl_transform_init
	.section	.text.mbedtls_ssl_session_init,"ax",@progbits
	.align	1
	.globl	mbedtls_ssl_session_init
	.type	mbedtls_ssl_session_init, @function
mbedtls_ssl_session_init:
.LFB68:
	.loc 2 3818 1 is_stmt 1
	.cfi_startproc
.LVL440:
	.loc 2 3819 5
	.loc 2 3818 1 is_stmt 0
	addi	sp,sp,-16
	.cfi_def_cfa_offset 16
	sw	s0,12(sp)
	.cfi_offset 8, -4
	addi	s0,sp,16
	.cfi_def_cfa 8, 0
	.loc 2 3820 1
	lw	s0,12(sp)
	.cfi_restore 8
	.cfi_def_cfa 2, 16
	.loc 2 3819 5
	li	a2,124
	li	a1,0
	.loc 2 3820 1
	addi	sp,sp,16
	.cfi_def_cfa_offset 0
	.loc 2 3819 5
	tail	memset
.LVL441:
	.cfi_endproc
.LFE68:
	.size	mbedtls_ssl_session_init, .-mbedtls_ssl_session_init
	.section	.text.mbedtls_ssl_init,"ax",@progbits
	.align	1
	.globl	mbedtls_ssl_init
	.type	mbedtls_ssl_init, @function
mbedtls_ssl_init:
.LFB70:
	.loc 2 3933 1 is_stmt 1
	.cfi_startproc
.LVL442:
	.loc 2 3934 5
	.loc 2 3933 1 is_stmt 0
	addi	sp,sp,-16
	.cfi_def_cfa_offset 16
	sw	s0,12(sp)
	.cfi_offset 8, -4
	addi	s0,sp,16
	.cfi_def_cfa 8, 0
	.loc 2 3935 1
	lw	s0,12(sp)
	.cfi_restore 8
	.cfi_def_cfa 2, 16
	.loc 2 3934 5
	li	a2,200
	li	a1,0
	.loc 2 3935 1
	addi	sp,sp,16
	.cfi_def_cfa_offset 0
	.loc 2 3934 5
	tail	memset
.LVL443:
	.cfi_endproc
.LFE70:
	.size	mbedtls_ssl_init, .-mbedtls_ssl_init
	.section	.text.mbedtls_ssl_conf_endpoint,"ax",@progbits
	.align	1
	.globl	mbedtls_ssl_conf_endpoint
	.type	mbedtls_ssl_conf_endpoint, @function
mbedtls_ssl_conf_endpoint:
.LFB74:
	.loc 2 4160 1 is_stmt 1
	.cfi_startproc
.LVL444:
	.loc 2 4161 5
	.loc 2 4160 1 is_stmt 0
	addi	sp,sp,-16
	.cfi_def_cfa_offset 16
	sw	s0,12(sp)
	.cfi_offset 8, -4
	addi	s0,sp,16
	.cfi_def_cfa 8, 0
	.loc 2 4161 20
	sb	a1,4(a0)
	.loc 2 4162 1
	lw	s0,12(sp)
	.cfi_restore 8
	.cfi_def_cfa 2, 16
	addi	sp,sp,16
	.cfi_def_cfa_offset 0
	jr	ra
	.cfi_endproc
.LFE74:
	.size	mbedtls_ssl_conf_endpoint, .-mbedtls_ssl_conf_endpoint
	.section	.text.mbedtls_ssl_conf_transport,"ax",@progbits
	.align	1
	.globl	mbedtls_ssl_conf_transport
	.type	mbedtls_ssl_conf_transport, @function
mbedtls_ssl_conf_transport:
.LFB75:
	.loc 2 4165 1 is_stmt 1
	.cfi_startproc
.LVL445:
	.loc 2 4166 5
	.loc 2 4165 1 is_stmt 0
	addi	sp,sp,-16
	.cfi_def_cfa_offset 16
	sw	s0,12(sp)
	.cfi_offset 8, -4
	addi	s0,sp,16
	.cfi_def_cfa 8, 0
	.loc 2 4166 21
	sb	a1,5(a0)
	.loc 2 4167 1
	lw	s0,12(sp)
	.cfi_restore 8
	.cfi_def_cfa 2, 16
	addi	sp,sp,16
	.cfi_def_cfa_offset 0
	jr	ra
	.cfi_endproc
.LFE75:
	.size	mbedtls_ssl_conf_transport, .-mbedtls_ssl_conf_transport
	.section	.text.mbedtls_ssl_conf_authmode,"ax",@progbits
	.align	1
	.globl	mbedtls_ssl_conf_authmode
	.type	mbedtls_ssl_conf_authmode, @function
mbedtls_ssl_conf_authmode:
.LFB76:
	.loc 2 4200 1 is_stmt 1
	.cfi_startproc
.LVL446:
	.loc 2 4201 5
	.loc 2 4200 1 is_stmt 0
	addi	sp,sp,-16
	.cfi_def_cfa_offset 16
	sw	s0,12(sp)
	.cfi_offset 8, -4
	addi	s0,sp,16
	.cfi_def_cfa 8, 0
	.loc 2 4201 20
	sb	a1,6(a0)
	.loc 2 4202 1
	lw	s0,12(sp)
	.cfi_restore 8
	.cfi_def_cfa 2, 16
	addi	sp,sp,16
	.cfi_def_cfa_offset 0
	jr	ra
	.cfi_endproc
.LFE76:
	.size	mbedtls_ssl_conf_authmode, .-mbedtls_ssl_conf_authmode
	.section	.text.mbedtls_ssl_conf_verify,"ax",@progbits
	.align	1
	.globl	mbedtls_ssl_conf_verify
	.type	mbedtls_ssl_conf_verify, @function
mbedtls_ssl_conf_verify:
.LFB77:
	.loc 2 4208 1 is_stmt 1
	.cfi_startproc
.LVL447:
	.loc 2 4209 5
	.loc 2 4208 1 is_stmt 0
	addi	sp,sp,-16
	.cfi_def_cfa_offset 16
	sw	s0,12(sp)
	.cfi_offset 8, -4
	addi	s0,sp,16
	.cfi_def_cfa 8, 0
	.loc 2 4211 1
	lw	s0,12(sp)
	.cfi_restore 8
	.cfi_def_cfa 2, 16
	.loc 2 4209 18
	sw	a1,72(a0)
	.loc 2 4210 5 is_stmt 1
	.loc 2 4210 18 is_stmt 0
	sw	a2,76(a0)
	.loc 2 4211 1
	addi	sp,sp,16
	.cfi_def_cfa_offset 0
	jr	ra
	.cfi_endproc
.LFE77:
	.size	mbedtls_ssl_conf_verify, .-mbedtls_ssl_conf_verify
	.section	.text.mbedtls_ssl_conf_rng,"ax",@progbits
	.align	1
	.globl	mbedtls_ssl_conf_rng
	.type	mbedtls_ssl_conf_rng, @function
mbedtls_ssl_conf_rng:
.LFB78:
	.loc 2 4217 1 is_stmt 1
	.cfi_startproc
.LVL448:
	.loc 2 4218 5
	.loc 2 4217 1 is_stmt 0
	addi	sp,sp,-16
	.cfi_def_cfa_offset 16
	sw	s0,12(sp)
	.cfi_offset 8, -4
	addi	s0,sp,16
	.cfi_def_cfa 8, 0
	.loc 2 4220 1
	lw	s0,12(sp)
	.cfi_restore 8
	.cfi_def_cfa 2, 16
	.loc 2 4218 17
	sw	a1,44(a0)
	.loc 2 4219 5 is_stmt 1
	.loc 2 4219 17 is_stmt 0
	sw	a2,48(a0)
	.loc 2 4220 1
	addi	sp,sp,16
	.cfi_def_cfa_offset 0
	jr	ra
	.cfi_endproc
.LFE78:
	.size	mbedtls_ssl_conf_rng, .-mbedtls_ssl_conf_rng
	.section	.text.mbedtls_ssl_conf_dbg,"ax",@progbits
	.align	1
	.globl	mbedtls_ssl_conf_dbg
	.type	mbedtls_ssl_conf_dbg, @function
mbedtls_ssl_conf_dbg:
.LFB79:
	.loc 2 4225 1 is_stmt 1
	.cfi_startproc
.LVL449:
	.loc 2 4226 5
	.loc 2 4225 1 is_stmt 0
	addi	sp,sp,-16
	.cfi_def_cfa_offset 16
	sw	s0,12(sp)
	.cfi_offset 8, -4
	addi	s0,sp,16
	.cfi_def_cfa 8, 0
	.loc 2 4228 1
	lw	s0,12(sp)
	.cfi_restore 8
	.cfi_def_cfa 2, 16
	.loc 2 4226 17
	sw	a1,36(a0)
	.loc 2 4227 5 is_stmt 1
	.loc 2 4227 17 is_stmt 0
	sw	a2,40(a0)
	.loc 2 4228 1
	addi	sp,sp,16
	.cfi_def_cfa_offset 0
	jr	ra
	.cfi_endproc
.LFE79:
	.size	mbedtls_ssl_conf_dbg, .-mbedtls_ssl_conf_dbg
	.section	.text.mbedtls_ssl_set_bio,"ax",@progbits
	.align	1
	.globl	mbedtls_ssl_set_bio
	.type	mbedtls_ssl_set_bio, @function
mbedtls_ssl_set_bio:
.LFB80:
	.loc 2 4235 1 is_stmt 1
	.cfi_startproc
.LVL450:
	.loc 2 4236 5
	.loc 2 4235 1 is_stmt 0
	addi	sp,sp,-16
	.cfi_def_cfa_offset 16
	sw	s0,12(sp)
	.cfi_offset 8, -4
	addi	s0,sp,16
	.cfi_def_cfa 8, 0
	.loc 2 4240 1
	lw	s0,12(sp)
	.cfi_restore 8
	.cfi_def_cfa 2, 16
	.loc 2 4236 16
	sw	a1,36(a0)
	.loc 2 4237 5 is_stmt 1
	.loc 2 4237 17 is_stmt 0
	sw	a2,24(a0)
	.loc 2 4238 5 is_stmt 1
	.loc 2 4238 17 is_stmt 0
	sw	a3,28(a0)
	.loc 2 4239 5 is_stmt 1
	.loc 2 4239 25 is_stmt 0
	sw	a4,32(a0)
	.loc 2 4240 1
	addi	sp,sp,16
	.cfi_def_cfa_offset 0
	jr	ra
	.cfi_endproc
.LFE80:
	.size	mbedtls_ssl_set_bio, .-mbedtls_ssl_set_bio
	.section	.text.mbedtls_ssl_conf_read_timeout,"ax",@progbits
	.align	1
	.globl	mbedtls_ssl_conf_read_timeout
	.type	mbedtls_ssl_conf_read_timeout, @function
mbedtls_ssl_conf_read_timeout:
.LFB81:
	.loc 2 4250 1 is_stmt 1
	.cfi_startproc
.LVL451:
	.loc 2 4251 5
	.loc 2 4250 1 is_stmt 0
	addi	sp,sp,-16
	.cfi_def_cfa_offset 16
	sw	s0,12(sp)
	.cfi_offset 8, -4
	addi	s0,sp,16
	.cfi_def_cfa 8, 0
	.loc 2 4251 24
	sw	a1,12(a0)
	.loc 2 4252 1
	lw	s0,12(sp)
	.cfi_restore 8
	.cfi_def_cfa 2, 16
	addi	sp,sp,16
	.cfi_def_cfa_offset 0
	jr	ra
	.cfi_endproc
.LFE81:
	.size	mbedtls_ssl_conf_read_timeout, .-mbedtls_ssl_conf_read_timeout
	.section	.text.mbedtls_ssl_set_timer_cb,"ax",@progbits
	.align	1
	.globl	mbedtls_ssl_set_timer_cb
	.type	mbedtls_ssl_set_timer_cb, @function
mbedtls_ssl_set_timer_cb:
.LFB82:
	.loc 2 4258 1 is_stmt 1
	.cfi_startproc
.LVL452:
	.loc 2 4259 5
	.loc 2 4258 1 is_stmt 0
	addi	sp,sp,-16
	.cfi_def_cfa_offset 16
	sw	s0,12(sp)
	.cfi_offset 8, -4
	addi	s0,sp,16
	.cfi_def_cfa 8, 0
	.loc 2 4265 1
	lw	s0,12(sp)
	.cfi_restore 8
	.cfi_def_cfa 2, 16
	.loc 2 4259 18
	sw	a1,76(a0)
	.loc 2 4260 5 is_stmt 1
	.loc 2 4260 22 is_stmt 0
	sw	a2,80(a0)
	.loc 2 4261 5 is_stmt 1
	.loc 2 4261 22 is_stmt 0
	sw	a3,84(a0)
	.loc 2 4264 5 is_stmt 1
	.loc 2 4265 1 is_stmt 0
	.loc 2 4264 5
	li	a1,0
.LVL453:
	.loc 2 4265 1
	addi	sp,sp,16
	.cfi_def_cfa_offset 0
	.loc 2 4264 5
	tail	mbedtls_ssl_set_timer
.LVL454:
	.cfi_endproc
.LFE82:
	.size	mbedtls_ssl_set_timer_cb, .-mbedtls_ssl_set_timer_cb
	.section	.text.mbedtls_ssl_conf_session_cache,"ax",@progbits
	.align	1
	.globl	mbedtls_ssl_conf_session_cache
	.type	mbedtls_ssl_conf_session_cache, @function
mbedtls_ssl_conf_session_cache:
.LFB83:
	.loc 2 4272 1 is_stmt 1
	.cfi_startproc
.LVL455:
	.loc 2 4273 5
	.loc 2 4272 1 is_stmt 0
	addi	sp,sp,-16
	.cfi_def_cfa_offset 16
	sw	s0,12(sp)
	.cfi_offset 8, -4
	addi	s0,sp,16
	.cfi_def_cfa 8, 0
	.loc 2 4276 1
	lw	s0,12(sp)
	.cfi_restore 8
	.cfi_def_cfa 2, 16
	.loc 2 4273 19
	sw	a1,60(a0)
	.loc 2 4274 5 is_stmt 1
	.loc 2 4274 23 is_stmt 0
	sw	a2,52(a0)
	.loc 2 4275 5 is_stmt 1
	.loc 2 4275 23 is_stmt 0
	sw	a3,56(a0)
	.loc 2 4276 1
	addi	sp,sp,16
	.cfi_def_cfa_offset 0
	jr	ra
	.cfi_endproc
.LFE83:
	.size	mbedtls_ssl_conf_session_cache, .-mbedtls_ssl_conf_session_cache
	.section	.text.mbedtls_ssl_conf_ciphersuites,"ax",@progbits
	.align	1
	.globl	mbedtls_ssl_conf_ciphersuites
	.type	mbedtls_ssl_conf_ciphersuites, @function
mbedtls_ssl_conf_ciphersuites:
.LFB85:
	.loc 2 4304 1 is_stmt 1
	.cfi_startproc
.LVL456:
	.loc 2 4305 5
	.loc 2 4304 1 is_stmt 0
	addi	sp,sp,-16
	.cfi_def_cfa_offset 16
	sw	s0,12(sp)
	.cfi_offset 8, -4
	addi	s0,sp,16
	.cfi_def_cfa 8, 0
	.loc 2 4309 1
	lw	s0,12(sp)
	.cfi_restore 8
	.cfi_def_cfa 2, 16
	.loc 2 4305 31
	sw	a1,20(a0)
	.loc 2 4306 5 is_stmt 1
	.loc 2 4306 31 is_stmt 0
	sw	a1,24(a0)
	.loc 2 4307 5 is_stmt 1
	.loc 2 4307 31 is_stmt 0
	sw	a1,28(a0)
	.loc 2 4308 5 is_stmt 1
	.loc 2 4308 31 is_stmt 0
	sw	a1,32(a0)
	.loc 2 4309 1
	addi	sp,sp,16
	.cfi_def_cfa_offset 0
	jr	ra
	.cfi_endproc
.LFE85:
	.size	mbedtls_ssl_conf_ciphersuites, .-mbedtls_ssl_conf_ciphersuites
	.section	.text.mbedtls_ssl_conf_ciphersuites_for_version,"ax",@progbits
	.align	1
	.globl	mbedtls_ssl_conf_ciphersuites_for_version
	.type	mbedtls_ssl_conf_ciphersuites_for_version, @function
mbedtls_ssl_conf_ciphersuites_for_version:
.LFB86:
	.loc 2 4314 1 is_stmt 1
	.cfi_startproc
.LVL457:
	.loc 2 4315 5
	.loc 2 4314 1 is_stmt 0
	addi	sp,sp,-16
	.cfi_def_cfa_offset 16
	sw	s0,12(sp)
	.cfi_offset 8, -4
	addi	s0,sp,16
	.cfi_def_cfa 8, 0
	.loc 2 4315 7
	li	a5,3
	bne	a2,a5,.L228
	.loc 2 4318 5 is_stmt 1
	.loc 2 4318 7 is_stmt 0
	bgtu	a3,a2,.L228
	.loc 2 4321 5 is_stmt 1
	.loc 2 4321 35 is_stmt 0
	addi	a3,a3,4
.LVL458:
	slli	a3,a3,2
.LVL459:
	add	a3,a0,a3
	sw	a1,4(a3)
.L228:
	.loc 2 4322 1
	lw	s0,12(sp)
	.cfi_restore 8
	.cfi_def_cfa 2, 16
	addi	sp,sp,16
	.cfi_def_cfa_offset 0
	jr	ra
	.cfi_endproc
.LFE86:
	.size	mbedtls_ssl_conf_ciphersuites_for_version, .-mbedtls_ssl_conf_ciphersuites_for_version
	.section	.text.mbedtls_ssl_conf_cert_profile,"ax",@progbits
	.align	1
	.globl	mbedtls_ssl_conf_cert_profile
	.type	mbedtls_ssl_conf_cert_profile, @function
mbedtls_ssl_conf_cert_profile:
.LFB87:
	.loc 2 4327 1 is_stmt 1
	.cfi_startproc
.LVL460:
	.loc 2 4328 5
	.loc 2 4327 1 is_stmt 0
	addi	sp,sp,-16
	.cfi_def_cfa_offset 16
	sw	s0,12(sp)
	.cfi_offset 8, -4
	addi	s0,sp,16
	.cfi_def_cfa 8, 0
	.loc 2 4328 24
	sw	a1,100(a0)
	.loc 2 4329 1
	lw	s0,12(sp)
	.cfi_restore 8
	.cfi_def_cfa 2, 16
	addi	sp,sp,16
	.cfi_def_cfa_offset 0
	jr	ra
	.cfi_endproc
.LFE87:
	.size	mbedtls_ssl_conf_cert_profile, .-mbedtls_ssl_conf_cert_profile
	.section	.text.mbedtls_ssl_conf_own_cert,"ax",@progbits
	.align	1
	.globl	mbedtls_ssl_conf_own_cert
	.type	mbedtls_ssl_conf_own_cert, @function
mbedtls_ssl_conf_own_cert:
.LFB89:
	.loc 2 4366 1 is_stmt 1
	.cfi_startproc
.LVL461:
	.loc 2 4367 5
	.loc 2 4366 1 is_stmt 0
	addi	sp,sp,-16
	.cfi_def_cfa_offset 16
	sw	s0,12(sp)
	.cfi_offset 8, -4
	addi	s0,sp,16
	.cfi_def_cfa 8, 0
	.loc 2 4368 1
	lw	s0,12(sp)
	.cfi_restore 8
	.cfi_def_cfa 2, 16
	.loc 2 4367 13
	addi	a0,a0,104
.LVL462:
	.loc 2 4368 1
	addi	sp,sp,16
	.cfi_def_cfa_offset 0
	.loc 2 4367 13
	tail	ssl_append_key_cert
.LVL463:
	.cfi_endproc
.LFE89:
	.size	mbedtls_ssl_conf_own_cert, .-mbedtls_ssl_conf_own_cert
	.section	.text.mbedtls_ssl_conf_ca_chain,"ax",@progbits
	.align	1
	.globl	mbedtls_ssl_conf_ca_chain
	.type	mbedtls_ssl_conf_ca_chain, @function
mbedtls_ssl_conf_ca_chain:
.LFB90:
	.loc 2 4373 1 is_stmt 1
	.cfi_startproc
.LVL464:
	.loc 2 4374 5
	.loc 2 4373 1 is_stmt 0
	addi	sp,sp,-16
	.cfi_def_cfa_offset 16
	sw	s0,12(sp)
	.cfi_offset 8, -4
	addi	s0,sp,16
	.cfi_def_cfa 8, 0
	.loc 2 4383 1
	lw	s0,12(sp)
	.cfi_restore 8
	.cfi_def_cfa 2, 16
	.loc 2 4374 20
	sw	a1,108(a0)
	.loc 2 4375 5 is_stmt 1
	.loc 2 4375 18 is_stmt 0
	sw	a2,112(a0)
	.loc 2 4383 1
	addi	sp,sp,16
	.cfi_def_cfa_offset 0
	jr	ra
	.cfi_endproc
.LFE90:
	.size	mbedtls_ssl_conf_ca_chain, .-mbedtls_ssl_conf_ca_chain
	.section	.text.mbedtls_ssl_set_hs_own_cert,"ax",@progbits
	.align	1
	.globl	mbedtls_ssl_set_hs_own_cert
	.type	mbedtls_ssl_set_hs_own_cert, @function
mbedtls_ssl_set_hs_own_cert:
.LFB91:
	.loc 2 4405 1 is_stmt 1
	.cfi_startproc
.LVL465:
	.loc 2 4406 5
	.loc 2 4405 1 is_stmt 0
	addi	sp,sp,-16
	.cfi_def_cfa_offset 16
	sw	s0,12(sp)
	.cfi_offset 8, -4
	addi	s0,sp,16
	.cfi_def_cfa 8, 0
	.loc 2 4406 13
	lw	a0,56(a0)
.LVL466:
	.loc 2 4408 1
	lw	s0,12(sp)
	.cfi_restore 8
	.cfi_def_cfa 2, 16
	.loc 2 4406 13
	addi	a0,a0,396
	.loc 2 4408 1
	addi	sp,sp,16
	.cfi_def_cfa_offset 0
	.loc 2 4406 13
	tail	ssl_append_key_cert
.LVL467:
	.cfi_endproc
.LFE91:
	.size	mbedtls_ssl_set_hs_own_cert, .-mbedtls_ssl_set_hs_own_cert
	.section	.text.mbedtls_ssl_set_hs_ca_chain,"ax",@progbits
	.align	1
	.globl	mbedtls_ssl_set_hs_ca_chain
	.type	mbedtls_ssl_set_hs_ca_chain, @function
mbedtls_ssl_set_hs_ca_chain:
.LFB92:
	.loc 2 4413 1 is_stmt 1
	.cfi_startproc
.LVL468:
	.loc 2 4414 5
	.loc 2 4413 1 is_stmt 0
	addi	sp,sp,-16
	.cfi_def_cfa_offset 16
	sw	s0,12(sp)
	.cfi_offset 8, -4
	addi	s0,sp,16
	.cfi_def_cfa 8, 0
	.loc 2 4414 8
	lw	a5,56(a0)
	.loc 2 4414 34
	sw	a1,400(a5)
	.loc 2 4415 5 is_stmt 1
	.loc 2 4415 8 is_stmt 0
	lw	a5,56(a0)
	.loc 2 4415 32
	sw	a2,404(a5)
	.loc 2 4416 1
	lw	s0,12(sp)
	.cfi_restore 8
	.cfi_def_cfa 2, 16
	addi	sp,sp,16
	.cfi_def_cfa_offset 0
	jr	ra
	.cfi_endproc
.LFE92:
	.size	mbedtls_ssl_set_hs_ca_chain, .-mbedtls_ssl_set_hs_ca_chain
	.section	.text.mbedtls_ssl_set_hs_authmode,"ax",@progbits
	.align	1
	.globl	mbedtls_ssl_set_hs_authmode
	.type	mbedtls_ssl_set_hs_authmode, @function
mbedtls_ssl_set_hs_authmode:
.LFB93:
	.loc 2 4420 1 is_stmt 1
	.cfi_startproc
.LVL469:
	.loc 2 4421 5
	.loc 2 4420 1 is_stmt 0
	addi	sp,sp,-16
	.cfi_def_cfa_offset 16
	sw	s0,12(sp)
	.cfi_offset 8, -4
	addi	s0,sp,16
	.cfi_def_cfa 8, 0
	.loc 2 4421 8
	lw	a5,56(a0)
	.loc 2 4421 34
	sb	a1,4(a5)
	.loc 2 4422 1
	lw	s0,12(sp)
	.cfi_restore 8
	.cfi_def_cfa 2, 16
	addi	sp,sp,16
	.cfi_def_cfa_offset 0
	jr	ra
	.cfi_endproc
.LFE93:
	.size	mbedtls_ssl_set_hs_authmode, .-mbedtls_ssl_set_hs_authmode
	.section	.text.mbedtls_ssl_set_verify,"ax",@progbits
	.align	1
	.globl	mbedtls_ssl_set_verify
	.type	mbedtls_ssl_set_verify, @function
mbedtls_ssl_set_verify:
.LFB94:
	.loc 2 4429 1 is_stmt 1
	.cfi_startproc
.LVL470:
	.loc 2 4430 5
	.loc 2 4429 1 is_stmt 0
	addi	sp,sp,-16
	.cfi_def_cfa_offset 16
	sw	s0,12(sp)
	.cfi_offset 8, -4
	addi	s0,sp,16
	.cfi_def_cfa 8, 0
	.loc 2 4432 1
	lw	s0,12(sp)
	.cfi_restore 8
	.cfi_def_cfa 2, 16
	.loc 2 4430 17
	sw	a1,16(a0)
	.loc 2 4431 5 is_stmt 1
	.loc 2 4431 17 is_stmt 0
	sw	a2,20(a0)
	.loc 2 4432 1
	addi	sp,sp,16
	.cfi_def_cfa_offset 0
	jr	ra
	.cfi_endproc
.LFE94:
	.size	mbedtls_ssl_set_verify, .-mbedtls_ssl_set_verify
	.section	.text.mbedtls_ssl_conf_psk,"ax",@progbits
	.align	1
	.globl	mbedtls_ssl_conf_psk
	.type	mbedtls_ssl_conf_psk, @function
mbedtls_ssl_conf_psk:
.LFB97:
	.loc 2 4527 1 is_stmt 1
	.cfi_startproc
.LVL471:
	.loc 2 4528 5
	.loc 2 4530 5
	.loc 2 4527 1 is_stmt 0
	addi	sp,sp,-32
	.cfi_def_cfa_offset 32
	sw	s0,24(sp)
	sw	s1,20(sp)
	sw	s2,16(sp)
	sw	s3,12(sp)
	sw	s4,8(sp)
	sw	s5,4(sp)
	sw	ra,28(sp)
	.cfi_offset 8, -8
	.cfi_offset 9, -12
	.cfi_offset 18, -16
	.cfi_offset 19, -20
	.cfi_offset 20, -24
	.cfi_offset 21, -28
	.cfi_offset 1, -4
	addi	s0,sp,32
	.cfi_def_cfa 8, 0
	mv	s5,a1
	.loc 2 4527 1
	mv	s2,a0
	mv	s3,a2
	mv	s4,a3
	mv	s1,a4
	.loc 2 4530 5
	call	ssl_conf_remove_psk
.LVL472:
	.loc 2 4533 5 is_stmt 1
	.loc 2 4533 7 is_stmt 0
	beq	s5,zero,.L249
	.loc 2 4535 5 is_stmt 1
	.loc 2 4535 7 is_stmt 0
	addi	a5,s3,-1
	li	a4,31
	bgtu	a5,a4,.L249
	.loc 2 4537 5 is_stmt 1
	.loc 2 4540 5
	.loc 2 4540 23 is_stmt 0
	mv	a1,s3
	li	a0,1
	call	mbedtls_calloc
.LVL473:
	.loc 2 4540 21
	sw	a0,148(s2)
	.loc 2 4540 7
	beq	a0,zero,.L250
	.loc 2 4542 5 is_stmt 1
	.loc 2 4542 19 is_stmt 0
	sw	s3,152(s2)
	.loc 2 4543 5 is_stmt 1
	mv	a2,s3
	mv	a1,s5
	call	memcpy
.LVL474:
	.loc 2 4546 5
.LBB88:
.LBB89:
	.loc 2 4507 5
	.loc 2 4507 7 is_stmt 0
	beq	s4,zero,.L253
	.loc 2 4508 28
	srli	a5,s1,16
	.loc 2 4507 43
	bne	a5,zero,.L253
	.loc 2 4508 41
	li	a5,16384
	bgtu	s1,a5,.L253
	.loc 2 4514 5 is_stmt 1
	.loc 2 4514 26 is_stmt 0
	mv	a1,s1
	li	a0,1
	call	mbedtls_calloc
.LVL475:
	.loc 2 4514 24
	sw	a0,156(s2)
	.loc 2 4515 5 is_stmt 1
	.loc 2 4515 7 is_stmt 0
	beq	a0,zero,.L254
	.loc 2 4518 5 is_stmt 1
	.loc 2 4518 28 is_stmt 0
	sw	s1,160(s2)
	.loc 2 4519 5 is_stmt 1
	mv	a2,s1
	mv	a1,s4
	call	memcpy
.LVL476:
	.loc 2 4521 5
.LBE89:
.LBE88:
	.loc 2 4547 5
.LBB93:
.LBB90:
	.loc 2 4521 11 is_stmt 0
	li	s1,0
.LVL477:
.L245:
.LBE90:
.LBE93:
	.loc 2 4551 1
	lw	ra,28(sp)
	.cfi_remember_state
	.cfi_restore 1
	lw	s0,24(sp)
	.cfi_restore 8
	.cfi_def_cfa 2, 32
	lw	s2,16(sp)
	.cfi_restore 18
.LVL478:
	lw	s3,12(sp)
	.cfi_restore 19
.LVL479:
	lw	s4,8(sp)
	.cfi_restore 20
.LVL480:
	lw	s5,4(sp)
	.cfi_restore 21
.LVL481:
	mv	a0,s1
	lw	s1,20(sp)
	.cfi_restore 9
	addi	sp,sp,32
	.cfi_def_cfa_offset 0
	jr	ra
.LVL482:
.L253:
	.cfi_restore_state
.LBB94:
.LBB91:
	.loc 2 4511 15
	li	s1,-28672
.LVL483:
	addi	s1,s1,-256
.L247:
.LVL484:
.LBE91:
.LBE94:
	.loc 2 4548 9 is_stmt 1
	mv	a0,s2
	call	ssl_conf_remove_psk
.LVL485:
	j	.L245
.LVL486:
.L254:
.LBB95:
.LBB92:
	.loc 2 4516 15 is_stmt 0
	li	s1,-32768
.LVL487:
	addi	s1,s1,256
	j	.L247
.LVL488:
.L249:
.LBE92:
.LBE95:
	.loc 2 4534 15
	li	s1,-28672
.LVL489:
	addi	s1,s1,-256
	j	.L245
.LVL490:
.L250:
	.loc 2 4541 15
	li	s1,-32768
.LVL491:
	addi	s1,s1,256
	j	.L245
	.cfi_endproc
.LFE97:
	.size	mbedtls_ssl_conf_psk, .-mbedtls_ssl_conf_psk
	.section	.text.mbedtls_ssl_set_hs_psk,"ax",@progbits
	.align	1
	.globl	mbedtls_ssl_set_hs_psk
	.type	mbedtls_ssl_set_hs_psk, @function
mbedtls_ssl_set_hs_psk:
.LFB99:
	.loc 2 4573 1 is_stmt 1
	.cfi_startproc
.LVL492:
	.loc 2 4574 5
	.loc 2 4574 7 is_stmt 0
	beq	a1,zero,.L259
	.loc 2 4573 1 discriminator 1
	addi	sp,sp,-32
	.cfi_def_cfa_offset 32
	sw	s0,24(sp)
	sw	s1,20(sp)
	sw	ra,28(sp)
	sw	s2,16(sp)
	sw	s3,12(sp)
	sw	s4,8(sp)
	.cfi_offset 8, -8
	.cfi_offset 9, -12
	.cfi_offset 1, -4
	.cfi_offset 18, -16
	.cfi_offset 19, -20
	.cfi_offset 20, -24
	addi	s0,sp,32
	.cfi_def_cfa 8, 0
	.loc 2 4574 26 discriminator 1
	lw	a5,56(a0)
	mv	s1,a0
	.loc 2 4574 20 discriminator 1
	beq	a5,zero,.L261
	.loc 2 4577 7
	li	a4,32
	mv	s2,a2
	.loc 2 4577 5 is_stmt 1
	.loc 2 4577 7 is_stmt 0
	bgtu	a2,a4,.L261
.LBB98:
.LBB99:
	.loc 2 4562 23
	lw	a0,384(a5)
.LVL493:
	mv	s3,a1
.LBE99:
.LBE98:
	.loc 2 4580 5 is_stmt 1
.LVL494:
.LBB101:
.LBB100:
	.loc 2 4562 5
	.loc 2 4562 7 is_stmt 0
	beq	a0,zero,.L258
	.loc 2 4564 9 is_stmt 1
	lw	a1,388(a5)
.LVL495:
	call	mbedtls_platform_zeroize
.LVL496:
	.loc 2 4566 9
	.loc 2 4566 37 is_stmt 0
	lw	a5,56(s1)
	.loc 2 4566 9
	lw	a0,384(a5)
	call	mbedtls_free
.LVL497:
	.loc 2 4567 9 is_stmt 1
	.loc 2 4567 12 is_stmt 0
	lw	a5,56(s1)
	.loc 2 4567 33
	sw	zero,388(a5)
.L258:
.LVL498:
.LBE100:
.LBE101:
	.loc 2 4582 5 is_stmt 1
	.loc 2 4582 14 is_stmt 0
	lw	s4,56(s1)
	.loc 2 4582 33
	mv	a1,s2
	li	a0,1
	call	mbedtls_calloc
.LVL499:
	.loc 2 4582 31
	sw	a0,384(s4)
	.loc 2 4582 7
	beq	a0,zero,.L262
	.loc 2 4585 5 is_stmt 1
	.loc 2 4585 8 is_stmt 0
	lw	a5,56(s1)
	.loc 2 4586 5
	mv	a1,s3
	.loc 2 4585 29
	sw	s2,388(a5)
	.loc 2 4586 5 is_stmt 1
	.loc 2 4586 16 is_stmt 0
	lw	a5,56(s1)
	.loc 2 4586 5
	lw	a2,388(a5)
	lw	a0,384(a5)
	call	memcpy
.LVL500:
	.loc 2 4588 5 is_stmt 1
	.loc 2 4588 11 is_stmt 0
	li	a0,0
.LVL501:
.L256:
	.loc 2 4589 1
	lw	ra,28(sp)
	.cfi_restore 1
	lw	s0,24(sp)
	.cfi_restore 8
	.cfi_def_cfa 2, 32
	lw	s1,20(sp)
	.cfi_restore 9
.LVL502:
	lw	s2,16(sp)
	.cfi_restore 18
	lw	s3,12(sp)
	.cfi_restore 19
	lw	s4,8(sp)
	.cfi_restore 20
	addi	sp,sp,32
	.cfi_def_cfa_offset 0
	jr	ra
.LVL503:
.L259:
	.loc 2 4575 15
	li	a0,-28672
.LVL504:
	addi	a0,a0,-256
	.loc 2 4589 1
	ret
.LVL505:
.L261:
	.cfi_def_cfa_register 8
	.cfi_offset 1, -4
	.cfi_offset 8, -8
	.cfi_offset 9, -12
	.cfi_offset 18, -16
	.cfi_offset 19, -20
	.cfi_offset 20, -24
	.loc 2 4575 15
	li	a0,-28672
	addi	a0,a0,-256
	j	.L256
.LVL506:
.L262:
	.loc 2 4583 15
	li	a0,-32768
	addi	a0,a0,256
	j	.L256
	.cfi_endproc
.LFE99:
	.size	mbedtls_ssl_set_hs_psk, .-mbedtls_ssl_set_hs_psk
	.section	.text.mbedtls_ssl_conf_psk_cb,"ax",@progbits
	.align	1
	.globl	mbedtls_ssl_conf_psk_cb
	.type	mbedtls_ssl_conf_psk_cb, @function
mbedtls_ssl_conf_psk_cb:
.LFB100:
	.loc 2 4632 1 is_stmt 1
	.cfi_startproc
.LVL507:
	.loc 2 4633 5
	.loc 2 4632 1 is_stmt 0
	addi	sp,sp,-16
	.cfi_def_cfa_offset 16
	sw	s0,12(sp)
	.cfi_offset 8, -4
	addi	s0,sp,16
	.cfi_def_cfa 8, 0
	.loc 2 4635 1
	lw	s0,12(sp)
	.cfi_restore 8
	.cfi_def_cfa 2, 16
	.loc 2 4633 17
	sw	a1,80(a0)
	.loc 2 4634 5 is_stmt 1
	.loc 2 4634 17 is_stmt 0
	sw	a2,84(a0)
	.loc 2 4635 1
	addi	sp,sp,16
	.cfi_def_cfa_offset 0
	jr	ra
	.cfi_endproc
.LFE100:
	.size	mbedtls_ssl_conf_psk_cb, .-mbedtls_ssl_conf_psk_cb
	.section	.text.mbedtls_ssl_conf_dh_param,"ax",@progbits
	.align	1
	.globl	mbedtls_ssl_conf_dh_param
	.type	mbedtls_ssl_conf_dh_param, @function
mbedtls_ssl_conf_dh_param:
.LFB101:
	.loc 2 4642 1 is_stmt 1
	.cfi_startproc
.LVL508:
	.loc 2 4643 5
	.loc 2 4645 5
	.loc 2 4642 1 is_stmt 0
	addi	sp,sp,-32
	.cfi_def_cfa_offset 32
	sw	s0,24(sp)
	sw	s2,16(sp)
	sw	s3,12(sp)
	sw	s4,8(sp)
	sw	ra,28(sp)
	sw	s1,20(sp)
	.cfi_offset 8, -8
	.cfi_offset 18, -16
	.cfi_offset 19, -20
	.cfi_offset 20, -24
	.cfi_offset 1, -4
	.cfi_offset 9, -12
	addi	s0,sp,32
	.cfi_def_cfa 8, 0
	.loc 2 4645 17
	addi	s4,a0,124
	.loc 2 4642 1
	mv	s2,a0
	.loc 2 4642 1
	mv	s3,a2
	.loc 2 4645 17
	mv	a0,s4
.LVL509:
	mv	a2,a1
.LVL510:
	li	a1,16
.LVL511:
	call	mbedtls_mpi_read_string
.LVL512:
	.loc 2 4646 17
	addi	s2,s2,136
.LVL513:
	.loc 2 4645 7
	bne	a0,zero,.L278
	.loc 2 4646 17 discriminator 1
	mv	a2,s3
	li	a1,16
	mv	a0,s2
.LVL514:
	call	mbedtls_mpi_read_string
.LVL515:
	mv	s1,a0
.LVL516:
	.loc 2 4645 75 discriminator 1
	beq	a0,zero,.L272
.LVL517:
.L273:
	.loc 2 4648 9 is_stmt 1
	mv	a0,s4
	call	mbedtls_mpi_free
.LVL518:
	.loc 2 4649 9
	mv	a0,s2
	call	mbedtls_mpi_free
.LVL519:
	.loc 2 4650 9
.L272:
	.loc 2 4654 1 is_stmt 0
	lw	ra,28(sp)
	.cfi_remember_state
	.cfi_restore 1
	lw	s0,24(sp)
	.cfi_restore 8
	.cfi_def_cfa 2, 32
	lw	s2,16(sp)
	.cfi_restore 18
.LVL520:
	lw	s3,12(sp)
	.cfi_restore 19
.LVL521:
	lw	s4,8(sp)
	.cfi_restore 20
.LVL522:
	mv	a0,s1
	lw	s1,20(sp)
	.cfi_restore 9
.LVL523:
	addi	sp,sp,32
	.cfi_def_cfa_offset 0
	jr	ra
.LVL524:
.L278:
	.cfi_restore_state
	mv	s1,a0
	j	.L273
	.cfi_endproc
.LFE101:
	.size	mbedtls_ssl_conf_dh_param, .-mbedtls_ssl_conf_dh_param
	.section	.text.mbedtls_ssl_conf_dh_param_bin,"ax",@progbits
	.align	1
	.globl	mbedtls_ssl_conf_dh_param_bin
	.type	mbedtls_ssl_conf_dh_param_bin, @function
mbedtls_ssl_conf_dh_param_bin:
.LFB102:
	.loc 2 4660 1 is_stmt 1
	.cfi_startproc
.LVL525:
	.loc 2 4661 5
	.loc 2 4663 5
	.loc 2 4660 1 is_stmt 0
	addi	sp,sp,-48
	.cfi_def_cfa_offset 48
	sw	ra,44(sp)
	sw	s0,40(sp)
	sw	s2,32(sp)
	.cfi_offset 1, -4
	.cfi_offset 8, -8
	.cfi_offset 18, -16
	addi	s0,sp,48
	.cfi_def_cfa 8, 0
	sw	s3,28(sp)
	sw	s4,24(sp)
	sw	s5,20(sp)
	sw	s1,36(sp)
	.cfi_offset 19, -20
	.cfi_offset 20, -24
	.cfi_offset 21, -28
	.cfi_offset 9, -12
	.loc 2 4663 5
	addi	s3,a0,124
	.loc 2 4660 1
	.loc 2 4660 1
	mv	s2,a0
	.loc 2 4663 5
	mv	a0,s3
.LVL526:
	.loc 2 4660 1
	sw	a1,-40(s0)
	sw	a2,-36(s0)
	mv	s4,a3
	mv	s5,a4
	.loc 2 4664 5
	addi	s2,s2,136
.LVL527:
	.loc 2 4663 5
	call	mbedtls_mpi_free
.LVL528:
	.loc 2 4664 5 is_stmt 1
	mv	a0,s2
	call	mbedtls_mpi_free
.LVL529:
	.loc 2 4666 5
	.loc 2 4666 17 is_stmt 0
	lw	a2,-36(s0)
	lw	a1,-40(s0)
	mv	a0,s3
	call	mbedtls_mpi_read_binary
.LVL530:
	.loc 2 4666 7
	bne	a0,zero,.L286
	.loc 2 4667 17 discriminator 1
	mv	a2,s5
	mv	a1,s4
	mv	a0,s2
.LVL531:
	call	mbedtls_mpi_read_binary
.LVL532:
	mv	s1,a0
.LVL533:
	.loc 2 4666 78 discriminator 1
	beq	a0,zero,.L280
.LVL534:
.L281:
	.loc 2 4669 9 is_stmt 1
	mv	a0,s3
	call	mbedtls_mpi_free
.LVL535:
	.loc 2 4670 9
	mv	a0,s2
	call	mbedtls_mpi_free
.LVL536:
	.loc 2 4671 9
.L280:
	.loc 2 4675 1 is_stmt 0
	lw	ra,44(sp)
	.cfi_remember_state
	.cfi_restore 1
	lw	s0,40(sp)
	.cfi_restore 8
	.cfi_def_cfa 2, 48
.LVL537:
	lw	s2,32(sp)
	.cfi_restore 18
.LVL538:
	lw	s3,28(sp)
	.cfi_restore 19
.LVL539:
	lw	s4,24(sp)
	.cfi_restore 20
.LVL540:
	lw	s5,20(sp)
	.cfi_restore 21
.LVL541:
	mv	a0,s1
	lw	s1,36(sp)
	.cfi_restore 9
.LVL542:
	addi	sp,sp,48
	.cfi_def_cfa_offset 0
	jr	ra
.LVL543:
.L286:
	.cfi_restore_state
	mv	s1,a0
	j	.L281
	.cfi_endproc
.LFE102:
	.size	mbedtls_ssl_conf_dh_param_bin, .-mbedtls_ssl_conf_dh_param_bin
	.section	.text.mbedtls_ssl_conf_dh_param_ctx,"ax",@progbits
	.align	1
	.globl	mbedtls_ssl_conf_dh_param_ctx
	.type	mbedtls_ssl_conf_dh_param_ctx, @function
mbedtls_ssl_conf_dh_param_ctx:
.LFB103:
	.loc 2 4678 1 is_stmt 1
	.cfi_startproc
.LVL544:
	.loc 2 4679 5
	.loc 2 4681 5
	.loc 2 4678 1 is_stmt 0
	addi	sp,sp,-32
	.cfi_def_cfa_offset 32
	sw	ra,28(sp)
	sw	s0,24(sp)
	sw	s2,16(sp)
	sw	s3,12(sp)
	sw	s4,8(sp)
	.cfi_offset 1, -4
	.cfi_offset 8, -8
	.cfi_offset 18, -16
	.cfi_offset 19, -20
	.cfi_offset 20, -24
	addi	s0,sp,32
	.cfi_def_cfa 8, 0
	sw	s1,20(sp)
	.loc 2 4681 5
	addi	s4,a0,124
	.loc 2 4678 1
	mv	s2,a0
	.cfi_offset 9, -12
	.loc 2 4681 5
	mv	a0,s4
.LVL545:
	.loc 2 4678 1
	mv	s3,a1
	.loc 2 4682 5
	addi	s2,s2,136
.LVL546:
	.loc 2 4681 5
	call	mbedtls_mpi_free
.LVL547:
	.loc 2 4682 5 is_stmt 1
	mv	a0,s2
	call	mbedtls_mpi_free
.LVL548:
	.loc 2 4684 5
	.loc 2 4684 17 is_stmt 0
	addi	a1,s3,4
	mv	a0,s4
	call	mbedtls_mpi_copy
.LVL549:
	.loc 2 4684 7
	bne	a0,zero,.L294
	.loc 2 4685 17 discriminator 1
	addi	a1,s3,16
	mv	a0,s2
.LVL550:
	call	mbedtls_mpi_copy
.LVL551:
	mv	s1,a0
.LVL552:
	.loc 2 4684 70 discriminator 1
	beq	a0,zero,.L288
.LVL553:
.L289:
	.loc 2 4687 9 is_stmt 1
	mv	a0,s4
	call	mbedtls_mpi_free
.LVL554:
	.loc 2 4688 9
	mv	a0,s2
	call	mbedtls_mpi_free
.LVL555:
	.loc 2 4689 9
.L288:
	.loc 2 4693 1 is_stmt 0
	lw	ra,28(sp)
	.cfi_remember_state
	.cfi_restore 1
	lw	s0,24(sp)
	.cfi_restore 8
	.cfi_def_cfa 2, 32
	lw	s2,16(sp)
	.cfi_restore 18
.LVL556:
	lw	s3,12(sp)
	.cfi_restore 19
.LVL557:
	lw	s4,8(sp)
	.cfi_restore 20
.LVL558:
	mv	a0,s1
	lw	s1,20(sp)
	.cfi_restore 9
.LVL559:
	addi	sp,sp,32
	.cfi_def_cfa_offset 0
	jr	ra
.LVL560:
.L294:
	.cfi_restore_state
	mv	s1,a0
	j	.L289
	.cfi_endproc
.LFE103:
	.size	mbedtls_ssl_conf_dh_param_ctx, .-mbedtls_ssl_conf_dh_param_ctx
	.section	.text.mbedtls_ssl_conf_dhm_min_bitlen,"ax",@progbits
	.align	1
	.globl	mbedtls_ssl_conf_dhm_min_bitlen
	.type	mbedtls_ssl_conf_dhm_min_bitlen, @function
mbedtls_ssl_conf_dhm_min_bitlen:
.LFB104:
	.loc 2 4702 1 is_stmt 1
	.cfi_startproc
.LVL561:
	.loc 2 4703 5
	.loc 2 4702 1 is_stmt 0
	addi	sp,sp,-16
	.cfi_def_cfa_offset 16
	sw	s0,12(sp)
	.cfi_offset 8, -4
	addi	s0,sp,16
	.cfi_def_cfa 8, 0
	.loc 2 4703 26
	sw	a1,16(a0)
	.loc 2 4704 1
	lw	s0,12(sp)
	.cfi_restore 8
	.cfi_def_cfa 2, 16
	addi	sp,sp,16
	.cfi_def_cfa_offset 0
	jr	ra
	.cfi_endproc
.LFE104:
	.size	mbedtls_ssl_conf_dhm_min_bitlen, .-mbedtls_ssl_conf_dhm_min_bitlen
	.section	.text.mbedtls_ssl_conf_sig_hashes,"ax",@progbits
	.align	1
	.globl	mbedtls_ssl_conf_sig_hashes
	.type	mbedtls_ssl_conf_sig_hashes, @function
mbedtls_ssl_conf_sig_hashes:
.LFB105:
	.loc 2 4713 1 is_stmt 1
	.cfi_startproc
.LVL562:
	.loc 2 4714 5
	.loc 2 4713 1 is_stmt 0
	addi	sp,sp,-16
	.cfi_def_cfa_offset 16
	sw	s0,12(sp)
	.cfi_offset 8, -4
	addi	s0,sp,16
	.cfi_def_cfa 8, 0
	.loc 2 4714 22
	sw	a1,116(a0)
	.loc 2 4715 1
	lw	s0,12(sp)
	.cfi_restore 8
	.cfi_def_cfa 2, 16
	addi	sp,sp,16
	.cfi_def_cfa_offset 0
	jr	ra
	.cfi_endproc
.LFE105:
	.size	mbedtls_ssl_conf_sig_hashes, .-mbedtls_ssl_conf_sig_hashes
	.section	.text.mbedtls_ssl_conf_curves,"ax",@progbits
	.align	1
	.globl	mbedtls_ssl_conf_curves
	.type	mbedtls_ssl_conf_curves, @function
mbedtls_ssl_conf_curves:
.LFB106:
	.loc 2 4724 1 is_stmt 1
	.cfi_startproc
.LVL563:
	.loc 2 4725 5
	.loc 2 4724 1 is_stmt 0
	addi	sp,sp,-16
	.cfi_def_cfa_offset 16
	sw	s0,12(sp)
	.cfi_offset 8, -4
	addi	s0,sp,16
	.cfi_def_cfa 8, 0
	.loc 2 4725 22
	sw	a1,120(a0)
	.loc 2 4726 1
	lw	s0,12(sp)
	.cfi_restore 8
	.cfi_def_cfa 2, 16
	addi	sp,sp,16
	.cfi_def_cfa_offset 0
	jr	ra
	.cfi_endproc
.LFE106:
	.size	mbedtls_ssl_conf_curves, .-mbedtls_ssl_conf_curves
	.section	.text.mbedtls_ssl_set_hostname,"ax",@progbits
	.align	1
	.globl	mbedtls_ssl_set_hostname
	.type	mbedtls_ssl_set_hostname, @function
mbedtls_ssl_set_hostname:
.LFB107:
	.loc 2 4731 1 is_stmt 1
	.cfi_startproc
.LVL564:
	.loc 2 4733 5
	.loc 2 4737 5
	.loc 2 4731 1 is_stmt 0
	addi	sp,sp,-32
	.cfi_def_cfa_offset 32
	sw	s0,24(sp)
	sw	s2,16(sp)
	sw	s3,12(sp)
	sw	ra,28(sp)
	sw	s1,20(sp)
	sw	s4,8(sp)
	.cfi_offset 8, -8
	.cfi_offset 18, -16
	.cfi_offset 19, -20
	.cfi_offset 1, -4
	.cfi_offset 9, -12
	.cfi_offset 20, -24
	addi	s0,sp,32
	.cfi_def_cfa 8, 0
	.loc 2 4731 1
	mv	s2,a0
	mv	s3,a1
	.loc 2 4737 7
	beq	a1,zero,.L307
	.loc 2 4739 9 is_stmt 1
	.loc 2 4739 24 is_stmt 0
	mv	a0,a1
.LVL565:
	call	strlen
.LVL566:
	.loc 2 4741 11
	li	a5,255
	.loc 2 4739 24
	mv	s1,a0
.LVL567:
	.loc 2 4741 9 is_stmt 1
	.loc 2 4741 11 is_stmt 0
	bleu	a0,a5,.L303
	.loc 2 4742 19
	li	a0,-28672
	addi	a0,a0,-256
	j	.L302
.LVL568:
.L307:
	.loc 2 4733 12
	li	s1,0
.LVL569:
.L303:
	.loc 2 4748 5 is_stmt 1
	.loc 2 4748 12 is_stmt 0
	lw	s4,188(s2)
	.loc 2 4748 7
	beq	s4,zero,.L305
	.loc 2 4750 9 is_stmt 1
	mv	a0,s4
	call	strlen
.LVL570:
	mv	a1,a0
	mv	a0,s4
	call	mbedtls_platform_zeroize
.LVL571:
	.loc 2 4751 9
	lw	a0,188(s2)
	call	mbedtls_free
.LVL572:
.L305:
	.loc 2 4756 5
	.loc 2 4756 7 is_stmt 0
	bne	s3,zero,.L306
	.loc 2 4758 9 is_stmt 1
	.loc 2 4758 23 is_stmt 0
	sw	zero,188(s2)
.L314:
	.loc 2 4771 11
	li	a0,0
.L302:
	.loc 2 4772 1
	lw	ra,28(sp)
	.cfi_remember_state
	.cfi_restore 1
	lw	s0,24(sp)
	.cfi_restore 8
	.cfi_def_cfa 2, 32
	lw	s1,20(sp)
	.cfi_restore 9
.LVL573:
	lw	s2,16(sp)
	.cfi_restore 18
.LVL574:
	lw	s3,12(sp)
	.cfi_restore 19
.LVL575:
	lw	s4,8(sp)
	.cfi_restore 20
	addi	sp,sp,32
	.cfi_def_cfa_offset 0
	jr	ra
.LVL576:
.L306:
	.cfi_restore_state
	.loc 2 4762 9 is_stmt 1
	.loc 2 4762 25 is_stmt 0
	addi	a1,s1,1
	li	a0,1
	call	mbedtls_calloc
.LVL577:
	.loc 2 4762 23
	sw	a0,188(s2)
	.loc 2 4763 9 is_stmt 1
	.loc 2 4763 11 is_stmt 0
	beq	a0,zero,.L309
	.loc 2 4766 9 is_stmt 1
	mv	a2,s1
	mv	a1,s3
	call	memcpy
.LVL578:
	.loc 2 4768 9
	.loc 2 4768 37 is_stmt 0
	lw	a0,188(s2)
	add	a0,a0,s1
	sb	zero,0(a0)
	j	.L314
.L309:
	.loc 2 4764 19
	li	a0,-32768
	addi	a0,a0,256
	j	.L302
	.cfi_endproc
.LFE107:
	.size	mbedtls_ssl_set_hostname, .-mbedtls_ssl_set_hostname
	.section	.text.mbedtls_ssl_conf_sni,"ax",@progbits
	.align	1
	.globl	mbedtls_ssl_conf_sni
	.type	mbedtls_ssl_conf_sni, @function
mbedtls_ssl_conf_sni:
.LFB108:
	.loc 2 4780 1 is_stmt 1
	.cfi_startproc
.LVL579:
	.loc 2 4781 5
	.loc 2 4780 1 is_stmt 0
	addi	sp,sp,-16
	.cfi_def_cfa_offset 16
	sw	s0,12(sp)
	.cfi_offset 8, -4
	addi	s0,sp,16
	.cfi_def_cfa 8, 0
	.loc 2 4783 1
	lw	s0,12(sp)
	.cfi_restore 8
	.cfi_def_cfa 2, 16
	.loc 2 4781 17
	sw	a1,64(a0)
	.loc 2 4782 5 is_stmt 1
	.loc 2 4782 17 is_stmt 0
	sw	a2,68(a0)
	.loc 2 4783 1
	addi	sp,sp,16
	.cfi_def_cfa_offset 0
	jr	ra
	.cfi_endproc
.LFE108:
	.size	mbedtls_ssl_conf_sni, .-mbedtls_ssl_conf_sni
	.section	.text.mbedtls_ssl_conf_alpn_protocols,"ax",@progbits
	.align	1
	.globl	mbedtls_ssl_conf_alpn_protocols
	.type	mbedtls_ssl_conf_alpn_protocols, @function
mbedtls_ssl_conf_alpn_protocols:
.LFB109:
	.loc 2 4788 1 is_stmt 1
	.cfi_startproc
.LVL580:
	.loc 2 4789 5
	.loc 2 4790 5
	.loc 2 4797 5
	.loc 2 4798 5
	.loc 2 4788 1 is_stmt 0
	addi	sp,sp,-32
	.cfi_def_cfa_offset 32
	sw	s0,24(sp)
	sw	s1,20(sp)
	sw	s2,16(sp)
	sw	s3,12(sp)
	sw	s4,8(sp)
	sw	s5,4(sp)
	sw	s6,0(sp)
	sw	ra,28(sp)
	.cfi_offset 8, -8
	.cfi_offset 9, -12
	.cfi_offset 18, -16
	.cfi_offset 19, -20
	.cfi_offset 20, -24
	.cfi_offset 21, -28
	.cfi_offset 22, -32
	.cfi_offset 1, -4
	addi	s0,sp,32
	.cfi_def_cfa 8, 0
	.loc 2 4788 1
	mv	s2,a0
	mv	s1,a1
	.loc 2 4798 12
	mv	s3,a1
	.loc 2 4797 13
	li	s4,0
	.loc 2 4803 11
	li	s5,254
	.loc 2 4804 31
	li	s6,65536
.LVL581:
.L318:
	.loc 2 4798 22 is_stmt 1 discriminator 1
	lw	a0,0(s3)
	.loc 2 4798 5 is_stmt 0 discriminator 1
	bne	a0,zero,.L320
	.loc 2 4809 5 is_stmt 1
	.loc 2 4809 21 is_stmt 0
	sw	s1,164(s2)
	.loc 2 4811 5 is_stmt 1
.L317:
	.loc 2 4812 1 is_stmt 0
	lw	ra,28(sp)
	.cfi_remember_state
	.cfi_restore 1
	lw	s0,24(sp)
	.cfi_restore 8
	.cfi_def_cfa 2, 32
	lw	s1,20(sp)
	.cfi_restore 9
.LVL582:
	lw	s2,16(sp)
	.cfi_restore 18
.LVL583:
	lw	s3,12(sp)
	.cfi_restore 19
.LVL584:
	lw	s4,8(sp)
	.cfi_restore 20
.LVL585:
	lw	s5,4(sp)
	.cfi_restore 21
	lw	s6,0(sp)
	.cfi_restore 22
	addi	sp,sp,32
	.cfi_def_cfa_offset 0
	jr	ra
.LVL586:
.L320:
	.cfi_restore_state
	.loc 2 4800 9 is_stmt 1
	.loc 2 4800 19 is_stmt 0
	call	strlen
.LVL587:
	.loc 2 4801 9 is_stmt 1
	.loc 2 4803 30 is_stmt 0
	addi	a5,a0,-1
	.loc 2 4801 17
	add	s4,s4,a0
.LVL588:
	.loc 2 4803 9 is_stmt 1
	.loc 2 4803 11 is_stmt 0
	bgtu	a5,s5,.L322
	.loc 2 4804 31
	bgeu	s4,s6,.L322
	.loc 2 4798 33 is_stmt 1 discriminator 2
	.loc 2 4798 34 is_stmt 0 discriminator 2
	addi	s3,s3,4
.LVL589:
	j	.L318
.L322:
	.loc 2 4806 19
	li	a0,-28672
.LVL590:
	addi	a0,a0,-256
	j	.L317
	.cfi_endproc
.LFE109:
	.size	mbedtls_ssl_conf_alpn_protocols, .-mbedtls_ssl_conf_alpn_protocols
	.section	.text.mbedtls_ssl_get_alpn_protocol,"ax",@progbits
	.align	1
	.globl	mbedtls_ssl_get_alpn_protocol
	.type	mbedtls_ssl_get_alpn_protocol, @function
mbedtls_ssl_get_alpn_protocol:
.LFB110:
	.loc 2 4815 1 is_stmt 1
	.cfi_startproc
.LVL591:
	.loc 2 4816 5
	.loc 2 4815 1 is_stmt 0
	addi	sp,sp,-16
	.cfi_def_cfa_offset 16
	sw	s0,12(sp)
	.cfi_offset 8, -4
	addi	s0,sp,16
	.cfi_def_cfa 8, 0
	.loc 2 4817 1
	lw	s0,12(sp)
	.cfi_restore 8
	.cfi_def_cfa 2, 16
	lw	a0,192(a0)
.LVL592:
	addi	sp,sp,16
	.cfi_def_cfa_offset 0
	jr	ra
	.cfi_endproc
.LFE110:
	.size	mbedtls_ssl_get_alpn_protocol, .-mbedtls_ssl_get_alpn_protocol
	.section	.text.mbedtls_ssl_conf_max_version,"ax",@progbits
	.align	1
	.globl	mbedtls_ssl_conf_max_version
	.type	mbedtls_ssl_conf_max_version, @function
mbedtls_ssl_conf_max_version:
.LFB111:
	.loc 2 4901 1 is_stmt 1
	.cfi_startproc
.LVL593:
	.loc 2 4902 5
	.loc 2 4901 1 is_stmt 0
	addi	sp,sp,-16
	.cfi_def_cfa_offset 16
	sw	s0,12(sp)
	.cfi_offset 8, -4
	addi	s0,sp,16
	.cfi_def_cfa 8, 0
	.loc 2 4904 1
	lw	s0,12(sp)
	.cfi_restore 8
	.cfi_def_cfa 2, 16
	.loc 2 4902 25
	sb	a1,0(a0)
	.loc 2 4903 5 is_stmt 1
	.loc 2 4903 25 is_stmt 0
	sb	a2,1(a0)
	.loc 2 4904 1
	addi	sp,sp,16
	.cfi_def_cfa_offset 0
	jr	ra
	.cfi_endproc
.LFE111:
	.size	mbedtls_ssl_conf_max_version, .-mbedtls_ssl_conf_max_version
	.section	.text.mbedtls_ssl_conf_min_version,"ax",@progbits
	.align	1
	.globl	mbedtls_ssl_conf_min_version
	.type	mbedtls_ssl_conf_min_version, @function
mbedtls_ssl_conf_min_version:
.LFB112:
	.loc 2 4907 1 is_stmt 1
	.cfi_startproc
.LVL594:
	.loc 2 4908 5
	.loc 2 4907 1 is_stmt 0
	addi	sp,sp,-16
	.cfi_def_cfa_offset 16
	sw	s0,12(sp)
	.cfi_offset 8, -4
	addi	s0,sp,16
	.cfi_def_cfa 8, 0
	.loc 2 4910 1
	lw	s0,12(sp)
	.cfi_restore 8
	.cfi_def_cfa 2, 16
	.loc 2 4908 25
	sb	a1,2(a0)
	.loc 2 4909 5 is_stmt 1
	.loc 2 4909 25 is_stmt 0
	sb	a2,3(a0)
	.loc 2 4910 1
	addi	sp,sp,16
	.cfi_def_cfa_offset 0
	jr	ra
	.cfi_endproc
.LFE112:
	.size	mbedtls_ssl_conf_min_version, .-mbedtls_ssl_conf_min_version
	.section	.text.mbedtls_ssl_conf_cert_req_ca_list,"ax",@progbits
	.align	1
	.globl	mbedtls_ssl_conf_cert_req_ca_list
	.type	mbedtls_ssl_conf_cert_req_ca_list, @function
mbedtls_ssl_conf_cert_req_ca_list:
.LFB113:
	.loc 2 4922 1 is_stmt 1
	.cfi_startproc
.LVL595:
	.loc 2 4923 5
	.loc 2 4922 1 is_stmt 0
	addi	sp,sp,-16
	.cfi_def_cfa_offset 16
	sw	s0,12(sp)
	.cfi_offset 8, -4
	addi	s0,sp,16
	.cfi_def_cfa 8, 0
	.loc 2 4923 28
	sb	a1,10(a0)
	.loc 2 4924 1
	lw	s0,12(sp)
	.cfi_restore 8
	.cfi_def_cfa 2, 16
	addi	sp,sp,16
	.cfi_def_cfa_offset 0
	jr	ra
	.cfi_endproc
.LFE113:
	.size	mbedtls_ssl_conf_cert_req_ca_list, .-mbedtls_ssl_conf_cert_req_ca_list
	.section	.text.mbedtls_ssl_conf_max_frag_len,"ax",@progbits
	.align	1
	.globl	mbedtls_ssl_conf_max_frag_len
	.type	mbedtls_ssl_conf_max_frag_len, @function
mbedtls_ssl_conf_max_frag_len:
.LFB114:
	.loc 2 4950 1 is_stmt 1
	.cfi_startproc
.LVL596:
	.loc 2 4951 5
	.loc 2 4951 7 is_stmt 0
	li	a5,4
	bgtu	a1,a5,.L334
	.loc 2 4950 1 discriminator 1
	addi	sp,sp,-16
	.cfi_def_cfa_offset 16
	sw	s0,8(sp)
	sw	s1,4(sp)
	sw	s2,0(sp)
	sw	ra,12(sp)
	.cfi_offset 8, -8
	.cfi_offset 9, -12
	.cfi_offset 18, -16
	.cfi_offset 1, -4
	addi	s0,sp,16
	.cfi_def_cfa 8, 0
	mv	s2,a0
	.loc 2 4952 9 discriminator 1
	mv	a0,a1
.LVL597:
	mv	s1,a1
	call	ssl_mfl_code_to_length
.LVL598:
	.loc 2 4951 23 discriminator 1
	li	a5,16384
	bgtu	a0,a5,.L335
	.loc 2 4957 5 is_stmt 1
	.loc 2 4957 20 is_stmt 0
	sb	s1,8(s2)
	.loc 2 4959 5 is_stmt 1
	.loc 2 4959 11 is_stmt 0
	li	a0,0
.L332:
	.loc 2 4960 1
	lw	ra,12(sp)
	.cfi_restore 1
	lw	s0,8(sp)
	.cfi_restore 8
	.cfi_def_cfa 2, 16
	lw	s1,4(sp)
	.cfi_restore 9
	lw	s2,0(sp)
	.cfi_restore 18
.LVL599:
	addi	sp,sp,16
	.cfi_def_cfa_offset 0
	jr	ra
.LVL600:
.L334:
	.loc 2 4954 15
	li	a0,-28672
.LVL601:
	addi	a0,a0,-256
	.loc 2 4960 1
	ret
.LVL602:
.L335:
	.cfi_def_cfa_register 8
	.cfi_offset 1, -4
	.cfi_offset 8, -8
	.cfi_offset 9, -12
	.cfi_offset 18, -16
	.loc 2 4954 15
	li	a0,-28672
	addi	a0,a0,-256
	j	.L332
	.cfi_endproc
.LFE114:
	.size	mbedtls_ssl_conf_max_frag_len, .-mbedtls_ssl_conf_max_frag_len
	.section	.text.mbedtls_ssl_conf_legacy_renegotiation,"ax",@progbits
	.align	1
	.globl	mbedtls_ssl_conf_legacy_renegotiation
	.type	mbedtls_ssl_conf_legacy_renegotiation, @function
mbedtls_ssl_conf_legacy_renegotiation:
.LFB115:
	.loc 2 4978 1 is_stmt 1
	.cfi_startproc
.LVL603:
	.loc 2 4979 5
	.loc 2 4978 1 is_stmt 0
	addi	sp,sp,-16
	.cfi_def_cfa_offset 16
	sw	s0,12(sp)
	.cfi_offset 8, -4
	addi	s0,sp,16
	.cfi_def_cfa 8, 0
	.loc 2 4979 38
	sb	a1,7(a0)
	.loc 2 4980 1
	lw	s0,12(sp)
	.cfi_restore 8
	.cfi_def_cfa 2, 16
	addi	sp,sp,16
	.cfi_def_cfa_offset 0
	jr	ra
	.cfi_endproc
.LFE115:
	.size	mbedtls_ssl_conf_legacy_renegotiation, .-mbedtls_ssl_conf_legacy_renegotiation
	.section	.text.mbedtls_ssl_conf_session_tickets,"ax",@progbits
	.align	1
	.globl	mbedtls_ssl_conf_session_tickets
	.type	mbedtls_ssl_conf_session_tickets, @function
mbedtls_ssl_conf_session_tickets:
.LFB116:
	.loc 2 5003 1 is_stmt 1
	.cfi_startproc
.LVL604:
	.loc 2 5004 5
	.loc 2 5003 1 is_stmt 0
	addi	sp,sp,-16
	.cfi_def_cfa_offset 16
	sw	s0,12(sp)
	.cfi_offset 8, -4
	addi	s0,sp,16
	.cfi_def_cfa 8, 0
	.loc 2 5004 27
	sb	a1,9(a0)
	.loc 2 5005 1
	lw	s0,12(sp)
	.cfi_restore 8
	.cfi_def_cfa 2, 16
	addi	sp,sp,16
	.cfi_def_cfa_offset 0
	jr	ra
	.cfi_endproc
.LFE116:
	.size	mbedtls_ssl_conf_session_tickets, .-mbedtls_ssl_conf_session_tickets
	.section	.text.mbedtls_ssl_conf_session_tickets_cb,"ax",@progbits
	.align	1
	.globl	mbedtls_ssl_conf_session_tickets_cb
	.type	mbedtls_ssl_conf_session_tickets_cb, @function
mbedtls_ssl_conf_session_tickets_cb:
.LFB117:
	.loc 2 5013 1 is_stmt 1
	.cfi_startproc
.LVL605:
	.loc 2 5014 5
	.loc 2 5013 1 is_stmt 0
	addi	sp,sp,-16
	.cfi_def_cfa_offset 16
	sw	s0,12(sp)
	.cfi_offset 8, -4
	addi	s0,sp,16
	.cfi_def_cfa 8, 0
	.loc 2 5017 1
	lw	s0,12(sp)
	.cfi_restore 8
	.cfi_def_cfa 2, 16
	.loc 2 5014 26
	sw	a1,88(a0)
	.loc 2 5015 5 is_stmt 1
	.loc 2 5015 26 is_stmt 0
	sw	a2,92(a0)
	.loc 2 5016 5 is_stmt 1
	.loc 2 5016 20 is_stmt 0
	sw	a3,96(a0)
	.loc 2 5017 1
	addi	sp,sp,16
	.cfi_def_cfa_offset 0
	jr	ra
	.cfi_endproc
.LFE117:
	.size	mbedtls_ssl_conf_session_tickets_cb, .-mbedtls_ssl_conf_session_tickets_cb
	.section	.text.mbedtls_ssl_get_verify_result,"ax",@progbits
	.align	1
	.globl	mbedtls_ssl_get_verify_result
	.type	mbedtls_ssl_get_verify_result, @function
mbedtls_ssl_get_verify_result:
.LFB118:
	.loc 2 5080 1 is_stmt 1
	.cfi_startproc
.LVL606:
	.loc 2 5081 5
	.loc 2 5080 1 is_stmt 0
	addi	sp,sp,-16
	.cfi_def_cfa_offset 16
	sw	s0,12(sp)
	.cfi_offset 8, -4
	addi	s0,sp,16
	.cfi_def_cfa 8, 0
	.loc 2 5081 12
	lw	a5,48(a0)
	.loc 2 5081 7
	beq	a5,zero,.L347
.LVL607:
.L351:
	.loc 2 5085 9 is_stmt 1
	.loc 2 5085 39 is_stmt 0
	lw	a0,108(a5)
	j	.L346
.LVL608:
.L347:
	.loc 2 5084 5 is_stmt 1
	.loc 2 5084 12 is_stmt 0
	lw	a5,52(a0)
	.loc 2 5087 11
	li	a0,-1
.LVL609:
	.loc 2 5084 7
	bne	a5,zero,.L351
.L346:
	.loc 2 5088 1
	lw	s0,12(sp)
	.cfi_restore 8
	.cfi_def_cfa 2, 16
	addi	sp,sp,16
	.cfi_def_cfa_offset 0
	jr	ra
	.cfi_endproc
.LFE118:
	.size	mbedtls_ssl_get_verify_result, .-mbedtls_ssl_get_verify_result
	.section	.text.mbedtls_ssl_get_ciphersuite,"ax",@progbits
	.align	1
	.globl	mbedtls_ssl_get_ciphersuite
	.type	mbedtls_ssl_get_ciphersuite, @function
mbedtls_ssl_get_ciphersuite:
.LFB119:
	.loc 2 5091 1 is_stmt 1
	.cfi_startproc
.LVL610:
	.loc 2 5092 5
	.loc 2 5091 1 is_stmt 0
	addi	sp,sp,-16
	.cfi_def_cfa_offset 16
	sw	s0,12(sp)
	.cfi_offset 8, -4
	addi	s0,sp,16
	.cfi_def_cfa 8, 0
	.loc 2 5092 7
	beq	a0,zero,.L353
	.loc 2 5092 26 discriminator 1
	lw	a0,48(a0)
.LVL611:
	.loc 2 5092 20 discriminator 1
	beq	a0,zero,.L353
	.loc 2 5095 5 is_stmt 1
	.loc 2 5096 1 is_stmt 0
	lw	s0,12(sp)
	.cfi_remember_state
	.cfi_restore 8
	.cfi_def_cfa 2, 16
	.loc 2 5095 12
	lw	a0,4(a0)
	.loc 2 5096 1
	addi	sp,sp,16
	.cfi_def_cfa_offset 0
	.loc 2 5095 12
	tail	mbedtls_ssl_get_ciphersuite_name
.LVL612:
.L353:
	.cfi_restore_state
	.loc 2 5096 1
	lw	s0,12(sp)
	.cfi_restore 8
	.cfi_def_cfa 2, 16
	li	a0,0
	addi	sp,sp,16
	.cfi_def_cfa_offset 0
	jr	ra
	.cfi_endproc
.LFE119:
	.size	mbedtls_ssl_get_ciphersuite, .-mbedtls_ssl_get_ciphersuite
	.section	.rodata.mbedtls_ssl_get_version.str1.4,"aMS",@progbits,1
	.align	2
.LC48:
	.string	"unknown"
	.section	.text.mbedtls_ssl_get_version,"ax",@progbits
	.align	1
	.globl	mbedtls_ssl_get_version
	.type	mbedtls_ssl_get_version, @function
mbedtls_ssl_get_version:
.LFB120:
	.loc 2 5099 1 is_stmt 1
	.cfi_startproc
.LVL613:
	.loc 2 5117 5
	.loc 2 5099 1 is_stmt 0
	addi	sp,sp,-16
	.cfi_def_cfa_offset 16
	sw	s0,12(sp)
	.cfi_offset 8, -4
	addi	s0,sp,16
	.cfi_def_cfa 8, 0
	lw	a5,12(a0)
	li	a4,3
	bgtu	a5,a4,.L363
	slli	a4,a5,2
	lui	a5,%hi(.LANCHOR1)
	addi	a5,a5,%lo(.LANCHOR1)
	add	a5,a5,a4
	lw	a0,0(a5)
.LVL614:
.L361:
	.loc 2 5134 1
	lw	s0,12(sp)
	.cfi_remember_state
	.cfi_restore 8
	.cfi_def_cfa 2, 16
	addi	sp,sp,16
	.cfi_def_cfa_offset 0
	jr	ra
.LVL615:
.L363:
	.cfi_restore_state
	.loc 2 5117 16
	lui	a0,%hi(.LC48)
.LVL616:
	addi	a0,a0,%lo(.LC48)
	j	.L361
	.cfi_endproc
.LFE120:
	.size	mbedtls_ssl_get_version, .-mbedtls_ssl_get_version
	.section	.text.mbedtls_ssl_get_input_max_frag_len,"ax",@progbits
	.align	1
	.globl	mbedtls_ssl_get_input_max_frag_len
	.type	mbedtls_ssl_get_input_max_frag_len, @function
mbedtls_ssl_get_input_max_frag_len:
.LFB121:
	.loc 2 5138 1 is_stmt 1
	.cfi_startproc
.LVL617:
	.loc 2 5139 5
	.loc 2 5140 5
	.loc 2 5143 5
	.loc 2 5138 1 is_stmt 0
	addi	sp,sp,-16
	.cfi_def_cfa_offset 16
	sw	s0,8(sp)
	sw	s2,0(sp)
	sw	ra,12(sp)
	sw	s1,4(sp)
	.cfi_offset 8, -8
	.cfi_offset 18, -16
	.cfi_offset 1, -4
	.cfi_offset 9, -12
	addi	s0,sp,16
	.cfi_def_cfa 8, 0
	.loc 2 5143 12
	lw	a5,0(a0)
	.loc 2 5138 1
	mv	s2,a0
	.loc 2 5143 7
	lbu	a4,4(a5)
	bne	a4,zero,.L366
	.loc 2 5143 34 discriminator 1
	lw	a3,4(a0)
	li	a4,5
	ble	a3,a4,.L366
	.loc 2 5146 9 is_stmt 1
	.loc 2 5170 1 is_stmt 0
	lw	s0,8(sp)
	.cfi_remember_state
	.cfi_restore 8
	.cfi_def_cfa 2, 16
	lw	ra,12(sp)
	.cfi_restore 1
	lw	s1,4(sp)
	.cfi_restore 9
	lw	s2,0(sp)
	.cfi_restore 18
	.loc 2 5146 16
	lbu	a0,8(a5)
.LVL618:
	.loc 2 5170 1
	addi	sp,sp,16
	.cfi_def_cfa_offset 0
	.loc 2 5146 16
	tail	ssl_mfl_code_to_length
.LVL619:
.L366:
	.cfi_restore_state
	.loc 2 5150 5 is_stmt 1
	.loc 2 5150 12 is_stmt 0
	lw	a5,44(s2)
	.loc 2 5139 12
	li	s1,16384
	.loc 2 5150 7
	beq	a5,zero,.L367
	.loc 2 5152 9 is_stmt 1
	.loc 2 5152 20 is_stmt 0
	lbu	a0,0(a5)
.LVL620:
	call	ssl_mfl_code_to_length
.LVL621:
	.loc 2 5153 11
	li	a5,16384
	.loc 2 5152 20
	mv	s1,a0
.LVL622:
	.loc 2 5153 9 is_stmt 1
	.loc 2 5153 11 is_stmt 0
	bltu	a0,a5,.L367
	.loc 2 5139 12
	li	s1,16384
.LVL623:
.L367:
	.loc 2 5160 5 is_stmt 1
	.loc 2 5160 12 is_stmt 0
	lw	a5,52(s2)
	.loc 2 5160 7
	beq	a5,zero,.L365
	.loc 2 5162 9 is_stmt 1
	.loc 2 5162 20 is_stmt 0
	lbu	a0,0(a5)
	call	ssl_mfl_code_to_length
.LVL624:
	.loc 2 5163 9 is_stmt 1
	bleu	s1,a0,.L365
	mv	s1,a0
.LVL625:
.L365:
	.loc 2 5170 1 is_stmt 0
	lw	ra,12(sp)
	.cfi_restore 1
	lw	s0,8(sp)
	.cfi_restore 8
	.cfi_def_cfa 2, 16
	lw	s2,0(sp)
	.cfi_restore 18
.LVL626:
	mv	a0,s1
	lw	s1,4(sp)
	.cfi_restore 9
	addi	sp,sp,16
	.cfi_def_cfa_offset 0
	jr	ra
	.cfi_endproc
.LFE121:
	.size	mbedtls_ssl_get_input_max_frag_len, .-mbedtls_ssl_get_input_max_frag_len
	.section	.text.mbedtls_ssl_get_output_max_frag_len,"ax",@progbits
	.align	1
	.globl	mbedtls_ssl_get_output_max_frag_len
	.type	mbedtls_ssl_get_output_max_frag_len, @function
mbedtls_ssl_get_output_max_frag_len:
.LFB122:
	.loc 2 5173 1 is_stmt 1
	.cfi_startproc
.LVL627:
	.loc 2 5174 5
	.loc 2 5179 5
	.loc 2 5173 1 is_stmt 0
	addi	sp,sp,-16
	.cfi_def_cfa_offset 16
	sw	s0,8(sp)
	sw	s1,4(sp)
	sw	s2,0(sp)
	sw	ra,12(sp)
	.cfi_offset 8, -8
	.cfi_offset 9, -12
	.cfi_offset 18, -16
	.cfi_offset 1, -4
	addi	s0,sp,16
	.cfi_def_cfa 8, 0
	.loc 2 5179 48
	lw	a5,0(a0)
	.loc 2 5173 1
	mv	s2,a0
	.loc 2 5179 15
	lbu	a0,8(a5)
.LVL628:
	call	ssl_mfl_code_to_length
.LVL629:
	.loc 2 5182 12
	lw	a5,44(s2)
	.loc 2 5179 15
	mv	s1,a0
.LVL630:
	.loc 2 5182 5 is_stmt 1
	.loc 2 5182 7 is_stmt 0
	beq	a5,zero,.L376
	.loc 2 5183 9 discriminator 1
	lbu	a0,0(a5)
	call	ssl_mfl_code_to_length
.LVL631:
	bleu	s1,a0,.L376
	mv	s1,a0
.LVL632:
.L376:
	.loc 2 5189 5 is_stmt 1
	.loc 2 5189 12 is_stmt 0
	lw	a5,52(s2)
	.loc 2 5189 7
	beq	a5,zero,.L375
	.loc 2 5190 9 discriminator 1
	lbu	a0,0(a5)
	call	ssl_mfl_code_to_length
.LVL633:
	bleu	s1,a0,.L375
	mv	s1,a0
.LVL634:
	.loc 2 5195 5 is_stmt 1 discriminator 1
.L375:
	.loc 2 5196 1 is_stmt 0
	lw	ra,12(sp)
	.cfi_restore 1
	lw	s0,8(sp)
	.cfi_restore 8
	.cfi_def_cfa 2, 16
	lw	s2,0(sp)
	.cfi_restore 18
.LVL635:
	mv	a0,s1
	lw	s1,4(sp)
	.cfi_restore 9
	addi	sp,sp,16
	.cfi_def_cfa_offset 0
	jr	ra
	.cfi_endproc
.LFE122:
	.size	mbedtls_ssl_get_output_max_frag_len, .-mbedtls_ssl_get_output_max_frag_len
	.section	.text.mbedtls_ssl_get_max_frag_len,"ax",@progbits
	.align	1
	.globl	mbedtls_ssl_get_max_frag_len
	.type	mbedtls_ssl_get_max_frag_len, @function
mbedtls_ssl_get_max_frag_len:
.LFB123:
	.loc 2 5200 1 is_stmt 1
	.cfi_startproc
.LVL636:
	.loc 2 5201 5
	.loc 2 5200 1 is_stmt 0
	addi	sp,sp,-16
	.cfi_def_cfa_offset 16
	sw	s0,12(sp)
	.cfi_offset 8, -4
	addi	s0,sp,16
	.cfi_def_cfa 8, 0
	.loc 2 5202 1
	lw	s0,12(sp)
	.cfi_restore 8
	.cfi_def_cfa 2, 16
	addi	sp,sp,16
	.cfi_def_cfa_offset 0
	.loc 2 5201 12
	tail	mbedtls_ssl_get_output_max_frag_len
.LVL637:
	.cfi_endproc
.LFE123:
	.size	mbedtls_ssl_get_max_frag_len, .-mbedtls_ssl_get_max_frag_len
	.section	.text.mbedtls_ssl_get_max_out_record_payload,"ax",@progbits
	.align	1
	.globl	mbedtls_ssl_get_max_out_record_payload
	.type	mbedtls_ssl_get_max_out_record_payload, @function
mbedtls_ssl_get_max_out_record_payload:
.LFB124:
	.loc 2 5227 1 is_stmt 1
	.cfi_startproc
.LVL638:
	.loc 2 5228 5
	.loc 2 5236 5
	.loc 2 5227 1 is_stmt 0
	addi	sp,sp,-16
	.cfi_def_cfa_offset 16
	sw	s0,8(sp)
	sw	ra,12(sp)
	.cfi_offset 8, -8
	.cfi_offset 1, -4
	addi	s0,sp,16
	.cfi_def_cfa 8, 0
	.loc 2 5236 24
	call	mbedtls_ssl_get_output_max_frag_len
.LVL639:
	.loc 2 5238 5 is_stmt 1
	.loc 2 5238 7 is_stmt 0
	li	a5,16384
	bltu	a0,a5,.L390
	.loc 2 5228 12
	li	a0,16384
.LVL640:
.L390:
	.loc 2 5268 5 is_stmt 1
	.loc 2 5269 1 is_stmt 0
	lw	ra,12(sp)
	.cfi_restore 1
	lw	s0,8(sp)
	.cfi_restore 8
	.cfi_def_cfa 2, 16
	addi	sp,sp,16
	.cfi_def_cfa_offset 0
	jr	ra
	.cfi_endproc
.LFE124:
	.size	mbedtls_ssl_get_max_out_record_payload, .-mbedtls_ssl_get_max_out_record_payload
	.section	.text.mbedtls_ssl_get_peer_cert,"ax",@progbits
	.align	1
	.globl	mbedtls_ssl_get_peer_cert
	.type	mbedtls_ssl_get_peer_cert, @function
mbedtls_ssl_get_peer_cert:
.LFB125:
	.loc 2 5273 1 is_stmt 1
	.cfi_startproc
.LVL641:
	.loc 2 5274 5
	.loc 2 5275 9
	.loc 2 5273 1 is_stmt 0
	addi	sp,sp,-16
	.cfi_def_cfa_offset 16
	sw	s0,12(sp)
	.cfi_offset 8, -4
	addi	s0,sp,16
	.cfi_def_cfa 8, 0
	.loc 2 5282 1
	lw	s0,12(sp)
	.cfi_restore 8
	.cfi_def_cfa 2, 16
	li	a0,0
.LVL642:
	addi	sp,sp,16
	.cfi_def_cfa_offset 0
	jr	ra
	.cfi_endproc
.LFE125:
	.size	mbedtls_ssl_get_peer_cert, .-mbedtls_ssl_get_peer_cert
	.section	.text.mbedtls_ssl_get_session_pointer,"ax",@progbits
	.align	1
	.globl	mbedtls_ssl_get_session_pointer
	.type	mbedtls_ssl_get_session_pointer, @function
mbedtls_ssl_get_session_pointer:
.LFB127:
	.loc 2 5302 1 is_stmt 1
	.cfi_startproc
.LVL643:
	.loc 2 5303 5
	.loc 2 5302 1 is_stmt 0
	addi	sp,sp,-16
	.cfi_def_cfa_offset 16
	sw	s0,12(sp)
	.cfi_offset 8, -4
	addi	s0,sp,16
	.cfi_def_cfa 8, 0
	.loc 2 5303 7
	beq	a0,zero,.L396
	.loc 2 5306 5 is_stmt 1
	.loc 2 5306 16 is_stmt 0
	lw	a0,48(a0)
.LVL644:
.L396:
	.loc 2 5307 1
	lw	s0,12(sp)
	.cfi_restore 8
	.cfi_def_cfa 2, 16
	addi	sp,sp,16
	.cfi_def_cfa_offset 0
	jr	ra
	.cfi_endproc
.LFE127:
	.size	mbedtls_ssl_get_session_pointer, .-mbedtls_ssl_get_session_pointer
	.section	.text.mbedtls_ssl_session_save,"ax",@progbits
	.align	1
	.globl	mbedtls_ssl_session_save
	.type	mbedtls_ssl_session_save, @function
mbedtls_ssl_session_save:
.LFB129:
	.loc 2 5611 1 is_stmt 1
	.cfi_startproc
.LVL645:
	.loc 2 5612 5
	.loc 2 5611 1 is_stmt 0
	addi	sp,sp,-32
	.cfi_def_cfa_offset 32
	sw	s0,24(sp)
	sw	s1,20(sp)
	sw	s2,16(sp)
	sw	s4,8(sp)
	sw	s6,0(sp)
	sw	ra,28(sp)
	sw	s3,12(sp)
	sw	s5,4(sp)
	.cfi_offset 8, -8
	.cfi_offset 9, -12
	.cfi_offset 18, -16
	.cfi_offset 20, -24
	.cfi_offset 22, -32
	.cfi_offset 1, -4
	.cfi_offset 19, -20
	.cfi_offset 21, -28
	addi	s0,sp,32
	.cfi_def_cfa 8, 0
.LBB104:
.LBB105:
	.loc 2 5448 11
	li	a5,4
.LBE105:
.LBE104:
	.loc 2 5611 1
	mv	s2,a0
.LVL646:
	mv	s1,a1
.LVL647:
	mv	s4,a2
	mv	s6,a3
.LVL648:
.LBB108:
.LBB106:
	.loc 2 5428 5 is_stmt 1
	.loc 2 5429 5
	.loc 2 5440 5
	.loc 2 5446 9
	.loc 2 5448 9
	.loc 2 5448 11 is_stmt 0
	bleu	a2,a5,.L402
	.loc 2 5450 13 is_stmt 1
	lui	a1,%hi(.LANCHOR2)
.LVL649:
	li	a2,5
.LVL650:
	addi	a1,a1,%lo(.LANCHOR2)
	mv	a0,s1
.LVL651:
	call	memcpy
.LVL652:
	.loc 2 5452 13
	.loc 2 5474 5
	.loc 2 5481 5
	.loc 2 5481 7 is_stmt 0
	li	a5,92
	bgtu	s4,a5,.L403
	.loc 2 5452 15
	addi	s1,s1,5
.LVL653:
.L402:
	.loc 2 5524 5 is_stmt 1
	.loc 2 5524 7 is_stmt 0
	lw	a5,96(s2)
	beq	a5,zero,.L404
	.loc 2 5526 9 is_stmt 1
	.loc 2 5526 14 is_stmt 0
	lw	s3,100(s2)
	addi	s3,s3,95
.LVL654:
	.loc 2 5527 9 is_stmt 1
	.loc 2 5527 11 is_stmt 0
	bltu	s4,s3,.L405
	.loc 2 5529 13 is_stmt 1
.LVL655:
	.loc 2 5529 20 is_stmt 0
	lw	a5,104(s2)
	.loc 2 5530 15
	addi	s5,s1,2
	.loc 2 5531 13
	mv	a0,s5
	.loc 2 5529 20
	sb	a5,0(s1)
	.loc 2 5530 13 is_stmt 1
.LVL656:
	.loc 2 5530 20 is_stmt 0
	lw	a5,100(s2)
	sb	a5,1(s1)
	.loc 2 5531 13 is_stmt 1
	lw	a2,100(s2)
	lw	a1,96(s2)
	call	memcpy
.LVL657:
	.loc 2 5533 13
	.loc 2 5533 15 is_stmt 0
	lw	s1,100(s2)
	add	s1,s5,s1
.LVL658:
.L405:
	.loc 2 5552 5 is_stmt 1
	.loc 2 5552 24 is_stmt 0
	lw	a5,116(s2)
	.loc 2 5552 10
	add	s3,a5,s3
.LVL659:
	.loc 2 5554 5 is_stmt 1
	.loc 2 5552 10 is_stmt 0
	addi	a4,s3,7
.LVL660:
	.loc 2 5554 7
	bltu	s4,a4,.L406
	.loc 2 5556 9 is_stmt 1
.LVL661:
	.loc 2 5556 56 is_stmt 0
	srli	a5,a5,16
	.loc 2 5556 18
	sb	a5,0(s1)
	.loc 2 5557 9 is_stmt 1
.LVL662:
	.loc 2 5557 56 is_stmt 0
	lw	a5,116(s2)
	.loc 2 5558 11
	addi	s5,s1,3
	.loc 2 5557 56
	srli	a5,a5,8
	.loc 2 5557 18
	sb	a5,1(s1)
	.loc 2 5558 9 is_stmt 1
.LVL663:
	.loc 2 5558 18 is_stmt 0
	lw	a5,116(s2)
	sb	a5,2(s1)
	.loc 2 5560 9 is_stmt 1
	.loc 2 5560 20 is_stmt 0
	lw	a1,112(s2)
	.loc 2 5560 11
	beq	a1,zero,.L407
	.loc 2 5562 13 is_stmt 1
	lw	a2,116(s2)
	mv	a0,s5
	call	memcpy
.LVL664:
	.loc 2 5563 13
	.loc 2 5563 15 is_stmt 0
	lw	a5,116(s2)
	add	s5,s5,a5
.LVL665:
.L407:
	.loc 2 5566 11 is_stmt 1
	.loc 2 5566 72 is_stmt 0
	lbu	a5,123(s2)
	.loc 2 5567 11
	addi	s1,s5,4
	.loc 2 5566 29
	sb	a5,0(s5)
	.loc 2 5566 92 is_stmt 1
	.loc 2 5566 156 is_stmt 0
	lhu	a5,122(s2)
	.loc 2 5566 113
	sb	a5,1(s5)
	.loc 2 5566 176 is_stmt 1
	.loc 2 5566 240 is_stmt 0
	lw	a5,120(s2)
	srli	a5,a5,8
	.loc 2 5566 197
	sb	a5,2(s5)
	.loc 2 5566 259 is_stmt 1
	.loc 2 5566 280 is_stmt 0
	lw	a5,120(s2)
	sb	a5,3(s5)
	.loc 2 5566 334 is_stmt 1
	.loc 2 5567 9
.LVL666:
.L406:
	.loc 2 5575 5
	.loc 2 5575 10 is_stmt 0
	addi	s3,s3,8
.LVL667:
	.loc 2 5577 5 is_stmt 1
	.loc 2 5577 7 is_stmt 0
	bltu	s4,s3,.L408
	.loc 2 5578 9 is_stmt 1
.LVL668:
	.loc 2 5578 23 is_stmt 0
	lbu	a5,0(s2)
	.loc 2 5578 14
	sb	a5,0(s1)
.LVL669:
.L408:
	.loc 2 5596 5 is_stmt 1
	.loc 2 5596 11 is_stmt 0
	sw	s3,0(s6)
	.loc 2 5598 5 is_stmt 1
	.loc 2 5601 11 is_stmt 0
	li	a0,0
	.loc 2 5598 7
	bgeu	s4,s3,.L401
	.loc 2 5599 15
	li	a0,-28672
	addi	a0,a0,1536
.L401:
.LBE106:
.LBE108:
	.loc 2 5613 1
	lw	ra,28(sp)
	.cfi_remember_state
	.cfi_restore 1
	lw	s0,24(sp)
	.cfi_restore 8
	.cfi_def_cfa 2, 32
	lw	s1,20(sp)
	.cfi_restore 9
	lw	s2,16(sp)
	.cfi_restore 18
.LVL670:
	lw	s3,12(sp)
	.cfi_restore 19
.LVL671:
	lw	s4,8(sp)
	.cfi_restore 20
.LVL672:
	lw	s5,4(sp)
	.cfi_restore 21
	lw	s6,0(sp)
	.cfi_restore 22
.LVL673:
	addi	sp,sp,32
	.cfi_def_cfa_offset 0
	jr	ra
.LVL674:
.L403:
	.cfi_restore_state
.LBB109:
.LBB107:
	.loc 2 5483 11 is_stmt 1
	.loc 2 5483 68 is_stmt 0
	lw	a5,4(s2)
	.loc 2 5489 9
	li	a2,32
	addi	a1,s2,16
	.loc 2 5483 68
	srai	a5,a5,8
	.loc 2 5483 29
	sb	a5,5(s1)
	.loc 2 5483 87 is_stmt 1
	.loc 2 5483 108 is_stmt 0
	lw	a5,4(s2)
	.loc 2 5489 9
	addi	a0,s1,9
	.loc 2 5483 108
	sb	a5,6(s1)
	.loc 2 5483 158 is_stmt 1
	.loc 2 5484 9
.LVL675:
	.loc 2 5486 9
	.loc 2 5486 18 is_stmt 0
	lw	a5,8(s2)
	sb	a5,7(s1)
	.loc 2 5488 9 is_stmt 1
.LVL676:
	.loc 2 5488 18 is_stmt 0
	lw	a5,12(s2)
	sb	a5,8(s1)
	.loc 2 5489 9 is_stmt 1
	call	memcpy
.LVL677:
	.loc 2 5490 9
	.loc 2 5492 9
	addi	a0,s1,41
.LVL678:
	li	a2,48
	addi	a1,s2,48
	call	memcpy
.LVL679:
	.loc 2 5493 9
	.loc 2 5495 11
	.loc 2 5495 70 is_stmt 0
	lbu	a5,111(s2)
	.loc 2 5496 11
	addi	s1,s1,93
.LVL680:
	.loc 2 5495 29
	sb	a5,-4(s1)
	.loc 2 5495 90 is_stmt 1
	.loc 2 5495 152 is_stmt 0
	lhu	a5,110(s2)
	.loc 2 5495 111
	sb	a5,-3(s1)
	.loc 2 5495 172 is_stmt 1
	.loc 2 5495 234 is_stmt 0
	lw	a5,108(s2)
	srli	a5,a5,8
	.loc 2 5495 193
	sb	a5,-2(s1)
	.loc 2 5495 253 is_stmt 1
	.loc 2 5495 274 is_stmt 0
	lw	a5,108(s2)
	sb	a5,-1(s1)
	.loc 2 5495 326 is_stmt 1
	.loc 2 5496 9
.LVL681:
	j	.L402
.LVL682:
.L404:
	.loc 2 5538 9
	.loc 2 5539 9
	.loc 2 5539 11 is_stmt 0
	li	a5,94
	.loc 2 5538 14
	li	s3,95
	.loc 2 5539 11
	bleu	s4,a5,.L405
	.loc 2 5541 13 is_stmt 1
.LVL683:
	.loc 2 5541 18 is_stmt 0
	sb	zero,0(s1)
	.loc 2 5542 13 is_stmt 1
.LVL684:
	.loc 2 5542 18 is_stmt 0
	sb	zero,1(s1)
	.loc 2 5542 15
	addi	s1,s1,2
.LVL685:
	j	.L405
.LBE107:
.LBE109:
	.cfi_endproc
.LFE129:
	.size	mbedtls_ssl_session_save, .-mbedtls_ssl_session_save
	.section	.text.mbedtls_ssl_handshake_step,"ax",@progbits
	.align	1
	.globl	mbedtls_ssl_handshake_step
	.type	mbedtls_ssl_handshake_step, @function
mbedtls_ssl_handshake_step:
.LFB132:
	.loc 2 5864 1 is_stmt 1
	.cfi_startproc
.LVL686:
	.loc 2 5865 5
	.loc 2 5867 5
	.loc 2 5867 7 is_stmt 0
	beq	a0,zero,.L419
	.loc 2 5864 1 discriminator 1
	addi	sp,sp,-16
	.cfi_def_cfa_offset 16
	sw	s0,8(sp)
	sw	s1,4(sp)
	sw	ra,12(sp)
	.cfi_offset 8, -8
	.cfi_offset 9, -12
	.cfi_offset 1, -4
	addi	s0,sp,16
	.cfi_def_cfa 8, 0
	.loc 2 5867 26 discriminator 1
	lw	a5,0(a0)
	mv	s1,a0
	.loc 2 5867 20 discriminator 1
	beq	a5,zero,.L420
	.loc 2 5871 5 is_stmt 1
	.loc 2 5871 7 is_stmt 0
	lbu	a5,4(a5)
	bne	a5,zero,.L421
	.loc 2 5872 9 is_stmt 1
	.loc 2 5872 15 is_stmt 0
	call	mbedtls_ssl_handshake_client_step
.LVL687:
.L418:
	.loc 2 5875 5 is_stmt 1
	.loc 2 5875 18 is_stmt 0
	lw	a5,0(s1)
	.loc 2 5875 7
	lbu	a4,4(a5)
	li	a5,1
	bne	a4,a5,.L416
	.loc 2 5876 9 is_stmt 1
	.loc 2 5880 1 is_stmt 0
	lw	s0,8(sp)
	.cfi_remember_state
	.cfi_restore 8
	.cfi_def_cfa 2, 16
	lw	ra,12(sp)
	.cfi_restore 1
	.loc 2 5876 15
	mv	a0,s1
.LVL688:
	.loc 2 5880 1
	lw	s1,4(sp)
	.cfi_restore 9
.LVL689:
	addi	sp,sp,16
	.cfi_def_cfa_offset 0
	.loc 2 5876 15
	tail	mbedtls_ssl_handshake_server_step
.LVL690:
.L421:
	.cfi_restore_state
	.loc 2 5865 9
	li	a0,-28672
	addi	a0,a0,-128
	j	.L418
.LVL691:
.L419:
	.cfi_def_cfa_register 2
	.cfi_restore 1
	.cfi_restore 8
	.cfi_restore 9
	.loc 2 5868 15
	li	a0,-28672
.LVL692:
	addi	a0,a0,-256
	.loc 2 5880 1
	ret
.LVL693:
.L420:
	.cfi_def_cfa_register 8
	.cfi_offset 1, -4
	.cfi_offset 8, -8
	.cfi_offset 9, -12
	.loc 2 5868 15
	li	a0,-28672
	addi	a0,a0,-256
.LVL694:
.L416:
	.loc 2 5880 1
	lw	ra,12(sp)
	.cfi_restore 1
	lw	s0,8(sp)
	.cfi_restore 8
	.cfi_def_cfa 2, 16
	lw	s1,4(sp)
	.cfi_restore 9
.LVL695:
	addi	sp,sp,16
	.cfi_def_cfa_offset 0
	jr	ra
	.cfi_endproc
.LFE132:
	.size	mbedtls_ssl_handshake_step, .-mbedtls_ssl_handshake_step
	.section	.rodata.mbedtls_ssl_handshake.str1.4,"aMS",@progbits,1
	.align	2
.LC49:
	.string	"=> handshake"
	.align	2
.LC50:
	.string	"<= handshake"
	.section	.text.mbedtls_ssl_handshake,"ax",@progbits
	.align	1
	.globl	mbedtls_ssl_handshake
	.type	mbedtls_ssl_handshake, @function
mbedtls_ssl_handshake:
.LFB133:
	.loc 2 5886 1 is_stmt 1
	.cfi_startproc
.LVL696:
	.loc 2 5887 5
	.loc 2 5891 5
	.loc 2 5886 1 is_stmt 0
	addi	sp,sp,-32
	.cfi_def_cfa_offset 32
	sw	s0,24(sp)
	sw	ra,28(sp)
	sw	s1,20(sp)
	sw	s2,16(sp)
	sw	s3,12(sp)
	sw	s4,8(sp)
	.cfi_offset 8, -8
	.cfi_offset 1, -4
	.cfi_offset 9, -12
	.cfi_offset 18, -16
	.cfi_offset 19, -20
	.cfi_offset 20, -24
	addi	s0,sp,32
	.cfi_def_cfa 8, 0
	.loc 2 5891 7
	beq	a0,zero,.L432
	.loc 2 5891 20 discriminator 1
	lw	a5,0(a0)
	mv	s2,a0
	beq	a5,zero,.L432
	.loc 2 5904 5 is_stmt 1
	lui	a4,%hi(.LC49)
	li	a3,4096
	lui	s3,%hi(.LC3)
	addi	a4,a4,%lo(.LC49)
	addi	a3,a3,1808
	addi	a2,s3,%lo(.LC3)
	li	a1,2
	call	mbedtls_debug_print_msg
.LVL697:
	.loc 2 5907 5
	.loc 2 5907 10 is_stmt 0
	li	s4,16
.LVL698:
.L428:
	.loc 2 5907 10 is_stmt 1
	lw	a5,4(s2)
	bne	a5,s4,.L430
	li	s1,0
	j	.L429
.L430:
	.loc 2 5909 9
	.loc 2 5909 15 is_stmt 0
	mv	a0,s2
	call	mbedtls_ssl_handshake_step
.LVL699:
	mv	s1,a0
.LVL700:
	.loc 2 5911 9 is_stmt 1
	.loc 2 5911 11 is_stmt 0
	beq	a0,zero,.L428
.LVL701:
.L429:
	.loc 2 5915 5 is_stmt 1
	lui	a4,%hi(.LC50)
	li	a3,4096
	addi	a4,a4,%lo(.LC50)
	addi	a3,a3,1819
	addi	a2,s3,%lo(.LC3)
	li	a1,2
	mv	a0,s2
	call	mbedtls_debug_print_msg
.LVL702:
	.loc 2 5917 5
.L426:
	.loc 2 5918 1 is_stmt 0
	lw	ra,28(sp)
	.cfi_remember_state
	.cfi_restore 1
	lw	s0,24(sp)
	.cfi_restore 8
	.cfi_def_cfa 2, 32
	lw	s2,16(sp)
	.cfi_restore 18
	lw	s3,12(sp)
	.cfi_restore 19
	lw	s4,8(sp)
	.cfi_restore 20
	mv	a0,s1
	lw	s1,20(sp)
	.cfi_restore 9
	addi	sp,sp,32
	.cfi_def_cfa_offset 0
	jr	ra
.LVL703:
.L432:
	.cfi_restore_state
	.loc 2 5892 15
	li	s1,-28672
	addi	s1,s1,-256
	j	.L426
	.cfi_endproc
.LFE133:
	.size	mbedtls_ssl_handshake, .-mbedtls_ssl_handshake
	.section	.text.mbedtls_ssl_handshake_free,"ax",@progbits
	.align	1
	.globl	mbedtls_ssl_handshake_free
	.type	mbedtls_ssl_handshake_free, @function
mbedtls_ssl_handshake_free:
.LFB135:
	.loc 2 6066 1 is_stmt 1
	.cfi_startproc
.LVL704:
	.loc 2 6067 5
	.loc 2 6066 1 is_stmt 0
	addi	sp,sp,-16
	.cfi_def_cfa_offset 16
	sw	s0,8(sp)
	sw	ra,12(sp)
	sw	s1,4(sp)
	sw	s2,0(sp)
	.cfi_offset 8, -8
	.cfi_offset 1, -4
	.cfi_offset 9, -12
	.cfi_offset 18, -16
	addi	s0,sp,16
	.cfi_def_cfa 8, 0
	.loc 2 6067 35
	lw	s1,56(a0)
.LVL705:
	.loc 2 6069 5 is_stmt 1
	.loc 2 6069 7 is_stmt 0
	beq	s1,zero,.L434
	.loc 2 6090 5 is_stmt 1
	addi	a0,s1,416
.LVL706:
	call	mbedtls_sha256_free
.LVL707:
	.loc 2 6097 5
	addi	a0,s1,608
	call	mbedtls_sha512_free
.LVL708:
	.loc 2 6103 5
	addi	a0,s1,40
	call	mbedtls_dhm_free
.LVL709:
	.loc 2 6106 5
	addi	a0,s1,164
	call	mbedtls_ecdh_free
.LVL710:
	.loc 2 6120 5
	lw	a0,380(s1)
	call	mbedtls_free
.LVL711:
	.loc 2 6124 5
	.loc 2 6124 18 is_stmt 0
	lw	a0,384(s1)
	.loc 2 6124 7
	beq	a0,zero,.L436
	.loc 2 6126 9 is_stmt 1
	lw	a1,388(s1)
	call	mbedtls_platform_zeroize
.LVL712:
	.loc 2 6127 9
	lw	a0,384(s1)
	call	mbedtls_free
.LVL713:
.L436:
	.loc 2 6137 5
	.loc 2 6137 18 is_stmt 0
	lw	s2,396(s1)
.L447:
	.loc 2 6137 7
	beq	s2,zero,.L437
.LVL714:
.LBB110:
	.loc 2 6143 13 is_stmt 1
	mv	a0,s2
	.loc 2 6143 18 is_stmt 0
	lw	s2,8(s2)
.LVL715:
	.loc 2 6144 13 is_stmt 1
	call	mbedtls_free
.LVL716:
	.loc 2 6145 13
	.loc 2 6141 14
	j	.L447
.LVL717:
.L437:
.LBE110:
	.loc 2 6161 5
	addi	a0,s1,408
	call	mbedtls_pk_free
.LVL718:
	.loc 2 6175 5
	.loc 2 6186 1 is_stmt 0
	lw	s0,8(sp)
	.cfi_remember_state
	.cfi_restore 8
	.cfi_def_cfa 2, 16
	lw	ra,12(sp)
	.cfi_restore 1
	lw	s2,0(sp)
	.cfi_restore 18
	.loc 2 6175 5
	mv	a0,s1
	.loc 2 6186 1
	lw	s1,4(sp)
	.cfi_restore 9
.LVL719:
	.loc 2 6175 5
	li	a1,1912
	.loc 2 6186 1
	addi	sp,sp,16
	.cfi_def_cfa_offset 0
	.loc 2 6175 5
	tail	mbedtls_platform_zeroize
.LVL720:
.L434:
	.cfi_restore_state
	.loc 2 6186 1
	lw	ra,12(sp)
	.cfi_restore 1
	lw	s0,8(sp)
	.cfi_restore 8
	.cfi_def_cfa 2, 16
	lw	s1,4(sp)
	.cfi_restore 9
.LVL721:
	lw	s2,0(sp)
	.cfi_restore 18
	addi	sp,sp,16
	.cfi_def_cfa_offset 0
	jr	ra
	.cfi_endproc
.LFE135:
	.size	mbedtls_ssl_handshake_free, .-mbedtls_ssl_handshake_free
	.section	.rodata.mbedtls_ssl_handshake_wrapup_free_hs_transform.str1.4,"aMS",@progbits,1
	.align	2
.LC51:
	.string	"=> handshake wrapup: final free"
	.align	2
.LC52:
	.string	"<= handshake wrapup: final free"
	.section	.text.mbedtls_ssl_handshake_wrapup_free_hs_transform,"ax",@progbits
	.align	1
	.globl	mbedtls_ssl_handshake_wrapup_free_hs_transform
	.type	mbedtls_ssl_handshake_wrapup_free_hs_transform, @function
mbedtls_ssl_handshake_wrapup_free_hs_transform:
.LFB62:
	.loc 2 3443 1 is_stmt 1
	.cfi_startproc
.LVL722:
	.loc 2 3444 5
	.loc 2 3443 1 is_stmt 0
	addi	sp,sp,-16
	.cfi_def_cfa_offset 16
	sw	ra,12(sp)
	sw	s0,8(sp)
	sw	s1,4(sp)
	.cfi_offset 1, -4
	.cfi_offset 8, -8
	.cfi_offset 9, -12
	addi	s0,sp,16
	.cfi_def_cfa 8, 0
	sw	s2,0(sp)
	.loc 2 3444 5
	lui	a4,%hi(.LC51)
	li	a3,4096
	.cfi_offset 18, -16
	lui	s2,%hi(.LC3)
	addi	a4,a4,%lo(.LC51)
	addi	a3,a3,-652
	addi	a2,s2,%lo(.LC3)
	li	a1,3
	.loc 2 3443 1
	.loc 2 3443 1
	mv	s1,a0
	.loc 2 3444 5
	call	mbedtls_debug_print_msg
.LVL723:
	.loc 2 3449 5 is_stmt 1
	mv	a0,s1
	call	mbedtls_ssl_handshake_free
.LVL724:
	.loc 2 3450 5
	lw	a0,56(s1)
	call	mbedtls_free
.LVL725:
	.loc 2 3451 5
	.loc 2 3456 12 is_stmt 0
	lw	a0,68(s1)
	.loc 2 3451 20
	sw	zero,56(s1)
	.loc 2 3456 5 is_stmt 1
	.loc 2 3456 7 is_stmt 0
	beq	a0,zero,.L449
	.loc 2 3458 9 is_stmt 1
	call	mbedtls_ssl_transform_free
.LVL726:
	.loc 2 3459 9
	lw	a0,68(s1)
	call	mbedtls_free
.LVL727:
.L449:
	.loc 2 3461 5
	.loc 2 3461 20 is_stmt 0
	lw	a5,72(s1)
	.loc 2 3465 1
	lw	s0,8(sp)
	.cfi_restore 8
	.cfi_def_cfa 2, 16
	lw	ra,12(sp)
	.cfi_restore 1
	.loc 2 3461 20
	sw	a5,68(s1)
	.loc 2 3462 5 is_stmt 1
	.loc 2 3462 30 is_stmt 0
	sw	zero,72(s1)
	.loc 2 3464 5 is_stmt 1
	addi	a2,s2,%lo(.LC3)
	mv	a0,s1
	.loc 2 3465 1 is_stmt 0
	lw	s2,0(sp)
	.cfi_restore 18
	lw	s1,4(sp)
	.cfi_restore 9
.LVL728:
	.loc 2 3464 5
	lui	a4,%hi(.LC52)
	li	a3,4096
	.loc 2 3465 1
	.loc 2 3464 5
	addi	a4,a4,%lo(.LC52)
	addi	a3,a3,-632
	li	a1,3
	.loc 2 3465 1
	addi	sp,sp,16
	.cfi_def_cfa_offset 0
	.loc 2 3464 5
	tail	mbedtls_debug_print_msg
.LVL729:
	.cfi_endproc
.LFE62:
	.size	mbedtls_ssl_handshake_wrapup_free_hs_transform, .-mbedtls_ssl_handshake_wrapup_free_hs_transform
	.section	.text.mbedtls_ssl_session_free,"ax",@progbits
	.align	1
	.globl	mbedtls_ssl_session_free
	.type	mbedtls_ssl_session_free, @function
mbedtls_ssl_session_free:
.LFB136:
	.loc 2 6189 1 is_stmt 1
	.cfi_startproc
.LVL730:
	.loc 2 6190 5
	.loc 2 6190 7 is_stmt 0
	beq	a0,zero,.L454
	.loc 2 6189 1
	addi	sp,sp,-16
	.cfi_def_cfa_offset 16
	sw	s0,8(sp)
	sw	s1,4(sp)
	sw	ra,12(sp)
	.cfi_offset 8, -8
	.cfi_offset 9, -12
	.cfi_offset 1, -4
	addi	s0,sp,16
	.cfi_def_cfa 8, 0
	mv	s1,a0
.LVL731:
.LBB115:
.LBB116:
	.loc 2 6194 5 is_stmt 1
.LBB117:
.LBB118:
	.loc 2 2165 5
	.loc 2 2165 16 is_stmt 0
	lw	a0,96(a0)
.LVL732:
	.loc 2 2165 7
	beq	a0,zero,.L456
	.loc 2 2168 9 is_stmt 1
	call	mbedtls_free
.LVL733:
	.loc 2 2169 9
	.loc 2 2169 35 is_stmt 0
	sw	zero,96(s1)
	.loc 2 2170 9 is_stmt 1
	.loc 2 2170 40 is_stmt 0
	sw	zero,104(s1)
	.loc 2 2171 9 is_stmt 1
	.loc 2 2171 39 is_stmt 0
	sw	zero,100(s1)
.L456:
.LVL734:
.LBE118:
.LBE117:
	.loc 2 6198 5 is_stmt 1
	lw	a0,112(s1)
	call	mbedtls_free
.LVL735:
	.loc 2 6201 5
.LBE116:
.LBE115:
	.loc 2 6202 1 is_stmt 0
	lw	s0,8(sp)
	.cfi_restore 8
	.cfi_def_cfa 2, 16
	lw	ra,12(sp)
	.cfi_restore 1
.LBB122:
.LBB119:
	.loc 2 6201 5
	mv	a0,s1
.LBE119:
.LBE122:
	.loc 2 6202 1
	lw	s1,4(sp)
	.cfi_restore 9
.LVL736:
.LBB123:
.LBB120:
	.loc 2 6201 5
	li	a1,124
.LBE120:
.LBE123:
	.loc 2 6202 1
	addi	sp,sp,16
	.cfi_def_cfa_offset 0
.LBB124:
.LBB121:
	.loc 2 6201 5
	tail	mbedtls_platform_zeroize
.LVL737:
.L454:
	ret
.LBE121:
.LBE124:
	.cfi_endproc
.LFE136:
	.size	mbedtls_ssl_session_free, .-mbedtls_ssl_session_free
	.section	.text.mbedtls_ssl_session_copy,"ax",@progbits
	.align	1
	.globl	mbedtls_ssl_session_copy
	.type	mbedtls_ssl_session_copy, @function
mbedtls_ssl_session_copy:
.LFB34:
	.loc 2 187 1 is_stmt 1
	.cfi_startproc
.LVL738:
	.loc 2 188 5
	.loc 2 187 1 is_stmt 0
	addi	sp,sp,-32
	.cfi_def_cfa_offset 32
	sw	ra,28(sp)
	sw	s0,24(sp)
	sw	s1,20(sp)
	sw	s2,16(sp)
	.cfi_offset 1, -4
	.cfi_offset 8, -8
	.cfi_offset 9, -12
	.cfi_offset 18, -16
	addi	s0,sp,32
	.cfi_def_cfa 8, 0
	sw	s3,12(sp)
	.cfi_offset 19, -20
	.loc 2 187 1
	mv	s2,a0
	mv	s1,a1
	.loc 2 188 5
	call	mbedtls_ssl_session_free
.LVL739:
	.loc 2 189 5 is_stmt 1
	li	a2,124
	mv	a1,s1
	mv	a0,s2
	call	memcpy
.LVL740:
	.loc 2 192 5
	.loc 2 192 17 is_stmt 0
	sw	zero,112(s2)
	.loc 2 217 5 is_stmt 1
	.loc 2 217 7 is_stmt 0
	lw	a5,96(s1)
	beq	a5,zero,.L464
	.loc 2 219 9 is_stmt 1
	.loc 2 220 13 is_stmt 0
	lw	a1,100(s1)
	li	a0,1
	call	mbedtls_calloc
.LVL741:
	.loc 2 219 31
	sw	a0,96(s2)
	.loc 2 221 9 is_stmt 1
	.loc 2 221 11 is_stmt 0
	bne	a0,zero,.L465
.L467:
	.loc 2 222 19
	li	s3,-32768
	addi	s3,s3,256
.L463:
	.loc 2 245 1
	lw	ra,28(sp)
	.cfi_remember_state
	.cfi_restore 1
	lw	s0,24(sp)
	.cfi_restore 8
	.cfi_def_cfa 2, 32
	lw	s1,20(sp)
	.cfi_restore 9
.LVL742:
	lw	s2,16(sp)
	.cfi_restore 18
.LVL743:
	mv	a0,s3
	lw	s3,12(sp)
	.cfi_restore 19
	addi	sp,sp,32
	.cfi_def_cfa_offset 0
	jr	ra
.LVL744:
.L465:
	.cfi_restore_state
	.loc 2 224 9 is_stmt 1
	lw	a2,100(s1)
	lw	a1,96(s1)
	call	memcpy
.LVL745:
	.loc 2 226 9
	.loc 2 226 41 is_stmt 0
	lw	a5,104(s1)
	.loc 2 226 36
	sw	a5,104(s2)
	.loc 2 227 9 is_stmt 1
	.loc 2 227 40 is_stmt 0
	lw	a5,100(s1)
	.loc 2 227 35
	sw	a5,100(s2)
.L464:
	.loc 2 234 5 is_stmt 1
	.loc 2 234 7 is_stmt 0
	lw	a5,112(s1)
	.loc 2 244 11
	li	s3,0
	.loc 2 234 7
	beq	a5,zero,.L463
	.loc 2 236 9 is_stmt 1
	.loc 2 236 23 is_stmt 0
	lw	a1,116(s1)
	li	a0,1
	call	mbedtls_calloc
.LVL746:
	.loc 2 236 21
	sw	a0,112(s2)
	.loc 2 237 9 is_stmt 1
	.loc 2 237 11 is_stmt 0
	beq	a0,zero,.L467
	.loc 2 240 9 is_stmt 1
	lw	a2,116(s1)
	lw	a1,112(s1)
	call	memcpy
.LVL747:
	j	.L463
	.cfi_endproc
.LFE34:
	.size	mbedtls_ssl_session_copy, .-mbedtls_ssl_session_copy
	.section	.text.mbedtls_ssl_set_session,"ax",@progbits
	.align	1
	.globl	mbedtls_ssl_set_session
	.type	mbedtls_ssl_set_session, @function
mbedtls_ssl_set_session:
.LFB84:
	.loc 2 4281 1
	.cfi_startproc
.LVL748:
	.loc 2 4282 5
	.loc 2 4284 5
	.loc 2 4284 7 is_stmt 0
	beq	a0,zero,.L480
	.loc 2 4284 20 discriminator 1
	beq	a1,zero,.L480
	.loc 2 4281 1
	addi	sp,sp,-16
	.cfi_def_cfa_offset 16
	sw	s0,8(sp)
	sw	s1,4(sp)
	sw	ra,12(sp)
	.cfi_offset 8, -8
	.cfi_offset 9, -12
	.cfi_offset 1, -4
	addi	s0,sp,16
	.cfi_def_cfa 8, 0
	mv	s1,a0
	.loc 2 4286 12
	lw	a0,52(a0)
.LVL749:
	.loc 2 4285 24
	beq	a0,zero,.L482
	.loc 2 4287 18
	lw	a5,0(s1)
	.loc 2 4286 39
	lbu	a5,4(a5)
	bne	a5,zero,.L482
	.loc 2 4292 5 is_stmt 1
	.loc 2 4292 17 is_stmt 0
	call	mbedtls_ssl_session_copy
.LVL750:
	.loc 2 4292 7
	bne	a0,zero,.L477
	.loc 2 4296 5 is_stmt 1
	.loc 2 4296 8 is_stmt 0
	lw	a5,56(s1)
	.loc 2 4296 28
	li	a4,1
	sb	a4,2(a5)
	.loc 2 4298 5 is_stmt 1
.LVL751:
.L477:
	.loc 2 4299 1 is_stmt 0
	lw	ra,12(sp)
	.cfi_restore 1
	lw	s0,8(sp)
	.cfi_restore 8
	.cfi_def_cfa 2, 16
	lw	s1,4(sp)
	.cfi_restore 9
.LVL752:
	addi	sp,sp,16
	.cfi_def_cfa_offset 0
	jr	ra
.LVL753:
.L480:
	.loc 2 4289 15
	li	a0,-28672
.LVL754:
	addi	a0,a0,-256
	.loc 2 4299 1
	ret
.LVL755:
.L482:
	.cfi_def_cfa_register 8
	.cfi_offset 1, -4
	.cfi_offset 8, -8
	.cfi_offset 9, -12
	.loc 2 4289 15
	li	a0,-28672
	addi	a0,a0,-256
	j	.L477
	.cfi_endproc
.LFE84:
	.size	mbedtls_ssl_set_session, .-mbedtls_ssl_set_session
	.section	.text.mbedtls_ssl_get_session,"ax",@progbits
	.align	1
	.globl	mbedtls_ssl_get_session
	.type	mbedtls_ssl_get_session, @function
mbedtls_ssl_get_session:
.LFB126:
	.loc 2 5288 1 is_stmt 1
	.cfi_startproc
.LVL756:
	.loc 2 5289 5
	.loc 2 5288 1 is_stmt 0
	addi	sp,sp,-16
	.cfi_def_cfa_offset 16
	sw	s0,12(sp)
	.cfi_offset 8, -4
	addi	s0,sp,16
	.cfi_def_cfa 8, 0
	.loc 2 5288 1
	mv	a5,a0
	.loc 2 5289 7
	beq	a0,zero,.L492
	mv	a0,a1
.LVL757:
	.loc 2 5289 20 discriminator 1
	beq	a1,zero,.L492
	.loc 2 5291 12
	lw	a1,48(a5)
.LVL758:
	.loc 2 5290 20
	beq	a1,zero,.L492
	.loc 2 5292 18
	lw	a5,0(a5)
.LVL759:
	.loc 2 5291 29
	lbu	a5,4(a5)
	bne	a5,zero,.L492
	.loc 2 5297 5 is_stmt 1
	.loc 2 5298 1 is_stmt 0
	lw	s0,12(sp)
	.cfi_remember_state
	.cfi_restore 8
	.cfi_def_cfa 2, 16
	addi	sp,sp,16
	.cfi_def_cfa_offset 0
	.loc 2 5297 13
	tail	mbedtls_ssl_session_copy
.LVL760:
.L492:
	.cfi_restore_state
	.loc 2 5298 1
	lw	s0,12(sp)
	.cfi_restore 8
	.cfi_def_cfa 2, 16
	.loc 2 5294 15
	li	a0,-28672
	addi	a0,a0,-256
	.loc 2 5298 1
	addi	sp,sp,16
	.cfi_def_cfa_offset 0
	jr	ra
	.cfi_endproc
.LFE126:
	.size	mbedtls_ssl_get_session, .-mbedtls_ssl_get_session
	.section	.rodata.mbedtls_ssl_handshake_wrapup.str1.4,"aMS",@progbits,1
	.align	2
.LC53:
	.string	"=> handshake wrapup"
	.align	2
.LC54:
	.string	"cache did not store session"
	.align	2
.LC55:
	.string	"<= handshake wrapup"
	.section	.text.mbedtls_ssl_handshake_wrapup,"ax",@progbits
	.align	1
	.globl	mbedtls_ssl_handshake_wrapup
	.type	mbedtls_ssl_handshake_wrapup, @function
mbedtls_ssl_handshake_wrapup:
.LFB63:
	.loc 2 3468 1 is_stmt 1
	.cfi_startproc
.LVL761:
	.loc 2 3469 5
	.loc 2 3468 1 is_stmt 0
	addi	sp,sp,-32
	.cfi_def_cfa_offset 32
	sw	s0,24(sp)
	sw	s1,20(sp)
	sw	s2,16(sp)
	sw	ra,28(sp)
	sw	s3,12(sp)
	.cfi_offset 8, -8
	.cfi_offset 9, -12
	.cfi_offset 18, -16
	.cfi_offset 1, -4
	.cfi_offset 19, -20
	addi	s0,sp,32
	.cfi_def_cfa 8, 0
	.loc 2 3469 32
	lw	a5,56(a0)
	.loc 2 3471 5
	lui	a4,%hi(.LC53)
	li	a3,4096
	lui	s2,%hi(.LC3)
	addi	a4,a4,%lo(.LC53)
	addi	a3,a3,-625
	addi	a2,s2,%lo(.LC3)
	li	a1,3
	.loc 2 3468 1
	mv	s1,a0
	.loc 2 3469 32
	lbu	s3,2(a5)
.LVL762:
	.loc 2 3471 5 is_stmt 1
	call	mbedtls_debug_print_msg
.LVL763:
	.loc 2 3484 5
	.loc 2 3484 12 is_stmt 0
	lw	a0,48(s1)
	.loc 2 3484 7
	beq	a0,zero,.L495
	.loc 2 3492 9 is_stmt 1
	call	mbedtls_ssl_session_free
.LVL764:
	.loc 2 3493 9
	lw	a0,48(s1)
	call	mbedtls_free
.LVL765:
.L495:
	.loc 2 3495 5
	.loc 2 3495 23 is_stmt 0
	lw	a1,52(s1)
	.loc 2 3501 12
	lw	a4,0(s1)
	.loc 2 3496 28
	sw	zero,52(s1)
	.loc 2 3495 18
	sw	a1,48(s1)
	.loc 2 3496 5 is_stmt 1
	.loc 2 3501 5
	.loc 2 3501 18 is_stmt 0
	lw	a5,56(a4)
	.loc 2 3501 7
	beq	a5,zero,.L497
	.loc 2 3501 39 discriminator 1
	lw	a3,12(a1)
	beq	a3,zero,.L497
	.loc 2 3502 35
	bne	s3,zero,.L497
	.loc 2 3505 9 is_stmt 1
	.loc 2 3505 13 is_stmt 0
	lw	a0,60(a4)
	jalr	a5
.LVL766:
	.loc 2 3505 11
	beq	a0,zero,.L497
	.loc 2 3506 13 is_stmt 1
	lui	a4,%hi(.LC54)
	li	a3,4096
	addi	a4,a4,%lo(.LC54)
	addi	a3,a3,-590
	addi	a2,s2,%lo(.LC3)
	li	a1,1
	mv	a0,s1
	call	mbedtls_debug_print_msg
.LVL767:
.L497:
	.loc 2 3522 9
	mv	a0,s1
	call	mbedtls_ssl_handshake_wrapup_free_hs_transform
.LVL768:
	.loc 2 3524 5
	.loc 2 3524 15 is_stmt 0
	lw	a5,4(s1)
	.loc 2 3527 1
	lw	s0,24(sp)
	.cfi_restore 8
	.cfi_def_cfa 2, 32
	lw	ra,28(sp)
	.cfi_restore 1
	.loc 2 3524 15
	addi	a5,a5,1
	.loc 2 3527 1
	lw	s3,12(sp)
	.cfi_restore 19
.LVL769:
	.loc 2 3524 15
	sw	a5,4(s1)
	.loc 2 3526 5 is_stmt 1
	addi	a2,s2,%lo(.LC3)
	mv	a0,s1
	.loc 2 3527 1 is_stmt 0
	lw	s2,16(sp)
	.cfi_restore 18
	lw	s1,20(sp)
	.cfi_restore 9
.LVL770:
	.loc 2 3526 5
	lui	a4,%hi(.LC55)
	li	a3,4096
	.loc 2 3527 1
	.loc 2 3526 5
	addi	a4,a4,%lo(.LC55)
	addi	a3,a3,-570
	li	a1,3
	.loc 2 3527 1
	addi	sp,sp,32
	.cfi_def_cfa_offset 0
	.loc 2 3526 5
	tail	mbedtls_debug_print_msg
.LVL771:
	.cfi_endproc
.LFE63:
	.size	mbedtls_ssl_handshake_wrapup, .-mbedtls_ssl_handshake_wrapup
	.section	.text.mbedtls_ssl_session_load,"ax",@progbits
	.align	1
	.globl	mbedtls_ssl_session_load
	.type	mbedtls_ssl_session_load, @function
mbedtls_ssl_session_load:
.LFB131:
	.loc 2 5851 1 is_stmt 1
	.cfi_startproc
.LVL772:
	addi	sp,sp,-32
	.cfi_def_cfa_offset 32
	sw	s0,24(sp)
	sw	s1,20(sp)
	sw	s4,8(sp)
	sw	ra,28(sp)
	sw	s2,16(sp)
	sw	s3,12(sp)
	sw	s5,4(sp)
	.cfi_offset 8, -8
	.cfi_offset 9, -12
	.cfi_offset 20, -24
	.cfi_offset 1, -4
	.cfi_offset 18, -16
	.cfi_offset 19, -20
	.cfi_offset 21, -28
	addi	s0,sp,32
	.cfi_def_cfa 8, 0
.LBB128:
.LBB129:
	.loc 2 5644 11 is_stmt 0
	li	a5,4
.LBE129:
.LBE128:
	.loc 2 5851 1
	mv	s1,a0
	.loc 2 5852 5 is_stmt 1
.LVL773:
.LBB135:
.LBB132:
	.loc 2 5627 5
	.loc 2 5628 5
	.loc 2 5628 33 is_stmt 0
	add	s4,a1,a2
.LVL774:
	.loc 2 5638 5 is_stmt 1
	.loc 2 5644 9
	.loc 2 5644 11 is_stmt 0
	bgtu	a2,a5,.L510
.LVL775:
.L512:
	.loc 2 5645 19
	li	s3,-28672
	addi	s3,s3,-256
.L511:
.LVL776:
.LBE132:
.LBE135:
	.loc 2 5855 9 is_stmt 1
	mv	a0,s1
	call	mbedtls_ssl_session_free
.LVL777:
	.loc 2 5857 5
	.loc 2 5857 11 is_stmt 0
	j	.L509
.LVL778:
.L510:
	mv	s5,a1
.LBB136:
.LBB133:
	.loc 2 5647 13
	lui	a1,%hi(.LANCHOR2)
.LVL779:
	mv	s2,a2
	.loc 2 5647 9 is_stmt 1
	.loc 2 5647 13 is_stmt 0
	addi	a1,a1,%lo(.LANCHOR2)
	li	a2,5
.LVL780:
	mv	a0,s5
	call	memcmp
.LVL781:
	mv	s3,a0
	.loc 2 5647 11
	bne	a0,zero,.L518
	.loc 2 5652 9 is_stmt 1
.LVL782:
	.loc 2 5678 5
	.loc 2 5678 49 is_stmt 0
	addi	s2,s2,-5
.LVL783:
	.loc 2 5678 7
	li	a5,87
	bleu	s2,a5,.L512
	.loc 2 5681 5 is_stmt 1
	.loc 2 5681 26 is_stmt 0
	lbu	a5,6(s5)
	lbu	a4,5(s5)
	.loc 2 5687 5
	li	a2,32
	.loc 2 5681 26
	slli	a5,a5,8
	or	a5,a5,a4
	slli	a4,a5,8
	srli	a5,a5,8
	or	a5,a4,a5
	slli	a5,a5,16
	srli	a5,a5,16
	sw	a5,4(s1)
	.loc 2 5682 5 is_stmt 1
.LVL784:
	.loc 2 5684 5
	.loc 2 5684 28 is_stmt 0
	lbu	a5,7(s5)
	.loc 2 5687 5
	addi	a1,s5,9
	addi	a0,s1,16
	.loc 2 5684 28
	sw	a5,8(s1)
	.loc 2 5686 5 is_stmt 1
.LVL785:
	.loc 2 5686 23 is_stmt 0
	lbu	a5,8(s5)
	sw	a5,12(s1)
	.loc 2 5687 5 is_stmt 1
	call	memcpy
.LVL786:
	.loc 2 5688 5
	.loc 2 5690 5
	li	a2,48
	addi	a1,s5,41
.LVL787:
	addi	a0,s1,48
	call	memcpy
.LVL788:
	.loc 2 5691 5
	.loc 2 5693 5
	.loc 2 5693 32 is_stmt 0
	lbu	a5,89(s5)
	.loc 2 5694 32
	lbu	a4,90(s5)
	.loc 2 5693 48
	slli	a5,a5,24
	.loc 2 5694 48
	slli	a4,a4,16
	.loc 2 5693 56
	or	a5,a5,a4
	.loc 2 5696 32
	lbu	a4,92(s5)
	.loc 2 5695 55
	or	a5,a5,a4
	.loc 2 5695 32
	lbu	a4,91(s5)
	.loc 2 5705 31
	sw	zero,96(s1)
	.loc 2 5709 21
	sw	zero,112(s1)
	.loc 2 5695 48
	slli	a4,a4,8
	.loc 2 5695 55
	or	a5,a5,a4
	.loc 2 5693 28
	sw	a5,108(s1)
	.loc 2 5697 5 is_stmt 1
.LVL789:
	.loc 2 5705 5
	.loc 2 5709 5
	.loc 2 5751 5
	.loc 2 5697 7 is_stmt 0
	addi	a5,s5,93
.LVL790:
	.loc 2 5751 27
	sub	a5,s4,a5
.LVL791:
	.loc 2 5751 7
	li	a4,1
	bleu	a5,a4,.L512
	.loc 2 5754 5 is_stmt 1
.LVL792:
	.loc 2 5754 38 is_stmt 0
	lbu	a0,93(s5)
	.loc 2 5755 48
	addi	s2,s5,95
.LVL793:
	.loc 2 5754 36
	sw	a0,104(s1)
	.loc 2 5755 5 is_stmt 1
.LVL794:
	.loc 2 5755 37 is_stmt 0
	lbu	a5,94(s5)
	.loc 2 5755 35
	sw	a5,100(s1)
	.loc 2 5757 5 is_stmt 1
	.loc 2 5757 7 is_stmt 0
	beq	a5,zero,.L513
.LBB130:
	.loc 2 5759 9 is_stmt 1
	.loc 2 5760 13 is_stmt 0
	call	mbedtls_md_info_from_type
.LVL795:
	.loc 2 5761 9 is_stmt 1
	.loc 2 5761 11 is_stmt 0
	beq	a0,zero,.L512
	.loc 2 5763 9 is_stmt 1
	.loc 2 5763 20 is_stmt 0
	lw	s5,100(s1)
.LVL796:
	.loc 2 5763 46
	call	mbedtls_md_get_size
.LVL797:
	.loc 2 5763 11
	bne	s5,a0,.L512
	.loc 2 5766 9 is_stmt 1
	.loc 2 5766 20 is_stmt 0
	lw	a1,100(s1)
	.loc 2 5766 59
	sub	a5,s4,s2
	.loc 2 5766 11
	bgtu	a1,a5,.L512
	.loc 2 5769 9 is_stmt 1
	.loc 2 5770 13 is_stmt 0
	li	a0,1
	call	mbedtls_calloc
.LVL798:
	.loc 2 5769 35
	sw	a0,96(s1)
	.loc 2 5771 9 is_stmt 1
	.loc 2 5771 11 is_stmt 0
	bne	a0,zero,.L514
.LVL799:
.L516:
	.loc 2 5772 19
	li	s3,-32768
.LVL800:
.L532:
.LBE130:
	.loc 2 5650 19
	addi	s3,s3,256
	j	.L511
.LVL801:
.L514:
.LBB131:
	.loc 2 5774 9 is_stmt 1
	lw	a2,100(s1)
	mv	a1,s2
	call	memcpy
.LVL802:
	.loc 2 5776 9
	.loc 2 5776 11 is_stmt 0
	lw	a5,100(s1)
	add	s2,s2,a5
.LVL803:
.L513:
.LBE131:
	.loc 2 5785 5 is_stmt 1
	.loc 2 5785 27 is_stmt 0
	sub	a5,s4,s2
	.loc 2 5785 7
	li	a4,2
	bleu	a5,a4,.L512
	.loc 2 5788 5 is_stmt 1
	.loc 2 5788 30 is_stmt 0
	lbu	a1,0(s2)
	.loc 2 5788 47
	lbu	a5,1(s2)
	.loc 2 5789 7
	addi	s2,s2,3
.LVL804:
	.loc 2 5788 34
	slli	a1,a1,16
	.loc 2 5788 51
	slli	a5,a5,8
	.loc 2 5788 42
	or	a1,a1,a5
	.loc 2 5788 61
	lbu	a5,-1(s2)
	.loc 2 5788 58
	or	a1,a1,a5
	.loc 2 5788 25
	sw	a1,116(s1)
	.loc 2 5789 5 is_stmt 1
.LVL805:
	.loc 2 5791 5
	.loc 2 5791 7 is_stmt 0
	beq	a1,zero,.L515
	.loc 2 5793 9 is_stmt 1
	.loc 2 5793 49 is_stmt 0
	sub	a5,s4,s2
	.loc 2 5793 11
	bgtu	a1,a5,.L512
	.loc 2 5796 9 is_stmt 1
	.loc 2 5796 27 is_stmt 0
	li	a0,1
	call	mbedtls_calloc
.LVL806:
	.loc 2 5796 25
	sw	a0,112(s1)
	.loc 2 5797 9 is_stmt 1
	.loc 2 5797 11 is_stmt 0
	beq	a0,zero,.L516
	.loc 2 5800 9 is_stmt 1
	lw	a2,116(s1)
	mv	a1,s2
	call	memcpy
.LVL807:
	.loc 2 5801 9
	.loc 2 5801 11 is_stmt 0
	lw	a5,116(s1)
	add	s2,s2,a5
.LVL808:
.L515:
	.loc 2 5804 5 is_stmt 1
	.loc 2 5804 27 is_stmt 0
	sub	a5,s4,s2
	.loc 2 5804 7
	li	a4,3
	bleu	a5,a4,.L512
	.loc 2 5807 5 is_stmt 1
	.loc 2 5807 34 is_stmt 0
	lbu	a5,0(s2)
	.loc 2 5808 34
	lbu	a4,1(s2)
	.loc 2 5807 50
	slli	a5,a5,24
	.loc 2 5808 50
	slli	a4,a4,16
	.loc 2 5807 58
	or	a5,a5,a4
	.loc 2 5810 34
	lbu	a4,3(s2)
	.loc 2 5809 57
	or	a5,a5,a4
	.loc 2 5809 34
	lbu	a4,2(s2)
	.loc 2 5809 50
	slli	a4,a4,8
	.loc 2 5809 57
	or	a5,a5,a4
	.loc 2 5807 30
	sw	a5,120(s1)
	.loc 2 5811 5 is_stmt 1
.LVL809:
	.loc 2 5818 5
	.loc 2 5811 7 is_stmt 0
	addi	a5,s2,4
.LVL810:
	.loc 2 5818 7
	beq	s4,a5,.L512
	.loc 2 5821 5 is_stmt 1
.LVL811:
	.loc 2 5821 25 is_stmt 0
	lbu	a5,4(s2)
	.loc 2 5821 27
	addi	s2,s2,5
.LVL812:
	.loc 2 5821 23
	sb	a5,0(s1)
	.loc 2 5839 5 is_stmt 1
	.loc 2 5839 7 is_stmt 0
	bne	s4,s2,.L512
.LVL813:
.L509:
.LBE133:
.LBE136:
	.loc 2 5858 1
	lw	ra,28(sp)
	.cfi_remember_state
	.cfi_restore 1
	lw	s0,24(sp)
	.cfi_restore 8
	.cfi_def_cfa 2, 32
	lw	s1,20(sp)
	.cfi_restore 9
.LVL814:
	lw	s2,16(sp)
	.cfi_restore 18
	lw	s4,8(sp)
	.cfi_restore 20
	lw	s5,4(sp)
	.cfi_restore 21
	mv	a0,s3
	lw	s3,12(sp)
	.cfi_restore 19
	addi	sp,sp,32
	.cfi_def_cfa_offset 0
	jr	ra
.LVL815:
.L518:
	.cfi_restore_state
.LBB137:
.LBB134:
	.loc 2 5650 19
	li	s3,-24576
	j	.L532
.LBE134:
.LBE137:
	.cfi_endproc
.LFE131:
	.size	mbedtls_ssl_session_load, .-mbedtls_ssl_session_load
	.section	.rodata.ssl_handshake_init.str1.4,"aMS",@progbits,1
	.align	2
.LC56:
	.string	"alloc() of ssl sub-contexts failed"
	.section	.text.ssl_handshake_init,"ax",@progbits
	.align	1
	.type	ssl_handshake_init, @function
ssl_handshake_init:
.LFB69:
	.loc 2 3824 1 is_stmt 1
	.cfi_startproc
.LVL816:
	.loc 2 3826 5
	.loc 2 3824 1 is_stmt 0
	addi	sp,sp,-32
	.cfi_def_cfa_offset 32
	sw	s0,24(sp)
	sw	s1,20(sp)
	sw	ra,28(sp)
	.cfi_offset 8, -8
	.cfi_offset 9, -12
	.cfi_offset 1, -4
	addi	s0,sp,32
	.cfi_def_cfa 8, 0
	.loc 2 3824 1
	mv	s1,a0
	.loc 2 3826 12
	lw	a0,72(a0)
.LVL817:
	.loc 2 3826 7
	beq	a0,zero,.L534
	.loc 2 3827 9 is_stmt 1
	call	mbedtls_ssl_transform_free
.LVL818:
.L534:
	.loc 2 3828 5
	.loc 2 3828 12 is_stmt 0
	lw	a0,52(s1)
	.loc 2 3828 7
	beq	a0,zero,.L535
	.loc 2 3829 9 is_stmt 1
	call	mbedtls_ssl_session_free
.LVL819:
.L535:
	.loc 2 3830 5
	.loc 2 3830 7 is_stmt 0
	lw	a5,56(s1)
	beq	a5,zero,.L536
	.loc 2 3831 9 is_stmt 1
	mv	a0,s1
	call	mbedtls_ssl_handshake_free
.LVL820:
.L536:
	.loc 2 3837 5
	.loc 2 3837 7 is_stmt 0
	lw	a5,72(s1)
	bne	a5,zero,.L537
	.loc 2 3839 9 is_stmt 1
	.loc 2 3839 36 is_stmt 0
	li	a1,208
	li	a0,1
	call	mbedtls_calloc
.LVL821:
	.loc 2 3839 34
	sw	a0,72(s1)
.L537:
	.loc 2 3842 5 is_stmt 1
	.loc 2 3842 7 is_stmt 0
	lw	a5,52(s1)
	bne	a5,zero,.L538
	.loc 2 3844 9 is_stmt 1
	.loc 2 3844 34 is_stmt 0
	li	a1,124
	li	a0,1
	call	mbedtls_calloc
.LVL822:
	.loc 2 3844 32
	sw	a0,52(s1)
.L538:
	.loc 2 3847 5 is_stmt 1
	.loc 2 3847 7 is_stmt 0
	lw	a5,56(s1)
	beq	a5,zero,.L539
.L542:
	.loc 2 3859 31
	lw	a5,72(s1)
	bne	a5,zero,.L559
.L540:
	.loc 2 3863 9 is_stmt 1
	lui	a4,%hi(.LC56)
	li	a3,4096
	lui	a2,%hi(.LC3)
	addi	a4,a4,%lo(.LC56)
	addi	a3,a3,-233
	addi	a2,a2,%lo(.LC3)
	li	a1,1
	mv	a0,s1
	call	mbedtls_debug_print_msg
.LVL823:
	.loc 2 3865 9
	lw	a0,56(s1)
	call	mbedtls_free
.LVL824:
	.loc 2 3866 9
	lw	a0,72(s1)
	call	mbedtls_free
.LVL825:
	.loc 2 3867 9
	lw	a0,52(s1)
	call	mbedtls_free
.LVL826:
	.loc 2 3869 9
	.loc 2 3873 15 is_stmt 0
	li	a0,-32768
	.loc 2 3869 24
	sw	zero,56(s1)
	.loc 2 3870 9 is_stmt 1
	.loc 2 3870 34 is_stmt 0
	sw	zero,72(s1)
	.loc 2 3871 9 is_stmt 1
	.loc 2 3871 32 is_stmt 0
	sw	zero,52(s1)
	.loc 2 3873 9 is_stmt 1
	.loc 2 3873 15 is_stmt 0
	addi	a0,a0,256
.LVL827:
.L533:
	.loc 2 3896 1
	lw	ra,28(sp)
	.cfi_remember_state
	.cfi_restore 1
	lw	s0,24(sp)
	.cfi_restore 8
	.cfi_def_cfa 2, 32
	lw	s1,20(sp)
	.cfi_restore 9
	addi	sp,sp,32
	.cfi_def_cfa_offset 0
	jr	ra
.LVL828:
.L539:
	.cfi_restore_state
	.loc 2 3849 9 is_stmt 1
	.loc 2 3849 26 is_stmt 0
	li	a1,1912
	li	a0,1
	call	mbedtls_calloc
.LVL829:
	.loc 2 3849 24
	sw	a0,56(s1)
	.loc 2 3859 5 is_stmt 1
	.loc 2 3859 7 is_stmt 0
	bne	a0,zero,.L542
	j	.L540
.L559:
	.loc 2 3861 12
	lw	a0,52(s1)
	.loc 2 3860 41
	beq	a0,zero,.L540
	.loc 2 3877 5 is_stmt 1
	call	mbedtls_ssl_session_init
.LVL830:
	.loc 2 3878 5
	lw	a0,72(s1)
	call	mbedtls_ssl_transform_init
.LVL831:
	.loc 2 3879 5
	lw	s1,56(s1)
.LVL832:
.LBB143:
.LBB144:
	.loc 2 3739 5
	li	a2,1912
	li	a1,0
	mv	a0,s1
	call	memset
.LVL833:
	.loc 2 3754 5
	addi	a0,s1,416
	sw	a0,-20(s0)
	call	mbedtls_sha256_init
.LVL834:
	.loc 2 3755 5
	lw	a0,-20(s0)
	li	a1,0
	call	mbedtls_sha256_starts_ret
.LVL835:
	.loc 2 3763 5
	addi	a0,s1,608
	sw	a0,-20(s0)
	call	mbedtls_sha512_init
.LVL836:
	.loc 2 3764 5
	lw	a0,-20(s0)
	li	a1,1
	call	mbedtls_sha512_starts_ret
.LVL837:
	.loc 2 3769 5
	.loc 2 3769 32 is_stmt 0
	lui	a5,%hi(ssl_update_checksum_start)
	addi	a5,a5,%lo(ssl_update_checksum_start)
	sw	a5,24(s1)
	.loc 2 3773 5 is_stmt 1
.LVL838:
.LBE144:
.LBE143:
	.loc 1 915 5
.LBB153:
.LBB151:
.LBB145:
.LBB146:
.LBB147:
	.loc 2 7268 5
.LBE147:
.LBE146:
.LBE145:
	.loc 2 3777 5 is_stmt 0
	addi	a0,s1,40
.LBB150:
.LBB149:
.LBB148:
	.loc 2 7268 14
	sw	zero,8(s1)
	.loc 2 7269 5 is_stmt 1
	.loc 2 7269 16 is_stmt 0
	sw	zero,12(s1)
.LVL839:
.LBE148:
.LBE149:
.LBE150:
	.loc 2 3777 5 is_stmt 1
	call	mbedtls_dhm_init
.LVL840:
	.loc 2 3780 5
	addi	a0,s1,164
	call	mbedtls_ecdh_init
.LVL841:
	.loc 2 3795 5
	.loc 2 3795 29 is_stmt 0
	li	a5,3
	.loc 2 3800 5
	addi	a0,s1,408
	.loc 2 3795 29
	sb	a5,4(s1)
	.loc 2 3800 5 is_stmt 1
	call	mbedtls_pk_init
.LVL842:
.LBE151:
.LBE153:
	.loc 2 3895 11 is_stmt 0
	li	a0,0
.LVL843:
.LBB154:
.LBB152:
	.loc 2 3802 1
	j	.L533
.LBE152:
.LBE154:
	.cfi_endproc
.LFE69:
	.size	ssl_handshake_init, .-ssl_handshake_init
	.section	.rodata.mbedtls_ssl_setup.str1.4,"aMS",@progbits,1
	.align	2
.LC57:
	.string	"alloc(%zu bytes) failed"
	.section	.text.mbedtls_ssl_setup,"ax",@progbits
	.align	1
	.globl	mbedtls_ssl_setup
	.type	mbedtls_ssl_setup, @function
mbedtls_ssl_setup:
.LFB71:
	.loc 2 3943 1 is_stmt 1
	.cfi_startproc
.LVL844:
	.loc 2 3944 5
	.loc 2 3945 5
	.loc 2 3946 5
	.loc 2 3948 5
	.loc 2 3943 1 is_stmt 0
	addi	sp,sp,-16
	.cfi_def_cfa_offset 16
	sw	s0,8(sp)
	sw	s1,4(sp)
	sw	s2,0(sp)
	sw	ra,12(sp)
	.cfi_offset 8, -8
	.cfi_offset 9, -12
	.cfi_offset 18, -16
	.cfi_offset 1, -4
	addi	s0,sp,16
	.cfi_def_cfa 8, 0
	.loc 2 3960 19
	li	s2,16384
	.loc 2 3948 15
	sw	a1,0(a0)
	.loc 2 3955 5 is_stmt 1
	.loc 2 3943 1 is_stmt 0
	mv	s1,a0
	.loc 2 3955 18
	sw	zero,140(a0)
	.loc 2 3960 5 is_stmt 1
	.loc 2 3960 19 is_stmt 0
	addi	a1,s2,333
.LVL845:
	li	a0,1
.LVL846:
	call	mbedtls_calloc
.LVL847:
	.loc 2 3960 17
	sw	a0,88(s1)
	.loc 2 3961 5 is_stmt 1
	.loc 2 3961 7 is_stmt 0
	bne	a0,zero,.L562
	.loc 2 3963 9 is_stmt 1
	lui	a4,%hi(.LC57)
	li	a3,4096
	addi	a5,s2,333
	addi	a4,a4,%lo(.LC57)
	addi	a3,a3,-133
.L570:
	.loc 2 3974 9 is_stmt 0
	lui	a2,%hi(.LC3)
	addi	a2,a2,%lo(.LC3)
	li	a1,1
	mv	a0,s1
	.loc 2 3975 13
	li	s2,-32768
	.loc 2 3974 9
	call	mbedtls_debug_print_msg
.LVL848:
	.loc 2 3975 9 is_stmt 1
	.loc 2 3976 9
	.loc 2 3975 13 is_stmt 0
	addi	s2,s2,256
.LVL849:
.L563:
	.loc 2 3991 5 is_stmt 1
	lw	a0,88(s1)
	call	mbedtls_free
.LVL850:
	.loc 2 3992 5
	lw	a0,140(s1)
	call	mbedtls_free
.LVL851:
	.loc 2 3994 5
	.loc 2 3994 15 is_stmt 0
	sw	zero,0(s1)
	.loc 2 4000 5 is_stmt 1
	.loc 2 4000 17 is_stmt 0
	sw	zero,88(s1)
	.loc 2 4001 5 is_stmt 1
	.loc 2 4001 18 is_stmt 0
	sw	zero,140(s1)
	.loc 2 4003 5 is_stmt 1
	.loc 2 4003 17 is_stmt 0
	sw	zero,96(s1)
	.loc 2 4004 5 is_stmt 1
	.loc 2 4004 17 is_stmt 0
	sw	zero,92(s1)
	.loc 2 4005 5 is_stmt 1
	.loc 2 4005 17 is_stmt 0
	sw	zero,100(s1)
	.loc 2 4006 5 is_stmt 1
	.loc 2 4006 16 is_stmt 0
	sw	zero,104(s1)
	.loc 2 4007 5 is_stmt 1
	.loc 2 4007 17 is_stmt 0
	sw	zero,108(s1)
	.loc 2 4009 5 is_stmt 1
	.loc 2 4009 18 is_stmt 0
	sw	zero,148(s1)
	.loc 2 4010 5 is_stmt 1
	.loc 2 4010 18 is_stmt 0
	sw	zero,144(s1)
	.loc 2 4011 5 is_stmt 1
	.loc 2 4011 18 is_stmt 0
	sw	zero,152(s1)
	.loc 2 4012 5 is_stmt 1
	.loc 2 4012 17 is_stmt 0
	sw	zero,156(s1)
	.loc 2 4013 5 is_stmt 1
	.loc 2 4013 18 is_stmt 0
	sw	zero,160(s1)
	.loc 2 4015 5 is_stmt 1
	.loc 2 4015 11 is_stmt 0
	j	.L561
.LVL852:
.L562:
	.loc 2 3971 5 is_stmt 1
	.loc 2 3971 20 is_stmt 0
	addi	a1,s2,333
	li	a0,1
	call	mbedtls_calloc
.LVL853:
	.loc 2 3971 18
	sw	a0,140(s1)
	.loc 2 3972 5 is_stmt 1
	.loc 2 3972 7 is_stmt 0
	bne	a0,zero,.L564
	.loc 2 3974 9 is_stmt 1
	lui	a4,%hi(.LC57)
	li	a3,4096
	addi	a5,s2,333
	addi	a4,a4,%lo(.LC57)
	addi	a3,a3,-122
	j	.L570
.L564:
	.loc 2 3979 5
	mv	a0,s1
	call	mbedtls_ssl_reset_in_out_pointers
.LVL854:
	.loc 2 3985 5
	.loc 2 3985 17 is_stmt 0
	mv	a0,s1
	call	ssl_handshake_init
.LVL855:
	mv	s2,a0
.LVL856:
	.loc 2 3985 7
	bne	a0,zero,.L563
.LVL857:
.L561:
	.loc 2 4016 1
	lw	ra,12(sp)
	.cfi_restore 1
	lw	s0,8(sp)
	.cfi_restore 8
	.cfi_def_cfa 2, 16
	lw	s1,4(sp)
	.cfi_restore 9
.LVL858:
	mv	a0,s2
	lw	s2,0(sp)
	.cfi_restore 18
.LVL859:
	addi	sp,sp,16
	.cfi_def_cfa_offset 0
	jr	ra
	.cfi_endproc
.LFE71:
	.size	mbedtls_ssl_setup, .-mbedtls_ssl_setup
	.section	.text.mbedtls_ssl_session_reset_int,"ax",@progbits
	.align	1
	.globl	mbedtls_ssl_session_reset_int
	.type	mbedtls_ssl_session_reset_int, @function
mbedtls_ssl_session_reset_int:
.LFB72:
	.loc 2 4026 1 is_stmt 1
	.cfi_startproc
.LVL860:
	.loc 2 4027 5
	.loc 2 4032 5
	.loc 2 4033 5
	.loc 2 4038 5
	.loc 2 4041 5
	.loc 2 4026 1 is_stmt 0
	addi	sp,sp,-16
	.cfi_def_cfa_offset 16
	sw	ra,12(sp)
	sw	s0,8(sp)
	sw	s1,4(sp)
	.cfi_offset 1, -4
	.cfi_offset 8, -8
	.cfi_offset 9, -12
	addi	s0,sp,16
	.cfi_def_cfa 8, 0
	sw	s2,0(sp)
	.cfi_offset 18, -16
	.loc 2 4044 5
	li	a1,0
.LVL861:
	.loc 2 4041 16
	sw	zero,4(a0)
	.loc 2 4044 5 is_stmt 1
	.loc 2 4026 1 is_stmt 0
	mv	s1,a0
	.loc 2 4044 5
	call	mbedtls_ssl_set_timer
.LVL862:
	.loc 2 4054 5 is_stmt 1
	.loc 2 4057 5 is_stmt 0
	mv	a0,s1
	.loc 2 4054 31
	sw	zero,196(s1)
	.loc 2 4056 5 is_stmt 1
	.loc 2 4056 18 is_stmt 0
	sw	zero,112(s1)
	.loc 2 4057 5 is_stmt 1
	call	mbedtls_ssl_reset_in_out_pointers
.LVL863:
	.loc 2 4059 5
	.loc 2 4082 5 is_stmt 0
	li	a2,8
	li	a1,0
	.loc 2 4059 21
	sw	zero,116(s1)
	.loc 2 4060 5 is_stmt 1
	.loc 2 4060 20 is_stmt 0
	sw	zero,120(s1)
	.loc 2 4069 5 is_stmt 1
	.loc 2 4069 19 is_stmt 0
	sw	zero,128(s1)
	.loc 2 4070 5 is_stmt 1
	.loc 2 4070 18 is_stmt 0
	sw	zero,132(s1)
	.loc 2 4072 5 is_stmt 1
	.loc 2 4072 31 is_stmt 0
	sw	zero,136(s1)
	.loc 2 4074 5 is_stmt 1
	.loc 2 4074 22 is_stmt 0
	sw	zero,164(s1)
	.loc 2 4075 5 is_stmt 1
	.loc 2 4075 21 is_stmt 0
	sw	zero,168(s1)
	.loc 2 4076 5 is_stmt 1
	.loc 2 4076 19 is_stmt 0
	sw	zero,172(s1)
	.loc 2 4082 5 is_stmt 1
	addi	a0,s1,176
	call	memset
.LVL864:
	.loc 2 4084 5
	.loc 2 4090 5 is_stmt 0
	lw	a0,140(s1)
	li	s2,16384
	addi	a2,s2,333
	li	a1,0
	.loc 2 4084 23
	sw	zero,60(s1)
	.loc 2 4085 5 is_stmt 1
	.loc 2 4085 24 is_stmt 0
	sw	zero,64(s1)
	.loc 2 4087 5 is_stmt 1
	.loc 2 4087 21 is_stmt 0
	sw	zero,40(s1)
	.loc 2 4088 5 is_stmt 1
	.loc 2 4088 22 is_stmt 0
	sw	zero,44(s1)
	.loc 2 4090 5 is_stmt 1
	call	memset
.LVL865:
	.loc 2 4096 9
	.loc 2 4097 9 is_stmt 0
	lw	a0,88(s1)
	.loc 2 4096 22
	sw	zero,124(s1)
	.loc 2 4097 9 is_stmt 1
	addi	a2,s2,333
	li	a1,0
	call	memset
.LVL866:
	.loc 2 4112 5
	.loc 2 4112 12 is_stmt 0
	lw	a0,68(s1)
	.loc 2 4112 7
	beq	a0,zero,.L572
	.loc 2 4114 9 is_stmt 1
	call	mbedtls_ssl_transform_free
.LVL867:
	.loc 2 4115 9
	lw	a0,68(s1)
	call	mbedtls_free
.LVL868:
	.loc 2 4116 9
	.loc 2 4116 24 is_stmt 0
	sw	zero,68(s1)
.L572:
	.loc 2 4119 5 is_stmt 1
	.loc 2 4119 12 is_stmt 0
	lw	a0,48(s1)
	.loc 2 4119 7
	beq	a0,zero,.L573
	.loc 2 4121 9 is_stmt 1
	call	mbedtls_ssl_session_free
.LVL869:
	.loc 2 4122 9
	lw	a0,48(s1)
	call	mbedtls_free
.LVL870:
	.loc 2 4123 9
	.loc 2 4123 22 is_stmt 0
	sw	zero,48(s1)
.L573:
	.loc 2 4127 5 is_stmt 1
	.loc 2 4145 1 is_stmt 0
	lw	s0,8(sp)
	.cfi_restore 8
	.cfi_def_cfa 2, 16
	lw	ra,12(sp)
	.cfi_restore 1
	lw	s2,0(sp)
	.cfi_restore 18
	.loc 2 4127 22
	sw	zero,192(s1)
	.loc 2 4141 5 is_stmt 1
	.loc 2 4141 17 is_stmt 0
	mv	a0,s1
	.loc 2 4145 1
	lw	s1,4(sp)
	.cfi_restore 9
.LVL871:
	addi	sp,sp,16
	.cfi_def_cfa_offset 0
	.loc 2 4141 17
	tail	ssl_handshake_init
.LVL872:
	.cfi_endproc
.LFE72:
	.size	mbedtls_ssl_session_reset_int, .-mbedtls_ssl_session_reset_int
	.section	.text.mbedtls_ssl_session_reset,"ax",@progbits
	.align	1
	.globl	mbedtls_ssl_session_reset
	.type	mbedtls_ssl_session_reset, @function
mbedtls_ssl_session_reset:
.LFB73:
	.loc 2 4152 1 is_stmt 1
	.cfi_startproc
.LVL873:
	.loc 2 4153 5
	.loc 2 4152 1 is_stmt 0
	addi	sp,sp,-16
	.cfi_def_cfa_offset 16
	sw	s0,12(sp)
	.cfi_offset 8, -4
	addi	s0,sp,16
	.cfi_def_cfa 8, 0
	.loc 2 4154 1
	lw	s0,12(sp)
	.cfi_restore 8
	.cfi_def_cfa 2, 16
	.loc 2 4153 13
	li	a1,0
	.loc 2 4154 1
	addi	sp,sp,16
	.cfi_def_cfa_offset 0
	.loc 2 4153 13
	tail	mbedtls_ssl_session_reset_int
.LVL874:
	.cfi_endproc
.LFE73:
	.size	mbedtls_ssl_session_reset, .-mbedtls_ssl_session_reset
	.section	.rodata.mbedtls_ssl_free.str1.4,"aMS",@progbits,1
	.align	2
.LC58:
	.string	"=> free"
	.align	2
.LC59:
	.string	"<= free"
	.section	.text.mbedtls_ssl_free,"ax",@progbits
	.align	1
	.globl	mbedtls_ssl_free
	.type	mbedtls_ssl_free, @function
mbedtls_ssl_free:
.LFB137:
	.loc 2 6834 1 is_stmt 1
	.cfi_startproc
.LVL875:
	.loc 2 6835 5
	.loc 2 6835 7 is_stmt 0
	beq	a0,zero,.L583
	.loc 2 6834 1
	addi	sp,sp,-32
	.cfi_def_cfa_offset 32
	sw	s0,24(sp)
	sw	s1,20(sp)
	sw	s3,12(sp)
	sw	ra,28(sp)
	sw	s2,16(sp)
	.cfi_offset 8, -8
	.cfi_offset 9, -12
	.cfi_offset 19, -20
	.cfi_offset 1, -4
	.cfi_offset 18, -16
	addi	s0,sp,32
	.cfi_def_cfa 8, 0
	.loc 2 6838 5
	lui	a4,%hi(.LC58)
	li	a3,8192
	lui	s3,%hi(.LC3)
	.loc 2 6834 1
	.loc 2 6838 5
	addi	a4,a4,%lo(.LC58)
	addi	a3,a3,-1354
	addi	a2,s3,%lo(.LC3)
	li	a1,2
	mv	s1,a0
	.loc 2 6838 5 is_stmt 1
	call	mbedtls_debug_print_msg
.LVL876:
	.loc 2 6840 5
	.loc 2 6840 12 is_stmt 0
	lw	a0,140(s1)
	.loc 2 6840 7
	beq	a0,zero,.L585
.LBB155:
	.loc 2 6845 9 is_stmt 1
.LVL877:
	.loc 2 6848 9
	li	a1,16384
	addi	a1,a1,333
	call	mbedtls_platform_zeroize
.LVL878:
	.loc 2 6849 9
	lw	a0,140(s1)
	call	mbedtls_free
.LVL879:
	.loc 2 6850 9
	.loc 2 6850 22 is_stmt 0
	sw	zero,140(s1)
.LVL880:
.L585:
.LBE155:
	.loc 2 6853 5 is_stmt 1
	.loc 2 6853 12 is_stmt 0
	lw	a0,88(s1)
	.loc 2 6853 7
	beq	a0,zero,.L586
.LBB156:
	.loc 2 6858 9 is_stmt 1
.LVL881:
	.loc 2 6861 9
	li	a1,16384
	addi	a1,a1,333
	call	mbedtls_platform_zeroize
.LVL882:
	.loc 2 6862 9
	lw	a0,88(s1)
	call	mbedtls_free
.LVL883:
	.loc 2 6863 9
	.loc 2 6863 21 is_stmt 0
	sw	zero,88(s1)
.LVL884:
.L586:
.LBE156:
	.loc 2 6874 5 is_stmt 1
	.loc 2 6874 12 is_stmt 0
	lw	a0,68(s1)
	.loc 2 6874 7
	beq	a0,zero,.L587
	.loc 2 6876 9 is_stmt 1
	call	mbedtls_ssl_transform_free
.LVL885:
	.loc 2 6877 9
	lw	a0,68(s1)
	call	mbedtls_free
.LVL886:
.L587:
	.loc 2 6880 5
	.loc 2 6880 7 is_stmt 0
	lw	a5,56(s1)
	beq	a5,zero,.L588
	.loc 2 6882 9 is_stmt 1
	mv	a0,s1
	call	mbedtls_ssl_handshake_free
.LVL887:
	.loc 2 6883 9
	lw	a0,72(s1)
	call	mbedtls_ssl_transform_free
.LVL888:
	.loc 2 6884 9
	lw	a0,52(s1)
	call	mbedtls_ssl_session_free
.LVL889:
	.loc 2 6886 9
	lw	a0,56(s1)
	call	mbedtls_free
.LVL890:
	.loc 2 6887 9
	lw	a0,72(s1)
	call	mbedtls_free
.LVL891:
	.loc 2 6888 9
	lw	a0,52(s1)
	call	mbedtls_free
.LVL892:
.L588:
	.loc 2 6891 5
	.loc 2 6891 12 is_stmt 0
	lw	a0,48(s1)
	.loc 2 6891 7
	beq	a0,zero,.L589
	.loc 2 6893 9 is_stmt 1
	call	mbedtls_ssl_session_free
.LVL893:
	.loc 2 6894 9
	lw	a0,48(s1)
	call	mbedtls_free
.LVL894:
.L589:
	.loc 2 6898 5
	.loc 2 6898 12 is_stmt 0
	lw	s2,188(s1)
	.loc 2 6898 7
	beq	s2,zero,.L590
	.loc 2 6900 9 is_stmt 1
	mv	a0,s2
	call	strlen
.LVL895:
	mv	a1,a0
	mv	a0,s2
	call	mbedtls_platform_zeroize
.LVL896:
	.loc 2 6901 9
	lw	a0,188(s1)
	call	mbedtls_free
.LVL897:
.L590:
	.loc 2 6917 5
	lui	a4,%hi(.LC59)
	li	a3,8192
	mv	a0,s1
	addi	a2,s3,%lo(.LC3)
	li	a1,2
	addi	a4,a4,%lo(.LC59)
	addi	a3,a3,-1275
	call	mbedtls_debug_print_msg
.LVL898:
	.loc 2 6920 5
	.loc 2 6921 1 is_stmt 0
	lw	s0,24(sp)
	.cfi_restore 8
	.cfi_def_cfa 2, 32
	lw	ra,28(sp)
	.cfi_restore 1
	lw	s2,16(sp)
	.cfi_restore 18
	lw	s3,12(sp)
	.cfi_restore 19
	.loc 2 6920 5
	mv	a0,s1
	.loc 2 6921 1
	lw	s1,20(sp)
	.cfi_restore 9
.LVL899:
	.loc 2 6920 5
	li	a1,200
	.loc 2 6921 1
	addi	sp,sp,32
	.cfi_def_cfa_offset 0
	.loc 2 6920 5
	tail	mbedtls_platform_zeroize
.LVL900:
.L583:
	ret
	.cfi_endproc
.LFE137:
	.size	mbedtls_ssl_free, .-mbedtls_ssl_free
	.section	.text.mbedtls_ssl_config_init,"ax",@progbits
	.align	1
	.globl	mbedtls_ssl_config_init
	.type	mbedtls_ssl_config_init, @function
mbedtls_ssl_config_init:
.LFB138:
	.loc 2 6927 1 is_stmt 1
	.cfi_startproc
.LVL901:
	.loc 2 6928 5
	.loc 2 6927 1 is_stmt 0
	addi	sp,sp,-16
	.cfi_def_cfa_offset 16
	sw	s0,12(sp)
	.cfi_offset 8, -4
	addi	s0,sp,16
	.cfi_def_cfa 8, 0
	.loc 2 6929 1
	lw	s0,12(sp)
	.cfi_restore 8
	.cfi_def_cfa 2, 16
	.loc 2 6928 5
	li	a2,168
	li	a1,0
	.loc 2 6929 1
	addi	sp,sp,16
	.cfi_def_cfa_offset 0
	.loc 2 6928 5
	tail	memset
.LVL902:
	.cfi_endproc
.LFE138:
	.size	mbedtls_ssl_config_init, .-mbedtls_ssl_config_init
	.section	.text.mbedtls_ssl_config_defaults,"ax",@progbits
	.align	1
	.globl	mbedtls_ssl_config_defaults
	.type	mbedtls_ssl_config_defaults, @function
mbedtls_ssl_config_defaults:
.LFB139:
	.loc 2 6981 1 is_stmt 1
	.cfi_startproc
.LVL903:
	.loc 2 6983 5
	.loc 2 6988 5
.LBB157:
.LBB158:
	.loc 2 4161 5
.LBE158:
.LBE157:
	.loc 2 6981 1 is_stmt 0
	addi	sp,sp,-288
	.cfi_def_cfa_offset 288
	sw	s0,280(sp)
	sw	s1,276(sp)
	sw	s2,272(sp)
	sw	ra,284(sp)
	.cfi_offset 8, -8
	.cfi_offset 9, -12
	.cfi_offset 18, -16
	.cfi_offset 1, -4
	addi	s0,sp,288
	.cfi_def_cfa 8, 0
.LBB160:
.LBB159:
	.loc 2 4161 20
	sb	a1,4(a0)
.LVL904:
.LBE159:
.LBE160:
	.loc 2 6989 5 is_stmt 1
.LBB161:
.LBB162:
	.loc 2 4166 5
	.loc 2 4166 21 is_stmt 0
	sb	a2,5(a0)
.LVL905:
.LBE162:
.LBE161:
	.loc 2 6995 5 is_stmt 1
	.loc 2 6981 1 is_stmt 0
	mv	s1,a0
	mv	s2,a3
	.loc 2 6995 7
	bne	a1,zero,.L615
	.loc 2 6997 9 is_stmt 1
	.loc 2 6997 24 is_stmt 0
	li	a5,2
	sb	a5,6(a0)
	.loc 2 6999 9 is_stmt 1
	.loc 2 6999 31 is_stmt 0
	li	a5,1
	sb	a5,9(a0)
.L615:
	.loc 2 7030 5 is_stmt 1
	.loc 2 7030 28 is_stmt 0
	li	a5,1
	sb	a5,10(s1)
	.loc 2 7045 13 is_stmt 1
	.loc 2 7045 15 is_stmt 0
	bne	a1,a5,.L616
.LBB163:
	.loc 2 7047 17 is_stmt 1
	.loc 2 7047 37 is_stmt 0
	lui	a1,%hi(.LANCHOR3)
.LVL906:
	li	a2,256
.LVL907:
	addi	a1,a1,%lo(.LANCHOR3)
	addi	a0,s0,-272
.LVL908:
	call	memcpy
.LVL909:
	.loc 2 7049 17 is_stmt 1
	.loc 2 7049 37 is_stmt 0
	li	a5,2
	.loc 2 7052 30
	li	a4,1
	addi	a3,s0,-276
	li	a2,256
	addi	a1,s0,-272
	mv	a0,s1
	.loc 2 7049 37
	sb	a5,-276(s0)
	.loc 2 7052 17 is_stmt 1
	.loc 2 7052 30 is_stmt 0
	call	mbedtls_ssl_conf_dh_param_bin
.LVL910:
	.loc 2 7052 20
	bne	a0,zero,.L614
.LVL911:
.L616:
.LBE163:
	.loc 2 7064 5 is_stmt 1
	li	a5,50528256
	addi	a5,a5,771
	li	a4,2
	.loc 2 7106 33 is_stmt 0
	sw	a5,0(s1)
	.loc 2 7064 5
	bne	s2,a4,.L619
	.loc 2 7070 13 is_stmt 1
	.loc 2 7071 13
	.loc 2 7072 13
	.loc 2 7073 13
	.loc 2 7075 13
	.loc 2 7078 39 is_stmt 0
	lui	a5,%hi(.LANCHOR4)
	addi	a5,a5,%lo(.LANCHOR4)
	sw	a5,32(s1)
	.loc 2 7077 39
	sw	a5,28(s1)
	.loc 2 7076 39
	sw	a5,24(s1)
	.loc 2 7075 39
	sw	a5,20(s1)
	.loc 2 7082 13 is_stmt 1
	.loc 2 7082 32 is_stmt 0
	lui	a5,%hi(mbedtls_x509_crt_profile_suiteb)
	addi	a5,a5,%lo(mbedtls_x509_crt_profile_suiteb)
	sw	a5,100(s1)
	.loc 2 7086 13 is_stmt 1
	.loc 2 7086 30 is_stmt 0
	lui	a5,%hi(.LANCHOR5)
	addi	a5,a5,%lo(.LANCHOR5)
	sw	a5,116(s1)
	.loc 2 7090 13 is_stmt 1
	.loc 2 7090 30 is_stmt 0
	lui	a5,%hi(.LANCHOR6)
	addi	a5,a5,%lo(.LANCHOR6)
	sw	a5,120(s1)
	.loc 2 7092 13 is_stmt 1
.L624:
	.loc 2 7137 11 is_stmt 0
	li	a0,0
.L614:
	.loc 2 7138 1
	lw	ra,284(sp)
	.cfi_remember_state
	.cfi_restore 1
	lw	s0,280(sp)
	.cfi_restore 8
	.cfi_def_cfa 2, 288
	lw	s1,276(sp)
	.cfi_restore 9
.LVL912:
	lw	s2,272(sp)
	.cfi_restore 18
.LVL913:
	addi	sp,sp,288
	.cfi_def_cfa_offset 0
	jr	ra
.LVL914:
.L619:
	.cfi_restore_state
	.loc 2 7098 13 is_stmt 1
	.loc 2 7102 13
	.loc 2 7106 13
	.loc 2 7107 13
	.loc 2 7114 13
	.loc 2 7118 36 is_stmt 0
	call	mbedtls_ssl_list_ciphersuites
.LVL915:
	.loc 2 7121 32
	lui	a5,%hi(mbedtls_x509_crt_profile_default)
	addi	a5,a5,%lo(mbedtls_x509_crt_profile_default)
	sw	a5,100(s1)
	.loc 2 7125 30
	lui	a5,%hi(.LANCHOR7)
	addi	a5,a5,%lo(.LANCHOR7)
	sw	a5,116(s1)
	.loc 2 7117 39
	sw	a0,32(s1)
	.loc 2 7116 39
	sw	a0,28(s1)
	.loc 2 7115 39
	sw	a0,24(s1)
	.loc 2 7114 39
	sw	a0,20(s1)
	.loc 2 7121 13 is_stmt 1
	.loc 2 7125 13
	.loc 2 7129 13
	.loc 2 7129 32 is_stmt 0
	call	mbedtls_ecp_grp_id_list
.LVL916:
	.loc 2 7133 34
	li	a5,1024
	.loc 2 7129 30
	sw	a0,120(s1)
	.loc 2 7133 13 is_stmt 1
	.loc 2 7133 34 is_stmt 0
	sw	a5,16(s1)
	j	.L624
	.cfi_endproc
.LFE139:
	.size	mbedtls_ssl_config_defaults, .-mbedtls_ssl_config_defaults
	.section	.text.mbedtls_ssl_config_free,"ax",@progbits
	.align	1
	.globl	mbedtls_ssl_config_free
	.type	mbedtls_ssl_config_free, @function
mbedtls_ssl_config_free:
.LFB140:
	.loc 2 7144 1 is_stmt 1
	.cfi_startproc
.LVL917:
	.loc 2 7146 5
	.loc 2 7144 1 is_stmt 0
	addi	sp,sp,-16
	.cfi_def_cfa_offset 16
	sw	ra,12(sp)
	sw	s0,8(sp)
	sw	s1,4(sp)
	.cfi_offset 1, -4
	.cfi_offset 8, -8
	.cfi_offset 9, -12
	addi	s0,sp,16
	.cfi_def_cfa 8, 0
	sw	s2,0(sp)
	mv	s1,a0
	.cfi_offset 18, -16
	.loc 2 7146 5
	addi	a0,a0,124
.LVL918:
	call	mbedtls_mpi_free
.LVL919:
	.loc 2 7147 5 is_stmt 1
	addi	a0,s1,136
	call	mbedtls_mpi_free
.LVL920:
	.loc 2 7151 5
	.loc 2 7151 13 is_stmt 0
	lw	a0,148(s1)
	.loc 2 7151 7
	beq	a0,zero,.L626
	.loc 2 7153 9 is_stmt 1
	lw	a1,152(s1)
	call	mbedtls_platform_zeroize
.LVL921:
	.loc 2 7154 9
	lw	a0,148(s1)
	call	mbedtls_free
.LVL922:
	.loc 2 7155 9
	.loc 2 7155 19 is_stmt 0
	sw	zero,148(s1)
	.loc 2 7156 9 is_stmt 1
	.loc 2 7156 23 is_stmt 0
	sw	zero,152(s1)
.L626:
	.loc 2 7159 5 is_stmt 1
	.loc 2 7159 13 is_stmt 0
	lw	a0,156(s1)
	.loc 2 7159 7
	beq	a0,zero,.L627
	.loc 2 7161 9 is_stmt 1
	lw	a1,160(s1)
	call	mbedtls_platform_zeroize
.LVL923:
	.loc 2 7162 9
	lw	a0,156(s1)
	call	mbedtls_free
.LVL924:
	.loc 2 7163 9
	.loc 2 7163 28 is_stmt 0
	sw	zero,156(s1)
	.loc 2 7164 9 is_stmt 1
	.loc 2 7164 32 is_stmt 0
	sw	zero,160(s1)
.L627:
	.loc 2 7169 5 is_stmt 1
	lw	a0,104(s1)
.LVL925:
.LBB166:
.LBB167:
	.loc 2 6054 5
	.loc 2 6056 5
.L628:
	.loc 2 6056 10
	bne	a0,zero,.L629
.LVL926:
.LBE167:
.LBE166:
	.loc 2 7172 5
	.loc 2 7173 1 is_stmt 0
	lw	s0,8(sp)
	.cfi_remember_state
	.cfi_restore 8
	.cfi_def_cfa 2, 16
	lw	ra,12(sp)
	.cfi_restore 1
	lw	s2,0(sp)
	.cfi_restore 18
	.loc 2 7172 5
	mv	a0,s1
	.loc 2 7173 1
	lw	s1,4(sp)
	.cfi_restore 9
.LVL927:
	.loc 2 7172 5
	li	a1,168
	.loc 2 7173 1
	addi	sp,sp,16
	.cfi_def_cfa_offset 0
	.loc 2 7172 5
	tail	mbedtls_platform_zeroize
.LVL928:
.L629:
	.cfi_restore_state
.LBB169:
.LBB168:
	.loc 2 6058 9 is_stmt 1
	.loc 2 6058 14 is_stmt 0
	lw	s2,8(a0)
.LVL929:
	.loc 2 6059 9 is_stmt 1
	call	mbedtls_free
.LVL930:
	.loc 2 6060 9
	.loc 2 6060 13 is_stmt 0
	mv	a0,s2
	j	.L628
.LBE168:
.LBE169:
	.cfi_endproc
.LFE140:
	.size	mbedtls_ssl_config_free, .-mbedtls_ssl_config_free
	.section	.text.mbedtls_ssl_sig_from_pk,"ax",@progbits
	.align	1
	.globl	mbedtls_ssl_sig_from_pk
	.type	mbedtls_ssl_sig_from_pk, @function
mbedtls_ssl_sig_from_pk:
.LFB141:
	.loc 2 7181 1 is_stmt 1
	.cfi_startproc
.LVL931:
	.loc 2 7183 5
	.loc 2 7181 1 is_stmt 0
	addi	sp,sp,-16
	.cfi_def_cfa_offset 16
	sw	s0,8(sp)
	sw	s1,4(sp)
	sw	ra,12(sp)
	.cfi_offset 8, -8
	.cfi_offset 9, -12
	.cfi_offset 1, -4
	addi	s0,sp,16
	.cfi_def_cfa 8, 0
	.loc 2 7183 9
	li	a1,1
	.loc 2 7181 1
	mv	s1,a0
	.loc 2 7183 9
	call	mbedtls_pk_can_do
.LVL932:
	.loc 2 7184 15
	li	a5,1
	.loc 2 7183 7
	bne	a0,zero,.L638
	.loc 2 7187 5 is_stmt 1
	.loc 2 7187 9 is_stmt 0
	li	a1,4
	mv	a0,s1
	call	mbedtls_pk_can_do
.LVL933:
	.loc 2 7190 11
	li	a5,0
	.loc 2 7187 7
	beq	a0,zero,.L638
	.loc 2 7188 15
	li	a5,3
.L638:
	.loc 2 7191 1
	lw	ra,12(sp)
	.cfi_restore 1
	lw	s0,8(sp)
	.cfi_restore 8
	.cfi_def_cfa 2, 16
	lw	s1,4(sp)
	.cfi_restore 9
.LVL934:
	mv	a0,a5
	addi	sp,sp,16
	.cfi_def_cfa_offset 0
	jr	ra
	.cfi_endproc
.LFE141:
	.size	mbedtls_ssl_sig_from_pk, .-mbedtls_ssl_sig_from_pk
	.section	.text.mbedtls_ssl_sig_from_pk_alg,"ax",@progbits
	.align	1
	.globl	mbedtls_ssl_sig_from_pk_alg
	.type	mbedtls_ssl_sig_from_pk_alg, @function
mbedtls_ssl_sig_from_pk_alg:
.LFB142:
	.loc 2 7194 1 is_stmt 1
	.cfi_startproc
.LVL935:
	.loc 2 7195 5
	.loc 2 7194 1 is_stmt 0
	addi	sp,sp,-16
	.cfi_def_cfa_offset 16
	sw	s0,12(sp)
	.loc 2 7195 5
	addi	a5,a0,-2
	.cfi_offset 8, -4
	.loc 2 7194 1
	addi	s0,sp,16
	.cfi_def_cfa 8, 0
	.loc 2 7195 5
	andi	a5,a5,-3
	beq	a5,zero,.L645
	addi	a0,a0,-1
.LVL936:
	.loc 2 7202 19
	seqz	a0,a0
.LVL937:
.L644:
	.loc 2 7204 1
	lw	s0,12(sp)
	.cfi_remember_state
	.cfi_restore 8
	.cfi_def_cfa 2, 16
	addi	sp,sp,16
	.cfi_def_cfa_offset 0
	jr	ra
.LVL938:
.L645:
	.cfi_restore_state
	.loc 2 7195 5
	li	a0,3
.LVL939:
	j	.L644
	.cfi_endproc
.LFE142:
	.size	mbedtls_ssl_sig_from_pk_alg, .-mbedtls_ssl_sig_from_pk_alg
	.section	.text.mbedtls_ssl_pk_alg_from_sig,"ax",@progbits
	.align	1
	.globl	mbedtls_ssl_pk_alg_from_sig
	.type	mbedtls_ssl_pk_alg_from_sig, @function
mbedtls_ssl_pk_alg_from_sig:
.LFB143:
	.loc 2 7207 1 is_stmt 1
	.cfi_startproc
.LVL940:
	.loc 2 7208 5
	.loc 2 7207 1 is_stmt 0
	addi	sp,sp,-16
	.cfi_def_cfa_offset 16
	sw	s0,12(sp)
	.cfi_offset 8, -4
	addi	s0,sp,16
	.cfi_def_cfa 8, 0
	.loc 2 7208 5
	li	a4,1
	beq	a0,a4,.L649
	mv	a5,a0
	li	a4,3
	.loc 2 7219 19
	li	a0,0
.LVL941:
	.loc 2 7208 5
	bne	a5,a4,.L647
	li	a0,4
.L647:
	.loc 2 7221 1
	lw	s0,12(sp)
	.cfi_remember_state
	.cfi_restore 8
	.cfi_def_cfa 2, 16
	addi	sp,sp,16
	.cfi_def_cfa_offset 0
	jr	ra
.LVL942:
.L649:
	.cfi_restore_state
	.loc 2 7212 19
	li	a0,1
.LVL943:
	j	.L647
	.cfi_endproc
.LFE143:
	.size	mbedtls_ssl_pk_alg_from_sig, .-mbedtls_ssl_pk_alg_from_sig
	.section	.text.mbedtls_ssl_sig_hash_set_find,"ax",@progbits
	.align	1
	.globl	mbedtls_ssl_sig_hash_set_find
	.type	mbedtls_ssl_sig_hash_set_find, @function
mbedtls_ssl_sig_hash_set_find:
.LFB144:
	.loc 2 7230 1 is_stmt 1
	.cfi_startproc
.LVL944:
	.loc 2 7231 5
	.loc 2 7230 1 is_stmt 0
	addi	sp,sp,-16
	.cfi_def_cfa_offset 16
	sw	s0,12(sp)
	.cfi_offset 8, -4
	addi	s0,sp,16
	.cfi_def_cfa 8, 0
	.loc 2 7231 5
	li	a5,1
	beq	a1,a5,.L653
	li	a5,4
	beq	a1,a5,.L654
	li	a0,0
.LVL945:
.L652:
	.loc 2 7240 1
	lw	s0,12(sp)
	.cfi_remember_state
	.cfi_restore 8
	.cfi_def_cfa 2, 16
	addi	sp,sp,16
	.cfi_def_cfa_offset 0
	jr	ra
.LVL946:
.L653:
	.cfi_restore_state
	.loc 2 7234 13 is_stmt 1
	.loc 2 7234 24 is_stmt 0
	lw	a0,0(a0)
.LVL947:
	j	.L652
.LVL948:
.L654:
	.loc 2 7236 13 is_stmt 1
	.loc 2 7236 24 is_stmt 0
	lw	a0,4(a0)
.LVL949:
	j	.L652
	.cfi_endproc
.LFE144:
	.size	mbedtls_ssl_sig_hash_set_find, .-mbedtls_ssl_sig_hash_set_find
	.section	.text.mbedtls_ssl_sig_hash_set_add,"ax",@progbits
	.align	1
	.globl	mbedtls_ssl_sig_hash_set_add
	.type	mbedtls_ssl_sig_hash_set_add, @function
mbedtls_ssl_sig_hash_set_add:
.LFB145:
	.loc 2 7246 1 is_stmt 1
	.cfi_startproc
.LVL950:
	.loc 2 7247 5
	.loc 2 7246 1 is_stmt 0
	addi	sp,sp,-16
	.cfi_def_cfa_offset 16
	sw	s0,12(sp)
	.cfi_offset 8, -4
	addi	s0,sp,16
	.cfi_def_cfa 8, 0
	.loc 2 7247 5
	li	a5,1
	beq	a1,a5,.L658
	li	a5,4
	beq	a1,a5,.L659
.L657:
	.loc 2 7262 1
	lw	s0,12(sp)
	.cfi_remember_state
	.cfi_restore 8
	.cfi_def_cfa 2, 16
	addi	sp,sp,16
	.cfi_def_cfa_offset 0
	jr	ra
.L658:
	.cfi_restore_state
	.loc 2 7250 13 is_stmt 1
	.loc 2 7250 15 is_stmt 0
	lw	a5,0(a0)
	bne	a5,zero,.L657
	.loc 2 7251 17 is_stmt 1
	.loc 2 7251 26 is_stmt 0
	sw	a2,0(a0)
	j	.L657
.L659:
	.loc 2 7255 13 is_stmt 1
	.loc 2 7255 15 is_stmt 0
	lw	a5,4(a0)
	bne	a5,zero,.L657
	.loc 2 7256 17 is_stmt 1
	.loc 2 7256 28 is_stmt 0
	sw	a2,4(a0)
	.loc 2 7262 1
	j	.L657
	.cfi_endproc
.LFE145:
	.size	mbedtls_ssl_sig_hash_set_add, .-mbedtls_ssl_sig_hash_set_add
	.section	.text.mbedtls_ssl_sig_hash_set_const_hash,"ax",@progbits
	.align	1
	.globl	mbedtls_ssl_sig_hash_set_const_hash
	.type	mbedtls_ssl_sig_hash_set_const_hash, @function
mbedtls_ssl_sig_hash_set_const_hash:
.LFB146:
	.loc 2 7267 1 is_stmt 1
	.cfi_startproc
.LVL951:
	.loc 2 7268 5
	.loc 2 7267 1 is_stmt 0
	addi	sp,sp,-16
	.cfi_def_cfa_offset 16
	sw	s0,12(sp)
	.cfi_offset 8, -4
	addi	s0,sp,16
	.cfi_def_cfa 8, 0
	.loc 2 7270 1
	lw	s0,12(sp)
	.cfi_restore 8
	.cfi_def_cfa 2, 16
	.loc 2 7268 14
	sw	a1,0(a0)
	.loc 2 7269 5 is_stmt 1
	.loc 2 7269 16 is_stmt 0
	sw	a1,4(a0)
	.loc 2 7270 1
	addi	sp,sp,16
	.cfi_def_cfa_offset 0
	jr	ra
	.cfi_endproc
.LFE146:
	.size	mbedtls_ssl_sig_hash_set_const_hash, .-mbedtls_ssl_sig_hash_set_const_hash
	.section	.text.mbedtls_ssl_md_alg_from_hash,"ax",@progbits
	.align	1
	.globl	mbedtls_ssl_md_alg_from_hash
	.type	mbedtls_ssl_md_alg_from_hash, @function
mbedtls_ssl_md_alg_from_hash:
.LFB147:
	.loc 2 7279 1 is_stmt 1
	.cfi_startproc
.LVL952:
	.loc 2 7280 5
	.loc 2 7279 1 is_stmt 0
	addi	sp,sp,-16
	.cfi_def_cfa_offset 16
	sw	s0,12(sp)
	addi	a5,a0,-1
	.cfi_offset 8, -4
	addi	s0,sp,16
	.cfi_def_cfa 8, 0
	andi	a5,a5,0xff
	li	a4,5
	bgtu	a5,a4,.L666
	addi	a0,a0,2
.LVL953:
	andi	a0,a0,0xff
.L664:
	.loc 2 7307 1
	lw	s0,12(sp)
	.cfi_remember_state
	.cfi_restore 8
	.cfi_def_cfa 2, 16
	addi	sp,sp,16
	.cfi_def_cfa_offset 0
	jr	ra
.LVL954:
.L666:
	.cfi_restore_state
	.loc 2 7279 1
	li	a0,0
.LVL955:
	j	.L664
	.cfi_endproc
.LFE147:
	.size	mbedtls_ssl_md_alg_from_hash, .-mbedtls_ssl_md_alg_from_hash
	.section	.text.mbedtls_ssl_hash_from_md_alg,"ax",@progbits
	.align	1
	.globl	mbedtls_ssl_hash_from_md_alg
	.type	mbedtls_ssl_hash_from_md_alg, @function
mbedtls_ssl_hash_from_md_alg:
.LFB148:
	.loc 2 7313 1 is_stmt 1
	.cfi_startproc
.LVL956:
	.loc 2 7314 5
	.loc 2 7313 1 is_stmt 0
	addi	sp,sp,-16
	.cfi_def_cfa_offset 16
	sw	s0,12(sp)
	.cfi_offset 8, -4
	addi	s0,sp,16
	.cfi_def_cfa 8, 0
	addi	a4,a0,-3
	li	a5,5
	bgtu	a4,a5,.L670
	addi	a0,a0,-2
.LVL957:
	andi	a0,a0,0xff
.LVL958:
.L669:
	.loc 2 7341 1
	lw	s0,12(sp)
	.cfi_remember_state
	.cfi_restore 8
	.cfi_def_cfa 2, 16
	addi	sp,sp,16
	.cfi_def_cfa_offset 0
	jr	ra
.LVL959:
.L670:
	.cfi_restore_state
	.loc 2 7314 5
	li	a0,0
.LVL960:
	j	.L669
	.cfi_endproc
.LFE148:
	.size	mbedtls_ssl_hash_from_md_alg, .-mbedtls_ssl_hash_from_md_alg
	.section	.text.mbedtls_ssl_check_curve,"ax",@progbits
	.align	1
	.globl	mbedtls_ssl_check_curve
	.type	mbedtls_ssl_check_curve, @function
mbedtls_ssl_check_curve:
.LFB149:
	.loc 2 7349 1 is_stmt 1
	.cfi_startproc
.LVL961:
	.loc 2 7350 5
	.loc 2 7352 5
	.loc 2 7349 1 is_stmt 0
	addi	sp,sp,-16
	.cfi_def_cfa_offset 16
	sw	s0,12(sp)
	.cfi_offset 8, -4
	addi	s0,sp,16
	.cfi_def_cfa 8, 0
	.loc 2 7352 18
	lw	a5,0(a0)
	lw	a5,120(a5)
	.loc 2 7352 7
	bne	a5,zero,.L674
.L676:
	.loc 2 7353 15
	li	a0,-1
.LVL962:
.L672:
	.loc 2 7360 1
	lw	s0,12(sp)
	.cfi_remember_state
	.cfi_restore 8
	.cfi_def_cfa 2, 16
	addi	sp,sp,16
	.cfi_def_cfa_offset 0
	jr	ra
.LVL963:
.L675:
	.cfi_restore_state
	.loc 2 7356 9 is_stmt 1
	.loc 2 7356 11 is_stmt 0
	beq	a4,a1,.L677
	.loc 2 7355 68 is_stmt 1 discriminator 2
	.loc 2 7355 71 is_stmt 0 discriminator 2
	addi	a5,a5,4
.LVL964:
.L674:
	.loc 2 7355 39 is_stmt 1 discriminator 1
	lw	a4,0(a5)
	.loc 2 7355 5 is_stmt 0 discriminator 1
	bne	a4,zero,.L675
	j	.L676
.L677:
	.loc 2 7357 19
	li	a0,0
.LVL965:
	j	.L672
	.cfi_endproc
.LFE149:
	.size	mbedtls_ssl_check_curve, .-mbedtls_ssl_check_curve
	.section	.text.mbedtls_ssl_check_curve_tls_id,"ax",@progbits
	.align	1
	.globl	mbedtls_ssl_check_curve_tls_id
	.type	mbedtls_ssl_check_curve_tls_id, @function
mbedtls_ssl_check_curve_tls_id:
.LFB150:
	.loc 2 7366 1 is_stmt 1
	.cfi_startproc
.LVL966:
	.loc 2 7367 5
	.loc 2 7366 1 is_stmt 0
	addi	sp,sp,-16
	.cfi_def_cfa_offset 16
	sw	s0,8(sp)
	sw	s1,4(sp)
	sw	ra,12(sp)
	.cfi_offset 8, -8
	.cfi_offset 9, -12
	.cfi_offset 1, -4
	addi	s0,sp,16
	.cfi_def_cfa 8, 0
	mv	s1,a0
	.loc 2 7368 9
	mv	a0,a1
.LVL967:
	call	mbedtls_ecp_curve_info_from_tls_id
.LVL968:
	.loc 2 7369 5 is_stmt 1
	.loc 2 7369 7 is_stmt 0
	beq	a0,zero,.L680
	.loc 2 7371 5 is_stmt 1
	.loc 2 7372 1 is_stmt 0
	lw	s0,8(sp)
	.cfi_remember_state
	.cfi_restore 8
	.cfi_def_cfa 2, 16
	.loc 2 7371 13
	lw	a1,0(a0)
	.loc 2 7372 1
	lw	ra,12(sp)
	.cfi_restore 1
	.loc 2 7371 13
	mv	a0,s1
.LVL969:
	.loc 2 7372 1
	lw	s1,4(sp)
	.cfi_restore 9
.LVL970:
	addi	sp,sp,16
	.cfi_def_cfa_offset 0
	.loc 2 7371 13
	tail	mbedtls_ssl_check_curve
.LVL971:
.L680:
	.cfi_restore_state
	.loc 2 7372 1
	lw	ra,12(sp)
	.cfi_restore 1
	lw	s0,8(sp)
	.cfi_restore 8
	.cfi_def_cfa 2, 16
	lw	s1,4(sp)
	.cfi_restore 9
.LVL972:
	li	a0,-1
.LVL973:
	addi	sp,sp,16
	.cfi_def_cfa_offset 0
	jr	ra
	.cfi_endproc
.LFE150:
	.size	mbedtls_ssl_check_curve_tls_id, .-mbedtls_ssl_check_curve_tls_id
	.section	.text.mbedtls_ssl_check_sig_hash,"ax",@progbits
	.align	1
	.globl	mbedtls_ssl_check_sig_hash
	.type	mbedtls_ssl_check_sig_hash, @function
mbedtls_ssl_check_sig_hash:
.LFB151:
	.loc 2 7382 1 is_stmt 1
	.cfi_startproc
.LVL974:
	.loc 2 7383 5
	.loc 2 7385 5
	.loc 2 7382 1 is_stmt 0
	addi	sp,sp,-16
	.cfi_def_cfa_offset 16
	sw	s0,12(sp)
	.cfi_offset 8, -4
	addi	s0,sp,16
	.cfi_def_cfa 8, 0
	.loc 2 7385 18
	lw	a5,0(a0)
	lw	a5,116(a5)
	.loc 2 7385 7
	bne	a5,zero,.L684
.L686:
	.loc 2 7386 15
	li	a0,-1
.LVL975:
.L682:
	.loc 2 7393 1
	lw	s0,12(sp)
	.cfi_remember_state
	.cfi_restore 8
	.cfi_def_cfa 2, 16
	addi	sp,sp,16
	.cfi_def_cfa_offset 0
	jr	ra
.LVL976:
.L685:
	.cfi_restore_state
	.loc 2 7389 9 is_stmt 1
	.loc 2 7389 11 is_stmt 0
	beq	a1,a4,.L687
	.loc 2 7388 64 is_stmt 1 discriminator 2
	.loc 2 7388 67 is_stmt 0 discriminator 2
	addi	a5,a5,4
.LVL977:
.L684:
	.loc 2 7388 39 is_stmt 1 discriminator 1
	lw	a4,0(a5)
	.loc 2 7388 5 is_stmt 0 discriminator 1
	bne	a4,zero,.L685
	j	.L686
.L687:
	.loc 2 7390 19
	li	a0,0
.LVL978:
	j	.L682
	.cfi_endproc
.LFE151:
	.size	mbedtls_ssl_check_sig_hash, .-mbedtls_ssl_check_sig_hash
	.section	.rodata.mbedtls_ssl_check_cert_usage.str1.4,"aMS",@progbits,1
	.align	2
.LC61:
	.string	"+\006\001\005\005\007\003\001"
	.align	2
.LC62:
	.string	"+\006\001\005\005\007\003\002"
	.section	.text.mbedtls_ssl_check_cert_usage,"ax",@progbits
	.align	1
	.globl	mbedtls_ssl_check_cert_usage
	.type	mbedtls_ssl_check_cert_usage, @function
mbedtls_ssl_check_cert_usage:
.LFB152:
	.loc 2 7401 1 is_stmt 1
	.cfi_startproc
.LVL979:
	.loc 2 7402 5
	.loc 2 7404 5
	.loc 2 7407 5
	.loc 2 7408 5
	.loc 2 7419 5
	.loc 2 7401 1 is_stmt 0
	addi	sp,sp,-32
	.cfi_def_cfa_offset 32
	sw	s0,24(sp)
	sw	s2,16(sp)
	sw	s3,12(sp)
	sw	s4,8(sp)
	sw	ra,28(sp)
	sw	s1,20(sp)
	.cfi_offset 8, -8
	.cfi_offset 18, -16
	.cfi_offset 19, -20
	.cfi_offset 20, -24
	.cfi_offset 1, -4
	.cfi_offset 9, -12
	addi	s0,sp,32
	.cfi_def_cfa 8, 0
	.loc 2 7419 7
	li	a4,1
	.loc 2 7401 1
	mv	a5,a1
	mv	s4,a0
	mv	s3,a2
	mv	s2,a3
	.loc 2 7452 15
	li	a1,128
.LVL980:
	.loc 2 7419 7
	bne	a2,a4,.L690
	.loc 2 7422 9 is_stmt 1
	.loc 2 7422 28 is_stmt 0
	lw	a5,16(a5)
.LVL981:
	.loc 2 7422 9
	li	a4,7
	beq	a5,a4,.L697
	bgtu	a5,a4,.L691
	beq	a5,a2,.L697
	addi	a5,a5,-2
	li	a4,2
	bleu	a5,a4,.L690
.L708:
	.loc 2 7404 9
	li	a1,0
	j	.L690
.L691:
	.loc 2 7422 9
	addi	a5,a5,-9
	.loc 2 7437 23
	li	a1,8
	.loc 2 7422 9
	bgtu	a5,a2,.L708
.L690:
.LVL982:
	.loc 2 7455 5 is_stmt 1
	.loc 2 7455 9 is_stmt 0
	mv	a0,s4
.LVL983:
	call	mbedtls_x509_crt_check_key_usage
.LVL984:
	mv	s1,a0
	.loc 2 7455 7
	beq	a0,zero,.L692
	.loc 2 7457 9 is_stmt 1
	.loc 2 7457 16 is_stmt 0
	lw	a5,0(s2)
	li	a4,4096
	addi	a4,a4,-2048
	or	a5,a5,a4
	sw	a5,0(s2)
	.loc 2 7458 9 is_stmt 1
.LVL985:
	.loc 2 7458 13 is_stmt 0
	li	s1,-1
.LVL986:
.L692:
	.loc 2 7465 5 is_stmt 1
	.loc 2 7465 7 is_stmt 0
	li	a5,1
	beq	s3,a5,.L700
	.loc 2 7472 17
	lui	a1,%hi(.LC62)
	addi	a1,a1,%lo(.LC62)
.L693:
.LVL987:
	.loc 2 7476 5 is_stmt 1
	.loc 2 7476 9 is_stmt 0
	li	a2,8
	mv	a0,s4
	call	mbedtls_x509_crt_check_extended_key_usage
.LVL988:
	.loc 2 7476 7
	beq	a0,zero,.L689
	.loc 2 7478 9 is_stmt 1
	.loc 2 7478 16 is_stmt 0
	lw	a5,0(s2)
	li	a4,4096
	.loc 2 7479 13
	li	s1,-1
.LVL989:
	.loc 2 7478 16
	or	a5,a5,a4
	sw	a5,0(s2)
	.loc 2 7479 9 is_stmt 1
.LVL990:
	.loc 2 7483 5
.L689:
	.loc 2 7484 1 is_stmt 0
	lw	ra,28(sp)
	.cfi_remember_state
	.cfi_restore 1
	lw	s0,24(sp)
	.cfi_restore 8
	.cfi_def_cfa 2, 32
	lw	s2,16(sp)
	.cfi_restore 18
.LVL991:
	lw	s3,12(sp)
	.cfi_restore 19
.LVL992:
	lw	s4,8(sp)
	.cfi_restore 20
.LVL993:
	mv	a0,s1
	lw	s1,20(sp)
	.cfi_restore 9
	addi	sp,sp,32
	.cfi_def_cfa_offset 0
	jr	ra
.LVL994:
.L697:
	.cfi_restore_state
	.loc 2 7422 9
	li	a1,32
	j	.L690
.LVL995:
.L700:
	.loc 2 7467 17
	lui	a1,%hi(.LC61)
	addi	a1,a1,%lo(.LC61)
	j	.L693
	.cfi_endproc
.LFE152:
	.size	mbedtls_ssl_check_cert_usage, .-mbedtls_ssl_check_cert_usage
	.section	.rodata.mbedtls_ssl_parse_certificate.str1.4,"aMS",@progbits,1
	.align	2
.LC63:
	.string	"=> parse certificate"
	.align	2
.LC64:
	.string	"<= skip parse certificate"
	.align	2
.LC66:
	.string	"TLSv1 client has no certificate"
	.align	2
.LC67:
	.string	"bad certificate message"
	.align	2
.LC68:
	.string	" mbedtls_x509_crt_parse_der"
	.align	2
.LC69:
	.string	"peer certificate"
	.align	2
.LC70:
	.string	"Use context-specific verification callback"
	.align	2
.LC71:
	.string	"Use configuration-specific verification callback"
	.align	2
.LC72:
	.string	"x509_verify_cert"
	.align	2
.LC73:
	.string	"bad certificate (EC key curve)"
	.align	2
.LC74:
	.string	"bad certificate (usage extensions)"
	.align	2
.LC75:
	.string	"got no CA chain"
	.align	2
.LC76:
	.string	"! Certificate verification flags %08x"
	.align	2
.LC77:
	.string	"Certificate verification flags clear"
	.align	2
.LC78:
	.string	"alloc(%d bytes) failed"
	.align	2
.LC79:
	.string	"<= parse certificate"
	.section	.text.mbedtls_ssl_parse_certificate,"ax",@progbits
	.align	1
	.globl	mbedtls_ssl_parse_certificate
	.type	mbedtls_ssl_parse_certificate, @function
mbedtls_ssl_parse_certificate:
.LFB54:
	.loc 2 2865 1 is_stmt 1
	.cfi_startproc
.LVL996:
	.loc 2 2866 5
	.loc 2 2867 5
	.loc 2 2869 5
	.loc 2 2865 1 is_stmt 0
	addi	sp,sp,-96
	.cfi_def_cfa_offset 96
	sw	s0,88(sp)
	sw	s1,84(sp)
	sw	ra,92(sp)
	sw	s2,80(sp)
	sw	s3,76(sp)
	sw	s4,72(sp)
	sw	s5,68(sp)
	sw	s6,64(sp)
	sw	s7,60(sp)
	sw	s8,56(sp)
	sw	s9,52(sp)
	sw	s10,48(sp)
	sw	s11,44(sp)
	.cfi_offset 8, -8
	.cfi_offset 9, -12
	.cfi_offset 1, -4
	.cfi_offset 18, -16
	.cfi_offset 19, -20
	.cfi_offset 20, -24
	.cfi_offset 21, -28
	.cfi_offset 22, -32
	.cfi_offset 23, -36
	.cfi_offset 24, -40
	.cfi_offset 25, -44
	.cfi_offset 26, -48
	.cfi_offset 27, -52
	addi	s0,sp,96
	.cfi_def_cfa 8, 0
	.loc 2 2869 40
	lw	a5,56(a0)
	.loc 2 2865 1
	mv	s1,a0
	.loc 2 2869 40
	lbu	s5,4(a5)
	.loc 2 2871 24
	li	a5,3
	bne	s5,a5,.L711
	.loc 2 2871 35 discriminator 2
	lw	a5,0(a0)
	.loc 2 2871 24 discriminator 2
	lbu	s5,6(a5)
.L711:
.LVL997:
	.loc 2 2875 5 is_stmt 1
	.loc 2 2876 5
	.loc 2 2878 5
	lui	a4,%hi(.LC63)
	li	a3,4096
	lui	s3,%hi(.LC3)
	addi	a4,a4,%lo(.LC63)
	addi	a3,a3,-1218
	addi	a2,s3,%lo(.LC3)
	li	a1,2
	mv	a0,s1
.LVL998:
	call	mbedtls_debug_print_msg
.LVL999:
	.loc 2 2880 5
.LBB192:
.LBB193:
	.loc 2 2594 5
	.loc 2 2597 5
.LBB194:
.LBB195:
	.loc 3 489 5
.LBE195:
.LBE194:
	.loc 2 2594 38 is_stmt 0
	lw	a5,56(s1)
	li	a4,10
.LBB197:
.LBB196:
	.loc 3 489 17
	lw	a5,20(a5)
	lw	a5,16(a5)
	bgtu	a5,a4,.L712
	li	a3,1
	sll	a4,a3,a5
	andi	a4,a4,1694
	beq	a4,zero,.L712
.LVL1000:
.LBE196:
.LBE197:
	.loc 2 2601 5 is_stmt 1
	.loc 2 2601 18 is_stmt 0
	lw	a4,0(s1)
	.loc 2 2601 7
	lbu	a4,4(a4)
	bne	a4,a3,.L713
	.loc 2 2603 9 is_stmt 1
	.loc 2 2603 11 is_stmt 0
	li	a4,7
	beq	a5,a4,.L712
	.loc 2 2606 9 is_stmt 1
	.loc 2 2606 11 is_stmt 0
	bne	s5,zero,.L713
	.loc 2 2608 13 is_stmt 1
	.loc 2 2608 16 is_stmt 0
	lw	a5,52(s1)
	.loc 2 2608 51
	li	a4,128
	sw	a4,108(a5)
.LVL1001:
	.loc 2 2610 13 is_stmt 1
.LBE193:
.LBE192:
	.loc 2 2881 5
.L712:
	.loc 2 2883 9
	lui	a4,%hi(.LC64)
	li	a3,4096
	addi	a4,a4,%lo(.LC64)
	addi	a3,a3,-1213
.LVL1002:
.L799:
	.loc 2 2989 5 is_stmt 0
	addi	a2,s3,%lo(.LC3)
	li	a1,2
	mv	a0,s1
	call	mbedtls_debug_print_msg
.LVL1003:
	.loc 2 2993 5 is_stmt 1
.L714:
	.loc 2 2994 9
	.loc 2 2994 19 is_stmt 0
	lw	a5,4(s1)
	li	s2,0
	addi	a5,a5,1
	sw	a5,4(s1)
	.loc 2 3004 5 is_stmt 1
	j	.L709
.LVL1004:
.L713:
	.loc 2 2897 5
	.loc 2 2897 17 is_stmt 0
	li	a1,1
	mv	a0,s1
	call	mbedtls_ssl_read_record
.LVL1005:
	mv	s2,a0
.LVL1006:
	.loc 2 2897 7
	beq	a0,zero,.L715
	.loc 2 2901 9 is_stmt 1
	lui	a4,%hi(.LC45)
	li	a3,4096
	mv	a5,a0
	addi	a4,a4,%lo(.LC45)
	addi	a3,a3,-1195
	addi	a2,s3,%lo(.LC3)
	li	a1,1
	mv	a0,s1
.LVL1007:
	call	mbedtls_debug_print_ret
.LVL1008:
	.loc 2 2902 9
	.loc 2 2993 5
	.loc 2 3004 5
.L709:
	.loc 2 3011 1 is_stmt 0
	lw	ra,92(sp)
	.cfi_remember_state
	.cfi_restore 1
	lw	s0,88(sp)
	.cfi_restore 8
	.cfi_def_cfa 2, 96
	lw	s1,84(sp)
	.cfi_restore 9
.LVL1009:
	lw	s3,76(sp)
	.cfi_restore 19
	lw	s4,72(sp)
	.cfi_restore 20
	lw	s5,68(sp)
	.cfi_restore 21
	lw	s6,64(sp)
	.cfi_restore 22
	lw	s7,60(sp)
	.cfi_restore 23
	lw	s8,56(sp)
	.cfi_restore 24
	lw	s9,52(sp)
	.cfi_restore 25
	lw	s10,48(sp)
	.cfi_restore 26
	lw	s11,44(sp)
	.cfi_restore 27
	mv	a0,s2
	lw	s2,80(sp)
	.cfi_restore 18
	addi	sp,sp,96
	.cfi_def_cfa_offset 0
	jr	ra
.LVL1010:
.L715:
	.cfi_restore_state
	.loc 2 2906 5 is_stmt 1
.LBB198:
.LBB199:
	.loc 2 2543 5
	.loc 2 2543 18 is_stmt 0
	lw	a5,0(s1)
	.loc 2 2543 7
	lbu	a5,4(a5)
	beq	a5,zero,.L717
	.loc 2 2567 5 is_stmt 1
.LVL1011:
.LBE199:
.LBE198:
	.loc 1 1237 5
	.loc 1 1239 5
.LBB202:
.LBB200:
	.loc 2 2567 7 is_stmt 0
	lw	a4,128(s1)
	li	a5,7
	bne	a4,a5,.L717
	.loc 2 2567 60
	lw	a4,116(s1)
	li	a5,22
	bne	a4,a5,.L717
	.loc 2 2569 12
	lw	a0,108(s1)
.LVL1012:
	.loc 2 2568 31
	li	a5,11
	lbu	a4,0(a0)
	bne	a4,a5,.L717
.LVL1013:
.LBE200:
.LBE202:
	.loc 1 1237 5 is_stmt 1
	.loc 1 1239 5
.LBB203:
.LBB201:
	.loc 2 2570 9 is_stmt 0
	lui	a1,%hi(.LC65)
	li	a2,3
	addi	a1,a1,%lo(.LC65)
	addi	a0,a0,4
	call	memcmp
.LVL1014:
	.loc 2 2569 30
	bne	a0,zero,.L717
	.loc 2 2572 9 is_stmt 1
	lui	a4,%hi(.LC66)
	li	a3,4096
	addi	a4,a4,%lo(.LC66)
	addi	a3,a3,-1524
	addi	a2,s3,%lo(.LC3)
	li	a1,1
	mv	a0,s1
	call	mbedtls_debug_print_msg
.LVL1015:
	.loc 2 2573 9
.LBE201:
.LBE203:
	.loc 2 2908 9
	.loc 2 2908 12 is_stmt 0
	lw	a5,52(s1)
	.loc 2 2908 47
	li	a4,64
	sw	a4,108(a5)
	.loc 2 2910 9 is_stmt 1
	.loc 2 2910 11 is_stmt 0
	li	a5,1
	beq	s5,a5,.L714
	.loc 2 2911 17
	li	s2,-28672
.LVL1016:
	addi	s2,s2,-1152
.LVL1017:
	.loc 2 3010 5 is_stmt 1
	.loc 2 3010 11 is_stmt 0
	j	.L709
.LVL1018:
.L717:
	.loc 2 2919 5 is_stmt 1
	lw	s2,52(s1)
.LVL1019:
.LBB204:
.LBB205:
	.loc 2 2165 5
	.loc 2 2165 16 is_stmt 0
	lw	a0,96(s2)
	.loc 2 2165 7
	beq	a0,zero,.L718
	.loc 2 2168 9 is_stmt 1
	call	mbedtls_free
.LVL1020:
	.loc 2 2169 9
	.loc 2 2169 35 is_stmt 0
	sw	zero,96(s2)
	.loc 2 2170 9 is_stmt 1
	.loc 2 2170 40 is_stmt 0
	sw	zero,104(s2)
	.loc 2 2171 9 is_stmt 1
	.loc 2 2171 39 is_stmt 0
	sw	zero,100(s2)
.L718:
.LVL1021:
.LBE205:
.LBE204:
	.loc 2 2921 5 is_stmt 1
	.loc 2 2921 13 is_stmt 0
	li	a1,344
	li	a0,1
	call	mbedtls_calloc
.LVL1022:
	mv	s4,a0
.LVL1023:
	.loc 2 2922 5 is_stmt 1
	.loc 2 2922 7 is_stmt 0
	bne	a0,zero,.L719
	.loc 2 2924 9 is_stmt 1
	lui	a4,%hi(.LC57)
	li	a3,4096
	li	a5,344
	addi	a4,a4,%lo(.LC57)
	addi	a3,a3,-1172
.LVL1024:
.L801:
.LBB206:
.LBB207:
.LBB208:
	.loc 2 2821 9 is_stmt 0
	addi	a2,s3,%lo(.LC3)
	li	a1,1
	mv	a0,s1
	call	mbedtls_debug_print_msg
.LVL1025:
	.loc 2 2823 9 is_stmt 1
	li	a2,80
	li	a1,2
	mv	a0,s1
	.loc 2 2827 15 is_stmt 0
	li	s2,-32768
	.loc 2 2823 9
	call	mbedtls_ssl_send_alert_message
.LVL1026:
	.loc 2 2827 9 is_stmt 1
.LBE208:
.LBE207:
	.loc 2 2976 9
.LBE206:
	.loc 2 2993 5
	.loc 2 3004 5
.LBB219:
.LBB212:
.LBB209:
	.loc 2 2827 15 is_stmt 0
	addi	s2,s2,256
	j	.L709
.LVL1027:
.L719:
.LBE209:
.LBE212:
.LBE219:
	.loc 2 2933 5 is_stmt 1
	call	mbedtls_x509_crt_init
.LVL1028:
	.loc 2 2935 5
.LBB220:
.LBB221:
	.loc 2 2394 5
	.loc 2 2398 5
	.loc 2 2399 5
	.loc 2 2401 5
	.loc 2 2401 7 is_stmt 0
	lw	a4,116(s1)
	li	a5,22
	beq	a4,a5,.L720
	.loc 2 2403 9 is_stmt 1
	lui	a4,%hi(.LC67)
	li	a3,4096
	addi	a4,a4,%lo(.LC67)
	addi	a3,a3,-1693
	addi	a2,s3,%lo(.LC3)
	li	a1,1
	mv	a0,s1
	call	mbedtls_debug_print_msg
.LVL1029:
	.loc 2 2404 9
	li	a2,10
	li	a1,2
	mv	a0,s1
	.loc 2 2406 15 is_stmt 0
	li	s2,-28672
	.loc 2 2404 9
	call	mbedtls_ssl_send_alert_message
.LVL1030:
	.loc 2 2406 9 is_stmt 1
.LBE221:
.LBE220:
	.loc 2 2936 5
.LBB230:
.LBB222:
	.loc 2 2406 15 is_stmt 0
	addi	s2,s2,-1792
.LVL1031:
.L721:
.LBE222:
.LBE230:
	.loc 2 2993 5 is_stmt 1
	.loc 2 3004 5
	.loc 2 3006 9
	mv	a0,s4
	call	mbedtls_x509_crt_free
.LVL1032:
	.loc 2 3007 9
	mv	a0,s4
	call	mbedtls_free
.LVL1033:
	j	.L709
.LVL1034:
.L720:
.LBB231:
.LBB223:
	.loc 2 2409 5
	.loc 2 2409 12 is_stmt 0
	lw	a3,108(s1)
	.loc 2 2409 7
	li	a5,11
	lbu	a4,0(a3)
	bne	a4,a5,.L722
	.loc 2 2410 12
	lw	a2,128(s1)
.LVL1035:
.LBE223:
.LBE231:
	.loc 1 1237 5 is_stmt 1
	.loc 1 1239 5
.LBB232:
.LBB224:
	.loc 2 2409 30 is_stmt 0
	li	a5,9
	bgtu	a2,a5,.L723
.L722:
	.loc 2 2412 9 is_stmt 1
	lui	a4,%hi(.LC67)
	li	a3,4096
	addi	a4,a4,%lo(.LC67)
	addi	a3,a3,-1684
.LVL1036:
.L800:
	.loc 2 2428 9 is_stmt 0
	addi	a2,s3,%lo(.LC3)
	li	a1,1
	mv	a0,s1
	call	mbedtls_debug_print_msg
.LVL1037:
	.loc 2 2429 9 is_stmt 1
	li	a2,50
	li	a1,2
	mv	a0,s1
	.loc 2 2431 15 is_stmt 0
	li	s2,-32768
	.loc 2 2429 9
	call	mbedtls_ssl_send_alert_message
.LVL1038:
	.loc 2 2431 9 is_stmt 1
.LBE224:
.LBE232:
	.loc 2 2936 5
.LBB233:
.LBB225:
	.loc 2 2431 15 is_stmt 0
	addi	s2,s2,1536
	j	.L721
.LVL1039:
.L723:
	.loc 2 2418 5 is_stmt 1
.LBE225:
.LBE233:
	.loc 1 1237 5
	.loc 1 1239 5
.LBB234:
.LBB226:
	.loc 2 2423 5
	.loc 2 2423 7 is_stmt 0
	lbu	a5,6(a3)
	lbu	a4,5(a3)
	slli	a5,a5,8
	or	a5,a5,a4
	slli	a4,a5,8
	srli	a5,a5,8
	or	a5,a4,a5
	.loc 2 2425 7
	lbu	a4,4(a3)
	.loc 2 2423 7
	slli	a5,a5,16
	srli	a5,a5,16
.LVL1040:
	.loc 2 2425 5 is_stmt 1
	.loc 2 2425 7 is_stmt 0
	bne	a4,zero,.L724
.LVL1041:
.LBE226:
.LBE234:
	.loc 1 1237 5 is_stmt 1
	.loc 1 1239 5
.LBB235:
.LBB227:
	.loc 2 2426 32 is_stmt 0
	addi	a5,a5,7
.LVL1042:
	.loc 2 2435 7
	li	s6,7
	.loc 2 2425 29
	bne	a2,a5,.L724
	.loc 2 2508 9
	li	a5,-8192
.LVL1043:
	li	s8,-12288
	.loc 2 2464 11
	li	s9,127
	.loc 2 2508 9
	addi	s10,a5,-1408
	addi	s11,a5,-1407
	addi	s8,s8,1920
	addi	s7,a5,-1582
.LVL1044:
.L785:
	.loc 2 2438 10 is_stmt 1
	.loc 2 2438 19 is_stmt 0
	lw	a5,128(s1)
	.loc 2 2438 10
	bltu	s6,a5,.L732
	.loc 2 2535 5 is_stmt 1
	lui	a4,%hi(.LC69)
	li	s2,4096
	mv	a5,s4
	addi	a4,a4,%lo(.LC69)
	addi	a3,s2,-1561
	addi	a2,s3,%lo(.LC3)
	li	a1,3
	mv	a0,s1
	call	mbedtls_debug_print_crt
.LVL1045:
	.loc 2 2536 5
.LBE227:
.LBE235:
	.loc 2 2936 5
	.loc 2 2948 5
.LBB236:
.LBB237:
	.loc 2 2626 5
	.loc 2 2627 5
	.loc 2 2629 5
	.loc 2 2631 5
	.loc 2 2632 5
	.loc 2 2634 5
	.loc 2 2634 7 is_stmt 0
	bne	s5,zero,.L733
.LVL1046:
.L756:
.LBE237:
.LBE236:
.LBB249:
	.loc 2 2955 9 is_stmt 1
	.loc 2 2956 9
	.loc 2 2963 9
	.loc 2 2966 18 is_stmt 0
	addi	a5,s4,128
	.loc 2 2971 9
	mv	a0,s4
	.loc 2 2966 18
	lw	s5,72(a5)
.LVL1047:
	.loc 2 2967 16
	lw	s6,68(a5)
	.loc 2 2963 19
	lw	s2,12(s4)
.LVL1048:
	.loc 2 2964 9 is_stmt 1
	.loc 2 2964 17 is_stmt 0
	lw	s7,8(s4)
.LVL1049:
	.loc 2 2966 9 is_stmt 1
	.loc 2 2967 9
	.loc 2 2971 9
	call	mbedtls_x509_crt_free
.LVL1050:
	.loc 2 2972 9
	mv	a0,s4
	call	mbedtls_free
.LVL1051:
	.loc 2 2973 9
	.loc 2 2975 9
.LBB213:
.LBB210:
	.loc 2 2815 5
	.loc 2 2817 5
	.loc 2 2817 8 is_stmt 0
	lw	s4,52(s1)
	.loc 2 2818 9
	li	a1,32
	li	a0,1
	call	mbedtls_calloc
.LVL1052:
	.loc 2 2817 46
	sw	a0,96(s4)
	.loc 2 2819 5 is_stmt 1
	.loc 2 2819 31 is_stmt 0
	lw	a5,52(s1)
	.loc 2 2819 7
	lw	a5,96(a5)
	bne	a5,zero,.L795
	.loc 2 2821 9 is_stmt 1
	lui	a4,%hi(.LC78)
	li	a3,4096
	li	a5,32
	addi	a4,a4,%lo(.LC78)
	addi	a3,a3,-1275
	j	.L801
.LVL1053:
.L724:
.LBE210:
.LBE213:
.LBE249:
.LBB250:
.LBB228:
	.loc 2 2428 9
	lui	a4,%hi(.LC67)
	li	a3,4096
.LVL1054:
	addi	a4,a4,%lo(.LC67)
	addi	a3,a3,-1668
	j	.L800
.LVL1055:
.L732:
	.loc 2 2441 9
	.loc 2 2441 16 is_stmt 0
	addi	a4,s6,3
	.loc 2 2441 12
	bleu	a4,a5,.L726
	.loc 2 2442 13 is_stmt 1
	lui	a4,%hi(.LC67)
	li	a3,4096
	addi	a4,a4,%lo(.LC67)
	addi	a3,a3,-1654
	j	.L800
.L726:
	.loc 2 2450 9
	.loc 2 2450 16 is_stmt 0
	lw	a1,108(s1)
	.loc 2 2450 24
	add	s6,a1,s6
.LVL1056:
	.loc 2 2450 11
	lbu	a3,0(s6)
	beq	a3,zero,.L727
	.loc 2 2452 13 is_stmt 1
	lui	a4,%hi(.LC67)
.LVL1057:
	li	a3,4096
	addi	a4,a4,%lo(.LC67)
	addi	a3,a3,-1644
	j	.L800
.LVL1058:
.L727:
	.loc 2 2460 9
	.loc 2 2460 15 is_stmt 0
	lbu	a2,1(s6)
	.loc 2 2461 15
	lbu	a3,2(s6)
	.loc 2 2460 49
	slli	a2,a2,8
	.loc 2 2460 11
	or	a2,a2,a3
.LVL1059:
	.loc 2 2462 9 is_stmt 1
	.loc 2 2464 9
	.loc 2 2464 11 is_stmt 0
	bleu	a2,s9,.L728
	.loc 2 2464 26
	add	s6,a4,a2
	.loc 2 2464 21
	bgeu	a5,s6,.L729
.L728:
	.loc 2 2466 13 is_stmt 1
	lui	a4,%hi(.LC67)
.LVL1060:
	li	a3,4096
	addi	a4,a4,%lo(.LC67)
	addi	a3,a3,-1630
	j	.L800
.LVL1061:
.L729:
	.loc 2 2506 9
	.loc 2 2506 15 is_stmt 0
	add	a1,a1,a4
	mv	a0,s4
	call	mbedtls_x509_crt_parse_der_nocopy
.LVL1062:
	mv	s2,a0
.LVL1063:
	.loc 2 2508 9 is_stmt 1
	beq	a0,s10,.L762
	bge	a0,s11,.L731
	beq	a0,s8,.L763
	beq	a0,s7,.L785
.L797:
	.loc 2 2525 23 is_stmt 0
	li	a2,42
.L730:
.LVL1064:
	.loc 2 2527 17 is_stmt 1
	li	a1,2
	mv	a0,s1
.LVL1065:
	call	mbedtls_ssl_send_alert_message
.LVL1066:
	.loc 2 2528 17
	lui	a4,%hi(.LC68)
	li	a3,4096
	mv	a5,s2
	addi	a4,a4,%lo(.LC68)
	addi	a3,a3,-1568
	addi	a2,s3,%lo(.LC3)
	li	a1,1
	mv	a0,s1
	call	mbedtls_debug_print_ret
.LVL1067:
	.loc 2 2529 17
.LBE228:
.LBE250:
	.loc 2 2936 5
	j	.L721
.LVL1068:
.L731:
.LBB251:
.LBB229:
	.loc 2 2508 9 is_stmt 0
	beq	a0,zero,.L785
	j	.L797
.L762:
	.loc 2 2521 23
	li	a2,43
	j	.L730
.L763:
	.loc 2 2508 9
	li	a2,80
	j	.L730
.LVL1069:
.L733:
.LBE229:
.LBE251:
.LBB252:
.LBB246:
	.loc 2 2627 38
	lw	a5,56(s1)
	lw	s7,20(a5)
	.loc 2 2637 5 is_stmt 1
	.loc 2 2637 7 is_stmt 0
	lw	a5,16(s1)
	beq	a5,zero,.L736
	.loc 2 2639 9 is_stmt 1
	lui	a4,%hi(.LC70)
	addi	a4,a4,%lo(.LC70)
	addi	a3,s2,-1457
	addi	a2,s3,%lo(.LC3)
	li	a1,3
	mv	a0,s1
	call	mbedtls_debug_print_msg
.LVL1070:
	.loc 2 2640 9
	.loc 2 2640 16 is_stmt 0
	lw	a6,16(s1)
.LVL1071:
	.loc 2 2641 9 is_stmt 1
	.loc 2 2641 16 is_stmt 0
	lw	a7,20(s1)
.LVL1072:
.L737:
.LBB238:
	.loc 2 2672 9 is_stmt 1
	.loc 2 2673 9
	.loc 2 2676 9
	.loc 2 2676 16 is_stmt 0
	lw	a5,56(s1)
	.loc 2 2684 27
	lw	a4,0(s1)
	.loc 2 2676 27
	lw	a1,400(a5)
	.loc 2 2676 11
	beq	a1,zero,.L738
	.loc 2 2678 13 is_stmt 1
.LVL1073:
	.loc 2 2679 13
	.loc 2 2679 20 is_stmt 0
	lw	a2,404(a5)
.LVL1074:
	.loc 2 2688 9 is_stmt 1
	.loc 2 2689 27 is_stmt 0
	li	s6,1
.L739:
.LVL1075:
	.loc 2 2691 9 is_stmt 1
	.loc 2 2691 15 is_stmt 0
	lw	a5,52(s1)
	lw	a3,100(a4)
	lw	a4,188(s1)
	sw	zero,0(sp)
	addi	a5,a5,108
	mv	a0,s4
	call	mbedtls_x509_crt_verify_restartable
.LVL1076:
	mv	s2,a0
.LVL1077:
.LBE238:
	.loc 2 2700 5 is_stmt 1
	.loc 2 2700 7 is_stmt 0
	beq	a0,zero,.L740
	.loc 2 2702 9 is_stmt 1
	lui	a4,%hi(.LC72)
	li	a3,4096
	mv	a5,a0
	addi	a4,a4,%lo(.LC72)
	addi	a3,a3,-1394
	addi	a2,s3,%lo(.LC3)
	li	a1,1
	mv	a0,s1
.LVL1078:
	call	mbedtls_debug_print_ret
.LVL1079:
.L740:
.LBB239:
	.loc 2 2716 9
	.loc 2 2721 9
	.loc 2 2721 13 is_stmt 0
	li	a1,2
	addi	a0,s4,204
.LVL1080:
	call	mbedtls_pk_can_do
.LVL1081:
	.loc 2 2721 11
	beq	a0,zero,.L741
	lw	a5,204(s4)
.LBB240:
.LBB241:
	.file 4 "/home/dinhquangha/intern/Ai-Thinker-WB2/components/security/mbedtls_lts/mbedtls/include/mbedtls/pk.h"
	.loc 4 670 13
	addi	a0,s0,-72
	sw	a5,-72(s0)
	lw	a5,208(s4)
	sw	a5,-68(s0)
	.loc 4 670 5 is_stmt 1
	.loc 4 670 13 is_stmt 0
	call	mbedtls_pk_get_type
.LVL1082:
	.loc 4 670 5
	addi	a0,a0,-2
	li	a5,2
	bgtu	a0,a5,.L742
	.loc 4 675 13 is_stmt 1
.LBE241:
.LBE240:
	.loc 2 2722 13 is_stmt 0
	lw	a5,-68(s0)
	mv	a0,s1
	lw	a1,0(a5)
	call	mbedtls_ssl_check_curve
.LVL1083:
	.loc 2 2721 55
	beq	a0,zero,.L741
	.loc 2 2724 16
	lw	a4,52(s1)
	.loc 2 2724 13 is_stmt 1
	.loc 2 2724 51 is_stmt 0
	li	a3,65536
	.loc 2 2726 13
	addi	a2,s3,%lo(.LC3)
	.loc 2 2724 51
	lw	a5,108(a4)
	.loc 2 2726 13
	li	a1,1
	mv	a0,s1
	.loc 2 2724 51
	or	a5,a5,a3
	sw	a5,108(a4)
	.loc 2 2726 13 is_stmt 1
	li	a3,4096
	lui	a4,%hi(.LC73)
	addi	a4,a4,%lo(.LC73)
	addi	a3,a3,-1370
	call	mbedtls_debug_print_msg
.LVL1084:
	.loc 2 2727 13
	.loc 2 2727 15 is_stmt 0
	bne	s2,zero,.L741
	.loc 2 2728 21
	li	s2,-32768
.LVL1085:
	addi	s2,s2,1536
.L741:
.LVL1086:
.LBE239:
	.loc 2 2733 5 is_stmt 1
	.loc 2 2735 50 is_stmt 0
	lw	a5,0(s1)
	.loc 2 2733 9
	lw	a3,52(s1)
	mv	a1,s7
	lbu	a2,4(a5)
	addi	a3,a3,108
	mv	a0,s4
	seqz	a2,a2
	call	mbedtls_ssl_check_cert_usage
.LVL1087:
	.loc 2 2733 7
	bne	a0,zero,.L743
.L747:
	.loc 2 2749 5 is_stmt 1
	.loc 2 2749 7 is_stmt 0
	li	a5,1
	bne	s5,a5,.L745
	.loc 2 2749 23
	li	a5,-8192
	addi	a5,a5,-1792
	beq	s2,a5,.L752
	.loc 2 2750 26
	li	a5,-32768
	addi	a5,a5,1536
	bne	s2,a5,.L745
.LVL1088:
.L752:
.LBB242:
	.loc 2 2790 19
	li	s2,0
.L749:
.LBE242:
	.loc 2 2796 5 is_stmt 1
	.loc 2 2796 31 is_stmt 0
	lw	a5,52(s1)
	lw	a5,108(a5)
	.loc 2 2796 7
	beq	a5,zero,.L754
	.loc 2 2798 9 is_stmt 1
	lui	a4,%hi(.LC76)
	li	a3,4096
	addi	a4,a4,%lo(.LC76)
	addi	a3,a3,-1298
	addi	a2,s3,%lo(.LC3)
	li	a1,3
	mv	a0,s1
	call	mbedtls_debug_print_msg
.LVL1089:
.L755:
.LBE246:
.LBE252:
	.loc 2 2950 5
	.loc 2 2950 7 is_stmt 0
	bne	s2,zero,.L721
	j	.L756
.LVL1090:
.L736:
.LBB253:
.LBB247:
	.loc 2 2645 9 is_stmt 1
	lui	a4,%hi(.LC71)
	addi	a4,a4,%lo(.LC71)
	addi	a3,s2,-1451
	addi	a2,s3,%lo(.LC3)
	li	a1,3
	mv	a0,s1
	call	mbedtls_debug_print_msg
.LVL1091:
	.loc 2 2646 9
	.loc 2 2646 21 is_stmt 0
	lw	a5,0(s1)
	.loc 2 2646 16
	lw	a6,72(a5)
.LVL1092:
	.loc 2 2647 9 is_stmt 1
	.loc 2 2647 16 is_stmt 0
	lw	a7,76(a5)
.LVL1093:
	j	.L737
.L738:
.LBB243:
	.loc 2 2684 13 is_stmt 1
	.loc 2 2684 22 is_stmt 0
	lw	a1,108(a4)
.LVL1094:
	.loc 2 2685 13 is_stmt 1
	.loc 2 2685 20 is_stmt 0
	lw	a2,112(a4)
.LVL1095:
	.loc 2 2688 9 is_stmt 1
	.loc 2 2688 11 is_stmt 0
	snez	s6,a1
	j	.L739
.LVL1096:
.L743:
.LBE243:
	.loc 2 2738 9 is_stmt 1
	lui	a4,%hi(.LC74)
	li	a3,4096
	addi	a4,a4,%lo(.LC74)
	addi	a3,a3,-1358
	addi	a2,s3,%lo(.LC3)
	li	a1,1
	mv	a0,s1
	call	mbedtls_debug_print_msg
.LVL1097:
	.loc 2 2739 9
	.loc 2 2739 11 is_stmt 0
	bne	s2,zero,.L747
	.loc 2 2740 13 is_stmt 1
.LVL1098:
	.loc 2 2749 5
	.loc 2 2749 7 is_stmt 0
	li	a5,1
	beq	s5,a5,.L752
	.loc 2 2756 5 is_stmt 1
	.loc 2 2756 7 is_stmt 0
	beq	s6,zero,.L758
.L798:
	.loc 2 2740 17
	li	s2,-32768
	addi	s2,s2,1536
	j	.L751
.LVL1099:
.L745:
	.loc 2 2756 5 is_stmt 1
	.loc 2 2756 7 is_stmt 0
	bne	s6,zero,.L750
	.loc 2 2756 28
	li	a5,2
	bne	s5,a5,.L750
.LVL1100:
.L759:
	.loc 2 2758 9 is_stmt 1
	lui	a4,%hi(.LC75)
	li	a3,4096
	addi	a4,a4,%lo(.LC75)
	addi	a3,a3,-1338
	addi	a2,s3,%lo(.LC3)
	li	a1,1
	mv	a0,s1
	.loc 2 2759 13 is_stmt 0
	li	s2,-28672
	.loc 2 2758 9
	call	mbedtls_debug_print_msg
.LVL1101:
	.loc 2 2759 9 is_stmt 1
	.loc 2 2762 5
	.loc 2 2759 13 is_stmt 0
	addi	s2,s2,-1664
.LVL1102:
.L751:
.LBB244:
	.loc 2 2764 9 is_stmt 1
	.loc 2 2769 9
	.loc 2 2769 35 is_stmt 0
	lw	a5,52(s1)
	.loc 2 2770 19
	li	a2,49
	.loc 2 2769 35
	lw	a5,108(a5)
	.loc 2 2769 51
	andi	a4,a5,256
	.loc 2 2769 11
	bne	a4,zero,.L753
	.loc 2 2771 14 is_stmt 1
	.loc 2 2771 56 is_stmt 0
	andi	a4,a5,4
	.loc 2 2772 19
	li	a2,42
	.loc 2 2771 16
	bne	a4,zero,.L753
	.loc 2 2773 14 is_stmt 1
	.loc 2 2775 14
	.loc 2 2777 14
	.loc 2 2779 14
	.loc 2 2781 14
	.loc 2 2781 16 is_stmt 0
	li	a4,114688
	addi	a4,a4,-2048
	and	a4,a5,a4
	.loc 2 2782 19
	li	a2,43
	.loc 2 2781 16
	bne	a4,zero,.L753
	.loc 2 2783 14 is_stmt 1
	.loc 2 2783 56 is_stmt 0
	andi	a4,a5,1
	.loc 2 2784 19
	li	a2,45
	.loc 2 2783 16
	bne	a4,zero,.L753
	.loc 2 2785 14 is_stmt 1
	.loc 2 2785 56 is_stmt 0
	andi	a4,a5,2
	.loc 2 2786 19
	li	a2,44
	.loc 2 2785 16
	bne	a4,zero,.L753
	.loc 2 2787 14 is_stmt 1
	.loc 2 2787 56 is_stmt 0
	andi	a5,a5,8
	.loc 2 2788 19
	li	a2,48
	.loc 2 2787 16
	bne	a5,zero,.L753
	.loc 2 2790 19
	li	a2,46
.L753:
.LVL1103:
	.loc 2 2791 9 is_stmt 1
	li	a1,2
	mv	a0,s1
	call	mbedtls_ssl_send_alert_message
.LVL1104:
	j	.L749
.LVL1105:
.L750:
.LBE244:
	.loc 2 2762 5
	.loc 2 2762 7 is_stmt 0
	bne	s2,zero,.L751
	j	.L752
.LVL1106:
.L754:
	.loc 2 2803 9 is_stmt 1
	lui	a4,%hi(.LC77)
	li	a3,4096
	addi	a4,a4,%lo(.LC77)
	addi	a3,a3,-1293
	addi	a2,s3,%lo(.LC3)
	li	a1,3
	mv	a0,s1
	call	mbedtls_debug_print_msg
.LVL1107:
	j	.L755
.LVL1108:
.L795:
.LBE247:
.LBE253:
.LBB254:
.LBB214:
.LBB211:
	.loc 2 2830 5
	.loc 2 2830 11 is_stmt 0
	li	a0,6
	call	mbedtls_md_info_from_type
.LVL1109:
	lw	a5,52(s1)
	mv	a1,s2
	mv	a2,s7
	lw	a3,96(a5)
	call	mbedtls_md
.LVL1110:
	.loc 2 2835 8
	lw	a5,52(s1)
	.loc 2 2835 51
	li	a4,6
	.loc 2 2830 11
	mv	s2,a0
.LVL1111:
	.loc 2 2835 5 is_stmt 1
	.loc 2 2835 51 is_stmt 0
	sw	a4,104(a5)
	.loc 2 2837 5 is_stmt 1
	.loc 2 2837 8 is_stmt 0
	lw	a5,52(s1)
	.loc 2 2837 50
	li	a4,32
	sw	a4,100(a5)
	.loc 2 2840 5 is_stmt 1
.LVL1112:
.LBE211:
.LBE214:
	.loc 2 2976 9
	.loc 2 2976 11 is_stmt 0
	bne	a0,zero,.L709
	.loc 2 2979 9 is_stmt 1
.LVL1113:
.LBB215:
.LBB216:
	.loc 2 2851 5 is_stmt 0
	lw	a0,56(s1)
.LVL1114:
	sw	s5,-72(s0)
.LVL1115:
	.loc 2 2847 5 is_stmt 1
	.loc 2 2847 20 is_stmt 0
	add	s5,s5,s6
.LVL1116:
	.loc 2 2848 5 is_stmt 1
	.loc 2 2851 5
	addi	a0,a0,408
	call	mbedtls_pk_init
.LVL1117:
	.loc 2 2852 5
	.loc 2 2852 11 is_stmt 0
	lw	a2,56(s1)
	mv	a1,s5
	addi	a0,s0,-72
	addi	a2,a2,408
	call	mbedtls_pk_parse_subpubkey
.LVL1118:
	.loc 2 2854 5 is_stmt 1
	.loc 2 2854 7 is_stmt 0
	beq	a0,zero,.L757
	.loc 2 2857 9 is_stmt 1
.LVL1119:
.LBE216:
.LBE215:
	.loc 2 2980 9
.LBE254:
	.loc 2 2993 5
	.loc 2 3004 5
.LBB255:
.LBB218:
.LBB217:
	.loc 2 2857 15 is_stmt 0
	li	s2,-28672
	addi	s2,s2,1024
	j	.L709
.LVL1120:
.L757:
.LBE217:
.LBE218:
	.loc 2 2980 9 is_stmt 1
.LBE255:
	.loc 2 2989 5
	lui	a4,%hi(.LC79)
	li	a3,4096
	addi	a4,a4,%lo(.LC79)
	addi	a3,a3,-1107
	j	.L799
.LVL1121:
.L742:
.LBB256:
.LBB248:
.LBB245:
	.loc 2 2722 13 is_stmt 0
	lw	a5,0(zero)
	ebreak
.LVL1122:
.L758:
.LBE245:
	.loc 2 2756 28
	li	a5,2
	bne	s5,a5,.L798
	j	.L759
.LBE248:
.LBE256:
	.cfi_endproc
.LFE54:
	.size	mbedtls_ssl_parse_certificate, .-mbedtls_ssl_parse_certificate
	.section	.text.mbedtls_ssl_set_calc_verify_md,"ax",@progbits
	.align	1
	.globl	mbedtls_ssl_set_calc_verify_md
	.type	mbedtls_ssl_set_calc_verify_md, @function
mbedtls_ssl_set_calc_verify_md:
.LFB153:
	.loc 2 7488 1 is_stmt 1
	.cfi_startproc
.LVL1123:
	.loc 2 7490 5
	.loc 2 7488 1 is_stmt 0
	addi	sp,sp,-16
	.cfi_def_cfa_offset 16
	sw	s0,12(sp)
	.cfi_offset 8, -4
	addi	s0,sp,16
	.cfi_def_cfa 8, 0
	.loc 2 7490 7
	lw	a4,12(a0)
	li	a5,3
	bne	a4,a5,.L806
	.loc 2 7493 5 is_stmt 1
	li	a5,4
	beq	a1,a5,.L804
	li	a5,5
	bne	a1,a5,.L806
	.loc 2 7508 13
	.loc 2 7508 16 is_stmt 0
	lw	a4,56(a0)
	.loc 2 7508 41
	lui	a5,%hi(ssl_calc_verify_tls_sha384)
	addi	a5,a5,%lo(ssl_calc_verify_tls_sha384)
.L808:
	.loc 2 7513 41
	sw	a5,28(a4)
	.loc 2 7514 13 is_stmt 1
	.loc 2 7520 12 is_stmt 0
	li	a0,0
.LVL1124:
.L802:
	.loc 2 7527 1
	lw	s0,12(sp)
	.cfi_remember_state
	.cfi_restore 8
	.cfi_def_cfa 2, 16
	addi	sp,sp,16
	.cfi_def_cfa_offset 0
	jr	ra
.LVL1125:
.L804:
	.cfi_restore_state
	.loc 2 7513 13 is_stmt 1
	.loc 2 7513 41 is_stmt 0
	lui	a5,%hi(ssl_calc_verify_tls_sha256)
	.loc 2 7513 16
	lw	a4,56(a0)
	.loc 2 7513 41
	addi	a5,a5,%lo(ssl_calc_verify_tls_sha256)
	j	.L808
.L806:
	.loc 2 7493 5
	li	a0,-24576
.LVL1126:
	addi	a0,a0,-1536
	j	.L802
	.cfi_endproc
.LFE153:
	.size	mbedtls_ssl_set_calc_verify_md, .-mbedtls_ssl_set_calc_verify_md
	.section	.rodata.mbedtls_ssl_get_key_exchange_md_tls1_2.str1.4,"aMS",@progbits,1
	.align	2
.LC80:
	.string	"Perform mbedtls-based computation of digest of ServerKeyExchange"
	.align	2
.LC81:
	.string	"mbedtls_md_starts"
	.align	2
.LC82:
	.string	"mbedtls_md_update"
	.align	2
.LC83:
	.string	"mbedtls_md_finish"
	.section	.text.mbedtls_ssl_get_key_exchange_md_tls1_2,"ax",@progbits
	.align	1
	.globl	mbedtls_ssl_get_key_exchange_md_tls1_2
	.type	mbedtls_ssl_get_key_exchange_md_tls1_2, @function
mbedtls_ssl_get_key_exchange_md_tls1_2:
.LFB154:
	.loc 2 7685 1 is_stmt 1
	.cfi_startproc
.LVL1127:
	.loc 2 7686 5
	.loc 2 7687 5
	.loc 2 7688 5
	.loc 2 7685 1 is_stmt 0
	addi	sp,sp,-64
	.cfi_def_cfa_offset 64
	sw	ra,60(sp)
	sw	s0,56(sp)
	sw	s1,52(sp)
	.cfi_offset 1, -4
	.cfi_offset 8, -8
	.cfi_offset 9, -12
	addi	s0,sp,64
	.cfi_def_cfa 8, 0
	sw	s2,48(sp)
	sw	s3,44(sp)
	sw	s4,40(sp)
	sw	s5,36(sp)
	sw	s6,32(sp)
	sw	s7,28(sp)
	.cfi_offset 18, -16
	.cfi_offset 19, -20
	.cfi_offset 20, -24
	.cfi_offset 21, -28
	.cfi_offset 22, -32
	.cfi_offset 23, -36
	mv	s2,a0
	.loc 2 7688 40
	mv	a0,a5
.LVL1128:
	.loc 2 7685 1
	mv	s3,a2
	mv	s5,a1
	mv	s6,a3
	mv	s7,a4
	.loc 2 7688 40
	call	mbedtls_md_info_from_type
.LVL1129:
	mv	s1,a0
.LVL1130:
	.loc 2 7689 5 is_stmt 1
	.loc 2 7689 16 is_stmt 0
	call	mbedtls_md_get_size
.LVL1131:
	sw	a0,0(s3)
	.loc 2 7691 5 is_stmt 1
	lui	a4,%hi(.LC80)
	li	s4,8192
	lui	s3,%hi(.LC3)
.LVL1132:
	addi	a2,s3,%lo(.LC3)
	li	a1,3
	addi	a4,a4,%lo(.LC80)
	addi	a3,s4,-501
	mv	a0,s2
	call	mbedtls_debug_print_msg
.LVL1133:
	.loc 2 7693 5
	addi	a0,s0,-60
	call	mbedtls_md_init
.LVL1134:
	.loc 2 7702 5
	.loc 2 7702 17 is_stmt 0
	li	a2,0
	mv	a1,s1
	addi	a0,s0,-60
	call	mbedtls_md_setup
.LVL1135:
	.loc 2 7702 7
	beq	a0,zero,.L810
	.loc 2 7704 9
	lui	a4,%hi(.LC26)
	mv	s1,a0
.LVL1136:
	.loc 2 7704 9 is_stmt 1
	mv	a5,a0
	addi	a4,a4,%lo(.LC26)
	addi	a3,s4,-488
.LVL1137:
.L823:
	.loc 2 7724 9 is_stmt 0
	addi	a2,s3,%lo(.LC3)
	li	a1,1
	mv	a0,s2
	call	mbedtls_debug_print_ret
.LVL1138:
	.loc 2 7725 9 is_stmt 1
.L811:
	.loc 2 7729 5
	addi	a0,s0,-60
	call	mbedtls_md_free
.LVL1139:
	.loc 2 7731 5
	.loc 2 7731 7 is_stmt 0
	beq	s1,zero,.L809
	.loc 2 7732 9 is_stmt 1
	li	a2,80
	li	a1,2
	mv	a0,s2
	call	mbedtls_ssl_send_alert_message
.LVL1140:
	.loc 2 7735 5
.L809:
	.loc 2 7736 1 is_stmt 0
	lw	ra,60(sp)
	.cfi_remember_state
	.cfi_restore 1
	lw	s0,56(sp)
	.cfi_restore 8
	.cfi_def_cfa 2, 64
	lw	s2,48(sp)
	.cfi_restore 18
.LVL1141:
	lw	s3,44(sp)
	.cfi_restore 19
	lw	s4,40(sp)
	.cfi_restore 20
	lw	s5,36(sp)
	.cfi_restore 21
.LVL1142:
	lw	s6,32(sp)
	.cfi_restore 22
.LVL1143:
	lw	s7,28(sp)
	.cfi_restore 23
.LVL1144:
	mv	a0,s1
	lw	s1,52(sp)
	.cfi_restore 9
	addi	sp,sp,64
	.cfi_def_cfa_offset 0
	jr	ra
.LVL1145:
.L810:
	.cfi_restore_state
	.loc 2 7707 5 is_stmt 1
	.loc 2 7707 17 is_stmt 0
	addi	a0,s0,-60
.LVL1146:
	call	mbedtls_md_starts
.LVL1147:
	mv	s1,a0
.LVL1148:
	.loc 2 7707 7
	beq	a0,zero,.L812
	.loc 2 7709 9 is_stmt 1
	lui	a4,%hi(.LC81)
	mv	a5,a0
	addi	a4,a4,%lo(.LC81)
	addi	a3,s4,-483
	j	.L823
.L812:
	.loc 2 7712 5
	.loc 2 7712 56 is_stmt 0
	lw	a1,56(s2)
	.loc 2 7712 17
	li	a2,64
	addi	a0,s0,-60
	addi	a1,a1,824
	call	mbedtls_md_update
.LVL1149:
	mv	s1,a0
.LVL1150:
	.loc 2 7712 7
	beq	a0,zero,.L813
	.loc 2 7714 9 is_stmt 1
	lui	a4,%hi(.LC82)
	mv	a5,a0
	addi	a4,a4,%lo(.LC82)
	addi	a3,s4,-478
	j	.L823
.L813:
	.loc 2 7717 5
	.loc 2 7717 17 is_stmt 0
	mv	a2,s7
	mv	a1,s6
	addi	a0,s0,-60
	call	mbedtls_md_update
.LVL1151:
	mv	s1,a0
.LVL1152:
	.loc 2 7717 7
	beq	a0,zero,.L814
	.loc 2 7719 9 is_stmt 1
	lui	a4,%hi(.LC82)
	mv	a5,a0
	addi	a4,a4,%lo(.LC82)
	addi	a3,s4,-473
	j	.L823
.L814:
	.loc 2 7722 5
	.loc 2 7722 17 is_stmt 0
	mv	a1,s5
	addi	a0,s0,-60
	call	mbedtls_md_finish
.LVL1153:
	mv	s1,a0
.LVL1154:
	.loc 2 7722 7
	beq	a0,zero,.L811
	.loc 2 7724 9 is_stmt 1
	lui	a4,%hi(.LC83)
	mv	a5,a0
	addi	a4,a4,%lo(.LC83)
	addi	a3,s4,-468
	j	.L823
	.cfi_endproc
.LFE154:
	.size	mbedtls_ssl_get_key_exchange_md_tls1_2, .-mbedtls_ssl_get_key_exchange_md_tls1_2
	.section	.rodata.str1.4,"aMS",@progbits,1
	.align	2
.LC84:
	.string	"SSLv3.0"
	.align	2
.LC85:
	.string	"TLSv1.0"
	.align	2
.LC86:
	.string	"TLSv1.1"
	.align	2
.LC87:
	.string	"TLSv1.2"
	.section	.rodata
	.align	2
	.set	.LANCHOR3,. + 0
.LC60:
	.string	"\377\377\377\377\377\377\377\377\311\017\332\242!h\3024\304\306b\213\200\334\034\321)\002N\b\212g\314t\002\013\276\246;\023\233\"QJ\by\2164\004\335\357\225\031\263\315:C\0330+\nm\362_\0247O\3415mmQ\302E\344\205\265vb^~\306\364LB\351\2467\355k\013\377\\\266\364\006\267\355\3568k\373Z\211\237\245\256\237$\021|K\037\346I(fQ\354\344[=\302"
	.ascii	"|\270\241c\277\005\230\332H6\034U\323\232i\026?\250\375$\317"
	.ascii	"_\203e]#\334\243\255\226\034b\363V \205R\273\236\325)\007p\226"
	.ascii	"\226mg\f5NJ\274\230\004\361tl\b\312\030!|2\220^F.6\316;\343\236"
	.ascii	"w,\030\016\206\003\233'\203\242\354\007\242\217\265\305]\360"
	.ascii	"oLR\311\336+\313\366\225X\027\0309\225I|\352\225j\345\025\322"
	.ascii	"&\030\230\372\005\020\025r\216Z\212\254\252h\377\377\377\377"
	.ascii	"\377\377\377\377"
.LC65:
	.string	""
	.string	""
	.string	""
	.string	""
	.section	.data.ssl_preset_default_hashes,"aw"
	.align	2
	.set	.LANCHOR7,. + 0
	.type	ssl_preset_default_hashes, @object
	.size	ssl_preset_default_hashes, 20
ssl_preset_default_hashes:
	.word	8
	.word	7
	.word	6
	.word	5
	.word	0
	.section	.data.ssl_preset_suiteb_ciphersuites,"aw"
	.align	2
	.set	.LANCHOR4,. + 0
	.type	ssl_preset_suiteb_ciphersuites, @object
	.size	ssl_preset_suiteb_ciphersuites, 12
ssl_preset_suiteb_ciphersuites:
	.word	49195
	.word	49196
	.word	0
	.section	.data.ssl_preset_suiteb_hashes,"aw"
	.align	2
	.set	.LANCHOR5,. + 0
	.type	ssl_preset_suiteb_hashes, @object
	.size	ssl_preset_suiteb_hashes, 12
ssl_preset_suiteb_hashes:
	.word	6
	.word	7
	.word	0
	.section	.rodata.CSWTCH.130,"a"
	.align	2
	.set	.LANCHOR1,. + 0
	.type	CSWTCH.130, @object
	.size	CSWTCH.130, 16
CSWTCH.130:
	.word	.LC84
	.word	.LC85
	.word	.LC86
	.word	.LC87
	.section	.sdata.ssl_preset_suiteb_curves,"aw"
	.align	2
	.set	.LANCHOR6,. + 0
	.type	ssl_preset_suiteb_curves, @object
	.size	ssl_preset_suiteb_curves, 8
ssl_preset_suiteb_curves:
	.word	3
	.word	0
	.section	.sdata.ssl_serialized_session_header,"aw"
	.align	2
	.set	.LANCHOR2,. + 0
	.type	ssl_serialized_session_header, @object
	.size	ssl_serialized_session_header, 5
ssl_serialized_session_header:
	.string	"\002\034\001"
	.ascii	"N"
	.section	.srodata.CSWTCH.49,"a"
	.align	2
	.set	.LANCHOR0,. + 0
	.type	CSWTCH.49, @object
	.size	CSWTCH.49, 8
CSWTCH.49:
	.half	512
	.half	1024
	.half	2048
	.half	4096
	.text
.Letext0:
	.file 5 "/home/dinhquangha/intern/Ai-Thinker-WB2/toolchain/riscv/Linux/lib/gcc/riscv64-unknown-elf/10.2.0/include/stddef.h"
	.file 6 "/home/dinhquangha/intern/Ai-Thinker-WB2/toolchain/riscv/Linux/lib/gcc/riscv64-unknown-elf/10.2.0/include/stdint-gcc.h"
	.file 7 "/home/dinhquangha/intern/Ai-Thinker-WB2/components/security/mbedtls_lts/mbedtls/include/mbedtls/bignum.h"
	.file 8 "/home/dinhquangha/intern/Ai-Thinker-WB2/components/security/mbedtls_lts/mbedtls/include/mbedtls/ecp.h"
	.file 9 "/home/dinhquangha/intern/Ai-Thinker-WB2/components/security/mbedtls_lts/port/ecp_alt.h"
	.file 10 "/home/dinhquangha/intern/Ai-Thinker-WB2/components/security/mbedtls_lts/mbedtls/include/mbedtls/md.h"
	.file 11 "/home/dinhquangha/intern/Ai-Thinker-WB2/components/security/mbedtls_lts/mbedtls/include/mbedtls/cipher.h"
	.file 12 "/home/dinhquangha/intern/Ai-Thinker-WB2/components/security/mbedtls_lts/mbedtls/include/mbedtls/asn1.h"
	.file 13 "/home/dinhquangha/intern/Ai-Thinker-WB2/components/security/mbedtls_lts/mbedtls/include/mbedtls/x509.h"
	.file 14 "/home/dinhquangha/intern/Ai-Thinker-WB2/components/security/mbedtls_lts/mbedtls/include/mbedtls/x509_crl.h"
	.file 15 "/home/dinhquangha/intern/Ai-Thinker-WB2/components/security/mbedtls_lts/mbedtls/include/mbedtls/x509_crt.h"
	.file 16 "/home/dinhquangha/intern/Ai-Thinker-WB2/components/security/mbedtls_lts/mbedtls/include/mbedtls/dhm.h"
	.file 17 "/home/dinhquangha/intern/Ai-Thinker-WB2/components/security/mbedtls_lts/mbedtls/include/mbedtls/ecdh.h"
	.file 18 "/home/dinhquangha/intern/Ai-Thinker-WB2/components/security/mbedtls_lts/mbedtls/include/mbedtls/ssl.h"
	.file 19 "/home/dinhquangha/intern/Ai-Thinker-WB2/components/platform/hosal/sec_common/bl_sec_common.h"
	.file 20 "/home/dinhquangha/intern/Ai-Thinker-WB2/components/security/mbedtls_lts/port/sha256_alt.h"
	.file 21 "/home/dinhquangha/intern/Ai-Thinker-WB2/components/security/mbedtls_lts/mbedtls/include/mbedtls/sha512.h"
	.file 22 "/home/dinhquangha/intern/Ai-Thinker-WB2/components/security/mbedtls_lts/mbedtls/include/mbedtls/debug.h"
	.file 23 "/home/dinhquangha/intern/Ai-Thinker-WB2/components/security/mbedtls_lts/mbedtls/include/mbedtls/platform.h"
	.file 24 "/home/dinhquangha/intern/Ai-Thinker-WB2/components/security/mbedtls_lts/mbedtls/include/mbedtls/platform_util.h"
	.file 25 "/home/dinhquangha/intern/Ai-Thinker-WB2/toolchain/riscv/Linux/riscv64-unknown-elf/include/string.h"
	.file 26 "/home/dinhquangha/intern/Ai-Thinker-WB2/components/security/mbedtls_lts/mbedtls/include/mbedtls/sha256.h"
	.file 27 "/home/dinhquangha/intern/Ai-Thinker-WB2/components/security/mbedtls_lts/mbedtls/include/mbedtls/constant_time.h"
	.file 28 "<built-in>"