	.file	"app_state.c"
	.option nopic
	.attribute arch, "rv32i2p0_m2p0_f2p0_c2p0"
	.attribute unaligned_access, 0
	.attribute stack_align, 16
	.text
.Ltext0:
	.cfi_sections	.debug_frame
	.section	.text.state_init_handler,"ax",@progbits
	.align	1
	.type	state_init_handler, @function
state_init_handler:
.LFB9:
	.file 1 "/home/dinhquangha/intern/Ai-Thinker-WB2/datic/components/app/app_state/app_state.c"
	.loc 1 70 1
	.cfi_startproc
.LVL0:
	.loc 1 71 5
	.loc 1 72 5
	.loc 1 73 5
	.loc 1 70 1 is_stmt 0
	addi	sp,sp,-16
	.cfi_def_cfa_offset 16
	sw	s0,12(sp)
	.cfi_offset 8, -4
	addi	s0,sp,16
	.cfi_def_cfa 8, 0
	.loc 1 74 1
	lw	s0,12(sp)
	.cfi_restore 8
	.cfi_def_cfa 2, 16
	li	a0,1
.LVL1:
	addi	sp,sp,16
	.cfi_def_cfa_offset 0
	jr	ra
	.cfi_endproc
.LFE9:
	.size	state_init_handler, .-state_init_handler
	.section	.text.state_check_flash_handler,"ax",@progbits
	.align	1
	.type	state_check_flash_handler, @function
state_check_flash_handler:
.LFB10:
	.loc 1 77 1 is_stmt 1
	.cfi_startproc
.LVL2:
	.loc 1 78 5
	.loc 1 77 1 is_stmt 0
	addi	sp,sp,-16
	.cfi_def_cfa_offset 16
	sw	s0,12(sp)
	.cfi_offset 8, -4
	addi	s0,sp,16
	.cfi_def_cfa 8, 0
	.loc 1 78 8
	lw	a4,0(a0)
	li	a5,1
	.loc 1 81 16
	li	a0,2
.LVL3:
	.loc 1 78 8
	beq	a4,a5,.L3
	.loc 1 83 5 is_stmt 1
	.loc 1 85 5
.LVL4:
	.loc 1 86 5
	.loc 1 85 17 is_stmt 0
	lui	a5,%hi(.LANCHOR0+4)
	lw	a0,%lo(.LANCHOR0+4)(a5)
	bne	a0,zero,.L3
	li	a0,1
.LVL5:
.L3:
	.loc 1 91 1
	lw	s0,12(sp)
	.cfi_restore 8
	.cfi_def_cfa 2, 16
	addi	sp,sp,16
	.cfi_def_cfa_offset 0
	jr	ra
	.cfi_endproc
.LFE10:
	.size	state_check_flash_handler, .-state_check_flash_handler
	.section	.text.state_ble_config_handler,"ax",@progbits
	.align	1
	.type	state_ble_config_handler, @function
state_ble_config_handler:
.LFB11:
	.loc 1 94 1 is_stmt 1
	.cfi_startproc
.LVL6:
	.loc 1 95 5
	.loc 1 94 1 is_stmt 0
	addi	sp,sp,-16
	.cfi_def_cfa_offset 16
	sw	s0,12(sp)
	.cfi_offset 8, -4
	addi	s0,sp,16
	.cfi_def_cfa 8, 0
	.loc 1 95 8
	lw	a4,0(a0)
	li	a5,6
	.loc 1 97 16
	li	a0,3
.LVL7:
	.loc 1 95 8
	beq	a4,a5,.L8
	.loc 1 99 12
	li	a0,2
.L8:
	.loc 1 100 1
	lw	s0,12(sp)
	.cfi_restore 8
	.cfi_def_cfa 2, 16
	addi	sp,sp,16
	.cfi_def_cfa_offset 0
	jr	ra
	.cfi_endproc
.LFE11:
	.size	state_ble_config_handler, .-state_ble_config_handler
	.section	.text.state_wifi_connecting_handler,"ax",@progbits
	.align	1
	.type	state_wifi_connecting_handler, @function
state_wifi_connecting_handler:
.LFB12:
	.loc 1 103 1 is_stmt 1
	.cfi_startproc
.LVL8:
	.loc 1 104 5
	.loc 1 103 1 is_stmt 0
	addi	sp,sp,-16
	.cfi_def_cfa_offset 16
	sw	s0,12(sp)
	.cfi_offset 8, -4
	addi	s0,sp,16
	.cfi_def_cfa 8, 0
	.loc 1 104 14
	lw	a0,0(a0)
.LVL9:
	.loc 1 104 8
	li	a5,1
	beq	a0,a5,.L14
	.loc 1 108 12 is_stmt 1
	.loc 1 108 15 is_stmt 0
	li	a5,3
	beq	a0,a5,.L15
	.loc 1 111 12 is_stmt 1
	.loc 1 111 15 is_stmt 0
	li	a5,5
	bne	a0,a5,.L16
.L12:
	.loc 1 116 1
	lw	s0,12(sp)
	.cfi_remember_state
	.cfi_restore 8
	.cfi_def_cfa 2, 16
	addi	sp,sp,16
	.cfi_def_cfa_offset 0
	jr	ra
.L14:
	.cfi_restore_state
	.loc 1 107 16
	li	a0,2
	j	.L12
.L15:
	.loc 1 110 16
	li	a0,4
	j	.L12
.L16:
	.loc 1 115 12
	li	a0,3
	j	.L12
	.cfi_endproc
.LFE12:
	.size	state_wifi_connecting_handler, .-state_wifi_connecting_handler
	.section	.text.state_wifi_connected_handler,"ax",@progbits
	.align	1
	.type	state_wifi_connected_handler, @function
state_wifi_connected_handler:
.LFB13:
	.loc 1 119 1 is_stmt 1
	.cfi_startproc
.LVL10:
	.loc 1 120 5
	.loc 1 119 1 is_stmt 0
	addi	sp,sp,-16
	.cfi_def_cfa_offset 16
	sw	s0,12(sp)
	.cfi_offset 8, -4
	addi	s0,sp,16
	.cfi_def_cfa 8, 0
	.loc 1 120 14
	lw	a5,0(a0)
	.loc 1 120 8
	li	a4,1
	.loc 1 122 16
	li	a0,2
.LVL11:
	.loc 1 120 8
	beq	a5,a4,.L18
	.loc 1 123 12 is_stmt 1
	.loc 1 127 12 is_stmt 0
	li	a0,4
	.loc 1 123 15
	bne	a5,a0,.L18
	.loc 1 125 16
	li	a0,3
.L18:
	.loc 1 128 1
	lw	s0,12(sp)
	.cfi_restore 8
	.cfi_def_cfa 2, 16
	addi	sp,sp,16
	.cfi_def_cfa_offset 0
	jr	ra
	.cfi_endproc
.LFE13:
	.size	state_wifi_connected_handler, .-state_wifi_connected_handler
	.section	.text.state_wifi_failed_handler,"ax",@progbits
	.align	1
	.type	state_wifi_failed_handler, @function
state_wifi_failed_handler:
.LFB14:
	.loc 1 131 1 is_stmt 1
	.cfi_startproc
.LVL12:
	.loc 1 132 5
	.loc 1 131 1 is_stmt 0
	addi	sp,sp,-16
	.cfi_def_cfa_offset 16
	sw	s0,12(sp)
	.cfi_offset 8, -4
	addi	s0,sp,16
	.cfi_def_cfa 8, 0
	.loc 1 132 8
	lw	a4,0(a0)
	li	a5,1
	.loc 1 134 16
	li	a0,2
.LVL13:
	.loc 1 132 8
	beq	a4,a5,.L23
	.loc 1 136 12
	li	a0,5
.L23:
	.loc 1 137 1
	lw	s0,12(sp)
	.cfi_restore 8
	.cfi_def_cfa 2, 16
	addi	sp,sp,16
	.cfi_def_cfa_offset 0
	jr	ra
	.cfi_endproc
.LFE14:
	.size	state_wifi_failed_handler, .-state_wifi_failed_handler
	.section	.text.app_state_init,"ax",@progbits
	.align	1
	.globl	app_state_init
	.type	app_state_init, @function
app_state_init:
.LFB4:
	.loc 1 27 1 is_stmt 1
	.cfi_startproc
	.loc 1 28 5
	.loc 1 29 5
	.loc 1 27 1 is_stmt 0
	addi	sp,sp,-16
	.cfi_def_cfa_offset 16
	sw	s0,8(sp)
	sw	s1,4(sp)
	sw	ra,12(sp)
	.cfi_offset 8, -8
	.cfi_offset 9, -12
	.cfi_offset 1, -4
	addi	s0,sp,16
	.cfi_def_cfa 8, 0
	.loc 1 29 5
	lui	a0,%hi(.LANCHOR0)
	.loc 1 27 1
	.loc 1 29 5
	addi	s1,a0,%lo(.LANCHOR0)
	li	a2,8
	li	a1,0
	addi	a0,a0,%lo(.LANCHOR0)
	call	memset
.LVL14:
	.loc 1 30 5 is_stmt 1
	.loc 1 32 1 is_stmt 0
	lw	ra,12(sp)
	.cfi_restore 1
	lw	s0,8(sp)
	.cfi_restore 8
	.cfi_def_cfa 2, 16
	.loc 1 30 35
	sw	zero,0(s1)
	.loc 1 31 5 is_stmt 1
	.loc 1 31 32 is_stmt 0
	sw	zero,4(s1)
	.loc 1 32 1
	lw	s1,4(sp)
	.cfi_restore 9
	addi	sp,sp,16
	.cfi_def_cfa_offset 0
	jr	ra
	.cfi_endproc
.LFE4:
	.size	app_state_init, .-app_state_init
	.section	.text.app_state_get_current,"ax",@progbits
	.align	1
	.globl	app_state_get_current
	.type	app_state_get_current, @function
app_state_get_current:
.LFB5:
	.loc 1 35 1 is_stmt 1
	.cfi_startproc
	.loc 1 36 5
	.loc 1 35 1 is_stmt 0
	addi	sp,sp,-16
	.cfi_def_cfa_offset 16
	sw	s0,12(sp)
	.cfi_offset 8, -4
	addi	s0,sp,16
	.cfi_def_cfa 8, 0
	.loc 1 37 1
	lw	s0,12(sp)
	.cfi_restore 8
	.cfi_def_cfa 2, 16
	lui	a5,%hi(.LANCHOR0)
	lw	a0,%lo(.LANCHOR0)(a5)
	addi	sp,sp,16
	.cfi_def_cfa_offset 0
	jr	ra
	.cfi_endproc
.LFE5:
	.size	app_state_get_current, .-app_state_get_current
	.section	.text.app_state_get_next,"ax",@progbits
	.align	1
	.globl	app_state_get_next
	.type	app_state_get_next, @function
app_state_get_next:
.LFB6:
	.loc 1 40 1 is_stmt 1
	.cfi_startproc
	.loc 1 41 5
	.loc 1 40 1 is_stmt 0
	addi	sp,sp,-16
	.cfi_def_cfa_offset 16
	sw	s0,12(sp)
	.cfi_offset 8, -4
	addi	s0,sp,16
	.cfi_def_cfa 8, 0
	.loc 1 42 1
	lw	s0,12(sp)
	.cfi_restore 8
	.cfi_def_cfa 2, 16
	lui	a5,%hi(.LANCHOR0+4)
	lw	a0,%lo(.LANCHOR0+4)(a5)
	addi	sp,sp,16
	.cfi_def_cfa_offset 0
	jr	ra
	.cfi_endproc
.LFE6:
	.size	app_state_get_next, .-app_state_get_next
	.section	.text.app_state_set_next,"ax",@progbits
	.align	1
	.globl	app_state_set_next
	.type	app_state_set_next, @function
app_state_set_next:
.LFB7:
	.loc 1 45 1 is_stmt 1
	.cfi_startproc
.LVL15:
	.loc 1 46 5
	.loc 1 45 1 is_stmt 0
	addi	sp,sp,-16
	.cfi_def_cfa_offset 16
	sw	s0,12(sp)
	.cfi_offset 8, -4
	addi	s0,sp,16
	.cfi_def_cfa 8, 0
	.loc 1 47 1
	lw	s0,12(sp)
	.cfi_restore 8
	.cfi_def_cfa 2, 16
	.loc 1 46 32
	lui	a5,%hi(.LANCHOR0+4)
	sw	a0,%lo(.LANCHOR0+4)(a5)
	.loc 1 47 1
	addi	sp,sp,16
	.cfi_def_cfa_offset 0
	jr	ra
	.cfi_endproc
.LFE7:
	.size	app_state_set_next, .-app_state_set_next
	.section	.text.app_state_process_event,"ax",@progbits
	.align	1
	.globl	app_state_process_event
	.type	app_state_process_event, @function
app_state_process_event:
.LFB8:
	.loc 1 50 1 is_stmt 1
	.cfi_startproc
.LVL16:
	.loc 1 51 5
	.loc 1 50 1 is_stmt 0
	addi	sp,sp,-16
	.cfi_def_cfa_offset 16
	sw	s0,8(sp)
	sw	s1,4(sp)
	sw	ra,12(sp)
	.cfi_offset 8, -8
	.cfi_offset 9, -12
	.cfi_offset 1, -4
	addi	s0,sp,16
	.cfi_def_cfa 8, 0
	.loc 1 52 31
	lui	s1,%hi(.LANCHOR0)
	lw	a5,%lo(.LANCHOR0)(s1)
	.loc 1 51 8
	beq	a0,zero,.L35
	.loc 1 55 5 is_stmt 1
	.loc 1 55 8 is_stmt 0
	li	a4,5
	bgtu	a5,a4,.L35
	.loc 1 59 43
	lui	a4,%hi(.LANCHOR1)
	addi	a4,a4,%lo(.LANCHOR1)
	slli	a5,a5,2
	add	a5,a4,a5
	.loc 1 59 29
	lw	a5,0(a5)
	addi	s1,s1,%lo(.LANCHOR0)
	.loc 1 59 5 is_stmt 1
	.loc 1 59 29 is_stmt 0
	jalr	a5
.LVL17:
	.loc 1 61 5 is_stmt 1
	.loc 1 61 8 is_stmt 0
	lw	a5,0(s1)
	beq	a5,a0,.L37
	.loc 1 62 9 is_stmt 1
	.loc 1 63 9
	.loc 1 63 39 is_stmt 0
	sw	a0,0(s1)
.L37:
	.loc 1 66 5 is_stmt 1
	.loc 1 66 27 is_stmt 0
	lw	a5,0(s1)
.LVL18:
.L35:
	.loc 1 67 1
	lw	ra,12(sp)
	.cfi_restore 1
	lw	s0,8(sp)
	.cfi_restore 8
	.cfi_def_cfa 2, 16
	lw	s1,4(sp)
	.cfi_restore 9
	mv	a0,a5
	addi	sp,sp,16
	.cfi_def_cfa_offset 0
	jr	ra
	.cfi_endproc
.LFE8:
	.size	app_state_process_event, .-app_state_process_event
	.section	.rodata.state_handlers,"a"
	.align	2
	.set	.LANCHOR1,. + 0
	.type	state_handlers, @object
	.size	state_handlers, 24
state_handlers:
	.word	state_init_handler
	.word	state_check_flash_handler
	.word	state_ble_config_handler
	.word	state_wifi_connecting_handler
	.word	state_wifi_connected_handler
	.word	state_wifi_failed_handler
	.section	.sbss.g_state_machine,"aw",@nobits
	.align	2
	.set	.LANCHOR0,. + 0
	.type	g_state_machine, @object
	.size	g_state_machine, 8
g_state_machine:
	.zero	8
	.text
.Letext0:
	.file 2 "/home/dinhquangha/intern/Ai-Thinker-WB2/datic/components/app/app_state/../app_event/app_event.h"
	.file 3 "/home/dinhquangha/intern/Ai-Thinker-WB2/datic/components/app/app_state/app_state.h"
	.file 4 "/home/dinhquangha/intern/Ai-Thinker-WB2/toolchain/riscv/Linux/riscv64-unknown-elf/include/string.h"