	.file	"ctr_prng.c"
	.option nopic
	.attribute arch, "rv32i2p0_m2p0_f2p0_c2p0"
	.attribute unaligned_access, 0
	.attribute stack_align, 16
	.text
.Ltext0:
	.cfi_sections	.debug_frame
	.section	.text.tc_ctr_prng_update,"ax",@progbits
	.align	1
	.type	tc_ctr_prng_update, @function
tc_ctr_prng_update:
.LFB3:
	.file 1 "/home/dinhquangha/intern/Ai-Thinker-WB2/components/network/ble/blestack/src/common/tinycrypt/source/ctr_prng.c"
	.loc 1 75 1
	.cfi_startproc
.LVL0:
	.loc 1 76 2
	.loc 1 76 5 is_stmt 0
	beq	a0,zero,.L15
	.loc 1 75 1
	addi	sp,sp,-96
	.cfi_def_cfa_offset 96
	sw	s0,88(sp)
	sw	s1,84(sp)
	sw	s3,76(sp)
	sw	s4,72(sp)
	sw	s5,68(sp)
	sw	s6,64(sp)
	sw	s7,60(sp)
	sw	s8,56(sp)
	sw	s9,52(sp)
	sw	ra,92(sp)
	sw	s2,80(sp)
	.cfi_offset 8, -8
	.cfi_offset 9, -12
	.cfi_offset 19, -20
	.cfi_offset 20, -24
	.cfi_offset 21, -28
	.cfi_offset 22, -32
	.cfi_offset 23, -36
	.cfi_offset 24, -40
	.cfi_offset 25, -44
	.cfi_offset 1, -4
	.cfi_offset 18, -16
	addi	s0,sp,96
	.cfi_def_cfa 8, 0
	mv	s1,a0
	mv	s4,a1
.LBB15:
.LBB16:
.LBB17:
	.loc 1 79 16
	li	s3,0
.LBB18:
	.loc 1 83 17
	li	s7,32
	addi	s9,a0,15
	li	s8,16
	.loc 1 93 10
	addi	s5,a0,16
.LBE18:
	.loc 1 82 9
	li	s6,31
.LVL1:
.L6:
.LBB27:
	.loc 1 83 4 is_stmt 1
	.loc 1 83 17 is_stmt 0
	sub	s2,s7,s3
.LVL2:
	.loc 1 84 4 is_stmt 1
	.loc 1 87 4
.LBB19:
.LBB20:
	.loc 1 55 2
	.loc 1 56 2
.LBB21:
.LBB22:
	.loc 1 57 17
	mv	a4,s9
.LVL3:
.L4:
	.loc 1 58 4
	.loc 1 58 8 is_stmt 0
	lbu	a5,0(a4)
	addi	a5,a5,1
	andi	a5,a5,0xff
	.loc 1 58 7
	sb	a5,0(a4)
	bne	a5,zero,.L3
.LVL4:
	.loc 1 57 17 is_stmt 1
	.loc 1 57 3 is_stmt 0
	addi	a5,a4,-1
	bne	s1,a4,.L8
.LVL5:
.L3:
.LBE22:
.LBE21:
.LBE20:
.LBE19:
	.loc 1 90 4 is_stmt 1
	bleu	s2,s8,.L5
	li	s2,16
.LVL6:
.L5:
	.loc 1 93 4
	.loc 1 93 10 is_stmt 0
	mv	a2,s5
	mv	a1,s1
	addi	a0,s0,-96
	call	tc_aes_encrypt
.LVL7:
	.loc 1 96 4 is_stmt 1
	addi	a5,s0,-80
	add	a0,a5,s3
	mv	a2,s2
	addi	a1,s0,-96
	.loc 1 98 8 is_stmt 0
	add	s3,s3,s2
.LVL8:
	.loc 1 96 4
	call	memcpy
.LVL9:
	.loc 1 98 4 is_stmt 1
.LBE27:
	.loc 1 82 9
	bleu	s3,s6,.L6
	addi	a4,s0,-80
.LBB28:
	.loc 1 104 11 is_stmt 0
	li	a5,0
	.loc 1 104 4
	li	a2,32
.L7:
.LVL10:
	.loc 1 105 5 is_stmt 1
	.loc 1 105 28 is_stmt 0
	add	a3,s4,a5
	.loc 1 105 13
	lbu	a1,0(a4)
	lbu	a3,0(a3)
	.loc 1 104 35
	addi	a5,a5,1
.LVL11:
	.loc 1 104 4
	addi	a4,a4,1
	.loc 1 105 13
	xor	a3,a3,a1
	sb	a3,-1(a4)
	.loc 1 104 34 is_stmt 1
.LVL12:
	.loc 1 104 17
	.loc 1 104 4 is_stmt 0
	bne	a5,a2,.L7
.LBE28:
	.loc 1 110 3 is_stmt 1
	.loc 1 110 9 is_stmt 0
	addi	a1,s0,-80
	mv	a0,s5
	call	tc_aes128_set_encrypt_key
.LVL13:
	.loc 1 113 3 is_stmt 1
	addi	a1,s0,-64
	mv	a0,s1
	li	a2,16
	call	memcpy
.LVL14:
.LBE17:
.LBE16:
.LBE15:
	.loc 1 115 1 is_stmt 0
	lw	ra,92(sp)
	.cfi_remember_state
	.cfi_restore 1
	lw	s0,88(sp)
	.cfi_restore 8
	.cfi_def_cfa 2, 96
	lw	s1,84(sp)
	.cfi_restore 9
.LVL15:
	lw	s2,80(sp)
	.cfi_restore 18
	lw	s3,76(sp)
	.cfi_restore 19
	lw	s4,72(sp)
	.cfi_restore 20
.LVL16:
	lw	s5,68(sp)
	.cfi_restore 21
.LVL17:
	lw	s6,64(sp)
	.cfi_restore 22
	lw	s7,60(sp)
	.cfi_restore 23
	lw	s8,56(sp)
	.cfi_restore 24
	lw	s9,52(sp)
	.cfi_restore 25
.LVL18:
	addi	sp,sp,96
	.cfi_def_cfa_offset 0
	jr	ra
.LVL19:
.L8:
	.cfi_restore_state
.LBB32:
.LBB31:
.LBB30:
.LBB29:
.LBB26:
.LBB25:
.LBB24:
.LBB23:
	mv	a4,a5
.LVL20:
	j	.L4
.LVL21:
.L15:
	.cfi_def_cfa_register 2
	.cfi_restore 1
	.cfi_restore 8
	.cfi_restore 9
	.cfi_restore 18
	.cfi_restore 19
	.cfi_restore 20
	.cfi_restore 21
	.cfi_restore 22
	.cfi_restore 23
	.cfi_restore 24
	.cfi_restore 25
	ret
.LBE23:
.LBE24:
.LBE25:
.LBE26:
.LBE29:
.LBE30:
.LBE31:
.LBE32:
	.cfi_endproc
.LFE3:
	.size	tc_ctr_prng_update, .-tc_ctr_prng_update
	.section	.text.tc_ctr_prng_init,"ax",@progbits
	.align	1
	.globl	tc_ctr_prng_init
	.type	tc_ctr_prng_init, @function
tc_ctr_prng_init:
.LFB4:
	.loc 1 122 1 is_stmt 1
	.cfi_startproc
.LVL22:
	.loc 1 123 2
	.loc 1 124 2
	.loc 1 125 2
	.loc 1 122 1 is_stmt 0
	addi	sp,sp,-112
	.cfi_def_cfa_offset 112
	sw	s0,104(sp)
	sw	s1,100(sp)
	.cfi_offset 8, -8
	.cfi_offset 9, -12
	addi	s0,sp,112
	.cfi_def_cfa 8, 0
	sw	s2,96(sp)
	sw	s3,92(sp)
	sw	s4,88(sp)
	sw	s5,84(sp)
	sw	ra,108(sp)
	.cfi_offset 18, -16
	.cfi_offset 19, -20
	.cfi_offset 20, -24
	.cfi_offset 21, -28
	.cfi_offset 1, -4
	.loc 1 122 1
	mv	s1,a0
	mv	s3,a1
	mv	s5,a2
	.loc 1 125 10
	li	a1,0
.LVL23:
	li	a2,28
.LVL24:
	addi	a0,s0,-92
.LVL25:
	.loc 1 122 1
	mv	s4,a3
	mv	s2,a4
	.loc 1 125 10
	sw	zero,-96(s0)
	call	memset
.LVL26:
	.loc 1 126 2 is_stmt 1
	.loc 1 127 2
	.loc 1 127 10 is_stmt 0
	sw	zero,-112(s0)
	sw	zero,-108(s0)
	sw	zero,-104(s0)
	sw	zero,-100(s0)
	.loc 1 129 2 is_stmt 1
	.loc 1 129 5 is_stmt 0
	beq	s4,zero,.L19
.LBB33:
	.loc 1 131 3 is_stmt 1
.LVL27:
	.loc 1 132 3
	.loc 1 137 3
	li	a5,32
	mv	a2,s2
	bleu	s2,a5,.L20
	li	a2,32
.L20:
	mv	a1,s4
	addi	a0,s0,-96
	call	memcpy
.LVL28:
.L19:
.LBE33:
	.loc 1 140 2
	.loc 1 123 6 is_stmt 0
	li	a0,0
	.loc 1 140 5
	beq	s1,zero,.L18
	.loc 1 140 17 discriminator 1
	beq	s3,zero,.L18
	.loc 1 140 35 discriminator 2
	li	a5,31
	bleu	s5,a5,.L18
	.loc 1 142 3 is_stmt 1
	li	a2,32
	mv	a1,s3
	addi	a0,s0,-64
	call	memcpy
.LVL29:
	.loc 1 143 3
	.loc 1 143 16
	addi	a4,s0,-64
	.loc 1 143 10 is_stmt 0
	li	a5,0
	.loc 1 143 3
	li	a2,32
.LVL30:
.L22:
	.loc 1 144 4 is_stmt 1 discriminator 3
	.loc 1 144 43 is_stmt 0 discriminator 3
	addi	a3,s0,-96
	add	a3,a3,a5
	.loc 1 144 21 discriminator 3
	lbu	a1,0(a4)
	lbu	a3,0(a3)
	.loc 1 143 43 discriminator 3
	addi	a5,a5,1
.LVL31:
	.loc 1 143 3 discriminator 3
	addi	a4,a4,1
	.loc 1 144 21 discriminator 3
	xor	a3,a3,a1
	sb	a3,-1(a4)
	.loc 1 143 42 is_stmt 1 discriminator 3
.LVL32:
	.loc 1 143 16 discriminator 3
	.loc 1 143 3 is_stmt 0 discriminator 3
	bne	a5,a2,.L22
	.loc 1 148 3 is_stmt 1
	.loc 1 148 9 is_stmt 0
	addi	a1,s0,-112
	addi	a0,s1,16
	call	tc_aes128_set_encrypt_key
.LVL33:
	.loc 1 151 3 is_stmt 1
	li	a2,16
	li	a1,0
	mv	a0,s1
	call	memset
.LVL34:
	.loc 1 154 3
	mv	a0,s1
	addi	a1,s0,-64
	call	tc_ctr_prng_update
.LVL35:
	.loc 1 157 3
	.loc 1 157 20 is_stmt 0
	li	a4,1
	li	a5,0
	sw	a4,192(s1)
	sw	a5,196(s1)
	.loc 1 159 3 is_stmt 1
.LVL36:
	.loc 1 159 10 is_stmt 0
	li	a0,1
.LVL37:
.L18:
	.loc 1 162 1
	lw	ra,108(sp)
	.cfi_restore 1
	lw	s0,104(sp)
	.cfi_restore 8
	.cfi_def_cfa 2, 112
	lw	s1,100(sp)
	.cfi_restore 9
.LVL38:
	lw	s2,96(sp)
	.cfi_restore 18
.LVL39:
	lw	s3,92(sp)
	.cfi_restore 19
.LVL40:
	lw	s4,88(sp)
	.cfi_restore 20
.LVL41:
	lw	s5,84(sp)
	.cfi_restore 21
.LVL42:
	addi	sp,sp,112
	.cfi_def_cfa_offset 0
	jr	ra
	.cfi_endproc
.LFE4:
	.size	tc_ctr_prng_init, .-tc_ctr_prng_init
	.section	.text.tc_ctr_prng_reseed,"ax",@progbits
	.align	1
	.globl	tc_ctr_prng_reseed
	.type	tc_ctr_prng_reseed, @function
tc_ctr_prng_reseed:
.LFB5:
	.loc 1 169 1 is_stmt 1
	.cfi_startproc
.LVL43:
	.loc 1 170 2
	.loc 1 171 2
	.loc 1 172 2
	.loc 1 169 1 is_stmt 0
	addi	sp,sp,-96
	.cfi_def_cfa_offset 96
	sw	s0,88(sp)
	sw	s1,84(sp)
	.cfi_offset 8, -8
	.cfi_offset 9, -12
	addi	s0,sp,96
	.cfi_def_cfa 8, 0
	sw	s2,80(sp)
	sw	s3,76(sp)
	sw	s4,72(sp)
	sw	s5,68(sp)
	sw	ra,92(sp)
	.cfi_offset 18, -16
	.cfi_offset 19, -20
	.cfi_offset 20, -24
	.cfi_offset 21, -28
	.cfi_offset 1, -4
	.loc 1 169 1
	mv	s2,a0
	mv	s4,a1
	mv	s5,a2
	mv	s3,a3
	.loc 1 172 10
	li	a2,28
.LVL44:
	li	a1,0
.LVL45:
	addi	a0,s0,-92
.LVL46:
	.loc 1 169 1
	mv	s1,a4
	.loc 1 172 10
	sw	zero,-96(s0)
	call	memset
.LVL47:
	.loc 1 173 2 is_stmt 1
	.loc 1 175 2
	.loc 1 175 5 is_stmt 0
	beq	s3,zero,.L32
.LBB34:
	.loc 1 177 3 is_stmt 1
.LVL48:
	.loc 1 178 3
	.loc 1 183 3
	li	a5,32
	mv	a2,s1
	bleu	s1,a5,.L33
	li	a2,32
.L33:
	mv	a1,s3
	addi	a0,s0,-96
	call	memcpy
.LVL49:
.L32:
.LBE34:
	.loc 1 186 2
	.loc 1 187 2
	.loc 1 171 6 is_stmt 0
	li	a0,0
	.loc 1 187 5
	beq	s2,zero,.L31
	.loc 1 187 17 discriminator 1
	li	a5,31
	bleu	s5,a5,.L31
	.loc 1 189 3 is_stmt 1
	li	a2,32
	mv	a1,s4
	addi	a0,s0,-64
	call	memcpy
.LVL50:
	.loc 1 190 3
	.loc 1 190 16
	addi	a4,s0,-64
	.loc 1 190 10 is_stmt 0
	li	a5,0
	.loc 1 190 3
	li	a2,32
.LVL51:
.L35:
	.loc 1 191 4 is_stmt 1 discriminator 3
	.loc 1 191 44 is_stmt 0 discriminator 3
	addi	a3,s0,-96
	add	a3,a3,a5
	.loc 1 191 21 discriminator 3
	lbu	a1,0(a4)
	lbu	a3,0(a3)
	.loc 1 190 43 discriminator 3
	addi	a5,a5,1
.LVL52:
	.loc 1 190 3 discriminator 3
	addi	a4,a4,1
	.loc 1 191 21 discriminator 3
	xor	a3,a3,a1
	sb	a3,-1(a4)
	.loc 1 190 42 is_stmt 1 discriminator 3
.LVL53:
	.loc 1 190 16 discriminator 3
	.loc 1 190 3 is_stmt 0 discriminator 3
	bne	a5,a2,.L35
	.loc 1 195 3 is_stmt 1
	mv	a0,s2
	addi	a1,s0,-64
	call	tc_ctr_prng_update
.LVL54:
	.loc 1 198 3
	.loc 1 198 20 is_stmt 0
	li	a4,1
	li	a5,0
	sw	a4,192(s2)
	sw	a5,196(s2)
	.loc 1 200 3 is_stmt 1
.LVL55:
	.loc 1 200 10 is_stmt 0
	li	a0,1
.LVL56:
.L31:
	.loc 1 203 1
	lw	ra,92(sp)
	.cfi_restore 1
	lw	s0,88(sp)
	.cfi_restore 8
	.cfi_def_cfa 2, 96
	lw	s1,84(sp)
	.cfi_restore 9
.LVL57:
	lw	s2,80(sp)
	.cfi_restore 18
.LVL58:
	lw	s3,76(sp)
	.cfi_restore 19
.LVL59:
	lw	s4,72(sp)
	.cfi_restore 20
.LVL60:
	lw	s5,68(sp)
	.cfi_restore 21
.LVL61:
	addi	sp,sp,96
	.cfi_def_cfa_offset 0
	jr	ra
	.cfi_endproc
.LFE5:
	.size	tc_ctr_prng_reseed, .-tc_ctr_prng_reseed
	.section	.text.tc_ctr_prng_generate,"ax",@progbits
	.align	1
	.globl	tc_ctr_prng_generate
	.type	tc_ctr_prng_generate, @function
tc_ctr_prng_generate:
.LFB6:
	.loc 1 210 1 is_stmt 1
	.cfi_startproc
.LVL62:
	.loc 1 212 2
	.loc 1 215 2
	.loc 1 217 2
	.loc 1 219 2
	.loc 1 219 5 is_stmt 0
	beq	a0,zero,.L53
	.loc 1 210 1 discriminator 1
	addi	sp,sp,-96
	.cfi_def_cfa_offset 96
	sw	s0,88(sp)
	sw	s1,84(sp)
	sw	s4,72(sp)
	sw	ra,92(sp)
	sw	s2,80(sp)
	sw	s3,76(sp)
	sw	s5,68(sp)
	sw	s6,64(sp)
	sw	s7,60(sp)
	sw	s8,56(sp)
	.cfi_offset 8, -8
	.cfi_offset 9, -12
	.cfi_offset 20, -24
	.cfi_offset 1, -4
	.cfi_offset 18, -16
	.cfi_offset 19, -20
	.cfi_offset 21, -28
	.cfi_offset 22, -32
	.cfi_offset 23, -36
	.cfi_offset 24, -40
	addi	s0,sp,96
	.cfi_def_cfa 8, 0
	mv	s1,a0
	mv	s4,a3
	.loc 1 217 15 discriminator 1
	li	a0,0
.LVL63:
	.loc 1 219 17 discriminator 1
	beq	a3,zero,.L44
	.loc 1 219 31 discriminator 2
	li	a5,65536
	mv	s3,a4
	bgeu	a4,a5,.L44
	.loc 1 221 3 is_stmt 1
	.loc 1 221 6 is_stmt 0
	lw	a4,196(s1)
.LVL64:
	bgtu	a4,a5,.L56
	mv	s5,a1
	mv	s2,a2
	bne	a4,a5,.L58
	lw	a5,192(s1)
	bne	a5,zero,.L56
.L58:
.LBB42:
	.loc 1 224 4 is_stmt 1
	.loc 1 224 12 is_stmt 0
	li	a2,28
.LVL65:
	li	a1,0
.LVL66:
	addi	a0,s0,-76
	sw	zero,-80(s0)
	call	memset
.LVL67:
	.loc 1 225 4 is_stmt 1
	.loc 1 225 7 is_stmt 0
	beq	s5,zero,.L46
.LBB43:
	.loc 1 227 5 is_stmt 1
.LVL68:
	.loc 1 228 5
	.loc 1 231 5
	li	a5,32
	mv	a2,s2
	bleu	s2,a5,.L47
.LVL69:
	li	a2,32
.LVL70:
.L47:
	mv	a1,s5
	addi	a0,s0,-80
	call	memcpy
.LVL71:
	.loc 1 232 5
	addi	a1,s0,-80
	mv	a0,s1
	call	tc_ctr_prng_update
.LVL72:
.L46:
.LBE43:
.LBB44:
.LBB45:
.LBB46:
.LBB47:
.LBB48:
	li	s8,0
	addi	s5,s1,15
.LVL73:
.LBE48:
.LBE47:
.LBE46:
.LBE45:
	.loc 1 247 11 is_stmt 0
	addi	s6,s1,16
	li	s7,16
.LVL74:
.L48:
.LBE44:
	.loc 1 239 10 is_stmt 1
	bltu	s8,s3,.L52
	.loc 1 259 4
	mv	a0,s1
	addi	a1,s0,-80
	call	tc_ctr_prng_update
.LVL75:
	.loc 1 262 4
	.loc 1 262 20 is_stmt 0
	addi	s1,s1,128
.LVL76:
	lw	a5,64(s1)
	lw	a3,68(s1)
	.loc 1 265 11
	li	a0,1
	.loc 1 262 20
	addi	a4,a5,1
	sltu	a5,a4,a5
	add	a5,a5,a3
	sw	a4,64(s1)
	sw	a5,68(s1)
	.loc 1 265 4 is_stmt 1
.LVL77:
.L44:
.LBE42:
	.loc 1 269 2
	.loc 1 270 1 is_stmt 0
	lw	ra,92(sp)
	.cfi_remember_state
	.cfi_restore 1
	lw	s0,88(sp)
	.cfi_restore 8
	.cfi_def_cfa 2, 96
	lw	s1,84(sp)
	.cfi_restore 9
	lw	s2,80(sp)
	.cfi_restore 18
	lw	s3,76(sp)
	.cfi_restore 19
	lw	s4,72(sp)
	.cfi_restore 20
.LVL78:
	lw	s5,68(sp)
	.cfi_restore 21
	lw	s6,64(sp)
	.cfi_restore 22
	lw	s7,60(sp)
	.cfi_restore 23
	lw	s8,56(sp)
	.cfi_restore 24
	addi	sp,sp,96
	.cfi_def_cfa_offset 0
	jr	ra
.LVL79:
.L52:
	.cfi_restore_state
.LBB58:
.LBB57:
	.loc 1 240 5 is_stmt 1
	.loc 1 240 18 is_stmt 0
	sub	s2,s3,s8
.LVL80:
	.loc 1 241 5 is_stmt 1
	.loc 1 244 5
.LBB55:
.LBB53:
	.loc 1 55 2
	.loc 1 56 2
.LBB51:
.LBB49:
	.loc 1 57 17
	mv	a4,s5
.LVL81:
.L50:
	.loc 1 58 4
	.loc 1 58 8 is_stmt 0
	lbu	a5,0(a4)
	addi	a5,a5,1
	andi	a5,a5,0xff
	.loc 1 58 7
	sb	a5,0(a4)
	bne	a5,zero,.L49
.LVL82:
	.loc 1 57 17 is_stmt 1
	.loc 1 57 3 is_stmt 0
	addi	a5,a4,-1
	bne	s1,a4,.L57
.LVL83:
.L49:
.LBE49:
.LBE51:
.LBE53:
.LBE55:
	.loc 1 247 5 is_stmt 1
	.loc 1 247 11 is_stmt 0
	mv	a2,s6
	mv	a1,s1
	addi	a0,s0,-96
	call	tc_aes_encrypt
.LVL84:
	.loc 1 250 5 is_stmt 1
	bleu	s2,s7,.L51
	li	s2,16
.LVL85:
.L51:
	.loc 1 253 5
	add	a0,s4,s8
	mv	a2,s2
	addi	a1,s0,-96
	call	memcpy
.LVL86:
	.loc 1 255 5
	.loc 1 255 9 is_stmt 0
	add	s8,s8,s2
.LVL87:
	j	.L48
.LVL88:
.L57:
.LBB56:
.LBB54:
.LBB52:
.LBB50:
	mv	a4,a5
.LVL89:
	j	.L50
.LVL90:
.L53:
	.cfi_def_cfa_register 2
	.cfi_restore 1
	.cfi_restore 8
	.cfi_restore 9
	.cfi_restore 18
	.cfi_restore 19
	.cfi_restore 20
	.cfi_restore 21
	.cfi_restore 22
	.cfi_restore 23
	.cfi_restore 24
.LBE50:
.LBE52:
.LBE54:
.LBE56:
.LBE57:
.LBE58:
	.loc 1 217 15
	li	a0,0
.LVL91:
	.loc 1 269 2 is_stmt 1
	.loc 1 270 1 is_stmt 0
	ret
.LVL92:
.L56:
	.cfi_def_cfa_register 8
	.cfi_offset 1, -4
	.cfi_offset 8, -8
	.cfi_offset 9, -12
	.cfi_offset 18, -16
	.cfi_offset 19, -20
	.cfi_offset 20, -24
	.cfi_offset 21, -28
	.cfi_offset 22, -32
	.cfi_offset 23, -36
	.cfi_offset 24, -40
	.loc 1 222 11
	li	a0,-1
	j	.L44
	.cfi_endproc
.LFE6:
	.size	tc_ctr_prng_generate, .-tc_ctr_prng_generate
	.section	.text.tc_ctr_prng_uninstantiate,"ax",@progbits
	.align	1
	.globl	tc_ctr_prng_uninstantiate
	.type	tc_ctr_prng_uninstantiate, @function
tc_ctr_prng_uninstantiate:
.LFB7:
	.loc 1 273 1 is_stmt 1
	.cfi_startproc
.LVL93:
	.loc 1 274 2
	.loc 1 274 5 is_stmt 0
	beq	a0,zero,.L72
	.loc 1 273 1
	addi	sp,sp,-16
	.cfi_def_cfa_offset 16
	sw	ra,12(sp)
	sw	s0,8(sp)
	sw	s1,4(sp)
	.cfi_offset 1, -4
	.cfi_offset 8, -8
	.cfi_offset 9, -12
	addi	s0,sp,16
	.cfi_def_cfa 8, 0
	mv	s1,a0
	.loc 1 275 3 is_stmt 1
	li	a2,176
	li	a1,0
	addi	a0,a0,16
.LVL94:
	call	memset
.LVL95:
	.loc 1 276 3
	mv	a0,s1
	li	a2,16
	li	a1,0
	call	memset
.LVL96:
	.loc 1 277 3
	.loc 1 277 20 is_stmt 0
	li	a5,0
	li	a6,0
	sw	a5,192(s1)
	sw	a6,196(s1)
	.loc 1 279 1
	lw	ra,12(sp)
	.cfi_restore 1
	lw	s0,8(sp)
	.cfi_restore 8
	.cfi_def_cfa 2, 16
	lw	s1,4(sp)
	.cfi_restore 9
.LVL97:
	addi	sp,sp,16
	.cfi_def_cfa_offset 0
	jr	ra
.LVL98:
.L72:
	ret
	.cfi_endproc
.LFE7:
	.size	tc_ctr_prng_uninstantiate, .-tc_ctr_prng_uninstantiate
	.text
.Letext0:
	.file 2 "/home/dinhquangha/intern/Ai-Thinker-WB2/toolchain/riscv/Linux/lib/gcc/riscv64-unknown-elf/10.2.0/include/stdint-gcc.h"
	.file 3 "/home/dinhquangha/intern/Ai-Thinker-WB2/components/network/ble/blestack/src/common/tinycrypt/include/tinycrypt/ctr_prng.h"
	.file 4 "/home/dinhquangha/intern/Ai-Thinker-WB2/components/network/ble/blestack/src/common/tinycrypt/include/tinycrypt/aes.h"
	.file 5 "/home/dinhquangha/intern/Ai-Thinker-WB2/toolchain/riscv/Linux/riscv64-unknown-elf/include/string.h"
	.file 6 "<built-in>"