	.file	"ctr_mode.c"
	.option nopic
	.attribute arch, "rv32i2p0_m2p0_f2p0_c2p0"
	.attribute unaligned_access, 0
	.attribute stack_align, 16
	.text
.Ltext0:
	.cfi_sections	.debug_frame
	.section	.text.tc_ctr_mode,"ax",@progbits
	.align	1
	.globl	tc_ctr_mode
	.type	tc_ctr_mode, @function
tc_ctr_mode:
.LFB2:
	.file 1 "/home/dinhquangha/Ai-Thinker-WB2/components/network/ble/blestack/src/common/tinycrypt/source/ctr_mode.c"
	.loc 1 39 1
	.cfi_startproc
.LVL0:
	.loc 1 41 2
	.loc 1 42 2
	.loc 1 43 2
	.loc 1 44 2
	.loc 1 47 2
	.loc 1 47 5 is_stmt 0
	bne	a0,zero,.L2
	.loc 1 54 10
	li	a0,0
.LVL1:
	.loc 1 85 1
	ret
.LVL2:
.L4:
	.cfi_def_cfa_register 8
	.cfi_offset 1, -4
	.cfi_offset 8, -8
	.cfi_offset 9, -12
	.cfi_offset 18, -16
	.cfi_offset 19, -20
	.cfi_offset 20, -24
	.cfi_offset 21, -28
	.cfi_offset 22, -32
	.cfi_offset 23, -36
	.cfi_offset 24, -40
	.loc 1 54 10
	li	a0,0
.L1:
	.loc 1 85 1
	lw	ra,76(sp)
	.cfi_restore 1
	lw	s0,72(sp)
	.cfi_restore 8
	.cfi_def_cfa 2, 80
	lw	s1,68(sp)
	.cfi_restore 9
	lw	s2,64(sp)
	.cfi_restore 18
	lw	s3,60(sp)
	.cfi_restore 19
	lw	s4,56(sp)
	.cfi_restore 20
	lw	s5,52(sp)
	.cfi_restore 21
	lw	s6,48(sp)
	.cfi_restore 22
	lw	s7,44(sp)
	.cfi_restore 23
	lw	s8,40(sp)
	.cfi_restore 24
	addi	sp,sp,80
	.cfi_def_cfa_offset 0
	jr	ra
.LVL3:
.L2:
	.loc 1 39 1 discriminator 1
	addi	sp,sp,-80
	.cfi_def_cfa_offset 80
	sw	s0,72(sp)
	sw	s5,52(sp)
	sw	ra,76(sp)
	sw	s1,68(sp)
	sw	s2,64(sp)
	sw	s3,60(sp)
	sw	s4,56(sp)
	sw	s6,48(sp)
	sw	s7,44(sp)
	sw	s8,40(sp)
	.cfi_offset 8, -8
	.cfi_offset 21, -28
	.cfi_offset 1, -4
	.cfi_offset 9, -12
	.cfi_offset 18, -16
	.cfi_offset 19, -20
	.cfi_offset 20, -24
	.cfi_offset 22, -32
	.cfi_offset 23, -36
	.cfi_offset 24, -40
	addi	s0,sp,80
	.cfi_def_cfa 8, 0
	mv	s5,a2
	.loc 1 47 27 discriminator 1
	beq	a2,zero,.L4
	mv	s2,a4
	.loc 1 48 26
	beq	a4,zero,.L4
	mv	s7,a5
	.loc 1 49 27
	beq	a5,zero,.L4
	mv	s4,a3
	.loc 1 50 35
	beq	a3,zero,.L4
	.loc 1 51 17
	beq	a1,zero,.L4
	.loc 1 52 18
	bne	a3,a1,.L4
	mv	s6,a0
	.loc 1 58 2 is_stmt 1
	.loc 1 58 8 is_stmt 0
	li	a3,16
.LVL4:
	mv	a2,a4
.LVL5:
	li	a1,16
.LVL6:
	addi	a0,s0,-64
.LVL7:
	call	_copy
.LVL8:
	.loc 1 61 2 is_stmt 1
	.loc 1 61 40 is_stmt 0
	lbu	a5,-51(s0)
	.loc 1 61 20
	lbu	s1,-52(s0)
	.loc 1 63 9
	li	s3,0
	.loc 1 61 45
	slli	a5,a5,16
	.loc 1 61 25
	slli	s1,s1,24
	.loc 1 61 32
	or	s1,s1,a5
	.loc 1 62 32
	lbu	a5,-49(s0)
	.loc 1 62 24
	or	s1,s1,a5
	.loc 1 62 13
	lbu	a5,-50(s0)
	.loc 1 62 18
	slli	a5,a5,8
	.loc 1 62 24
	or	s1,s1,a5
.LVL9:
	.loc 1 63 2 is_stmt 1
	.loc 1 63 14
.L6:
	.loc 1 64 3
	.loc 1 64 10 is_stmt 0
	andi	s8,s3,15
	.loc 1 64 6
	bne	s8,zero,.L5
	.loc 1 66 4 is_stmt 1
	.loc 1 66 8 is_stmt 0
	mv	a2,s7
	addi	a1,s0,-64
	addi	a0,s0,-80
	call	tc_aes_encrypt
.LVL10:
	.loc 1 66 7
	beq	a0,zero,.L4
	.loc 1 67 5 is_stmt 1
	.loc 1 67 14 is_stmt 0
	addi	s1,s1,1
.LVL11:
	.loc 1 68 5 is_stmt 1
	.loc 1 68 37 is_stmt 0
	srli	a5,s1,24
	.loc 1 70 15
	slli	a4,s1,16
	.loc 1 68 17
	sb	a5,-52(s0)
	.loc 1 69 5 is_stmt 1
	.loc 1 70 15 is_stmt 0
	srli	a4,a4,16
	.loc 1 69 37
	srli	a5,s1,16
	.loc 1 69 17
	sb	a5,-51(s0)
	.loc 1 70 5 is_stmt 1
	.loc 1 71 5
	.loc 1 70 15 is_stmt 0
	srli	a4,a4,8
	slli	a5,s1,8
	or	a5,a5,a4
	sh	a5,-50(s0)
.L5:
	.loc 1 77 3 is_stmt 1 discriminator 2
.LVL12:
	.loc 1 77 18 is_stmt 0 discriminator 2
	addi	a3,s0,-48
	.loc 1 77 36 discriminator 2
	add	a5,s5,s3
	.loc 1 77 18 discriminator 2
	add	s8,a3,s8
	.loc 1 77 10 discriminator 2
	lbu	a5,0(a5)
	lbu	a3,-32(s8)
	add	a4,s6,s3
	.loc 1 63 25 discriminator 2
	addi	s3,s3,1
.LVL13:
	.loc 1 77 10 discriminator 2
	xor	a5,a5,a3
	sb	a5,0(a4)
	.loc 1 63 25 is_stmt 1 discriminator 2
.LVL14:
	.loc 1 63 14 discriminator 2
	.loc 1 63 2 is_stmt 0 discriminator 2
	bne	s4,s3,.L6
	.loc 1 81 2 is_stmt 1
	.loc 1 81 10 is_stmt 0
	lbu	a5,-52(s0)
	.loc 1 84 9
	li	a0,1
	.loc 1 81 10
	sb	a5,12(s2)
	.loc 1 81 23 is_stmt 1
	.loc 1 81 31 is_stmt 0
	lbu	a5,-51(s0)
	sb	a5,13(s2)
	.loc 1 82 2 is_stmt 1
	.loc 1 82 10 is_stmt 0
	lbu	a5,-50(s0)
	sb	a5,14(s2)
	.loc 1 82 23 is_stmt 1
	.loc 1 82 31 is_stmt 0
	lbu	a5,-49(s0)
	sb	a5,15(s2)
	.loc 1 84 2 is_stmt 1
	.loc 1 84 9 is_stmt 0
	j	.L1
	.cfi_endproc
.LFE2:
	.size	tc_ctr_mode, .-tc_ctr_mode
	.text
.Letext0:
	.file 2 "/home/dinhquangha/Ai-Thinker-WB2/toolchain/riscv/Linux/lib/gcc/riscv64-unknown-elf/10.2.0/include/stdint-gcc.h"
	.file 3 "/home/dinhquangha/Ai-Thinker-WB2/components/network/ble/blestack/src/common/tinycrypt/include/tinycrypt/aes.h"
	.file 4 "/home/dinhquangha/Ai-Thinker-WB2/components/network/ble/blestack/src/common/tinycrypt/include/tinycrypt/utils.h"