	.file	"ecc_dh.c"
	.option nopic
	.attribute arch, "rv32i2p0_m2p0_f2p0_c2p0"
	.attribute unaligned_access, 0
	.attribute stack_align, 16
	.text
.Ltext0:
	.cfi_sections	.debug_frame
	.section	.text.uECC_make_key_with_d,"ax",@progbits
	.align	1
	.globl	uECC_make_key_with_d
	.type	uECC_make_key_with_d, @function
uECC_make_key_with_d:
.LFB2:
	.file 1 "/home/dinhquangha/intern/Ai-Thinker-WB2/components/network/ble/blestack/src/common/tinycrypt/source/ecc_dh.c"
	.loc 1 76 1
	.cfi_startproc
.LVL0:
	.loc 1 78 2
	.loc 1 79 2
	.loc 1 84 2
	.loc 1 76 1 is_stmt 0
	addi	sp,sp,-128
	.cfi_def_cfa_offset 128
	sw	s0,120(sp)
	.cfi_offset 8, -8
	addi	s0,sp,128
	.cfi_def_cfa 8, 0
	sw	s1,116(sp)
	sw	s2,112(sp)
	sw	s3,108(sp)
	sw	s4,104(sp)
	sw	ra,124(sp)
	.cfi_offset 9, -12
	.cfi_offset 18, -16
	.cfi_offset 19, -20
	.cfi_offset 20, -24
	.cfi_offset 1, -4
	.loc 1 84 2
	addi	s2,s0,-128
	.loc 1 76 1
	.loc 1 76 1
	mv	s3,a0
	mv	s4,a1
	.loc 1 84 2
	mv	a0,s2
.LVL1:
	.loc 1 76 1
	mv	a1,a2
.LVL2:
	.loc 1 84 2
	li	a2,32
.LVL3:
	.loc 1 76 1
	mv	s1,a3
	.loc 1 84 2
	call	memcpy
.LVL4:
	.loc 1 87 2 is_stmt 1
	.loc 1 87 6 is_stmt 0
	mv	a2,s1
	mv	a1,s2
	addi	a0,s0,-96
	call	EccPoint_compute_public_key
.LVL5:
	.loc 1 87 5
	beq	a0,zero,.L3
	.loc 1 90 3 is_stmt 1
	.loc 1 91 19 is_stmt 0
	lh	a5,2(s1)
	.loc 1 90 3
	li	a1,8
	mv	a2,s2
	.loc 1 91 32
	addi	a5,a5,7
	.loc 1 90 3
	div	a1,a5,a1
	mv	a0,s4
	call	uECC_vli_nativeToBytes
.LVL6:
	.loc 1 93 3 is_stmt 1
	lb	a1,1(s1)
	addi	a2,s0,-96
	mv	a0,s3
	call	uECC_vli_nativeToBytes
.LVL7:
	.loc 1 96 3
	.loc 1 98 27 is_stmt 0
	lb	a2,0(s1)
	.loc 1 96 44
	lb	a1,1(s1)
	.loc 1 96 3
	addi	a5,s0,-96
	.loc 1 98 20
	slli	a2,a2,2
	.loc 1 96 3
	add	a2,a5,a2
	add	a0,s3,a1
	call	uECC_vli_nativeToBytes
.LVL8:
	.loc 1 101 3 is_stmt 1
.LBB4:
.LBB5:
	.file 2 "/home/dinhquangha/intern/Ai-Thinker-WB2/components/network/ble/blestack/src/common/tinycrypt/include/tinycrypt/utils.h"
	.loc 2 91 3
	.loc 2 91 10 is_stmt 0
	li	a2,32
	li	a1,0
	mv	a0,s2
	call	memset
.LVL9:
	.loc 2 93 3 is_stmt 1
.LBE5:
.LBE4:
	.loc 1 103 10 is_stmt 0
	li	a0,1
.LVL10:
.L1:
	.loc 1 106 1
	lw	ra,124(sp)
	.cfi_remember_state
	.cfi_restore 1
	lw	s0,120(sp)
	.cfi_restore 8
	.cfi_def_cfa 2, 128
	lw	s1,116(sp)
	.cfi_restore 9
.LVL11:
	lw	s2,112(sp)
	.cfi_restore 18
	lw	s3,108(sp)
	.cfi_restore 19
.LVL12:
	lw	s4,104(sp)
	.cfi_restore 20
.LVL13:
	addi	sp,sp,128
	.cfi_def_cfa_offset 0
	jr	ra
.LVL14:
.L3:
	.cfi_restore_state
	.loc 1 105 9
	li	a0,0
	j	.L1
	.cfi_endproc
.LFE2:
	.size	uECC_make_key_with_d, .-uECC_make_key_with_d
	.section	.text.uECC_make_key,"ax",@progbits
	.align	1
	.globl	uECC_make_key
	.type	uECC_make_key, @function
uECC_make_key:
.LFB3:
	.loc 1 109 1 is_stmt 1
	.cfi_startproc
.LVL15:
	.loc 1 111 2
	.loc 1 112 2
	.loc 1 113 2
	.loc 1 114 2
	.loc 1 116 2
	.loc 1 116 18
	.loc 1 109 1 is_stmt 0
	addi	sp,sp,-208
	.cfi_def_cfa_offset 208
	sw	s0,200(sp)
	sw	s1,196(sp)
	sw	s2,192(sp)
	sw	s3,188(sp)
	sw	s4,184(sp)
	sw	s5,180(sp)
	sw	s6,176(sp)
	sw	s7,172(sp)
	.cfi_offset 8, -8
	.cfi_offset 9, -12
	.cfi_offset 18, -16
	.cfi_offset 19, -20
	.cfi_offset 20, -24
	.cfi_offset 21, -28
	.cfi_offset 22, -32
	.cfi_offset 23, -36
	addi	s0,sp,208
	.cfi_def_cfa 8, 0
	sw	ra,204(sp)
	.cfi_offset 1, -4
	.loc 1 109 1
	mv	s3,a0
	mv	s5,a1
	mv	s1,a2
	li	s4,64
.LBB9:
	.loc 1 125 83
	li	s6,32
	.loc 1 125 41
	addi	s7,a2,36
	.loc 1 125 3
	addi	s2,s0,-208
.LVL16:
.L9:
	.loc 1 118 3 is_stmt 1
	.loc 1 118 36 is_stmt 0
	call	uECC_get_rng
.LVL17:
	mv	a5,a0
.LVL18:
	.loc 1 119 3 is_stmt 1
	.loc 1 119 6 is_stmt 0
	beq	a0,zero,.L6
	.loc 1 120 5 discriminator 1
	li	a1,64
	addi	a0,s0,-176
.LVL19:
	jalr	a5
.LVL20:
	.loc 1 119 21 discriminator 1
	beq	a0,zero,.L6
	.loc 1 125 3 is_stmt 1
	.loc 1 125 53 is_stmt 0
	lh	a3,2(s1)
	.loc 1 125 3
	mv	a2,s7
	addi	a1,s0,-176
	.loc 1 125 66
	addi	a3,a3,31
	.loc 1 125 83
	div	a3,a3,s6
	.loc 1 125 3
	mv	a0,s2
	slli	a3,a3,24
	srai	a3,a3,24
	call	uECC_vli_mmod
.LVL21:
	.loc 1 128 3 is_stmt 1
	.loc 1 128 7 is_stmt 0
	mv	a2,s1
	mv	a1,s2
	addi	a0,s0,-112
	call	EccPoint_compute_public_key
.LVL22:
	.loc 1 128 6
	beq	a0,zero,.L7
	.loc 1 131 4 is_stmt 1
	.loc 1 132 20 is_stmt 0
	lh	a5,2(s1)
	.loc 1 131 4
	li	a1,8
	mv	a2,s2
	.loc 1 132 33
	addi	a5,a5,7
	.loc 1 131 4
	div	a1,a5,a1
	mv	a0,s5
	call	uECC_vli_nativeToBytes
.LVL23:
	.loc 1 134 4 is_stmt 1
	lb	a1,1(s1)
	addi	a2,s0,-112
	mv	a0,s3
	call	uECC_vli_nativeToBytes
.LVL24:
	.loc 1 137 4
	.loc 1 139 28 is_stmt 0
	lb	a2,0(s1)
	.loc 1 137 45
	lb	a1,1(s1)
	.loc 1 137 4
	addi	a5,s0,-112
	.loc 1 139 21
	slli	a2,a2,2
	.loc 1 137 4
	add	a2,a5,a2
	add	a0,s3,a1
	call	uECC_vli_nativeToBytes
.LVL25:
	.loc 1 142 4 is_stmt 1
.LBB10:
.LBB11:
	.loc 2 91 3
	.loc 2 91 10 is_stmt 0
	li	a2,32
	li	a1,0
	mv	a0,s2
	call	memset
.LVL26:
	.loc 2 93 3 is_stmt 1
.LBE11:
.LBE10:
	.loc 1 144 17 is_stmt 0
	li	a0,1
.LVL27:
.L5:
.LBE9:
	.loc 1 148 1
	lw	ra,204(sp)
	.cfi_remember_state
	.cfi_restore 1
	lw	s0,200(sp)
	.cfi_restore 8
	.cfi_def_cfa 2, 208
	lw	s1,196(sp)
	.cfi_restore 9
.LVL28:
	lw	s2,192(sp)
	.cfi_restore 18
	lw	s3,188(sp)
	.cfi_restore 19
.LVL29:
	lw	s4,184(sp)
	.cfi_restore 20
	lw	s5,180(sp)
	.cfi_restore 21
.LVL30:
	lw	s6,176(sp)
	.cfi_restore 22
	lw	s7,172(sp)
	.cfi_restore 23
.LVL31:
	addi	sp,sp,208
	.cfi_def_cfa_offset 0
	jr	ra
.LVL32:
.L7:
	.cfi_restore_state
	.loc 1 116 30 is_stmt 1 discriminator 2
	.loc 1 116 18 discriminator 2
	.loc 1 116 2 is_stmt 0 discriminator 2
	addi	s4,s4,-1
.LVL33:
	bne	s4,zero,.L9
.LVL34:
.L6:
.LBB12:
	.loc 1 121 18
	li	a0,0
	j	.L5
.LBE12:
	.cfi_endproc
.LFE3:
	.size	uECC_make_key, .-uECC_make_key
	.section	.text.uECC_shared_secret,"ax",@progbits
	.align	1
	.globl	uECC_shared_secret
	.type	uECC_shared_secret, @function
uECC_shared_secret:
.LFB4:
	.loc 1 152 1 is_stmt 1
	.cfi_startproc
.LVL35:
	.loc 1 154 2
	.loc 1 155 2
	.loc 1 157 2
	.loc 1 158 2
	.loc 1 152 1 is_stmt 0
	addi	sp,sp,-192
	.cfi_def_cfa_offset 192
	sw	ra,188(sp)
	sw	s0,184(sp)
	sw	s1,180(sp)
	.cfi_offset 1, -4
	.cfi_offset 8, -8
	.cfi_offset 9, -12
	addi	s0,sp,192
	.cfi_def_cfa 8, 0
	sw	s2,176(sp)
	sw	s3,172(sp)
	sw	s5,164(sp)
	sw	s6,160(sp)
	sw	s4,168(sp)
	sw	s7,156(sp)
	.cfi_offset 18, -16
	.cfi_offset 19, -20
	.cfi_offset 21, -28
	.cfi_offset 22, -32
	.cfi_offset 20, -24
	.cfi_offset 23, -36
	.loc 1 168 18
	lh	a5,2(a3)
	.loc 1 152 1
	mv	s6,a2
	.loc 1 166 2
	li	a2,8
.LVL36:
	.loc 1 168 31
	addi	a5,a5,7
	.loc 1 166 2
	div	a2,a5,a2
	.loc 1 162 14
	lb	s4,1(a3)
	.loc 1 158 15
	addi	s2,s0,-176
	.loc 1 152 1
	mv	s5,a0
	.loc 1 158 15
	addi	s3,s0,-144
	.loc 1 166 2
	mv	a0,s2
.LVL37:
	.loc 1 152 1
	mv	s1,a3
	.loc 1 161 14
	lb	s7,0(a3)
	.loc 1 158 15
	sw	s2,-184(s0)
	sw	s3,-180(s0)
	.loc 1 159 2 is_stmt 1
.LVL38:
	.loc 1 160 2
	.loc 1 161 2
	.loc 1 162 2
	.loc 1 163 2
	.loc 1 166 2
	call	uECC_vli_bytesToNative
.LVL39:
	.loc 1 169 2
	mv	a2,s4
	mv	a1,s5
	addi	a0,s0,-112
	call	uECC_vli_bytesToNative
.LVL40:
	.loc 1 172 2
	addi	a5,s0,-112
	.loc 1 172 33 is_stmt 0
	slli	a0,s7,2
	.loc 1 172 2
	add	a1,s5,s4
	add	a0,a5,a0
	mv	a2,s4
	call	uECC_vli_bytesToNative
.LVL41:
	.loc 1 178 2 is_stmt 1
	.loc 1 178 10 is_stmt 0
	mv	a3,s1
	mv	a2,s3
	mv	a1,s2
	mv	a0,s2
	call	regularize_k
.LVL42:
	.loc 1 182 2 is_stmt 1
	.loc 1 190 2
	.loc 1 190 75 is_stmt 0
	lhu	a4,2(s1)
	.loc 1 190 37
	seqz	a1,a0
	.loc 1 190 36
	addi	a5,s0,-48
	slli	a1,a1,2
	add	a1,a5,a1
	.loc 1 190 2
	lw	a2,-136(a1)
	.loc 1 190 75
	addi	a4,a4,1
	.loc 1 190 2
	addi	a1,s0,-112
	slli	a4,a4,16
	mv	a5,s1
	srai	a4,a4,16
	li	a3,0
	mv	a0,a1
.LVL43:
	call	EccPoint_mult
.LVL44:
	.loc 1 193 2 is_stmt 1
	addi	a2,s0,-112
	mv	a1,s4
	mv	a0,s6
	call	uECC_vli_nativeToBytes
.LVL45:
	.loc 1 194 2
	.loc 1 194 7 is_stmt 0
	mv	a1,s1
	addi	a0,s0,-112
	call	EccPoint_isZero
.LVL46:
.LBB19:
.LBB20:
	.loc 2 91 10
	addi	s4,s0,-184
.LVL47:
.LBE20:
.LBE19:
	.loc 1 194 7
	mv	s1,a0
.LVL48:
.LDL1:
	.loc 1 198 2 is_stmt 1
.LBB22:
.LBB21:
	.loc 2 91 3
	.loc 2 91 10 is_stmt 0
	li	a2,8
	li	a1,0
	mv	a0,s4
	call	memset
.LVL49:
	.loc 2 93 3 is_stmt 1
.LVL50:
.LBE21:
.LBE22:
	.loc 1 199 2
.LBB23:
.LBB24:
	.loc 2 91 3
	.loc 2 91 10 is_stmt 0
	li	a2,32
	li	a1,0
	mv	a0,s3
	call	memset
.LVL51:
	.loc 2 93 3 is_stmt 1
.LVL52:
.LBE24:
.LBE23:
	.loc 1 200 2
.LBB25:
.LBB26:
	.loc 2 91 3
	.loc 2 91 10 is_stmt 0
	li	a2,32
	li	a1,0
	mv	a0,s2
	call	memset
.LVL53:
	.loc 2 93 3 is_stmt 1
.LVL54:
.LBE26:
.LBE25:
	.loc 1 202 2
	.loc 1 203 1 is_stmt 0
	lw	ra,188(sp)
	.cfi_restore 1
	lw	s0,184(sp)
	.cfi_restore 8
	.cfi_def_cfa 2, 192
	lw	s2,176(sp)
	.cfi_restore 18
	lw	s3,172(sp)
	.cfi_restore 19
	lw	s4,168(sp)
	.cfi_restore 20
	lw	s5,164(sp)
	.cfi_restore 21
.LVL55:
	lw	s6,160(sp)
	.cfi_restore 22
.LVL56:
	lw	s7,156(sp)
	.cfi_restore 23
.LVL57:
	seqz	a0,s1
	lw	s1,180(sp)
	.cfi_restore 9
.LVL58:
	addi	sp,sp,192
	.cfi_def_cfa_offset 0
	jr	ra
	.cfi_endproc
.LFE4:
	.size	uECC_shared_secret, .-uECC_shared_secret
	.text
.Letext0:
	.file 3 "/home/dinhquangha/intern/Ai-Thinker-WB2/toolchain/riscv/Linux/lib/gcc/riscv64-unknown-elf/10.2.0/include/stdint-gcc.h"
	.file 4 "/home/dinhquangha/intern/Ai-Thinker-WB2/components/network/ble/blestack/src/common/tinycrypt/include/tinycrypt/ecc.h"
	.file 5 "/home/dinhquangha/intern/Ai-Thinker-WB2/toolchain/riscv/Linux/riscv64-unknown-elf/include/string.h"