	.file	"sha256.c"
	.option nopic
	.attribute arch, "rv32i2p0_m2p0_f2p0_c2p0"
	.attribute unaligned_access, 0
	.attribute stack_align, 16
	.text
.Ltext0:
	.cfi_sections	.debug_frame
	.section	.text.compress,"ax",@progbits
	.align	1
	.type	compress, @function
compress:
.LFB7:
	.file 1 "/home/quanghaictu/intern/Ai-Thinker-WB2/components/network/ble/blestack/src/common/tinycrypt/source/sha256.c"
	.loc 1 182 1
	.cfi_startproc
.LVL0:
	.loc 1 183 2
	.loc 1 184 2
	.loc 1 185 2
	.loc 1 186 2
	.loc 1 187 2
	.loc 1 188 2
	.loc 1 190 2
	.loc 1 182 1 is_stmt 0
	addi	sp,sp,-112
	.cfi_def_cfa_offset 112
	sw	s0,108(sp)
	sw	s1,104(sp)
	sw	s2,100(sp)
	sw	s3,96(sp)
	sw	s4,92(sp)
	sw	s5,88(sp)
	sw	s6,84(sp)
	sw	s7,80(sp)
	sw	s8,76(sp)
	sw	s9,72(sp)
	sw	s10,68(sp)
	sw	s11,64(sp)
	.cfi_offset 8, -4
	.cfi_offset 9, -8
	.cfi_offset 18, -12
	.cfi_offset 19, -16
	.cfi_offset 20, -20
	.cfi_offset 21, -24
	.cfi_offset 22, -28
	.cfi_offset 23, -32
	.cfi_offset 24, -36
	.cfi_offset 25, -40
	.cfi_offset 26, -44
	.cfi_offset 27, -48
	addi	s0,sp,112
	.cfi_def_cfa 8, 0
	.loc 1 190 4
	lw	s9,0(a0)
.LVL1:
	.loc 1 190 13 is_stmt 1
	.loc 1 190 15 is_stmt 0
	lw	s8,4(a0)
.LVL2:
	.loc 1 190 24 is_stmt 1
	.loc 1 190 26 is_stmt 0
	lw	s7,8(a0)
.LVL3:
	.loc 1 190 35 is_stmt 1
	.loc 1 190 37 is_stmt 0
	lw	s6,12(a0)
.LVL4:
	.loc 1 191 2 is_stmt 1
	.loc 1 191 4 is_stmt 0
	lw	s5,16(a0)
.LVL5:
	.loc 1 191 13 is_stmt 1
	.loc 1 191 15 is_stmt 0
	lw	s4,20(a0)
.LVL6:
	.loc 1 191 24 is_stmt 1
	.loc 1 191 26 is_stmt 0
	lw	s3,24(a0)
.LVL7:
	.loc 1 191 35 is_stmt 1
	.loc 1 191 37 is_stmt 0
	lw	s2,28(a0)
.LVL8:
	.loc 1 193 2 is_stmt 1
	.loc 1 193 14
	.loc 1 196 99 is_stmt 0
	lui	a7,%hi(.LANCHOR0)
	.loc 1 191 26
	mv	s1,s3
	.loc 1 191 37
	mv	t3,s2
	.loc 1 191 15
	mv	t1,s4
	.loc 1 191 4
	mv	a4,s5
	.loc 1 190 37
	mv	t5,s6
	.loc 1 190 26
	mv	t0,s7
	.loc 1 190 15
	mv	a6,s8
	.loc 1 190 4
	mv	a3,s9
	.loc 1 191 37
	li	t4,0
	.loc 1 196 99
	addi	a7,a7,%lo(.LANCHOR0)
	.loc 1 193 2
	li	t6,64
.LVL9:
.L2:
	.loc 1 194 3 is_stmt 1
.LBB68:
.LBB69:
	.loc 1 172 2
	.loc 1 174 2
	.loc 1 175 2
	.loc 1 174 8 is_stmt 0
	lbu	t2,0(a1)
	.loc 1 175 8
	lbu	a5,1(a1)
	.loc 1 176 8
	lbu	a2,2(a1)
	.loc 1 174 4
	slli	t2,t2,24
.LVL10:
	.loc 1 175 34
	slli	a5,a5,16
	.loc 1 177 8
	lbu	s10,3(a1)
	or	t2,t2,a5
.LVL11:
	.loc 1 176 2 is_stmt 1
	.loc 1 176 34 is_stmt 0
	slli	a2,a2,8
.LVL12:
	.loc 1 177 2 is_stmt 1
	.loc 1 177 4 is_stmt 0
	or	a5,a2,t2
.LVL13:
	or	t2,s10,a5
.LBE69:
.LBE68:
	.loc 1 195 22
	addi	a5,s0,-112
	add	a5,a5,t4
	sw	t2,0(a5)
.LBB71:
.LBB72:
	.loc 1 159 21
	slli	a2,a4,26
.LVL14:
	srli	a5,a4,6
	or	a5,a5,a2
.LBE72:
.LBE71:
.LBB74:
.LBB75:
	slli	s10,a4,21
	srli	a2,a4,11
	or	a2,a2,s10
.LBE75:
.LBE74:
	.loc 1 196 27
	xor	a2,a5,a2
.LBB77:
.LBB78:
	.loc 1 159 21
	srli	s10,a4,25
	slli	a5,a4,7
	or	a5,a5,s10
.LBE78:
.LBE77:
	.loc 1 196 43
	xor	a5,a2,a5
	.loc 1 196 79
	not	a2,a4
	.loc 1 196 85
	and	a2,a2,s1
	.loc 1 196 68
	and	s10,a4,t1
	.loc 1 196 75
	xor	a2,a2,s10
	.loc 1 196 6
	add	a5,a5,a2
	.loc 1 196 99
	add	a2,a7,t4
	.loc 1 196 6
	lw	a2,0(a2)
	.loc 1 193 2
	addi	t4,t4,4
	addi	a1,a1,4
.LVL15:
.LBB80:
.LBB70:
	.loc 1 178 2 is_stmt 1
.LBE70:
.LBE80:
	.loc 1 195 3
	.loc 1 196 3
.LBB81:
.LBB73:
	.loc 1 159 2
.LBE73:
.LBE81:
.LBB82:
.LBB76:
	.loc 1 159 2
.LBE76:
.LBE82:
.LBB83:
.LBB79:
	.loc 1 159 2
.LBE79:
.LBE83:
	.loc 1 196 6 is_stmt 0
	add	a5,a5,a2
	add	a5,a5,t2
	add	a5,a5,t3
.LVL16:
	.loc 1 197 3 is_stmt 1
.LBB84:
.LBB85:
	.loc 1 159 2
.LBE85:
.LBE84:
.LBB87:
.LBB88:
	.loc 1 159 2
.LBE88:
.LBE87:
.LBB90:
.LBB91:
	.loc 1 159 2
.LBE91:
.LBE90:
.LBB93:
.LBB86:
	.loc 1 159 21 is_stmt 0
	slli	a2,a3,30
	srli	t3,a3,2
.LVL17:
	or	t3,t3,a2
.LBE86:
.LBE93:
.LBB94:
.LBB89:
	slli	t2,a3,19
.LVL18:
	srli	a2,a3,13
	or	a2,a2,t2
.LBE89:
.LBE94:
	.loc 1 197 22
	xor	a2,t3,a2
.LBB95:
.LBB92:
	.loc 1 159 21
	srli	t2,a3,22
	slli	t3,a3,10
	or	t3,t3,t2
.LBE92:
.LBE95:
	.loc 1 197 38
	xor	t3,a2,t3
	.loc 1 197 70
	xor	a2,a6,t0
	and	a2,a2,a3
	.loc 1 197 91
	and	t2,a6,t0
	.loc 1 197 84
	xor	a2,a2,t2
	.loc 1 197 6
	add	t3,t3,a2
.LVL19:
	.loc 1 198 3 is_stmt 1
	.loc 1 198 10
	.loc 1 198 17
	.loc 1 198 24
	.loc 1 198 26 is_stmt 0
	add	a2,a5,t5
.LVL20:
	.loc 1 199 3 is_stmt 1
	.loc 1 199 10
	.loc 1 199 17
	.loc 1 199 24
	.loc 1 199 26 is_stmt 0
	add	a5,a5,t3
.LVL21:
	.loc 1 193 22 is_stmt 1
	.loc 1 193 14
	mv	t5,t0
	mv	t3,s1
.LVL22:
	.loc 1 193 2 is_stmt 0
	bne	t4,t6,.L4
	li	t2,16
.LVL23:
.L3:
	.loc 1 203 3 is_stmt 1 discriminator 2
	mv	a1,t2
	.loc 1 203 21 is_stmt 0 discriminator 2
	addi	t2,t2,1
.LVL24:
	.loc 1 203 24 discriminator 2
	andi	t3,t2,15
	.loc 1 203 6 discriminator 2
	addi	t4,s0,-48
	slli	t3,t3,2
	add	t3,t4,t3
	lw	t6,-64(t3)
.LVL25:
	.loc 1 204 3 is_stmt 1 discriminator 2
.LBB96:
.LBB97:
	.loc 1 159 2 discriminator 2
.LBE97:
.LBE96:
.LBB100:
.LBB101:
	.loc 1 159 2 discriminator 2
.LBE101:
.LBE100:
	.loc 1 202 2 is_stmt 0 discriminator 2
	addi	a7,a7,4
.LBB104:
.LBB98:
	.loc 1 159 21 discriminator 2
	slli	t3,t6,25
	srli	t5,t6,7
.LBE98:
.LBE104:
.LBB105:
.LBB102:
	srli	t4,t6,18
.LBE102:
.LBE105:
.LBB106:
.LBB99:
	or	t5,t5,t3
.LBE99:
.LBE106:
.LBB107:
.LBB103:
	slli	t3,t6,14
	or	t3,t3,t4
.LBE103:
.LBE107:
	.loc 1 204 23 discriminator 2
	xor	t5,t5,t3
	.loc 1 205 21 discriminator 2
	addi	t3,a1,14
	.loc 1 205 25 discriminator 2
	andi	t3,t3,15
	.loc 1 205 6 discriminator 2
	addi	t4,s0,-48
	slli	t3,t3,2
	add	t3,t4,t3
	lw	t4,-64(t3)
	.loc 1 204 48 discriminator 2
	srli	t6,t6,3
.LVL26:
	.loc 1 205 3 is_stmt 1 discriminator 2
	.loc 1 206 3 discriminator 2
.LBB108:
.LBB109:
	.loc 1 159 2 discriminator 2
.LBE109:
.LBE108:
.LBB112:
.LBB113:
	.loc 1 159 2 discriminator 2
.LBE113:
.LBE112:
	.loc 1 204 6 is_stmt 0 discriminator 2
	xor	t5,t5,t6
.LVL27:
.LBB116:
.LBB110:
	.loc 1 159 21 discriminator 2
	slli	s10,t4,15
	srli	t3,t4,17
.LBE110:
.LBE116:
.LBB117:
.LBB114:
	srli	s11,t4,19
.LBE114:
.LBE117:
.LBB118:
.LBB111:
	or	t3,s10,t3
.LBE111:
.LBE118:
.LBB119:
.LBB115:
	slli	s10,t4,13
	or	s10,s10,s11
.LBE115:
.LBE119:
	.loc 1 206 24 discriminator 2
	xor	t3,t3,s10
	.loc 1 208 26 discriminator 2
	andi	s10,a1,15
	.loc 1 208 52 discriminator 2
	addi	a1,a1,9
.LVL28:
	.loc 1 208 55 discriminator 2
	andi	a1,a1,15
.LVL29:
	.loc 1 208 49 discriminator 2
	addi	s11,s0,-48
	slli	a1,a1,2
	.loc 1 208 26 discriminator 2
	slli	s10,s10,2
	add	s10,s11,s10
	.loc 1 208 49 discriminator 2
	add	a1,s11,a1
	.loc 1 208 26 discriminator 2
	lw	s11,-64(a1)
	lw	a1,-64(s10)
	.loc 1 206 49 discriminator 2
	srli	t4,t4,10
.LVL30:
	.loc 1 208 3 is_stmt 1 discriminator 2
	.loc 1 206 6 is_stmt 0 discriminator 2
	xor	t4,t3,t4
.LVL31:
	.loc 1 208 26 discriminator 2
	add	a1,s11,a1
	add	a1,a1,t5
	add	t4,a1,t4
.LVL32:
	sw	t4,-64(s10)
.LVL33:
	.loc 1 209 3 is_stmt 1 discriminator 2
.LBB120:
.LBB121:
	.loc 1 159 2 discriminator 2
.LBE121:
.LBE120:
.LBB123:
.LBB124:
	.loc 1 159 2 discriminator 2
.LBE124:
.LBE123:
.LBB126:
.LBB127:
	.loc 1 159 2 discriminator 2
.LBE127:
.LBE126:
.LBB129:
.LBB122:
	.loc 1 159 21 is_stmt 0 discriminator 2
	srli	t3,a2,6
	slli	s10,a2,26
	or	t3,t3,s10
.LBE122:
.LBE129:
.LBB130:
.LBB125:
	slli	a1,a2,21
	srli	s10,a2,11
	or	s10,s10,a1
.LBE125:
.LBE130:
	.loc 1 209 27 discriminator 2
	xor	s10,t3,s10
.LBB131:
.LBB128:
	.loc 1 159 21 discriminator 2
	srli	a1,a2,25
	slli	t3,a2,7
	or	t3,t3,a1
.LBE128:
.LBE131:
	.loc 1 209 79 discriminator 2
	not	a1,a2
	.loc 1 209 85 discriminator 2
	and	a1,a1,t1
	.loc 1 209 68 discriminator 2
	and	t5,a2,a4
.LVL34:
	.loc 1 209 43 discriminator 2
	xor	t3,s10,t3
	.loc 1 209 75 discriminator 2
	xor	a1,a1,t5
	.loc 1 209 6 discriminator 2
	add	t3,t3,a1
	lw	a1,60(a7)
.LBB132:
.LBB133:
	.loc 1 159 21 discriminator 2
	srli	s10,a5,2
.LBE133:
.LBE132:
	.loc 1 209 6 discriminator 2
	add	t3,t3,a1
.LBB136:
.LBB134:
	.loc 1 159 21 discriminator 2
	slli	a1,a5,30
	or	s10,s10,a1
.LBE134:
.LBE136:
	.loc 1 209 6 discriminator 2
	add	t3,t3,t4
.LBB137:
.LBB138:
	.loc 1 159 21 discriminator 2
	srli	a1,a5,13
	slli	t4,a5,19
.LVL35:
	or	a1,a1,t4
.LBE138:
.LBE137:
	.loc 1 210 22 discriminator 2
	xor	a1,s10,a1
.LBB140:
.LBB141:
	.loc 1 159 21 discriminator 2
	srli	t4,a5,22
	slli	s10,a5,10
	or	s10,s10,t4
.LBE141:
.LBE140:
	.loc 1 210 38 discriminator 2
	xor	s10,a1,s10
	.loc 1 210 70 discriminator 2
	xor	a1,a3,a6
	and	a1,a1,a5
	.loc 1 210 91 discriminator 2
	and	t4,a3,a6
	.loc 1 210 84 discriminator 2
	xor	a1,a1,t4
	.loc 1 209 6 discriminator 2
	add	t3,t3,s1
.LVL36:
	.loc 1 210 3 is_stmt 1 discriminator 2
.LBB143:
.LBB135:
	.loc 1 159 2 discriminator 2
.LBE135:
.LBE143:
.LBB144:
.LBB139:
	.loc 1 159 2 discriminator 2
.LBE139:
.LBE144:
.LBB145:
.LBB142:
	.loc 1 159 2 discriminator 2
.LBE142:
.LBE145:
	.loc 1 210 6 is_stmt 0 discriminator 2
	add	s10,s10,a1
.LVL37:
	.loc 1 211 3 is_stmt 1 discriminator 2
	.loc 1 211 10 discriminator 2
	.loc 1 211 17 discriminator 2
	.loc 1 211 24 discriminator 2
	.loc 1 212 26 is_stmt 0 discriminator 2
	add	s10,t3,s10
.LVL38:
	.loc 1 211 26 discriminator 2
	add	a1,t3,t0
.LVL39:
	.loc 1 212 3 is_stmt 1 discriminator 2
	.loc 1 212 10 discriminator 2
	.loc 1 212 17 discriminator 2
	.loc 1 212 24 discriminator 2
	.loc 1 202 18 discriminator 2
	.loc 1 202 10 discriminator 2
	.loc 1 202 2 is_stmt 0 discriminator 2
	li	t3,64
.LVL40:
	mv	t0,a6
	mv	s1,t1
.LVL41:
	bne	t2,t3,.L5
.LVL42:
	.loc 1 215 2 is_stmt 1
	.loc 1 217 1 is_stmt 0
	lw	s0,108(sp)
	.cfi_remember_state
	.cfi_restore 8
	.cfi_def_cfa 2, 112
	.loc 1 215 8
	add	s10,s9,s10
.LVL43:
	.loc 1 215 20
	add	a5,s8,a5
.LVL44:
	.loc 1 215 32
	add	a3,s7,a3
.LVL45:
	.loc 1 215 44
	add	a6,s6,a6
	.loc 1 216 8
	add	s5,s5,a1
	.loc 1 216 20
	add	a2,s4,a2
.LVL46:
	.loc 1 216 32
	add	a4,s3,a4
.LVL47:
	.loc 1 216 44
	add	t1,s2,t1
.LVL48:
	.loc 1 215 8
	sw	s10,0(a0)
	.loc 1 215 14 is_stmt 1
	.loc 1 216 8 is_stmt 0
	sw	s5,16(a0)
	.loc 1 215 20
	sw	a5,4(a0)
	.loc 1 215 26 is_stmt 1
	.loc 1 215 32 is_stmt 0
	sw	a3,8(a0)
	.loc 1 215 38 is_stmt 1
	.loc 1 215 44 is_stmt 0
	sw	a6,12(a0)
	.loc 1 216 2 is_stmt 1
	.loc 1 216 14
	.loc 1 216 20 is_stmt 0
	sw	a2,20(a0)
	.loc 1 216 26 is_stmt 1
	.loc 1 216 32 is_stmt 0
	sw	a4,24(a0)
	.loc 1 216 38 is_stmt 1
	.loc 1 216 44 is_stmt 0
	sw	t1,28(a0)
	.loc 1 217 1
	lw	s1,104(sp)
	.cfi_restore 9
.LVL49:
	lw	s2,100(sp)
	.cfi_restore 18
	lw	s3,96(sp)
	.cfi_restore 19
	lw	s4,92(sp)
	.cfi_restore 20
	lw	s5,88(sp)
	.cfi_restore 21
	lw	s6,84(sp)
	.cfi_restore 22
	lw	s7,80(sp)
	.cfi_restore 23
	lw	s8,76(sp)
	.cfi_restore 24
	lw	s9,72(sp)
	.cfi_restore 25
	lw	s10,68(sp)
	.cfi_restore 26
	lw	s11,64(sp)
	.cfi_restore 27
	addi	sp,sp,112
	.cfi_def_cfa_offset 0
	jr	ra
.LVL50:
.L4:
	.cfi_restore_state
	mv	s1,t1
.LVL51:
	mv	t0,a6
.LVL52:
	mv	t1,a4
.LVL53:
	mv	a6,a3
.LVL54:
	.loc 1 198 26
	mv	a4,a2
.LVL55:
	.loc 1 199 26
	mv	a3,a5
.LVL56:
	j	.L2
.LVL57:
.L5:
	mv	t1,a4
.LVL58:
	mv	a6,a3
	mv	a4,a2
.LVL59:
	mv	a3,a5
.LVL60:
	.loc 1 211 26
	mv	a2,a1
.LVL61:
	.loc 1 212 26
	mv	a5,s10
.LVL62:
	j	.L3
	.cfi_endproc
.LFE7:
	.size	compress, .-compress
	.section	.text.tc_sha256_init,"ax",@progbits
	.align	1
	.globl	tc_sha256_init
	.type	tc_sha256_init, @function
tc_sha256_init:
.LFB2:
	.loc 1 40 1 is_stmt 1
	.cfi_startproc
.LVL63:
	.loc 1 42 2
	.loc 1 42 5 is_stmt 0
	beq	a0,zero,.L9
	.loc 1 40 1
	addi	sp,sp,-16
	.cfi_def_cfa_offset 16
	sw	s0,8(sp)
	sw	s1,4(sp)
	sw	ra,12(sp)
	.cfi_offset 8, -8
	.cfi_offset 9, -12
	.cfi_offset 1, -4
	addi	s0,sp,16
	.cfi_def_cfa 8, 0
	.loc 1 52 2
	li	a2,112
	li	a1,0
	mv	s1,a0
	.loc 1 52 2 is_stmt 1
	call	_set
.LVL64:
	.loc 1 53 2
	.loc 1 53 11 is_stmt 0
	li	a5,1779032064
	addi	a5,a5,1639
	sw	a5,0(s1)
	.loc 1 54 2 is_stmt 1
	.loc 1 54 11 is_stmt 0
	li	a5,-1150832640
	addi	a5,a5,-379
	sw	a5,4(s1)
	.loc 1 55 2 is_stmt 1
	.loc 1 55 11 is_stmt 0
	li	a5,1013903360
	addi	a5,a5,882
	sw	a5,8(s1)
	.loc 1 56 2 is_stmt 1
	.loc 1 56 11 is_stmt 0
	li	a5,-1521487872
	addi	a5,a5,1338
	sw	a5,12(s1)
	.loc 1 57 2 is_stmt 1
	.loc 1 57 11 is_stmt 0
	li	a5,1359892480
	addi	a5,a5,639
	sw	a5,16(s1)
	.loc 1 58 2 is_stmt 1
	.loc 1 58 11 is_stmt 0
	li	a5,-1694142464
	addi	a5,a5,-1908
	sw	a5,20(s1)
	.loc 1 59 2 is_stmt 1
	.loc 1 59 11 is_stmt 0
	li	a5,528736256
	addi	a5,a5,-1621
	sw	a5,24(s1)
	.loc 1 60 2 is_stmt 1
	.loc 1 60 11 is_stmt 0
	li	a5,1541459968
	addi	a5,a5,-743
	sw	a5,28(s1)
	.loc 1 62 2 is_stmt 1
	.loc 1 63 1 is_stmt 0
	lw	ra,12(sp)
	.cfi_restore 1
	lw	s0,8(sp)
	.cfi_restore 8
	.cfi_def_cfa 2, 16
	lw	s1,4(sp)
	.cfi_restore 9
.LVL65:
	.loc 1 62 9
	li	a0,1
	.loc 1 63 1
	addi	sp,sp,16
	.cfi_def_cfa_offset 0
	jr	ra
.LVL66:
.L9:
	.loc 1 43 10
	li	a0,0
.LVL67:
	.loc 1 63 1
	ret
	.cfi_endproc
.LFE2:
	.size	tc_sha256_init, .-tc_sha256_init
	.section	.text.tc_sha256_update,"ax",@progbits
	.align	1
	.globl	tc_sha256_update
	.type	tc_sha256_update, @function
tc_sha256_update:
.LFB3:
	.loc 1 66 1 is_stmt 1
	.cfi_startproc
.LVL68:
	.loc 1 68 2
	.loc 1 68 5 is_stmt 0
	beq	a0,zero,.L21
	.loc 1 66 1 discriminator 1
	addi	sp,sp,-32
	.cfi_def_cfa_offset 32
	sw	s0,24(sp)
	sw	s1,20(sp)
	sw	s2,16(sp)
	sw	ra,28(sp)
	sw	s3,12(sp)
	sw	s4,8(sp)
	sw	s5,4(sp)
	.cfi_offset 8, -8
	.cfi_offset 9, -12
	.cfi_offset 18, -16
	.cfi_offset 1, -4
	.cfi_offset 19, -20
	.cfi_offset 20, -24
	.cfi_offset 21, -28
	addi	s0,sp,32
	.cfi_def_cfa 8, 0
	mv	s1,a0
	mv	s2,a1
	.loc 1 70 10 discriminator 1
	li	a0,0
.LVL69:
	.loc 1 68 31 discriminator 1
	beq	a1,zero,.L14
	.loc 1 71 9 is_stmt 1
	add	s3,a1,a2
	.loc 1 71 12 is_stmt 0
	beq	a2,zero,.L20
	.loc 1 77 6
	li	s4,63
	.loc 1 78 21
	addi	s5,s1,40
.LVL70:
.L17:
	.loc 1 75 8 is_stmt 1
	bne	s3,s2,.L19
.LVL71:
.L20:
	.loc 1 72 10 is_stmt 0
	li	a0,1
.L14:
	.loc 1 85 1
	lw	ra,28(sp)
	.cfi_remember_state
	.cfi_restore 1
	lw	s0,24(sp)
	.cfi_restore 8
	.cfi_def_cfa 2, 32
	lw	s1,20(sp)
	.cfi_restore 9
.LVL72:
	lw	s2,16(sp)
	.cfi_restore 18
.LVL73:
	lw	s3,12(sp)
	.cfi_restore 19
	lw	s4,8(sp)
	.cfi_restore 20
	lw	s5,4(sp)
	.cfi_restore 21
	addi	sp,sp,32
	.cfi_def_cfa_offset 0
	jr	ra
.LVL74:
.L19:
	.cfi_restore_state
	.loc 1 76 3 is_stmt 1
	.loc 1 76 16 is_stmt 0
	lw	a5,104(s1)
	.loc 1 76 45
	addi	s2,s2,1
.LVL75:
	.loc 1 76 33
	addi	a4,a5,1
	sw	a4,104(s1)
	.loc 1 76 39
	lbu	a3,-1(s2)
	.loc 1 76 37
	add	a5,s1,a5
	sb	a3,40(a5)
	.loc 1 77 3 is_stmt 1
	.loc 1 77 6 is_stmt 0
	bleu	a4,s4,.L17
	.loc 1 78 4 is_stmt 1
	mv	a1,s5
	mv	a0,s1
	call	compress
.LVL76:
	.loc 1 79 4
	.loc 1 80 19 is_stmt 0
	lw	a5,32(s1)
	lw	a3,36(s1)
	.loc 1 79 23
	sw	zero,104(s1)
	.loc 1 80 4 is_stmt 1
	.loc 1 80 19 is_stmt 0
	addi	a4,a5,512
	sltu	a5,a4,a5
	add	a5,a5,a3
	sw	a4,32(s1)
	sw	a5,36(s1)
	j	.L17
.LVL77:
.L21:
	.cfi_def_cfa_register 2
	.cfi_restore 1
	.cfi_restore 8
	.cfi_restore 9
	.cfi_restore 18
	.cfi_restore 19
	.cfi_restore 20
	.cfi_restore 21
	.loc 1 70 10
	li	a0,0
.LVL78:
	.loc 1 85 1
	ret
	.cfi_endproc
.LFE3:
	.size	tc_sha256_update, .-tc_sha256_update
	.section	.text.tc_sha256_final,"ax",@progbits
	.align	1
	.globl	tc_sha256_final
	.type	tc_sha256_final, @function
tc_sha256_final:
.LFB4:
	.loc 1 88 1 is_stmt 1
	.cfi_startproc
.LVL79:
	.loc 1 89 2
	.loc 1 92 2
	.loc 1 92 5 is_stmt 0
	beq	a0,zero,.L32
	.loc 1 88 1 discriminator 1
	addi	sp,sp,-32
	.cfi_def_cfa_offset 32
	sw	s0,24(sp)
	sw	s1,20(sp)
	sw	s2,16(sp)
	sw	ra,28(sp)
	sw	s3,12(sp)
	.cfi_offset 8, -8
	.cfi_offset 9, -12
	.cfi_offset 18, -16
	.cfi_offset 1, -4
	.cfi_offset 19, -20
	addi	s0,sp,32
	.cfi_def_cfa 8, 0
	mv	s2,a0
	mv	s1,a1
	.loc 1 94 10 discriminator 1
	li	a0,0
.LVL80:
	.loc 1 92 30 discriminator 1
	beq	a1,zero,.L28
	.loc 1 97 2 is_stmt 1
	.loc 1 97 22 is_stmt 0
	lw	a4,104(a1)
	.loc 1 97 17
	lw	a5,32(a1)
	lw	a2,36(a1)
	.loc 1 97 40
	slli	a3,a4,3
	.loc 1 97 17
	add	a3,a5,a3
	sltu	a5,a3,a5
	add	a5,a5,a2
	.loc 1 99 32
	addi	a0,a4,1
	.loc 1 97 17
	sw	a5,36(a1)
	.loc 1 99 2 is_stmt 1
	.loc 1 97 17 is_stmt 0
	sw	a3,32(a1)
	.loc 1 99 36
	li	a5,-128
	.loc 1 99 32
	sw	a0,104(a1)
	.loc 1 99 36
	add	a4,a1,a4
	sb	a5,40(a4)
	.loc 1 100 2 is_stmt 1
	.loc 1 100 5 is_stmt 0
	li	a5,56
	.loc 1 102 8
	addi	s3,a1,40
	.loc 1 100 5
	bleu	a0,a5,.L30
	.loc 1 102 3 is_stmt 1
	li	a2,64
	sub	a2,a2,a0
	li	a1,0
.LVL81:
	add	a0,s3,a0
	call	_set
.LVL82:
	.loc 1 104 3
	mv	a1,s3
	mv	a0,s1
	call	compress
.LVL83:
	.loc 1 105 3
	.loc 1 105 22 is_stmt 0
	sw	zero,104(s1)
.L30:
	.loc 1 109 2 is_stmt 1
	.loc 1 109 22 is_stmt 0
	lw	a0,104(s1)
	.loc 1 109 2
	li	a2,56
	li	a1,0
	sub	a2,a2,a0
	add	a0,s3,a0
	call	_set
.LVL84:
	.loc 1 111 2 is_stmt 1
	.loc 1 112 39 is_stmt 0
	lhu	a4,32(s1)
	.loc 1 111 52
	lw	a3,32(s1)
	lw	a5,36(s1)
	.loc 1 112 2 is_stmt 1
	.loc 1 112 39 is_stmt 0
	slli	a2,a4,8
	slli	a4,a4,16
	srli	a4,a4,16
	srli	a4,a4,8
	or	a4,a2,a4
	sh	a4,102(s1)
	.loc 1 113 2 is_stmt 1
	.loc 1 113 66 is_stmt 0
	srli	a4,a3,16
	.loc 1 113 41
	sb	a4,101(s1)
	.loc 1 114 2 is_stmt 1
	.loc 1 116 66 is_stmt 0
	srli	a4,a5,8
	.loc 1 114 66
	srli	a3,a3,24
	.loc 1 115 41
	sb	a5,99(s1)
	.loc 1 116 41
	sb	a4,98(s1)
	.loc 1 117 66
	srli	a4,a5,16
	.loc 1 118 66
	srli	a5,a5,24
	.loc 1 114 41
	sb	a3,100(s1)
	.loc 1 115 2 is_stmt 1
	.loc 1 116 2
	.loc 1 117 2
	.loc 1 118 41 is_stmt 0
	sb	a5,96(s1)
	.loc 1 117 41
	sb	a4,97(s1)
	.loc 1 118 2 is_stmt 1
	.loc 1 121 2
	mv	a1,s3
	mv	a0,s1
	call	compress
.LVL85:
	.loc 1 124 2
	.loc 1 124 14
	.loc 1 121 2 is_stmt 0
	li	a5,0
	.loc 1 124 2
	li	a3,32
.LVL86:
.L31:
.LBB146:
	.loc 1 125 3 is_stmt 1 discriminator 3
	.loc 1 125 16 is_stmt 0 discriminator 3
	add	a4,s1,a5
	lw	a4,0(a4)
.LVL87:
	.loc 1 126 3 is_stmt 1 discriminator 3
	addi	s2,s2,4
.LVL88:
.LBE146:
	.loc 1 124 2 is_stmt 0 discriminator 3
	addi	a5,a5,4
.LBB147:
	.loc 1 126 27 discriminator 3
	srli	a2,a4,24
	.loc 1 126 15 discriminator 3
	sb	a2,-4(s2)
	.loc 1 127 3 is_stmt 1 discriminator 3
.LVL89:
	.loc 1 127 27 is_stmt 0 discriminator 3
	srli	a2,a4,16
	.loc 1 127 15 discriminator 3
	sb	a2,-3(s2)
	.loc 1 128 3 is_stmt 1 discriminator 3
	.loc 1 128 27 is_stmt 0 discriminator 3
	srli	a2,a4,8
	.loc 1 128 15 discriminator 3
	sb	a2,-2(s2)
	.loc 1 129 3 is_stmt 1 discriminator 3
.LVL90:
	.loc 1 129 15 is_stmt 0 discriminator 3
	sb	a4,-1(s2)
.LBE147:
	.loc 1 124 28 is_stmt 1 discriminator 3
	.loc 1 124 14 discriminator 3
	.loc 1 124 2 is_stmt 0 discriminator 3
	bne	a5,a3,.L31
	.loc 1 133 2 is_stmt 1
	mv	a0,s1
	li	a2,112
	li	a1,0
	call	_set
.LVL91:
	.loc 1 135 2
	.loc 1 135 9 is_stmt 0
	li	a0,1
.L28:
	.loc 1 136 1
	lw	ra,28(sp)
	.cfi_restore 1
	lw	s0,24(sp)
	.cfi_restore 8
	.cfi_def_cfa 2, 32
	lw	s1,20(sp)
	.cfi_restore 9
.LVL92:
	lw	s2,16(sp)
	.cfi_restore 18
.LVL93:
	lw	s3,12(sp)
	.cfi_restore 19
	addi	sp,sp,32
	.cfi_def_cfa_offset 0
	jr	ra
.LVL94:
.L32:
	.loc 1 94 10
	li	a0,0
.LVL95:
	.loc 1 136 1
	ret
	.cfi_endproc
.LFE4:
	.size	tc_sha256_final, .-tc_sha256_final
	.section	.rodata.k256,"a"
	.align	2
	.set	.LANCHOR0,. + 0
	.type	k256, @object
	.size	k256, 256
k256:
	.word	1116352408
	.word	1899447441
	.word	-1245643825
	.word	-373957723
	.word	961987163
	.word	1508970993
	.word	-1841331548
	.word	-1424204075
	.word	-670586216
	.word	310598401
	.word	607225278
	.word	1426881987
	.word	1925078388
	.word	-2132889090
	.word	-1680079193
	.word	-1046744716
	.word	-459576895
	.word	-272742522
	.word	264347078
	.word	604807628
	.word	770255983
	.word	1249150122
	.word	1555081692
	.word	1996064986
	.word	-1740746414
	.word	-1473132947
	.word	-1341970488
	.word	-1084653625
	.word	-958395405
	.word	-710438585
	.word	113926993
	.word	338241895
	.word	666307205
	.word	773529912
	.word	1294757372
	.word	1396182291
	.word	1695183700
	.word	1986661051
	.word	-2117940946
	.word	-1838011259
	.word	-1564481375
	.word	-1474664885
	.word	-1035236496
	.word	-949202525
	.word	-778901479
	.word	-694614492
	.word	-200395387
	.word	275423344
	.word	430227734
	.word	506948616
	.word	659060556
	.word	883997877
	.word	958139571
	.word	1322822218
	.word	1537002063
	.word	1747873779
	.word	1955562222
	.word	2024104815
	.word	-2067236844
	.word	-1933114872
	.word	-1866530822
	.word	-1538233109
	.word	-1090935817
	.word	-965641998
	.text
.Letext0:
	.file 2 "/home/quanghaictu/intern/Ai-Thinker-WB2/toolchain/riscv/Linux/lib/gcc/riscv64-unknown-elf/10.2.0/include/stddef.h"
	.file 3 "/home/quanghaictu/intern/Ai-Thinker-WB2/toolchain/riscv/Linux/lib/gcc/riscv64-unknown-elf/10.2.0/include/stdint-gcc.h"
	.file 4 "/home/quanghaictu/intern/Ai-Thinker-WB2/components/network/ble/blestack/src/common/tinycrypt/include/tinycrypt/sha256.h"
	.file 5 "/home/quanghaictu/intern/Ai-Thinker-WB2/components/network/ble/blestack/src/common/tinycrypt/include/tinycrypt/utils.h"