	.file	"utils.c"
	.option nopic
	.attribute arch, "rv32i2p0_m2p0_f2p0_c2p0"
	.attribute unaligned_access, 0
	.attribute stack_align, 16
	.text
.Ltext0:
	.cfi_sections	.debug_frame
	.section	.text._copy,"ax",@progbits
	.align	1
	.globl	_copy
	.type	_copy, @function
_copy:
.LFB2:
	.file 1 "/home/quanghaictu/intern/Ai-Thinker-WB2/components/network/ble/blestack/src/common/tinycrypt/source/utils.c"
	.loc 1 42 1
	.cfi_startproc
.LVL0:
	.loc 1 43 2
	.loc 1 42 1 is_stmt 0
	addi	sp,sp,-16
	.cfi_def_cfa_offset 16
	sw	s0,8(sp)
	sw	s1,4(sp)
	sw	ra,12(sp)
	.cfi_offset 8, -8
	.cfi_offset 9, -12
	.cfi_offset 1, -4
	addi	s0,sp,16
	.cfi_def_cfa 8, 0
	.loc 1 47 10
	li	s1,0
	.loc 1 43 5
	bgtu	a3,a1,.L2
	mv	a1,a2
.LVL1:
	.loc 1 44 9
	mv	a2,a3
.LVL2:
	mv	s1,a3
	.loc 1 44 3 is_stmt 1
	.loc 1 44 9 is_stmt 0
	call	memcpy
.LVL3:
	.loc 1 45 3 is_stmt 1
.L2:
	.loc 1 49 1 is_stmt 0
	lw	ra,12(sp)
	.cfi_restore 1
	lw	s0,8(sp)
	.cfi_restore 8
	.cfi_def_cfa 2, 16
	mv	a0,s1
	lw	s1,4(sp)
	.cfi_restore 9
	addi	sp,sp,16
	.cfi_def_cfa_offset 0
	jr	ra
	.cfi_endproc
.LFE2:
	.size	_copy, .-_copy
	.section	.text._set,"ax",@progbits
	.align	1
	.globl	_set
	.type	_set, @function
_set:
.LFB3:
	.loc 1 52 1 is_stmt 1
	.cfi_startproc
.LVL4:
	.loc 1 53 2
	.loc 1 52 1 is_stmt 0
	addi	sp,sp,-16
	.cfi_def_cfa_offset 16
	sw	s0,12(sp)
	.cfi_offset 8, -4
	addi	s0,sp,16
	.cfi_def_cfa 8, 0
	.loc 1 54 1
	lw	s0,12(sp)
	.cfi_restore 8
	.cfi_def_cfa 2, 16
	addi	sp,sp,16
	.cfi_def_cfa_offset 0
	.loc 1 53 8
	tail	memset
.LVL5:
	.cfi_endproc
.LFE3:
	.size	_set, .-_set
	.section	.text._double_byte,"ax",@progbits
	.align	1
	.globl	_double_byte
	.type	_double_byte, @function
_double_byte:
.LFB4:
	.loc 1 60 1 is_stmt 1
	.cfi_startproc
.LVL6:
	.loc 1 61 2
	.loc 1 61 17 is_stmt 0
	srli	a5,a0,7
	li	a4,27
	mul	a5,a5,a4
	.loc 1 60 1
	addi	sp,sp,-16
	.cfi_def_cfa_offset 16
	sw	s0,12(sp)
	.cfi_offset 8, -4
	addi	s0,sp,16
	.cfi_def_cfa 8, 0
	.loc 1 62 1
	lw	s0,12(sp)
	.cfi_restore 8
	.cfi_def_cfa 2, 16
	.loc 1 61 12
	slli	a0,a0,1
.LVL7:
	.loc 1 62 1
	addi	sp,sp,16
	.cfi_def_cfa_offset 0
	.loc 1 61 17
	xor	a0,a5,a0
	.loc 1 62 1
	andi	a0,a0,0xff
	jr	ra
	.cfi_endproc
.LFE4:
	.size	_double_byte, .-_double_byte
	.section	.text._compare,"ax",@progbits
	.align	1
	.globl	_compare
	.type	_compare, @function
_compare:
.LFB5:
	.loc 1 65 1 is_stmt 1
	.cfi_startproc
.LVL8:
	.loc 1 66 2
	.loc 1 65 1 is_stmt 0
	addi	sp,sp,-16
	.cfi_def_cfa_offset 16
	sw	s0,12(sp)
	.cfi_offset 8, -4
	addi	s0,sp,16
	.cfi_def_cfa 8, 0
	mv	a4,a0
.LVL9:
	.loc 1 67 2 is_stmt 1
	.loc 1 68 2
	.loc 1 70 2
.LBB2:
	.loc 1 70 7
.LBE2:
	.loc 1 65 1 is_stmt 0
.LBB3:
	.loc 1 70 20
	li	a5,0
.LBE3:
	.loc 1 68 10
	li	a0,0
.LVL10:
.L10:
.LBB4:
	.loc 1 70 27 is_stmt 1 discriminator 1
	.loc 1 70 2 is_stmt 0 discriminator 1
	bne	a5,a2,.L11
.LBE4:
	.loc 1 73 2 is_stmt 1
	.loc 1 74 1 is_stmt 0
	lw	s0,12(sp)
	.cfi_remember_state
	.cfi_restore 8
	.cfi_def_cfa 2, 16
	addi	sp,sp,16
	.cfi_def_cfa_offset 0
	jr	ra
.L11:
	.cfi_restore_state
.LBB5:
	.loc 1 71 3 is_stmt 1 discriminator 3
	.loc 1 71 18 is_stmt 0 discriminator 3
	add	a3,a4,a5
	.loc 1 71 29 discriminator 3
	add	a6,a1,a5
	.loc 1 71 10 discriminator 3
	lbu	a3,0(a3)
	lbu	a6,0(a6)
	.loc 1 70 38 discriminator 3
	addi	a5,a5,1
.LVL11:
	.loc 1 71 10 discriminator 3
	xor	a3,a3,a6
	or	a0,a0,a3
.LVL12:
	andi	a0,a0,0xff
.LVL13:
	.loc 1 70 37 is_stmt 1 discriminator 3
	j	.L10
.LBE5:
	.cfi_endproc
.LFE5:
	.size	_compare, .-_compare
	.text
.Letext0:
	.file 2 "/home/quanghaictu/intern/Ai-Thinker-WB2/toolchain/riscv/Linux/lib/gcc/riscv64-unknown-elf/10.2.0/include/stdint-gcc.h"
	.file 3 "/home/quanghaictu/intern/Ai-Thinker-WB2/toolchain/riscv/Linux/lib/gcc/riscv64-unknown-elf/10.2.0/include/stddef.h"
	.file 4 "/home/quanghaictu/intern/Ai-Thinker-WB2/toolchain/riscv/Linux/riscv64-unknown-elf/include/string.h"