	.file	"event_groups.c"
	.option nopic
	.attribute arch, "rv32i2p0_m2p0_f2p0_c2p0"
	.attribute unaligned_access, 0
	.attribute stack_align, 16
	.text
.Ltext0:
	.cfi_sections	.debug_frame
	.section	.text.vEventGroupClearBitsCallback,"ax",@progbits
	.align	1
	.globl	vEventGroupClearBitsCallback
	.type	vEventGroupClearBitsCallback, @function
vEventGroupClearBitsCallback:
.LFB10:
	.file 1 "/home/quanghaictu/intern/Ai-Thinker-WB2/components/platform/soc/bl602/freertos_riscv_ram/event_groups.c"
	.loc 1 666 1
	.cfi_startproc
.LVL0:
	.loc 1 667 2
	.loc 1 666 1 is_stmt 0
	addi	sp,sp,-16
	.cfi_def_cfa_offset 16
	sw	s0,8(sp)
	sw	s1,4(sp)
	sw	s2,0(sp)
	sw	ra,12(sp)
	.cfi_offset 8, -8
	.cfi_offset 9, -12
	.cfi_offset 18, -16
	.cfi_offset 1, -4
	addi	s0,sp,16
	.cfi_def_cfa 8, 0
	.loc 1 666 1
	mv	s2,a0
.LVL1:
	mv	s1,a1
.LVL2:
.LBB9:
.LBB10:
	.loc 1 463 1 is_stmt 1
	.loc 1 464 1
	.loc 1 468 2
	.loc 1 468 4 is_stmt 0
	beq	a0,zero,.L9
.LVL3:
.L2:
	.loc 1 469 2 is_stmt 1
	.loc 1 469 24 is_stmt 0
	li	a5,-16777216
	and	a5,s1,a5
	.loc 1 469 4
	bne	a5,zero,.L10
.L3:
	.loc 1 471 2 is_stmt 1
	call	vTaskEnterCritical
.LVL4:
	.loc 1 473 3
	.loc 1 477 3
	.loc 1 480 3
	.loc 1 480 28 is_stmt 0
	lw	a1,0(s2)
	.loc 1 480 31
	not	s1,s1
.LVL5:
	.loc 1 480 28
	and	s1,a1,s1
.LVL6:
	sw	s1,0(s2)
.LVL7:
	.loc 1 482 2 is_stmt 1
.LBE10:
.LBE9:
	.loc 1 668 1 is_stmt 0
	lw	s0,8(sp)
	.cfi_remember_state
	.cfi_restore 8
	.cfi_def_cfa 2, 16
	lw	ra,12(sp)
	.cfi_restore 1
	lw	s1,4(sp)
	.cfi_restore 9
	lw	s2,0(sp)
	.cfi_restore 18
.LVL8:
	addi	sp,sp,16
	.cfi_def_cfa_offset 0
.LBB12:
.LBB11:
	.loc 1 482 2
	tail	vTaskExitCritical
.LVL9:
.L10:
	.cfi_restore_state
	.loc 1 469 55 is_stmt 1
	li	a0,2
	call	vEnvironmentCall
.LVL10:
	j	.L3
.LVL11:
.L9:
	.loc 1 468 29
	li	a0,2
.LVL12:
	call	vEnvironmentCall
.LVL13:
	j	.L2
.LBE11:
.LBE12:
	.cfi_endproc
.LFE10:
	.size	vEventGroupClearBitsCallback, .-vEventGroupClearBitsCallback
	.section	.text.xEventGroupCreateStatic,"ax",@progbits
	.align	1
	.globl	xEventGroupCreateStatic
	.type	xEventGroupCreateStatic, @function
xEventGroupCreateStatic:
.LFB0:
	.loc 1 94 2
	.cfi_startproc
.LVL14:
	.loc 1 95 2
	.loc 1 98 3
	.loc 1 94 2 is_stmt 0
	addi	sp,sp,-32
	.cfi_def_cfa_offset 32
	sw	s0,24(sp)
	sw	s1,20(sp)
	sw	ra,28(sp)
	.cfi_offset 8, -8
	.cfi_offset 9, -12
	.cfi_offset 1, -4
	addi	s0,sp,32
	.cfi_def_cfa 8, 0
	.loc 1 94 2
	mv	s1,a0
	.loc 1 98 5
	beq	a0,zero,.L19
.LBB13:
	.loc 1 105 4 is_stmt 1
	.loc 1 105 20 is_stmt 0
	li	a5,32
	sw	a5,-20(s0)
	.loc 1 106 4 is_stmt 1
	.loc 1 106 44 is_stmt 0
	lw	a4,-20(s0)
	.loc 1 106 6
	bne	a4,a5,.L20
.LVL15:
.L16:
.LBE13:
	.loc 1 115 4 is_stmt 1
	.loc 1 115 29 is_stmt 0
	sw	zero,0(s1)
	.loc 1 116 4 is_stmt 1
	addi	a0,s1,4
	call	vListInitialise
.LVL16:
	.loc 1 123 5
	.loc 1 123 40 is_stmt 0
	li	a5,1
	sb	a5,28(s1)
	.loc 1 127 4 is_stmt 1
.LVL17:
.L17:
	.loc 1 138 2 is_stmt 0
	lw	ra,28(sp)
	.cfi_remember_state
	.cfi_restore 1
	lw	s0,24(sp)
	.cfi_restore 8
	.cfi_def_cfa 2, 32
	mv	a0,s1
	lw	s1,20(sp)
	.cfi_restore 9
.LVL18:
	addi	sp,sp,32
	.cfi_def_cfa_offset 0
	jr	ra
.LVL19:
.L20:
	.cfi_restore_state
.LBB14:
	.loc 1 106 51 is_stmt 1
	li	a0,2
	call	vEnvironmentCall
.LVL20:
.LBE14:
	.loc 1 111 3
	.loc 1 113 3
	j	.L16
.LVL21:
.L19:
	.loc 1 98 37 discriminator 1
	li	a0,2
	call	vEnvironmentCall
.LVL22:
.LBB15:
	.loc 1 105 4 discriminator 1
	.loc 1 105 20 is_stmt 0 discriminator 1
	li	a5,32
	sw	a5,-20(s0)
	.loc 1 106 4 is_stmt 1 discriminator 1
	.loc 1 106 44 is_stmt 0 discriminator 1
	lw	a4,-20(s0)
	.loc 1 106 6 discriminator 1
	beq	a4,a5,.L17
	.loc 1 106 51 is_stmt 1
	li	a0,2
	call	vEnvironmentCall
.LVL23:
.LBE15:
	.loc 1 111 3
	.loc 1 113 3
	.loc 1 134 4
	.loc 1 137 3
	.loc 1 137 10 is_stmt 0
	j	.L17
	.cfi_endproc
.LFE0:
	.size	xEventGroupCreateStatic, .-xEventGroupCreateStatic
	.section	.text.xEventGroupCreate,"ax",@progbits
	.align	1
	.globl	xEventGroupCreate
	.type	xEventGroupCreate, @function
xEventGroupCreate:
.LFB1:
	.loc 1 146 2 is_stmt 1
	.cfi_startproc
	.loc 1 147 2
	.loc 1 162 3
	.loc 1 146 2 is_stmt 0
	addi	sp,sp,-16
	.cfi_def_cfa_offset 16
	sw	s0,8(sp)
	sw	s1,4(sp)
	sw	ra,12(sp)
	.cfi_offset 8, -8
	.cfi_offset 9, -12
	.cfi_offset 1, -4
	addi	s0,sp,16
	.cfi_def_cfa 8, 0
	.loc 1 162 36
	li	a0,32
	call	pvPortMalloc
.LVL24:
	mv	s1,a0
.LVL25:
	.loc 1 164 3 is_stmt 1
	.loc 1 164 5 is_stmt 0
	beq	a0,zero,.L21
	.loc 1 166 4 is_stmt 1
	.loc 1 166 29 is_stmt 0
	sw	zero,0(a0)
	.loc 1 167 4 is_stmt 1
	addi	a0,a0,4
	call	vListInitialise
.LVL26:
	.loc 1 174 5
	.loc 1 174 40 is_stmt 0
	sb	zero,28(s1)
	.loc 1 178 4 is_stmt 1
	.loc 1 182 4
	.loc 1 185 3
.L21:
	.loc 1 186 2 is_stmt 0
	lw	ra,12(sp)
	.cfi_restore 1
	lw	s0,8(sp)
	.cfi_restore 8
	.cfi_def_cfa 2, 16
	mv	a0,s1
	lw	s1,4(sp)
	.cfi_restore 9
.LVL27:
	addi	sp,sp,16
	.cfi_def_cfa_offset 0
	jr	ra
	.cfi_endproc
.LFE1:
	.size	xEventGroupCreate, .-xEventGroupCreate
	.section	.text.xEventGroupWaitBits,"ax",@progbits
	.align	1
	.globl	xEventGroupWaitBits
	.type	xEventGroupWaitBits, @function
xEventGroupWaitBits:
.LFB3:
	.loc 1 312 1 is_stmt 1
	.cfi_startproc
.LVL28:
	addi	sp,sp,-32
	.cfi_def_cfa_offset 32
	sw	s0,24(sp)
	sw	s1,20(sp)
	sw	s3,12(sp)
	sw	s4,8(sp)
	sw	s5,4(sp)
	sw	s6,0(sp)
	sw	ra,28(sp)
	sw	s2,16(sp)
	.cfi_offset 8, -8
	.cfi_offset 9, -12
	.cfi_offset 19, -20
	.cfi_offset 20, -24
	.cfi_offset 21, -28
	.cfi_offset 22, -32
	.cfi_offset 1, -4
	.cfi_offset 18, -16
	addi	s0,sp,32
	.cfi_def_cfa 8, 0
	.loc 1 312 1 is_stmt 0
	mv	s3,a0
	mv	s1,a1
	mv	s6,a2
	mv	s5,a3
	.loc 1 313 1 is_stmt 1
.LVL29:
	.loc 1 314 1
	.loc 1 315 1
	.loc 1 316 1
	.loc 1 320 2
	.loc 1 312 1 is_stmt 0
	mv	s4,a4
	.loc 1 320 4
	beq	a0,zero,.L60
.LVL30:
.L28:
	.loc 1 321 2 is_stmt 1
	.loc 1 321 26 is_stmt 0
	li	a5,-16777216
	and	a5,s1,a5
	.loc 1 321 4
	bne	a5,zero,.L31
	.loc 1 322 2 is_stmt 1
	.loc 1 322 4 is_stmt 0
	beq	s1,zero,.L31
.L30:
	.loc 1 325 3 is_stmt 1
	.loc 1 325 14 is_stmt 0
	call	xTaskGetSchedulerState
.LVL31:
	.loc 1 325 9
	bne	a0,zero,.L32
	.loc 1 325 9 discriminator 2
	bne	s4,zero,.L61
.L32:
	.loc 1 329 2 is_stmt 1
	call	vTaskSuspendAll
.LVL32:
.LBB16:
	.loc 1 331 3
	.loc 1 331 21 is_stmt 0
	lw	s2,0(s3)
.LVL33:
	.loc 1 334 3 is_stmt 1
.LBB17:
.LBB18:
	.loc 1 673 1
	.loc 1 675 2
	.loc 1 679 28 is_stmt 0
	and	a5,s1,s2
	.loc 1 675 4
	bne	s5,zero,.L33
	.loc 1 679 3 is_stmt 1
	.loc 1 679 5 is_stmt 0
	beq	a5,zero,.L35
.L34:
.LVL34:
.LBE18:
.LBE17:
	.loc 1 340 4 is_stmt 1
	.loc 1 341 4
	.loc 1 344 4
	.loc 1 344 6 is_stmt 0
	beq	s6,zero,.L38
	.loc 1 346 5 is_stmt 1
	.loc 1 346 33 is_stmt 0
	not	s1,s1
.LVL35:
	.loc 1 346 30
	and	s1,s1,s2
.LVL36:
	sw	s1,0(s3)
.LVL37:
	.loc 1 394 4 is_stmt 1
.LBE16:
	.loc 1 397 2
	.loc 1 397 20 is_stmt 0
	call	xTaskResumeAll
.LVL38:
	.loc 1 399 2 is_stmt 1
	j	.L27
.LVL39:
.L31:
	.loc 1 321 57 discriminator 1
	li	a0,2
	call	vEnvironmentCall
.LVL40:
	.loc 1 322 2 discriminator 1
	j	.L30
.LVL41:
.L33:
.LBB21:
.LBB20:
.LBB19:
	.loc 1 692 3
	.loc 1 692 5 is_stmt 0
	beq	s1,a5,.L34
.L35:
.LVL42:
.LBE19:
.LBE20:
	.loc 1 353 8 is_stmt 1
	.loc 1 353 10 is_stmt 0
	bne	s4,zero,.L62
.LVL43:
.L38:
	.loc 1 394 4 is_stmt 1
.LBE21:
	.loc 1 397 2
	.loc 1 397 20 is_stmt 0
	call	xTaskResumeAll
.LVL44:
	.loc 1 399 2 is_stmt 1
.L27:
	.loc 1 458 1 is_stmt 0
	lw	ra,28(sp)
	.cfi_remember_state
	.cfi_restore 1
	lw	s0,24(sp)
	.cfi_restore 8
	.cfi_def_cfa 2, 32
	lw	s1,20(sp)
	.cfi_restore 9
	lw	s3,12(sp)
	.cfi_restore 19
.LVL45:
	lw	s4,8(sp)
	.cfi_restore 20
	lw	s5,4(sp)
	.cfi_restore 21
.LVL46:
	lw	s6,0(sp)
	.cfi_restore 22
.LVL47:
	mv	a0,s2
	lw	s2,16(sp)
	.cfi_restore 18
.LVL48:
	addi	sp,sp,32
	.cfi_def_cfa_offset 0
	jr	ra
.LVL49:
.L62:
	.cfi_restore_state
.LBB22:
	.loc 1 366 4 is_stmt 1
	.loc 1 368 19 is_stmt 0
	snez	a1,s6
	slli	a1,a1,24
.LVL50:
	.loc 1 372 5 is_stmt 1
	.loc 1 375 4
	.loc 1 375 6 is_stmt 0
	bne	s5,zero,.L63
	.loc 1 381 5 is_stmt 1
	.loc 1 387 4
	mv	a2,s4
	or	a1,a1,s1
.LVL51:
	addi	a0,s3,4
	call	vTaskPlaceOnUnorderedEventList
.LVL52:
	.loc 1 392 4
	.loc 1 394 4
.LBE22:
	.loc 1 397 2
	.loc 1 397 20 is_stmt 0
	call	xTaskResumeAll
.LVL53:
	.loc 1 399 2 is_stmt 1
	.loc 1 401 3
	.loc 1 401 5 is_stmt 0
	beq	a0,zero,.L64
.LVL54:
.L41:
	.loc 1 407 4 is_stmt 1
	.loc 1 414 3
	.loc 1 414 14 is_stmt 0
	call	uxTaskResetEventItemValue
.LVL55:
	.loc 1 416 18
	li	a5,33554432
	and	a5,a0,a5
	.loc 1 414 14
	mv	s2,a0
.LVL56:
	.loc 1 416 3 is_stmt 1
	.loc 1 416 5 is_stmt 0
	beq	a5,zero,.L65
.LVL57:
.L42:
	.loc 1 447 3 is_stmt 1
	.loc 1 450 3
	.loc 1 450 12 is_stmt 0
	slli	s2,s2,8
.LVL58:
	srli	s2,s2,8
.LVL59:
	.loc 1 452 2 is_stmt 1
	.loc 1 455 2
	.loc 1 457 2
	.loc 1 457 9 is_stmt 0
	j	.L27
.LVL60:
.L61:
	.loc 1 325 101 is_stmt 1
	li	a0,2
	call	vEnvironmentCall
.LVL61:
	j	.L32
.LVL62:
.L63:
.LBB23:
	.loc 1 377 5
	.loc 1 377 19 is_stmt 0
	li	a5,67108864
	or	a1,a1,a5
.LVL63:
	.loc 1 381 5 is_stmt 1
	.loc 1 387 4
	mv	a2,s4
	or	a1,a1,s1
.LVL64:
	addi	a0,s3,4
	call	vTaskPlaceOnUnorderedEventList
.LVL65:
	.loc 1 392 4
	.loc 1 394 4
.LBE23:
	.loc 1 397 2
	.loc 1 397 20 is_stmt 0
	call	xTaskResumeAll
.LVL66:
	.loc 1 399 2 is_stmt 1
	.loc 1 401 3
	.loc 1 401 5 is_stmt 0
	bne	a0,zero,.L41
.LVL67:
.L64:
	.loc 1 403 4 is_stmt 1
	li	a0,1
.LVL68:
	call	vEnvironmentCall
.LVL69:
	.loc 1 407 4
	.loc 1 414 3
	.loc 1 414 14 is_stmt 0
	call	uxTaskResetEventItemValue
.LVL70:
	.loc 1 416 18
	li	a5,33554432
	and	a5,a0,a5
	.loc 1 414 14
	mv	s2,a0
.LVL71:
	.loc 1 416 3 is_stmt 1
	.loc 1 416 5 is_stmt 0
	bne	a5,zero,.L42
.L65:
	.loc 1 418 4 is_stmt 1
	call	vTaskEnterCritical
.LVL72:
	.loc 1 421 5
	.loc 1 421 14 is_stmt 0
	lw	s2,0(s3)
.LVL73:
	.loc 1 425 5 is_stmt 1
.LBB24:
.LBB25:
	.loc 1 673 1
	.loc 1 675 2
	.loc 1 679 28 is_stmt 0
	and	a5,s1,s2
	.loc 1 675 4
	bne	s5,zero,.L43
	.loc 1 679 3 is_stmt 1
	.loc 1 679 5 is_stmt 0
	beq	a5,zero,.L45
.L44:
.LVL74:
.LBE25:
.LBE24:
	.loc 1 427 6 is_stmt 1
	.loc 1 427 8 is_stmt 0
	beq	s6,zero,.L45
	.loc 1 429 7 is_stmt 1
	.loc 1 429 35 is_stmt 0
	not	s1,s1
.LVL75:
	.loc 1 429 32
	and	s1,s1,s2
.LVL76:
	sw	s1,0(s3)
.L45:
	.loc 1 438 6 is_stmt 1
	.loc 1 440 5
.LVL77:
	.loc 1 442 4
	call	vTaskExitCritical
.LVL78:
	j	.L42
.LVL79:
.L60:
	.loc 1 320 29 discriminator 1
	li	a0,2
.LVL80:
	call	vEnvironmentCall
.LVL81:
	j	.L28
.LVL82:
.L43:
.LBB27:
.LBB26:
	.loc 1 692 3
	.loc 1 692 5 is_stmt 0
	bne	s1,a5,.L45
	j	.L44
.LBE26:
.LBE27:
	.cfi_endproc
.LFE3:
	.size	xEventGroupWaitBits, .-xEventGroupWaitBits
	.section	.text.xEventGroupClearBits,"ax",@progbits
	.align	1
	.globl	xEventGroupClearBits
	.type	xEventGroupClearBits, @function
xEventGroupClearBits:
.LFB4:
	.loc 1 462 1 is_stmt 1
	.cfi_startproc
.LVL83:
	.loc 1 463 1
	.loc 1 462 1 is_stmt 0
	addi	sp,sp,-32
	.cfi_def_cfa_offset 32
	sw	s0,24(sp)
	sw	s1,20(sp)
	sw	s2,16(sp)
	sw	ra,28(sp)
	sw	s3,12(sp)
	.cfi_offset 8, -8
	.cfi_offset 9, -12
	.cfi_offset 18, -16
	.cfi_offset 1, -4
	.cfi_offset 19, -20
	addi	s0,sp,32
	.cfi_def_cfa 8, 0
	.loc 1 462 1
	mv	s2,a0
.LVL84:
	.loc 1 464 1 is_stmt 1
	.loc 1 468 2
	.loc 1 462 1 is_stmt 0
	mv	s1,a1
	.loc 1 468 4
	beq	a0,zero,.L73
.LVL85:
.L67:
	.loc 1 469 2 is_stmt 1
	.loc 1 469 24 is_stmt 0
	li	a5,-16777216
	and	a5,s1,a5
	.loc 1 469 4
	bne	a5,zero,.L74
.L68:
	.loc 1 471 2 is_stmt 1
	call	vTaskEnterCritical
.LVL86:
	.loc 1 473 3
	.loc 1 477 3
	.loc 1 477 12 is_stmt 0
	lw	s3,0(s2)
.LVL87:
	.loc 1 480 3 is_stmt 1
	.loc 1 480 31 is_stmt 0
	not	s1,s1
.LVL88:
	.loc 1 480 28
	and	s1,s1,s3
.LVL89:
	sw	s1,0(s2)
	.loc 1 482 2 is_stmt 1
	call	vTaskExitCritical
.LVL90:
	.loc 1 484 2
	.loc 1 485 1 is_stmt 0
	lw	ra,28(sp)
	.cfi_remember_state
	.cfi_restore 1
	lw	s0,24(sp)
	.cfi_restore 8
	.cfi_def_cfa 2, 32
	lw	s1,20(sp)
	.cfi_restore 9
	lw	s2,16(sp)
	.cfi_restore 18
.LVL91:
	mv	a0,s3
	lw	s3,12(sp)
	.cfi_restore 19
.LVL92:
	addi	sp,sp,32
	.cfi_def_cfa_offset 0
	jr	ra
.LVL93:
.L74:
	.cfi_restore_state
	.loc 1 469 55 is_stmt 1 discriminator 1
	li	a0,2
	call	vEnvironmentCall
.LVL94:
	j	.L68
.LVL95:
.L73:
	.loc 1 468 29 discriminator 1
	li	a0,2
.LVL96:
	call	vEnvironmentCall
.LVL97:
	j	.L67
	.cfi_endproc
.LFE4:
	.size	xEventGroupClearBits, .-xEventGroupClearBits
	.section	.text.xEventGroupClearBitsFromISR,"ax",@progbits
	.align	1
	.globl	xEventGroupClearBitsFromISR
	.type	xEventGroupClearBitsFromISR, @function
xEventGroupClearBitsFromISR:
.LFB5:
	.loc 1 491 2
	.cfi_startproc
.LVL98:
	.loc 1 492 3
	.loc 1 494 3
	.loc 1 495 3
	.loc 1 491 2 is_stmt 0
	addi	sp,sp,-16
	.cfi_def_cfa_offset 16
	sw	s0,12(sp)
	.cfi_offset 8, -4
	addi	s0,sp,16
	.cfi_def_cfa 8, 0
	.loc 1 498 2
	lw	s0,12(sp)
	.cfi_restore 8
	.cfi_def_cfa 2, 16
	.loc 1 491 2
	mv	a2,a1
	.loc 1 495 13
	mv	a1,a0
.LVL99:
	lui	a0,%hi(vEventGroupClearBitsCallback)
.LVL100:
	.loc 1 498 2
	.loc 1 495 13
	li	a3,0
	addi	a0,a0,%lo(vEventGroupClearBitsCallback)
	.loc 1 498 2
	addi	sp,sp,16
	.cfi_def_cfa_offset 0
	.loc 1 495 13
	tail	xTimerPendFunctionCallFromISR
.LVL101:
	.cfi_endproc
.LFE5:
	.size	xEventGroupClearBitsFromISR, .-xEventGroupClearBitsFromISR
	.section	.text.xEventGroupGetBitsFromISR,"ax",@progbits
	.align	1
	.globl	xEventGroupGetBitsFromISR
	.type	xEventGroupGetBitsFromISR, @function
xEventGroupGetBitsFromISR:
.LFB6:
	.loc 1 504 1 is_stmt 1
	.cfi_startproc
.LVL102:
	.loc 1 505 1
	.loc 1 506 1
	.loc 1 507 1
	.loc 1 509 2
	.loc 1 511 3
	.loc 1 513 2
	.loc 1 515 2
	.loc 1 504 1 is_stmt 0
	addi	sp,sp,-16
	.cfi_def_cfa_offset 16
	sw	s0,12(sp)
.LVL103:
	.cfi_offset 8, -4
	addi	s0,sp,16
	.cfi_def_cfa 8, 0
	.loc 1 516 1
	lw	s0,12(sp)
	.cfi_restore 8
	.cfi_def_cfa 2, 16
	lw	a0,0(a0)
.LVL104:
	addi	sp,sp,16
	.cfi_def_cfa_offset 0
	jr	ra
	.cfi_endproc
.LFE6:
	.size	xEventGroupGetBitsFromISR, .-xEventGroupGetBitsFromISR
	.section	.text.xEventGroupSetBits,"ax",@progbits
	.align	1
	.globl	xEventGroupSetBits
	.type	xEventGroupSetBits, @function
xEventGroupSetBits:
.LFB7:
	.loc 1 520 1 is_stmt 1
	.cfi_startproc
.LVL105:
	.loc 1 521 1
	.loc 1 522 1
	.loc 1 523 1
	.loc 1 524 1
	.loc 1 525 1
	.loc 1 520 1 is_stmt 0
	addi	sp,sp,-48
	.cfi_def_cfa_offset 48
	sw	s0,40(sp)
	sw	s2,32(sp)
	sw	s3,28(sp)
	sw	ra,44(sp)
	sw	s1,36(sp)
	sw	s4,24(sp)
	sw	s5,20(sp)
	sw	s6,16(sp)
	sw	s7,12(sp)
	sw	s8,8(sp)
	.cfi_offset 8, -8
	.cfi_offset 18, -16
	.cfi_offset 19, -20
	.cfi_offset 1, -4
	.cfi_offset 9, -12
	.cfi_offset 20, -24
	.cfi_offset 21, -28
	.cfi_offset 22, -32
	.cfi_offset 23, -36
	.cfi_offset 24, -40
	addi	s0,sp,48
	.cfi_def_cfa 8, 0
	.loc 1 520 1
	mv	s3,a0
.LVL106:
	.loc 1 526 1 is_stmt 1
	.loc 1 530 2
	.loc 1 520 1 is_stmt 0
	mv	s2,a1
	.loc 1 530 4
	beq	a0,zero,.L97
.LVL107:
.L80:
	.loc 1 531 2 is_stmt 1
	.loc 1 531 22 is_stmt 0
	li	a5,-16777216
	and	a5,s2,a5
	.loc 1 531 4
	bne	a5,zero,.L98
.L81:
	.loc 1 533 2 is_stmt 1
.LVL108:
	.loc 1 534 2
	.loc 1 535 2 is_stmt 0
	call	vTaskSuspendAll
.LVL109:
	.loc 1 542 28
	lw	a4,0(s3)
	.loc 1 539 14
	lw	s1,16(s3)
	.loc 1 534 12
	addi	s4,s3,12
.LVL110:
	.loc 1 535 2 is_stmt 1
	.loc 1 537 3
	.loc 1 539 3
	.loc 1 542 3
	.loc 1 542 28 is_stmt 0
	or	a4,s2,a4
	sw	a4,0(s3)
	.loc 1 545 3 is_stmt 1
.LVL111:
	.loc 1 545 8
	beq	s4,s1,.L82
	.loc 1 553 20 is_stmt 0
	li	s5,16777216
	.loc 1 524 13
	li	s2,0
.LVL112:
	.loc 1 553 20
	addi	s8,s5,-1
	.loc 1 555 24
	li	s7,67108864
	.loc 1 594 5
	li	s6,33554432
.LVL113:
.L87:
	.loc 1 547 4 is_stmt 1
	.loc 1 558 5
	.loc 1 567 9
	.loc 1 580 5
	.loc 1 548 20 is_stmt 0
	lw	a5,0(s1)
	mv	a0,s1
	.loc 1 594 5
	or	a1,a4,s6
	.loc 1 553 20
	and	a3,a5,s8
	.loc 1 555 24
	and	a6,a5,s7
	.loc 1 547 11
	lw	s1,4(s1)
.LVL114:
	.loc 1 548 4 is_stmt 1
	.loc 1 549 4
	.loc 1 552 4
	.loc 1 553 4
	.loc 1 555 4
	.loc 1 580 25 is_stmt 0
	and	a5,a5,s5
.LVL115:
	.loc 1 558 27
	and	a2,a3,a4
	.loc 1 555 6
	bne	a6,zero,.L83
	.loc 1 558 7
	beq	a2,zero,.L85
.L84:
	.loc 1 582 6 is_stmt 1
	.loc 1 580 7 is_stmt 0
	beq	a5,zero,.L86
	.loc 1 582 20
	or	s2,s2,a3
.LVL116:
.L86:
	.loc 1 586 6 is_stmt 1
	.loc 1 594 5
	call	vTaskRemoveFromUnorderedEventList
.LVL117:
	.loc 1 605 28 is_stmt 0
	lw	a4,0(s3)
.L85:
.LVL118:
	.loc 1 545 8 is_stmt 1
	bne	s4,s1,.L87
.L99:
	.loc 1 605 31 is_stmt 0
	not	s2,s2
.LVL119:
	.loc 1 605 28
	and	a4,a4,s2
.LVL120:
.L82:
	.loc 1 605 3 is_stmt 1
	.loc 1 605 28 is_stmt 0
	sw	a4,0(s3)
	.loc 1 607 2 is_stmt 1
	.loc 1 607 11 is_stmt 0
	call	xTaskResumeAll
.LVL121:
	.loc 1 609 2 is_stmt 1
	.loc 1 610 1 is_stmt 0
	lw	ra,44(sp)
	.cfi_remember_state
	.cfi_restore 1
	lw	s0,40(sp)
	.cfi_restore 8
	.cfi_def_cfa 2, 48
	lw	a0,0(s3)
	lw	s1,36(sp)
	.cfi_restore 9
.LVL122:
	lw	s2,32(sp)
	.cfi_restore 18
	lw	s3,28(sp)
	.cfi_restore 19
.LVL123:
	lw	s4,24(sp)
	.cfi_restore 20
.LVL124:
	lw	s5,20(sp)
	.cfi_restore 21
	lw	s6,16(sp)
	.cfi_restore 22
	lw	s7,12(sp)
	.cfi_restore 23
	lw	s8,8(sp)
	.cfi_restore 24
	addi	sp,sp,48
	.cfi_def_cfa_offset 0
	jr	ra
.LVL125:
.L83:
	.cfi_restore_state
	.loc 1 567 11
	beq	a3,a2,.L84
.LVL126:
	.loc 1 545 8 is_stmt 1
	bne	s4,s1,.L87
	j	.L99
.LVL127:
.L98:
	.loc 1 531 53 discriminator 1
	li	a0,2
	call	vEnvironmentCall
.LVL128:
	j	.L81
.LVL129:
.L97:
	.loc 1 530 29 discriminator 1
	li	a0,2
.LVL130:
	call	vEnvironmentCall
.LVL131:
	j	.L80
	.cfi_endproc
.LFE7:
	.size	xEventGroupSetBits, .-xEventGroupSetBits
	.section	.text.xEventGroupSync,"ax",@progbits
	.align	1
	.globl	xEventGroupSync
	.type	xEventGroupSync, @function
xEventGroupSync:
.LFB2:
	.loc 1 192 1
	.cfi_startproc
.LVL132:
	addi	sp,sp,-32
	.cfi_def_cfa_offset 32
	sw	s0,24(sp)
	sw	s2,16(sp)
	sw	s3,12(sp)
	sw	s4,8(sp)
	sw	s5,4(sp)
	sw	ra,28(sp)
	sw	s1,20(sp)
	.cfi_offset 8, -8
	.cfi_offset 18, -16
	.cfi_offset 19, -20
	.cfi_offset 20, -24
	.cfi_offset 21, -28
	.cfi_offset 1, -4
	.cfi_offset 9, -12
	addi	s0,sp,32
	.cfi_def_cfa 8, 0
	.loc 1 198 26 is_stmt 0
	li	a5,-16777216
	.loc 1 192 1
	.loc 1 198 26
	and	a5,a2,a5
	.loc 1 192 1
	mv	s3,a2
	.loc 1 193 1 is_stmt 1
	.loc 1 194 1
	.loc 1 192 1 is_stmt 0
	mv	s4,a0
.LVL133:
	.loc 1 195 1 is_stmt 1
	.loc 1 196 1
	.loc 1 198 2
	.loc 1 192 1 is_stmt 0
	mv	s5,a1
	mv	s2,a3
	.loc 1 198 4
	bne	a5,zero,.L122
	.loc 1 199 2 is_stmt 1
	.loc 1 199 4 is_stmt 0
	beq	a2,zero,.L123
	.loc 1 202 3 is_stmt 1
	.loc 1 202 14 is_stmt 0
	call	xTaskGetSchedulerState
.LVL134:
	.loc 1 202 9
	bne	a0,zero,.L107
.L127:
	bne	s2,zero,.L106
	.loc 1 206 2 is_stmt 1
	call	vTaskSuspendAll
.LVL135:
	.loc 1 208 3
	.loc 1 208 22 is_stmt 0
	lw	a5,0(s4)
.LVL136:
	.loc 1 210 3 is_stmt 1
	.loc 1 210 12 is_stmt 0
	mv	a1,s5
	mv	a0,s4
	.loc 1 212 30
	or	s1,s5,a5
	.loc 1 210 12
	call	xEventGroupSetBits
.LVL137:
	.loc 1 212 3 is_stmt 1
	.loc 1 212 46 is_stmt 0
	and	a5,s3,s1
	.loc 1 212 5
	beq	s3,a5,.L109
.L117:
	.loc 1 244 5 is_stmt 1
	.loc 1 244 14 is_stmt 0
	lw	s1,0(s4)
.LVL138:
	.loc 1 245 5 is_stmt 1
	.loc 1 249 2
	.loc 1 249 20 is_stmt 0
	call	xTaskResumeAll
.LVL139:
	.loc 1 251 2 is_stmt 1
.L100:
	.loc 1 308 1 is_stmt 0
	lw	ra,28(sp)
	.cfi_remember_state
	.cfi_restore 1
	lw	s0,24(sp)
	.cfi_restore 8
	.cfi_def_cfa 2, 32
	lw	s2,16(sp)
	.cfi_restore 18
	lw	s3,12(sp)
	.cfi_restore 19
	lw	s4,8(sp)
	.cfi_restore 20
.LVL140:
	lw	s5,4(sp)
	.cfi_restore 21
.LVL141:
	mv	a0,s1
	lw	s1,20(sp)
	.cfi_restore 9
.LVL142:
	addi	sp,sp,32
	.cfi_def_cfa_offset 0
	jr	ra
.LVL143:
.L107:
	.cfi_restore_state
	.loc 1 206 2 is_stmt 1
	call	vTaskSuspendAll
.LVL144:
	.loc 1 208 3
	.loc 1 208 22 is_stmt 0
	lw	s1,0(s4)
.LVL145:
	.loc 1 210 3 is_stmt 1
	.loc 1 210 12 is_stmt 0
	mv	a1,s5
	mv	a0,s4
	.loc 1 212 30
	or	s1,s1,s5
.LVL146:
	.loc 1 210 12
	call	xEventGroupSetBits
.LVL147:
	.loc 1 212 3 is_stmt 1
	.loc 1 212 46 is_stmt 0
	and	a5,s1,s3
	.loc 1 212 5
	beq	a5,s3,.L109
	.loc 1 225 4 is_stmt 1
	.loc 1 225 6 is_stmt 0
	beq	s2,zero,.L117
.L114:
	.loc 1 227 5 is_stmt 1
	.loc 1 232 5
	li	a1,83886080
	mv	a2,s2
	or	a1,s3,a1
	addi	a0,s4,4
	call	vTaskPlaceOnUnorderedEventList
.LVL148:
	.loc 1 238 5
	.loc 1 249 2
	.loc 1 249 20 is_stmt 0
	call	xTaskResumeAll
.LVL149:
	.loc 1 251 2 is_stmt 1
	.loc 1 253 3
	.loc 1 253 5 is_stmt 0
	beq	a0,zero,.L124
.LVL150:
.L111:
	.loc 1 259 4 is_stmt 1
	.loc 1 266 3
	.loc 1 266 14 is_stmt 0
	call	uxTaskResetEventItemValue
.LVL151:
	.loc 1 268 18
	li	a5,33554432
	and	a5,a0,a5
	.loc 1 266 14
	mv	s1,a0
.LVL152:
	.loc 1 268 3 is_stmt 1
	.loc 1 268 5 is_stmt 0
	beq	a5,zero,.L125
.LVL153:
.L115:
	.loc 1 295 3 is_stmt 1
	.loc 1 299 3
	.loc 1 299 12 is_stmt 0
	slli	s1,s1,8
.LVL154:
	srli	s1,s1,8
.LVL155:
	.loc 1 302 2 is_stmt 1
	.loc 1 305 2
	.loc 1 307 2
	.loc 1 307 9 is_stmt 0
	j	.L100
.LVL156:
.L123:
	.loc 1 199 38 is_stmt 1 discriminator 1
	li	a0,2
.LVL157:
	call	vEnvironmentCall
.LVL158:
	.loc 1 202 3 discriminator 1
	.loc 1 202 14 is_stmt 0 discriminator 1
	call	xTaskGetSchedulerState
.LVL159:
	.loc 1 202 9 discriminator 1
	beq	a0,zero,.L126
.L118:
	.loc 1 206 2 is_stmt 1
	call	vTaskSuspendAll
.LVL160:
	.loc 1 208 3
	.loc 1 208 22 is_stmt 0
	lw	s1,0(s4)
.LVL161:
	.loc 1 210 3 is_stmt 1
	.loc 1 210 12 is_stmt 0
	mv	a1,s5
	mv	a0,s4
	call	xEventGroupSetBits
.LVL162:
	.loc 1 212 3 is_stmt 1
	.loc 1 212 30 is_stmt 0
	or	s1,s5,s1
.LVL163:
.L109:
	.loc 1 215 4 is_stmt 1
	.loc 1 219 4
	.loc 1 219 29 is_stmt 0
	lw	a5,0(s4)
	.loc 1 219 32
	not	s3,s3
.LVL164:
	.loc 1 219 29
	and	s3,a5,s3
.LVL165:
	sw	s3,0(s4)
	.loc 1 221 4 is_stmt 1
.LVL166:
	.loc 1 249 2
	.loc 1 249 20 is_stmt 0
	call	xTaskResumeAll
.LVL167:
	.loc 1 251 2 is_stmt 1
	j	.L100
.LVL168:
.L122:
	.loc 1 198 57 discriminator 1
	li	a0,2
.LVL169:
	call	vEnvironmentCall
.LVL170:
	.loc 1 199 2 discriminator 1
	.loc 1 202 3 discriminator 1
	.loc 1 202 14 is_stmt 0 discriminator 1
	call	xTaskGetSchedulerState
.LVL171:
	.loc 1 202 9 discriminator 1
	bne	a0,zero,.L107
	j	.L127
.L126:
	.loc 1 202 9
	beq	s2,zero,.L118
.L106:
	.loc 1 202 101 is_stmt 1
	li	a0,2
	call	vEnvironmentCall
.LVL172:
	.loc 1 206 2
	call	vTaskSuspendAll
.LVL173:
	.loc 1 208 3
	.loc 1 208 22 is_stmt 0
	lw	a5,0(s4)
.LVL174:
	.loc 1 210 3 is_stmt 1
	.loc 1 210 12 is_stmt 0
	mv	a1,s5
	mv	a0,s4
	.loc 1 212 30
	or	s1,s5,a5
	.loc 1 210 12
	call	xEventGroupSetBits
.LVL175:
	.loc 1 212 3 is_stmt 1
	.loc 1 212 46 is_stmt 0
	and	a5,s3,s1
	.loc 1 212 5
	bne	s3,a5,.L114
	j	.L109
.LVL176:
.L125:
	.loc 1 271 4 is_stmt 1
	call	vTaskEnterCritical
.LVL177:
	.loc 1 273 5
	.loc 1 273 14 is_stmt 0
	lw	s1,0(s4)
.LVL178:
	.loc 1 279 5 is_stmt 1
	.loc 1 279 20 is_stmt 0
	and	a5,s3,s1
	.loc 1 279 7
	bne	a5,s3,.L116
	.loc 1 281 6 is_stmt 1
	.loc 1 281 34 is_stmt 0
	not	s3,s3
.LVL179:
	.loc 1 281 31
	and	s3,s3,s1
.LVL180:
	sw	s3,0(s4)
.L116:
	.loc 1 285 6 is_stmt 1
	.loc 1 288 4
	call	vTaskExitCritical
.LVL181:
	.loc 1 290 4
	j	.L115
.LVL182:
.L124:
	.loc 1 255 4
	li	a0,1
.LVL183:
	call	vEnvironmentCall
.LVL184:
	j	.L111
	.cfi_endproc
.LFE2:
	.size	xEventGroupSync, .-xEventGroupSync
	.section	.text.vEventGroupSetBitsCallback,"ax",@progbits
	.align	1
	.globl	vEventGroupSetBitsCallback
	.type	vEventGroupSetBitsCallback, @function
vEventGroupSetBitsCallback:
.LFB9:
	.loc 1 658 1
	.cfi_startproc
.LVL185:
	.loc 1 659 2
	.loc 1 658 1 is_stmt 0
	addi	sp,sp,-16
	.cfi_def_cfa_offset 16
	sw	s0,12(sp)
	.cfi_offset 8, -4
	addi	s0,sp,16
	.cfi_def_cfa 8, 0
	.loc 1 660 1
	lw	s0,12(sp)
	.cfi_restore 8
	.cfi_def_cfa 2, 16
	addi	sp,sp,16
	.cfi_def_cfa_offset 0
	.loc 1 659 11
	tail	xEventGroupSetBits
.LVL186:
	.cfi_endproc
.LFE9:
	.size	vEventGroupSetBitsCallback, .-vEventGroupSetBitsCallback
	.section	.text.vEventGroupDelete,"ax",@progbits
	.align	1
	.globl	vEventGroupDelete
	.type	vEventGroupDelete, @function
vEventGroupDelete:
.LFB8:
	.loc 1 614 1 is_stmt 1
	.cfi_startproc
.LVL187:
	.loc 1 615 1
	.loc 1 614 1 is_stmt 0
	addi	sp,sp,-16
	.cfi_def_cfa_offset 16
	sw	s0,8(sp)
	sw	s1,4(sp)
	sw	s2,0(sp)
	sw	ra,12(sp)
	.cfi_offset 8, -8
	.cfi_offset 9, -12
	.cfi_offset 18, -16
	.cfi_offset 1, -4
	addi	s0,sp,16
	.cfi_def_cfa 8, 0
	.loc 1 614 1
	mv	s1,a0
.LVL188:
	.loc 1 616 1 is_stmt 1
	.loc 1 618 2
	call	vTaskSuspendAll
.LVL189:
	.loc 1 620 3
	.loc 1 622 3
	.loc 1 622 8
	.loc 1 622 37 is_stmt 0
	lw	a5,4(s1)
	addi	s2,s1,12
	.loc 1 622 8
	bne	a5,zero,.L135
	j	.L136
.L134:
	.loc 1 627 4 is_stmt 1
	li	a1,33554432
	call	vTaskRemoveFromUnorderedEventList
.LVL190:
	.loc 1 622 8
	.loc 1 622 37 is_stmt 0
	lw	a5,4(s1)
	.loc 1 622 8
	beq	a5,zero,.L136
.L135:
	.loc 1 626 4 is_stmt 1
	.loc 1 626 41 is_stmt 0
	lw	a0,16(s1)
	.loc 1 626 6
	bne	a0,s2,.L134
	.loc 1 626 121 is_stmt 1 discriminator 1
	li	a0,2
	call	vEnvironmentCall
.LVL191:
	.loc 1 627 70 is_stmt 0 discriminator 1
	lw	a0,16(s1)
	.loc 1 627 4 is_stmt 1 discriminator 1
	li	a1,33554432
	call	vTaskRemoveFromUnorderedEventList
.LVL192:
	.loc 1 622 8 discriminator 1
	.loc 1 622 37 is_stmt 0 discriminator 1
	lw	a5,4(s1)
	.loc 1 622 8 discriminator 1
	bne	a5,zero,.L135
.L136:
	.loc 1 640 4 is_stmt 1
	.loc 1 640 6 is_stmt 0
	lbu	a5,28(s1)
	beq	a5,zero,.L141
	.loc 1 646 5 is_stmt 1
	.loc 1 651 2
	.loc 1 652 1 is_stmt 0
	lw	s0,8(sp)
	.cfi_remember_state
	.cfi_restore 8
	.cfi_def_cfa 2, 16
	lw	ra,12(sp)
	.cfi_restore 1
	lw	s1,4(sp)
	.cfi_restore 9
.LVL193:
	lw	s2,0(sp)
	.cfi_restore 18
.LVL194:
	addi	sp,sp,16
	.cfi_def_cfa_offset 0
	.loc 1 651 11
	tail	xTaskResumeAll
.LVL195:
.L141:
	.cfi_restore_state
	.loc 1 642 5 is_stmt 1
	mv	a0,s1
	call	vPortFree
.LVL196:
	.loc 1 646 5
	.loc 1 651 2
	.loc 1 652 1 is_stmt 0
	lw	s0,8(sp)
	.cfi_restore 8
	.cfi_def_cfa 2, 16
	lw	ra,12(sp)
	.cfi_restore 1
	lw	s1,4(sp)
	.cfi_restore 9
.LVL197:
	lw	s2,0(sp)
	.cfi_restore 18
.LVL198:
	addi	sp,sp,16
	.cfi_def_cfa_offset 0
	.loc 1 651 11
	tail	xTaskResumeAll
.LVL199:
	.cfi_endproc
.LFE8:
	.size	vEventGroupDelete, .-vEventGroupDelete
	.section	.text.xEventGroupSetBitsFromISR,"ax",@progbits
	.align	1
	.globl	xEventGroupSetBitsFromISR
	.type	xEventGroupSetBitsFromISR, @function
xEventGroupSetBitsFromISR:
.LFB12:
	.loc 1 709 2 is_stmt 1
	.cfi_startproc
.LVL200:
	.loc 1 710 2
	.loc 1 712 3
	.loc 1 713 3
	.loc 1 709 2 is_stmt 0
	addi	sp,sp,-16
	.cfi_def_cfa_offset 16
	sw	s0,12(sp)
	.cfi_offset 8, -4
	addi	s0,sp,16
	.cfi_def_cfa 8, 0
	.loc 1 716 2
	lw	s0,12(sp)
	.cfi_restore 8
	.cfi_def_cfa 2, 16
	.loc 1 709 2
	mv	a3,a2
	.loc 1 713 13
	mv	a2,a1
.LVL201:
	mv	a1,a0
.LVL202:
	lui	a0,%hi(vEventGroupSetBitsCallback)
.LVL203:
	.loc 1 716 2
	.loc 1 713 13
	addi	a0,a0,%lo(vEventGroupSetBitsCallback)
	.loc 1 716 2
	addi	sp,sp,16
	.cfi_def_cfa_offset 0
	.loc 1 713 13
	tail	xTimerPendFunctionCallFromISR
.LVL204:
	.cfi_endproc
.LFE12:
	.size	xEventGroupSetBitsFromISR, .-xEventGroupSetBitsFromISR
	.section	.text.uxEventGroupGetNumber,"ax",@progbits
	.align	1
	.globl	uxEventGroupGetNumber
	.type	uxEventGroupGetNumber, @function
uxEventGroupGetNumber:
.LFB13:
	.loc 1 724 2 is_stmt 1
	.cfi_startproc
.LVL205:
	.loc 1 725 2
	.loc 1 726 2
	.loc 1 728 3
	.loc 1 724 2 is_stmt 0
	addi	sp,sp,-16
	.cfi_def_cfa_offset 16
	sw	s0,12(sp)
	.cfi_offset 8, -4
	addi	s0,sp,16
	.cfi_def_cfa 8, 0
	.loc 1 728 5
	beq	a0,zero,.L146
	.loc 1 734 4 is_stmt 1
	.loc 1 738 2 is_stmt 0
	lw	s0,12(sp)
	.cfi_remember_state
	.cfi_restore 8
	.cfi_def_cfa 2, 16
	.loc 1 734 12
	lw	a0,24(a0)
.LVL206:
	.loc 1 738 2
	addi	sp,sp,16
	.cfi_def_cfa_offset 0
	jr	ra
.LVL207:
.L146:
	.cfi_restore_state
	lw	s0,12(sp)
	.cfi_restore 8
	.cfi_def_cfa 2, 16
	.loc 1 730 12
	li	a0,0
.LVL208:
	.loc 1 737 3 is_stmt 1
	.loc 1 738 2 is_stmt 0
	addi	sp,sp,16
	.cfi_def_cfa_offset 0
	jr	ra
	.cfi_endproc
.LFE13:
	.size	uxEventGroupGetNumber, .-uxEventGroupGetNumber
	.section	.text.vEventGroupSetNumber,"ax",@progbits
	.align	1
	.globl	vEventGroupSetNumber
	.type	vEventGroupSetNumber, @function
vEventGroupSetNumber:
.LFB14:
	.loc 1 746 2 is_stmt 1
	.cfi_startproc
.LVL209:
	.loc 1 747 3
	.loc 1 746 2 is_stmt 0
	addi	sp,sp,-16
	.cfi_def_cfa_offset 16
	sw	s0,12(sp)
	.cfi_offset 8, -4
	addi	s0,sp,16
	.cfi_def_cfa 8, 0
	.loc 1 747 58
	sw	a1,24(a0)
	.loc 1 748 2
	lw	s0,12(sp)
	.cfi_restore 8
	.cfi_def_cfa 2, 16
	addi	sp,sp,16
	.cfi_def_cfa_offset 0
	jr	ra
	.cfi_endproc
.LFE14:
	.size	vEventGroupSetNumber, .-vEventGroupSetNumber
	.text
.Letext0:
	.file 2 "/home/quanghaictu/intern/Ai-Thinker-WB2/toolchain/riscv/Linux/lib/gcc/riscv64-unknown-elf/10.2.0/include/stddef.h"
	.file 3 "/home/quanghaictu/intern/Ai-Thinker-WB2/toolchain/riscv/Linux/lib/gcc/riscv64-unknown-elf/10.2.0/include/stdint-gcc.h"
	.file 4 "/home/quanghaictu/intern/Ai-Thinker-WB2/components/platform/soc/bl602/freertos_riscv_ram/portable/GCC/RISC-V/portmacro.h"
	.file 5 "/home/quanghaictu/intern/Ai-Thinker-WB2/components/platform/soc/bl602/freertos_riscv_ram/config/FreeRTOS.h"
	.file 6 "/home/quanghaictu/intern/Ai-Thinker-WB2/components/platform/soc/bl602/freertos_riscv_ram/config/list.h"
	.file 7 "/home/quanghaictu/intern/Ai-Thinker-WB2/components/platform/soc/bl602/freertos_riscv_ram/config/event_groups.h"
	.file 8 "/home/quanghaictu/intern/Ai-Thinker-WB2/components/platform/soc/bl602/freertos_riscv_ram/config/timers.h"
	.file 9 "/home/quanghaictu/intern/Ai-Thinker-WB2/components/platform/soc/bl602/freertos_riscv_ram/config/task.h"
	.file 10 "/home/quanghaictu/intern/Ai-Thinker-WB2/components/platform/soc/bl602/freertos_riscv_ram/config/portable.h"